BL51 BANKED LINKER/LOCATER V6.05                                                        12/21/2011  16:08:57  PAGE 1


BL51 BANKED LINKER/LOCATER V6.05, INVOKED BY:
C:\KEIL\C51\BIN\BL51.EXE GT23.obj, IAP.obj, Key.obj, lcd.obj, main.obj, SingleBus.obj, SPI.obj, Usart.obj, PCT25VF.obj, 
>> .\OS_CORE.obj, .\OS_MEM.obj, .\OS_Q.obj, .\OS_SEM.obj, .\OS_CPU_C.obj, .\OS_CPU_A.obj TO CTFJ-SB-(TS7017) RAMSIZE (25
>> 6)


MEMORY MODEL: LARGE


INPUT MODULES INCLUDED:
  GT23.obj (GT23)
  IAP.obj (IAP)
  Key.obj (KEY)
  lcd.obj (LCD)
  main.obj (MAIN)
  SingleBus.obj (SINGLEBUS)
  SPI.obj (SPI)
  Usart.obj (USART)
  PCT25VF.obj (PCT25VF)
  .\OS_CORE.obj (OS_CORE)
  .\OS_MEM.obj (OS_MEM)
  .\OS_Q.obj (OS_Q)
  .\OS_SEM.obj (OS_SEM)
  .\OS_CPU_C.obj (OS_CPU_C)
  .\OS_CPU_A.obj (OS_CPU_A_ASM)
  C:\KEIL\C51\LIB\C51L.LIB (?C_STARTUP)
  C:\KEIL\C51\LIB\C51L.LIB (?C?COPY)
  C:\KEIL\C51\LIB\C51L.LIB (?C?CLDPTR)
  C:\KEIL\C51\LIB\C51L.LIB (?C?CLDOPTR)
  C:\KEIL\C51\LIB\C51L.LIB (?C?CSTPTR)
  C:\KEIL\C51\LIB\C51L.LIB (?C?CSTOPTR)
  C:\KEIL\C51\LIB\C51L.LIB (?C?IMUL)
  C:\KEIL\C51\LIB\C51L.LIB (?C?UIDIV)
  C:\KEIL\C51\LIB\C51L.LIB (?C?IILDX)
  C:\KEIL\C51\LIB\C51L.LIB (?C?ILDIX)
  C:\KEIL\C51\LIB\C51L.LIB (?C?ILDOPTR)
  C:\KEIL\C51\LIB\C51L.LIB (?C?LMUL)
  C:\KEIL\C51\LIB\C51L.LIB (?C?ULDIV)
  C:\KEIL\C51\LIB\C51L.LIB (?C?ULCMP)
  C:\KEIL\C51\LIB\C51L.LIB (?C?ULSHR)
  C:\KEIL\C51\LIB\C51L.LIB (?C?LSHL)
  C:\KEIL\C51\LIB\C51L.LIB (?C?LSTXDATA)
  C:\KEIL\C51\LIB\C51L.LIB (?C?LSTKXDATA)
  C:\KEIL\C51\LIB\C51L.LIB (?C?CCASE)
  C:\KEIL\C51\LIB\C51L.LIB (?C?MEMSET)
  C:\KEIL\C51\LIB\C51L.LIB (?C_INIT)


LINK MAP OF MODULE:  CTFJ-SB-(TS7017) (GT23)


            TYPE    BASE      LENGTH    RELOCATION   SEGMENT NAME
            -----------------------------------------------------

            * * * * * * *   D A T A   M E M O R Y   * * * * * * *
            REG     0000H     0008H     ABSOLUTE     "REG BANK 0"
            DATA    0008H     000BH     UNIT         ?DT?OS_CORE
            DATA    0013H     0008H     UNIT         ?DT?OS_CPU_C
BL51 BANKED LINKER/LOCATER V6.05                                                      12/21/2011  16:08:57  PAGE 2


            DATA    001BH     0001H     UNIT         ?DT?MAIN
                    001CH     0004H                  *** GAP ***
            DATA    0020H     0007H     BIT_ADDR     ?BA?SINGLEBUS
            BIT     0027H.0   0000H.2   UNIT         ?BI?USART
            BIT     0027H.2   0000H.1   UNIT         ?BI?LCD
            BIT     0027H.3   0000H.1   UNIT         ?BI?MAIN
            BIT     0027H.4   0000H.1   UNIT         ?BI?SINGLEBUS
                    0027H.5   0000H.3                *** GAP ***
            DATA    0028H     003CH     UNIT         ?DT?SINGLEBUS
            IDATA   0064H     0010H     UNIT         ?ID?MAIN
            IDATA   0074H     0002H     UNIT         ?STACK

            * * * * * * *  X D A T A   M E M O R Y  * * * * * * *
            XDATA   0000H     011BH     UNIT         ?XD?USART
            XDATA   011BH     00A6H     UNIT         ?XD?LCD
            XDATA   01C1H     0089H     UNIT         ?XD?GT23
            XDATA   024AH     0037H     UNIT         ?XD?MAIN
            XDATA   0281H     0032H     UNIT         _XDATA_GROUP_
            XDATA   02B3H     0014H     UNIT         ?XD?PCT25VF
            XDATA   02C7H     0012H     UNIT         ?XD?_LCD_FANGDA_DIS_TEXT?LCD
            XDATA   02D9H     000FH     UNIT         ?XD?_HIGHSPEED_READ_CONT?PCT25VF
            XDATA   02E8H     0008H     UNIT         ?XD?_DISPLAYDIGIT?LCD
            XDATA   02F0H     0008H     UNIT         ?XD?_DISPLAYASCII?LCD
            XDATA   02F8H     0008H     UNIT         ?XD?_GETPSKCRC?USART
            XDATA   0300H     0006H     UNIT         ?XD?_LCD_FILL?LCD
            XDATA   0306H     0006H     UNIT         ?XD?_AUTO_ADD_INCA?PCT25VF
            XDATA   030CH     0006H     UNIT         ?XD?_AUTO_ADD_INCA_EBSY?PCT25VF
            XDATA   0312H     0005H     UNIT         ?XD?_DISPLAY_HLINE?LCD
            XDATA   0317H     0005H     UNIT         ?XD?_DISPLAY_VLINE?LCD
            XDATA   031CH     0004H     UNIT         ?XD?_SEND_DATA?USART
            XDATA   0320H     0004H     UNIT         ?XD?JEDEC_ID_READ?PCT25VF
            XDATA   0324H     0004H     UNIT         ?XD?_READ?PCT25VF
            XDATA   0328H     0004H     UNIT         ?XD?_HIGHSPEED_READ?PCT25VF
            XDATA   032CH     0004H     UNIT         ?XD?_BLOCK_ERASE_32K?PCT25VF
            XDATA   0330H     0004H     UNIT         ?XD?_BLOCK_ERASE_64K?PCT25VF
            XDATA   0334H     0003H     UNIT         ?XD?KEY
            XDATA   0337H     0003H     UNIT         ?XD?POLL_SO?PCT25VF
            XDATA   033AH     0002H     UNIT         ?XD?_DISPLAY_DOT?LCD
            XDATA   033CH     0002H     UNIT         ?XD?SHOWMAINMENUFACE?LCD
            XDATA   033EH     0002H     UNIT         ?XD?SINGLEBUS
            XDATA   0340H     0002H     UNIT         ?XD?_READ_ID?PCT25VF
            XDATA   0342H     0002H     UNIT         ?XD?_AUTO_ADD_INCB?PCT25VF
            XDATA   0344H     0002H     UNIT         ?XD?_AUTO_ADD_INCB_EBSY?PCT25VF
            XDATA   0346H     0002H     UNIT         ?XD?WAIT_BUSY_AAI?PCT25VF
            XDATA   0348H     0002H     UNIT         ?XD?WREN_CHECK?PCT25VF
            XDATA   034AH     0002H     UNIT         ?XD?WREN_AAI_CHECK?PCT25VF
            XDATA   034CH     0001H     UNIT         ?XD?OS_CPU_C

            * * * * * * *   C O D E   M E M O R Y   * * * * * * *
            CODE    0000H     0003H     ABSOLUTE     
            CODE    0003H     0003H     ABSOLUTE     
            CODE    0006H     0005H     UNIT         ?CO?MAIN
            CODE    000BH     0003H     ABSOLUTE     
            CODE    000EH     0003H     UNIT         ?PR?EX0INT?MAIN
            CODE    0011H     0001H     UNIT         ?PR?SYSRESET?SINGLEBUS
            CODE    0012H     0001H     UNIT         ?PR?HOLD_LOW?PCT25VF
            CODE    0013H     0003H     ABSOLUTE     
BL51 BANKED LINKER/LOCATER V6.05                                                      12/21/2011  16:08:57  PAGE 3


            CODE    0016H     0003H     UNIT         ?PR?TIMER1INT?MAIN
            CODE    0019H     0001H     UNIT         ?PR?UNHOLD?PCT25VF
            CODE    001AH     0001H     UNIT         ?PR?WP_LOW?PCT25VF
            CODE    001BH     0003H     ABSOLUTE     
            CODE    001EH     0003H     UNIT         ?PR?ADCINT?MAIN
            CODE    0021H     0001H     UNIT         ?PR?UNWP?PCT25VF
                    0022H     0001H                  *** GAP ***
            CODE    0023H     0003H     ABSOLUTE     
            CODE    0026H     0003H     UNIT         ?PR?LVDINT?MAIN
                    0029H     0002H                  *** GAP ***
            CODE    002BH     0003H     ABSOLUTE     
            CODE    002EH     0003H     UNIT         ?PR?CE_HIGH?PCT25VF
                    0031H     0002H                  *** GAP ***
            CODE    0033H     0003H     ABSOLUTE     
                    0036H     0005H                  *** GAP ***
            CODE    003BH     0003H     ABSOLUTE     
                    003EH     0005H                  *** GAP ***
            CODE    0043H     0003H     ABSOLUTE     
                    0046H     0005H                  *** GAP ***
            CODE    004BH     0003H     ABSOLUTE     
            CODE    004EH     0627H     UNIT         ?PR?BUS0RECDEAL?SINGLEBUS
            CODE    0675H     0529H     UNIT         ?PR?_GET_GT23_DATA1?GT23
            CODE    0B9EH     04F7H     UNIT         ?PR?_GET_GT23_DATA?GT23
            CODE    1095H     041EH     UNIT         ?C?LIB_CODE
            CODE    14B3H     0334H     UNIT         ?PR?_DISPLAYSTRING?LCD
            CODE    17E7H     031AH     UNIT         ?PR?SHOWLANDINGFACE?LCD
            CODE    1B01H     0304H     UNIT         ?PR?USART0RECDEAL?USART
            CODE    1E05H     02F8H     UNIT         ?PR?TIMER0INT?SINGLEBUS
            CODE    20FDH     02B4H     UNIT         ?PR?SHOWMAINMENUFACE?LCD
            CODE    23B1H     023CH     UNIT         ?PR?SHOWPOWERUPFACE?LCD
            CODE    25EDH     01E5H     UNIT         ?PR?ST7735_INIT?LCD
            CODE    27D2H     01B9H     UNIT         ?PR?_SHOWFACE?LCD
            CODE    298BH     0176H     UNIT         ?PR?UART0?USART
            CODE    2B01H     0142H     UNIT         ?PR?_DISPLAYDIGITSTRING?LCD
            CODE    2C43H     0129H     UNIT         ?PR?_KEYDOWNDEAL?KEY
            CODE    2D6CH     0117H     UNIT         ?PR?_LCD_FANGDA_DIS_TEXT?LCD
            CODE    2E83H     0116H     UNIT         ?PR?TIMEROUTDEAL?SINGLEBUS
            CODE    2F99H     0114H     UNIT         ?PR?_DISPLAYASCIISTRING?LCD
            CODE    30ADH     00FEH     UNIT         ?PR?INIT?MAIN
            CODE    31ABH     00F8H     UNIT         ?PR?_DISPLAYCHINESESTRING?LCD
            CODE    32A3H     00E3H     UNIT         ?PR?_DISPLAY_CHINESE?LCD
            CODE    3386H     00DAH     UNIT         ?PR?_DISPLAY_ASCII?LCD
            CODE    3460H     00D9H     UNIT         ?PR?_ASCIIXDIRECTIONINCREASE?LCD
            CODE    3539H     00D9H     UNIT         ?PR?_CHINESEXDIRECTIONINCREASE?LCD
            CODE    3612H     00BEH     UNIT         ?PR?_READ_CONT?PCT25VF
            CODE    36D0H     00BCH     UNIT         ?PR?_HIGHSPEED_READ_CONT?PCT25VF
            CODE    378CH     00B5H     UNIT         ?CO?LCD
            CODE    3841H     00ACH     UNIT         ?PR?_DISPLAYBLOCK?LCD
            CODE    38EDH     00A6H     UNIT         ?PR?FRAM_TEST?PCT25VF
            CODE    3993H     0094H     UNIT         ?PR?_OSQPEND?OS_Q
            CODE    3A27H     008EH     UNIT         ?PR?SHOWCALLSUCCESS?LCD
            CODE    3AB5H     008CH     UNIT         ?PR?C_OSCTXSW?OS_CPU_A
            CODE    3B41H     008CH     UNIT         ?C_C51STARTUP
            CODE    3BCDH     0088H     UNIT         ?PR?_OSQPOST?OS_Q
            CODE    3C55H     0080H     UNIT         ?PR?_BUS0OUTPUTDATA?SINGLEBUS
            CODE    3CD5H     007DH     UNIT         ?PR?KEYMANAGER?KEY
            CODE    3D52H     007CH     UNIT         ?PR?_OSTASKSTKINIT?OS_CPU_A
BL51 BANKED LINKER/LOCATER V6.05                                                      12/21/2011  16:08:57  PAGE 4


            CODE    3DCEH     0077H     UNIT         ?PR?_CHECKPSK?USART
            CODE    3E45H     006FH     UNIT         ?PR?SAVEPARAMETER?SINGLEBUS
            CODE    3EB4H     0066H     UNIT         ?PR?_DISPLAYDIGIT?LCD
            CODE    3F1AH     0064H     UNIT         ?PR?_AAI_WRITE?PCT25VF
            CODE    3F7EH     0063H     UNIT         ?PR?_GETPSKCRC?USART
            CODE    3FE1H     005EH     UNIT         ?PR?_OSWAIT?OS_CORE
            CODE    403FH     005DH     UNIT         ?PR?_BYTE_PROGRAM?PCT25VF
            CODE    409CH     0058H     UNIT         ?PR?_AAI_WRITE1?PCT25VF
            CODE    40F4H     0055H     UNIT         ?PR?_DISPLAYASCII?LCD
            CODE    4149H     0053H     UNIT         ?PR?_AUTO_ADD_INCA_EBSY?PCT25VF
            CODE    419CH     004EH     UNIT         ?PR?MAINTASK?MAIN
            CODE    41EAH     004DH     UNIT         ?PR?_KEYUPDEAL?KEY
            CODE    4237H     004DH     UNIT         ?PR?_KEYALWAYSDEAL?KEY
            CODE    4284H     004CH     UNIT         ?PR?SHOWTALKFACE?LCD
            CODE    42D0H     004CH     UNIT         ?PR?SHOWBROADFACE?LCD
            CODE    431CH     004CH     UNIT         ?PR?READPARAMETER?SINGLEBUS
            CODE    4368H     004AH     UNIT         ?PR?_AUTO_ADD_INCA?PCT25VF
            CODE    43B2H     0049H     UNIT         ?PR?OSTICKISR?OS_CPU_C
            CODE    43FBH     0048H     UNIT         ?PR?USARTINIT?USART
            CODE    4443H     0048H     UNIT         ?PR?JEDEC_ID_READ?PCT25VF
            CODE    448BH     0048H     UNIT         ?PR?_HIGHSPEED_READ?PCT25VF
            CODE    44D3H     0048H     UNIT         ?PR?_SECTOR_ERASE?PCT25VF
            CODE    451BH     0047H     UNIT         ?PR?_SET_DISPLAY_AREA?LCD
            CODE    4562H     0043H     UNIT         ?PR?_STKDELA?OS_CPU_C
            CODE    45A5H     0042H     UNIT         ?PR?_LCD_FILL?LCD
            CODE    45E7H     0042H     UNIT         ?PR?_STKDELB?OS_CPU_C
            CODE    4629H     0041H     UNIT         ?PR?_DISPATCHMESSAGE?MAIN
            CODE    466AH     0041H     UNIT         ?PR?_ADDRCOMPARE?SINGLEBUS
            CODE    46ABH     003FH     UNIT         ?PR?_READ?PCT25VF
            CODE    46EAH     003DH     UNIT         ?PR?_BLOCK_ERASE_32K?PCT25VF
            CODE    4727H     003DH     UNIT         ?PR?_BLOCK_ERASE_64K?PCT25VF
            CODE    4764H     003CH     UNIT         ?PR?__OSTASKCREATE?OS_CORE
            CODE    47A0H     0039H     UNIT         ?C_INITSEG
            CODE    47D9H     0039H     UNIT         ?PR?_OSQCREATE?OS_Q
            CODE    4812H     0037H     UNIT         ?PR?INITPARAMETER?SINGLEBUS
            CODE    4849H     0035H     UNIT         ?PR?SINGLEBUSINIT?SINGLEBUS
            CODE    487EH     0034H     UNIT         ?PR?_LCD_CLEAR?LCD
            CODE    48B2H     0033H     UNIT         ?PR?LOADCTX?OS_CPU_A
            CODE    48E5H     0032H     UNIT         ?PR?_DIRADDRCOMPARE?SINGLEBUS
            CODE    4917H     0031H     UNIT         ?PR?BUS0SENDDEAL?SINGLEBUS
            CODE    4948H     002FH     UNIT         ?PR?OSINTCTXSW?OS_CPU_A
            CODE    4977H     002CH     UNIT         ?PR?_DISPLAY_VLINE?LCD
            CODE    49A3H     002CH     UNIT         ?PR?POLL_SO?PCT25VF
            CODE    49CFH     002CH     UNIT         ?PR?_AUTO_ADD_INCB_EBSY?PCT25VF
            CODE    49FBH     002BH     UNIT         ?PR?_BYTE_WRITE?PCT25VF
            CODE    4A26H     002AH     UNIT         ?PR?_READ_ID?PCT25VF
            CODE    4A50H     002AH     UNIT         ?PR?WREN_AAI_CHECK?PCT25VF
            CODE    4A7AH     0029H     UNIT         ?PR?KEYSCAN?KEY
            CODE    4AA3H     0029H     UNIT         ?PR?_DISPLAY_DOT?LCD
            CODE    4ACCH     0028H     UNIT         ?PR?_DISPLAY_HLINE?LCD
            CODE    4AF4H     0027H     UNIT         ?PR?WAIT_BUSY_AAI?PCT25VF
            CODE    4B1BH     0026H     UNIT         ?PR?GET_BYTE?PCT25VF
            CODE    4B41H     0026H     UNIT         ?PR?_OSTASKSTKDEL?OS_CPU_C
            CODE    4B67H     0024H     UNIT         ?PR?OSINTEXIT?OS_CORE
            CODE    4B8BH     0023H     UNIT         ?PR?SST25VF_INIT?PCT25VF
            CODE    4BAEH     0023H     UNIT         ?PR?_AUTO_ADD_INCB?PCT25VF
            CODE    4BD1H     0023H     UNIT         ?PR?WAIT_BUSY?PCT25VF
BL51 BANKED LINKER/LOCATER V6.05                                                      12/21/2011  16:08:57  PAGE 5


            CODE    4BF4H     0023H     UNIT         ?PR?_OSTIMEDLY?OS_CORE
            CODE    4C17H     0022H     UNIT         ?PR?USERTICKTIMER?MAIN
            CODE    4C39H     0021H     UNIT         ?PR?WREN_CHECK?PCT25VF
            CODE    4C5AH     0020H     UNIT         ?PR?_DELAYMS?LCD
            CODE    4C7AH     001FH     UNIT         ?PR?TIMEROUTMANAGER?SINGLEBUS
            CODE    4C99H     001FH     UNIT         ?PR?_BYTE_WRITE1?PCT25VF
            CODE    4CB8H     001FH     UNIT         ?PR?OSTIMETICK?OS_CORE
            CODE    4CD7H     001EH     UNIT         ?PR?_DELAY_NMS?PCT25VF
            CODE    4CF5H     001DH     UNIT         ?PR?BUS0MANAGE?SINGLEBUS
            CODE    4D12H     001CH     UNIT         ?PR?_SEND_ST7735_DATA?LCD
            CODE    4D2EH     001CH     UNIT         ?PR?_WRSR?PCT25VF
            CODE    4D4AH     001BH     UNIT         ?PR?UART1?USART
            CODE    4D65H     0019H     UNIT         ?PR?_DELAY_NUS?PCT25VF
            CODE    4D7EH     0019H     UNIT         ?PR?_OSTASKRESUME?OS_CORE
            CODE    4D97H     0018H     UNIT         ?PR?DISPMANAGER?LCD
            CODE    4DAFH     0018H     UNIT         ?PR?_OS_TASKSUSPEND?OS_CORE
            CODE    4DC7H     0018H     UNIT         ?PR?OSFINDNEXTRUNNINGTASK?OS_CORE
            CODE    4DDFH     0018H     UNIT         ?PR?_STKDELC?OS_CPU_C
            CODE    4DF7H     0016H     UNIT         ?PR?_IAPWRITEBYTE?IAP
            CODE    4E0DH     0014H     UNIT         ?PR?_IAPREADBYTE?IAP
            CODE    4E21H     0014H     UNIT         ?PR?OSSCHED?OS_CORE
            CODE    4E35H     0013H     UNIT         ?PR?_SEND_BYTE?PCT25VF
            CODE    4E48H     0012H     UNIT         ?PR?_IAPERASE?IAP
            CODE    4E5AH     0011H     UNIT         ?PR?_SEND_ST7735_COMMAND?LCD
            CODE    4E6BH     0011H     UNIT         ?PR?MAIN?MAIN
            CODE    4E7CH     0011H     UNIT         ?PR?READ_STATUS_REGISTER?PCT25VF
            CODE    4E8DH     0011H     UNIT         ?PR?OSINIT?OS_CORE
            CODE    4E9EH     0010H     UNIT         ?PR?OSCPUINIT?OS_CPU_C
            CODE    4EAEH     000FH     UNIT         ?PR?_SEND_DATA?USART
            CODE    4EBDH     000EH     UNIT         ?PR?BUS0RECINT?SINGLEBUS
            CODE    4ECBH     000EH     UNIT         ?PR?WREN?PCT25VF
            CODE    4ED9H     000DH     UNIT         ?PR?_SETLEDSTATE?KEY
            CODE    4EE6H     000DH     UNIT         ?PR?LED0FLASH?SINGLEBUS
            CODE    4EF3H     000DH     UNIT         ?PR?_SPI_WRITEBYTE?SPI
            CODE    4F00H     000DH     UNIT         ?PR?OSCTXSW?OS_CPU_A
            CODE    4F0DH     000CH     UNIT         ?PR?SPIINIT?SPI
            CODE    4F19H     000CH     UNIT         ?PR?_OSTASKSUSPEND?OS_CORE
            CODE    4F25H     000BH     UNIT         ?PR?_MAKECH0TIMEROUT?SINGLEBUS
            CODE    4F30H     000BH     UNIT         ?PR?EWSR?PCT25VF
            CODE    4F3BH     000BH     UNIT         ?PR?WRDI?PCT25VF
            CODE    4F46H     000BH     UNIT         ?PR?EBSY?PCT25VF
            CODE    4F51H     000BH     UNIT         ?PR?DBSY?PCT25VF
            CODE    4F5CH     000BH     UNIT         ?PR?CHIP_ERASE?PCT25VF
            CODE    4F67H     0009H     UNIT         ?PR?BL_SW_INIT?MAIN
            CODE    4F70H     0009H     UNIT         ?CO?OS_CORE
            CODE    4F79H     0008H     UNIT         ?PR?REC_GT23_DATA?GT23
            CODE    4F81H     0008H     UNIT         ?PR?DISABLEIAP?IAP
            CODE    4F89H     0007H     UNIT         ?PR?SHOWDIETFACE?LCD
            CODE    4F90H     0007H     UNIT         ?PR?SHOWPRESCRIPTIONFACE?LCD
            CODE    4F97H     0007H     UNIT         ?PR?SHOWPROMPTFACE?LCD
            CODE    4F9EH     0007H     UNIT         ?PR?_GETMESSAGE?MAIN
            CODE    4FA5H     0007H     UNIT         ?PR?SPIINT?SPI
            CODE    4FACH     0006H     UNIT         ?PR?_ENABLEIAP?IAP
            CODE    4FB2H     0006H     UNIT         ?PR?_SEND_DATA_BYTE?USART
            CODE    4FB8H     0006H     UNIT         ?PR?CE_LOW?PCT25VF


BL51 BANKED LINKER/LOCATER V6.05                                                      12/21/2011  16:08:57  PAGE 6



OVERLAY MAP OF MODULE:   CTFJ-SB-(TS7017) (GT23)


SEGMENT                                      XDATA_GROUP
  +--> CALLED SEGMENT                      START    LENGTH
----------------------------------------------------------
?PR?OSTICKISR?OS_CPU_C                     -----    -----
  +--> ?PR?USERTICKTIMER?MAIN
  +--> ?PR?OSTIMETICK?OS_CORE
  +--> ?PR?OSINTEXIT?OS_CORE

?PR?OSTIMETICK?OS_CORE                     -----    -----
  +--> ?CO?OS_CORE
  +--> ?PR?OSSCHED?OS_CORE

?PR?OSSCHED?OS_CORE                        -----    -----
  +--> ?PR?OSFINDNEXTRUNNINGTASK?OS_CORE
  +--> ?PR?OSCTXSW?OS_CPU_A

?PR?OSCTXSW?OS_CPU_A                       -----    -----
  +--> ?CO?OS_CORE
  +--> ?PR?C_OSCTXSW?OS_CPU_A

?PR?C_OSCTXSW?OS_CPU_A                     -----    -----
  +--> ?PR?LOADCTX?OS_CPU_A

?PR?LOADCTX?OS_CPU_A                       -----    -----
  +--> ?CO?OS_CORE

?PR?OSINTEXIT?OS_CORE                      -----    -----
  +--> ?PR?OSFINDNEXTRUNNINGTASK?OS_CORE
  +--> ?PR?OSINTCTXSW?OS_CPU_A

?PR?OSINTCTXSW?OS_CPU_A                    -----    -----
  +--> ?PR?OSCTXSW?OS_CPU_A
  +--> ?CO?OS_CORE
  +--> ?PR?C_OSCTXSW?OS_CPU_A

*** NEW ROOT ***************************************************

?C_C51STARTUP                              -----    -----
  +--> ?PR?MAIN?MAIN
  +--> ?C_INITSEG

?PR?MAIN?MAIN                              -----    -----
  +--> ?PR?OSINIT?OS_CORE
  +--> ?PR?MAINTASK?MAIN
  +--> ?PR?__OSTASKCREATE?OS_CORE

?PR?OSINIT?OS_CORE                         -----    -----
  +--> ?PR?OSCPUINIT?OS_CPU_C

?PR?MAINTASK?MAIN                          -----    -----
  +--> ?PR?INIT?MAIN
  +--> ?PR?_OSQCREATE?OS_Q
  +--> ?PR?BUS0MANAGE?SINGLEBUS
BL51 BANKED LINKER/LOCATER V6.05                                                      12/21/2011  16:08:57  PAGE 7


  +--> ?PR?__OSTASKCREATE?OS_CORE
  +--> ?PR?KEYMANAGER?KEY
  +--> ?PR?DISPMANAGER?LCD
  +--> ?PR?TIMEROUTMANAGER?SINGLEBUS
  +--> ?PR?_GETMESSAGE?MAIN
  +--> ?PR?_DISPATCHMESSAGE?MAIN
  +--> ?PR?USART0RECDEAL?USART

?PR?INIT?MAIN                              -----    -----
  +--> ?PR?USARTINIT?USART
  +--> ?PR?_DELAYMS?LCD
  +--> ?PR?INITPARAMETER?SINGLEBUS
  +--> ?PR?SINGLEBUSINIT?SINGLEBUS
  +--> ?PR?SPIINIT?SPI
  +--> ?PR?SST25VF_INIT?PCT25VF
  +--> ?PR?ST7735_INIT?LCD
  +--> ?PR?BL_SW_INIT?MAIN
  +--> ?PR?_SETLEDSTATE?KEY
  +--> ?PR?_MAKECH0TIMEROUT?SINGLEBUS
  +--> ?PR?_READ_CONT?PCT25VF
  +--> ?PR?SHOWPOWERUPFACE?LCD

?PR?_DELAYMS?LCD                           -----    -----
  +--> ?PR?_SEND_ST7735_COMMAND?LCD

?PR?INITPARAMETER?SINGLEBUS                -----    -----
  +--> ?PR?_ENABLEIAP?IAP
  +--> ?PR?_IAPREADBYTE?IAP
  +--> ?PR?READPARAMETER?SINGLEBUS
  +--> ?PR?SAVEPARAMETER?SINGLEBUS

?PR?READPARAMETER?SINGLEBUS                -----    -----
  +--> ?PR?_ENABLEIAP?IAP
  +--> ?PR?_IAPREADBYTE?IAP
  +--> ?PR?DISABLEIAP?IAP

?PR?SAVEPARAMETER?SINGLEBUS                -----    -----
  +--> ?PR?_ENABLEIAP?IAP
  +--> ?PR?_IAPERASE?IAP
  +--> ?PR?_IAPWRITEBYTE?IAP
  +--> ?PR?DISABLEIAP?IAP

?PR?SST25VF_INIT?PCT25VF                   -----    -----
  +--> ?PR?READ_STATUS_REGISTER?PCT25VF
  +--> ?PR?_SEND_DATA_BYTE?USART
  +--> ?PR?EWSR?PCT25VF
  +--> ?PR?_DELAYMS?LCD
  +--> ?PR?_WRSR?PCT25VF

?PR?READ_STATUS_REGISTER?PCT25VF           -----    -----
  +--> ?PR?CE_LOW?PCT25VF
  +--> ?PR?_SEND_BYTE?PCT25VF
  +--> ?PR?GET_BYTE?PCT25VF
  +--> ?PR?CE_HIGH?PCT25VF

?PR?_SEND_BYTE?PCT25VF                     -----    -----
  +--> ?PR?_SPI_WRITEBYTE?SPI
BL51 BANKED LINKER/LOCATER V6.05                                                      12/21/2011  16:08:57  PAGE 8



?PR?GET_BYTE?PCT25VF                       -----    -----
  +--> ?PR?_SPI_WRITEBYTE?SPI

?PR?_SEND_DATA_BYTE?USART                  0281H    0001H

?PR?EWSR?PCT25VF                           -----    -----
  +--> ?PR?CE_LOW?PCT25VF
  +--> ?PR?_SEND_BYTE?PCT25VF
  +--> ?PR?CE_HIGH?PCT25VF

?PR?_WRSR?PCT25VF                          0281H    0002H
  +--> ?PR?CE_LOW?PCT25VF
  +--> ?PR?_SEND_BYTE?PCT25VF
  +--> ?PR?CE_HIGH?PCT25VF

?PR?ST7735_INIT?LCD                        -----    -----
  +--> ?PR?_DELAYMS?LCD
  +--> ?PR?_SEND_ST7735_COMMAND?LCD
  +--> ?PR?_SEND_ST7735_DATA?LCD

?PR?_READ_CONT?PCT25VF                     028FH    000FH
  +--> ?PR?CE_LOW?PCT25VF
  +--> ?PR?_SEND_BYTE?PCT25VF
  +--> ?PR?GET_BYTE?PCT25VF
  +--> ?PR?CE_HIGH?PCT25VF

?PR?SHOWPOWERUPFACE?LCD                    0281H    0002H
  +--> ?PR?_LCD_CLEAR?LCD
  +--> ?CO?LCD
  +--> ?PR?_DISPLAYCHINESESTRING?LCD
  +--> ?PR?_DISPLAYASCIISTRING?LCD
  +--> ?CO?MAIN
  +--> ?PR?_DISPLAYDIGITSTRING?LCD

?PR?_LCD_CLEAR?LCD                         028FH    0002H
  +--> ?PR?_SET_DISPLAY_AREA?LCD
  +--> ?PR?_SEND_ST7735_COMMAND?LCD
  +--> ?PR?_SEND_ST7735_DATA?LCD

?PR?_SET_DISPLAY_AREA?LCD                  02ACH    0004H
  +--> ?PR?_SEND_ST7735_COMMAND?LCD
  +--> ?PR?_SEND_ST7735_DATA?LCD

?PR?_DISPLAYCHINESESTRING?LCD              028FH    0011H
  +--> ?PR?_GET_GT23_DATA1?GT23
  +--> ?PR?_DISPLAY_CHINESE?LCD
  +--> ?PR?_CHINESEXDIRECTIONINCREASE?LCD

?PR?_GET_GT23_DATA1?GT23                   02A0H    0013H
  +--> ?PR?_SPI_WRITEBYTE?SPI
  +--> ?PR?REC_GT23_DATA?GT23

?PR?REC_GT23_DATA?GT23                     -----    -----
  +--> ?PR?_SPI_WRITEBYTE?SPI

?PR?_DISPLAY_CHINESE?LCD                   02A0H    000CH
BL51 BANKED LINKER/LOCATER V6.05                                                      12/21/2011  16:08:57  PAGE 9


  +--> ?PR?_SET_DISPLAY_AREA?LCD
  +--> ?PR?_SEND_ST7735_COMMAND?LCD
  +--> ?PR?_SEND_ST7735_DATA?LCD

?PR?_CHINESEXDIRECTIONINCREASE?LCD         02A0H    0007H

?PR?_DISPLAYASCIISTRING?LCD                028AH    0011H
  +--> ?CO?LCD
  +--> ?PR?_GET_GT23_DATA?GT23
  +--> ?PR?_DISPLAY_ASCII?LCD
  +--> ?PR?_ASCIIXDIRECTIONINCREASE?LCD

?PR?_GET_GT23_DATA?GT23                    02A0H    0013H
  +--> ?PR?_SPI_WRITEBYTE?SPI
  +--> ?PR?REC_GT23_DATA?GT23

?PR?_DISPLAY_ASCII?LCD                     02A0H    000CH
  +--> ?PR?_SET_DISPLAY_AREA?LCD
  +--> ?PR?_SEND_ST7735_COMMAND?LCD
  +--> ?PR?_SEND_ST7735_DATA?LCD

?PR?_ASCIIXDIRECTIONINCREASE?LCD           02A0H    0007H

?PR?_DISPLAYDIGITSTRING?LCD                028AH    0011H
  +--> ?PR?_GET_GT23_DATA?GT23
  +--> ?PR?_DISPLAY_ASCII?LCD
  +--> ?PR?_ASCIIXDIRECTIONINCREASE?LCD

?PR?BUS0MANAGE?SINGLEBUS                   -----    -----
  +--> ?PR?_OSQPOST?OS_Q
  +--> ?PR?_OSWAIT?OS_CORE

?PR?_OSQPOST?OS_Q                          -----    -----
  +--> ?CO?OS_CORE
  +--> ?PR?_OSTASKRESUME?OS_CORE

?PR?_OSTASKRESUME?OS_CORE                  -----    -----
  +--> ?CO?OS_CORE
  +--> ?PR?OSSCHED?OS_CORE

?PR?_OSWAIT?OS_CORE                        -----    -----
  +--> ?PR?_OSTASKSUSPEND?OS_CORE
  +--> ?PR?_OSTIMEDLY?OS_CORE
  +--> ?PR?_OS_TASKSUSPEND?OS_CORE
  +--> ?PR?OSSCHED?OS_CORE

?PR?_OSTASKSUSPEND?OS_CORE                 -----    -----
  +--> ?PR?_OS_TASKSUSPEND?OS_CORE
  +--> ?PR?OSSCHED?OS_CORE

?PR?_OS_TASKSUSPEND?OS_CORE                -----    -----
  +--> ?CO?OS_CORE

?PR?_OSTIMEDLY?OS_CORE                     -----    -----
  +--> ?PR?_OS_TASKSUSPEND?OS_CORE
  +--> ?PR?OSSCHED?OS_CORE

BL51 BANKED LINKER/LOCATER V6.05                                                      12/21/2011  16:08:57  PAGE 10


?PR?__OSTASKCREATE?OS_CORE                 -----    -----
  +--> ?CO?OS_CORE
  +--> ?PR?_OSTASKSTKINIT?OS_CPU_A
  +--> ?PR?OSSCHED?OS_CORE

?PR?_OSTASKSTKINIT?OS_CPU_A                -----    -----
  +--> ?CO?OS_CORE

?PR?KEYMANAGER?KEY                         -----    -----
  +--> ?PR?_OSWAIT?OS_CORE
  +--> ?PR?KEYSCAN?KEY
  +--> ?PR?_OSQPOST?OS_Q

?PR?DISPMANAGER?LCD                        -----    -----
  +--> ?PR?_OSWAIT?OS_CORE
  +--> ?PR?SHOWLANDINGFACE?LCD

?PR?SHOWLANDINGFACE?LCD                    0286H    0004H
  +--> ?PR?_DISPLAYDIGITSTRING?LCD
  +--> ?CO?LCD
  +--> ?PR?_DISPLAYCHINESESTRING?LCD
  +--> ?PR?_DISPLAYASCIISTRING?LCD
  +--> ?PR?_DISPLAYBLOCK?LCD

?PR?_DISPLAYBLOCK?LCD                      028AH    0007H
  +--> ?PR?_SET_DISPLAY_AREA?LCD
  +--> ?PR?_SEND_ST7735_COMMAND?LCD
  +--> ?PR?_SEND_ST7735_DATA?LCD

?PR?TIMEROUTMANAGER?SINGLEBUS              -----    -----
  +--> ?PR?_OSWAIT?OS_CORE
  +--> ?PR?_OSQPOST?OS_Q

?PR?_GETMESSAGE?MAIN                       -----    -----
  +--> ?PR?_OSQPEND?OS_Q

?PR?_OSQPEND?OS_Q                          -----    -----
  +--> ?CO?OS_CORE
  +--> ?PR?_OS_TASKSUSPEND?OS_CORE
  +--> ?PR?OSSCHED?OS_CORE

?PR?_DISPATCHMESSAGE?MAIN                  0281H    0001H
  +--> ?PR?BUS0RECDEAL?SINGLEBUS
  +--> ?PR?BUS0SENDDEAL?SINGLEBUS
  +--> ?PR?_KEYDOWNDEAL?KEY
  +--> ?PR?_KEYALWAYSDEAL?KEY
  +--> ?PR?_KEYUPDEAL?KEY
  +--> ?PR?TIMEROUTDEAL?SINGLEBUS

?PR?BUS0RECDEAL?SINGLEBUS                  0282H    0004H
  +--> ?PR?_MAKECH0TIMEROUT?SINGLEBUS
  +--> ?PR?_BYTE_WRITE?PCT25VF
  +--> ?PR?_BYTE_WRITE1?PCT25VF
  +--> ?PR?SAVEPARAMETER?SINGLEBUS
  +--> ?PR?_SETLEDSTATE?KEY
  +--> ?PR?SHOWCALLSUCCESS?LCD
  +--> ?PR?SHOWTALKFACE?LCD
BL51 BANKED LINKER/LOCATER V6.05                                                      12/21/2011  16:08:57  PAGE 11


  +--> ?PR?SHOWLANDINGFACE?LCD
  +--> ?PR?_DISPLAYDIGITSTRING?LCD
  +--> ?PR?SHOWBROADFACE?LCD
  +--> ?PR?_DIRADDRCOMPARE?SINGLEBUS
  +--> ?PR?_ADDRCOMPARE?SINGLEBUS
  +--> ?PR?_BUS0OUTPUTDATA?SINGLEBUS

?PR?_BYTE_WRITE?PCT25VF                    0286H    0005H
  +--> ?PR?WREN?PCT25VF
  +--> ?PR?_SECTOR_ERASE?PCT25VF
  +--> ?PR?WAIT_BUSY?PCT25VF
  +--> ?PR?_BYTE_PROGRAM?PCT25VF

?PR?WREN?PCT25VF                           -----    -----
  +--> ?PR?CE_LOW?PCT25VF
  +--> ?PR?_SEND_BYTE?PCT25VF
  +--> ?PR?CE_HIGH?PCT25VF
  +--> ?PR?WAIT_BUSY?PCT25VF

?PR?WAIT_BUSY?PCT25VF                      028BH    0002H
  +--> ?PR?READ_STATUS_REGISTER?PCT25VF
  +--> ?PR?_DELAY_NUS?PCT25VF

?PR?_SECTOR_ERASE?PCT25VF                  028BH    0004H
  +--> ?PR?CE_LOW?PCT25VF
  +--> ?PR?_SEND_BYTE?PCT25VF
  +--> ?PR?CE_HIGH?PCT25VF

?PR?_BYTE_PROGRAM?PCT25VF                  028BH    0005H
  +--> ?PR?CE_LOW?PCT25VF
  +--> ?PR?_SEND_BYTE?PCT25VF
  +--> ?PR?CE_HIGH?PCT25VF

?PR?_BYTE_WRITE1?PCT25VF                   0286H    0005H
  +--> ?PR?WREN?PCT25VF
  +--> ?PR?_BYTE_PROGRAM?PCT25VF
  +--> ?PR?WAIT_BUSY?PCT25VF

?PR?SHOWCALLSUCCESS?LCD                    0286H    0002H
  +--> ?PR?_LCD_CLEAR?LCD
  +--> ?CO?LCD
  +--> ?PR?_DISPLAYCHINESESTRING?LCD

?PR?SHOWTALKFACE?LCD                       0286H    0002H
  +--> ?PR?_LCD_CLEAR?LCD
  +--> ?CO?LCD
  +--> ?PR?_DISPLAYCHINESESTRING?LCD

?PR?SHOWBROADFACE?LCD                      0286H    0002H
  +--> ?PR?_LCD_CLEAR?LCD
  +--> ?CO?LCD
  +--> ?PR?_DISPLAYCHINESESTRING?LCD

?PR?_BUS0OUTPUTDATA?SINGLEBUS              0286H    0004H

?PR?BUS0SENDDEAL?SINGLEBUS                 -----    -----
  +--> ?PR?_MAKECH0TIMEROUT?SINGLEBUS
BL51 BANKED LINKER/LOCATER V6.05                                                      12/21/2011  16:08:57  PAGE 12



?PR?_KEYDOWNDEAL?KEY                       0282H    0003H
  +--> ?PR?_SHOWFACE?LCD
  +--> ?PR?SHOWLANDINGFACE?LCD
  +--> ?PR?_BUS0OUTPUTDATA?SINGLEBUS

?PR?_SHOWFACE?LCD                          0285H    000AH
  +--> ?PR?_LCD_CLEAR?LCD
  +--> ?CO?LCD
  +--> ?PR?_DISPLAYCHINESESTRING?LCD
  +--> ?PR?_READ_CONT?PCT25VF
  +--> ?PR?_DISPLAYSTRING?LCD

?PR?_DISPLAYSTRING?LCD                     028FH    0011H
  +--> ?PR?_GET_GT23_DATA1?GT23
  +--> ?PR?_DISPLAY_CHINESE?LCD
  +--> ?PR?_CHINESEXDIRECTIONINCREASE?LCD
  +--> ?PR?_GET_GT23_DATA?GT23
  +--> ?PR?_DISPLAY_ASCII?LCD
  +--> ?PR?_ASCIIXDIRECTIONINCREASE?LCD

?PR?_KEYALWAYSDEAL?KEY                     -----    -----
  +--> ?PR?_BUS0OUTPUTDATA?SINGLEBUS

?PR?_KEYUPDEAL?KEY                         -----    -----
  +--> ?PR?_BUS0OUTPUTDATA?SINGLEBUS

?PR?TIMEROUTDEAL?SINGLEBUS                 0282H    0002H
  +--> ?PR?_BUS0OUTPUTDATA?SINGLEBUS
  +--> ?CO?LCD
  +--> ?PR?_DISPLAY_ASCII?LCD
  +--> ?PR?_DISPLAYBLOCK?LCD
  +--> ?PR?SHOWLANDINGFACE?LCD

?PR?USART0RECDEAL?USART                    0281H    0002H
  +--> ?PR?_CHECKPSK?USART
  +--> ?PR?_AAI_WRITE?PCT25VF
  +--> ?PR?_AAI_WRITE1?PCT25VF
  +--> ?PR?_SHOWFACE?LCD
  +--> ?PR?_BUS0OUTPUTDATA?SINGLEBUS

?PR?_CHECKPSK?USART                        0283H    0008H

?PR?_AAI_WRITE?PCT25VF                     0283H    0008H
  +--> ?PR?WREN?PCT25VF
  +--> ?PR?_SECTOR_ERASE?PCT25VF
  +--> ?PR?WAIT_BUSY?PCT25VF
  +--> ?PR?_BYTE_PROGRAM?PCT25VF

?PR?_AAI_WRITE1?PCT25VF                    0283H    0008H
  +--> ?PR?WREN?PCT25VF
  +--> ?PR?_BYTE_PROGRAM?PCT25VF
  +--> ?PR?WAIT_BUSY?PCT25VF

?C_INITSEG                                 -----    -----
  +--> ?CO?MAIN

BL51 BANKED LINKER/LOCATER V6.05                                                      12/21/2011  16:08:57  PAGE 13




SYMBOL TABLE OF MODULE:  CTFJ-SB-(TS7017) (GT23)

  VALUE           TYPE          NAME
  ----------------------------------

  -------         MODULE        GT23
  C:0000H         SYMBOL        _ICE_DUMMY_
  D:0080H         PUBLIC        P0
  D:0090H         PUBLIC        P1
  D:00A0H         PUBLIC        P2
  D:00B0H         PUBLIC        P3
  D:00C0H         PUBLIC        P4
  D:00C8H         PUBLIC        P5
  D:00A8H         PUBLIC        IE
  C:0675H         PUBLIC        _Get_GT23_Data1
  X:01C1H         PUBLIC        GT23_32Address
  D:00B8H         PUBLIC        IP
  D:00D8H         PUBLIC        CCON
  D:0098H         PUBLIC        SCON
  D:0088H         PUBLIC        TCON
  X:01C5H         PUBLIC        GT23_Rec_Length
  B:0090H.3       PUBLIC        GT23L_CS
  D:00E0H         PUBLIC        ACC
  C:4F79H         PUBLIC        Rec_GT23_Data
  X:01C6H         PUBLIC        GT23_Rec_Data
  X:0246H         PUBLIC        GT23_16HAddress
  C:0B9EH         PUBLIC        _Get_GT23_Data
  X:0248H         PUBLIC        GT23_16LAddress
  D:00D0H         PUBLIC        PSW
  D:00CFH         PUBLIC        SPDAT
  -------         PROC          REC_GT23_DATA
  C:4F79H         LINE#         57
  C:4F79H         LINE#         58
  C:4F79H         LINE#         59
  C:4F7EH         LINE#         60
  C:4F80H         LINE#         61
  -------         ENDPROC       REC_GT23_DATA
  -------         PROC          _GET_GT23_DATA
  X:02A0H         SYMBOL        highbyte
  X:02A1H         SYMBOL        lowbyte
  X:02A2H         SYMBOL        word_size
  -------         DO            
  X:02A3H         SYMBOL        address1
  X:02A7H         SYMBOL        address2
  X:02ABH         SYMBOL        address3
  X:02AFH         SYMBOL        address4
  -------         ENDDO         
  C:0B9EH         LINE#         94
  C:0BABH         LINE#         95
  C:0BABH         LINE#         97
  C:0BADH         LINE#         100
  C:0BCAH         LINE#         101
  C:0BCAH         LINE#         102
  C:0BD0H         LINE#         103
  C:0BD0H         LINE#         104
BL51 BANKED LINKER/LOCATER V6.05                                                      12/21/2011  16:08:57  PAGE 14


  C:0BE5H         LINE#         105
  C:0BECH         LINE#         106
  C:0BECH         LINE#         107
  C:0BECH         LINE#         108
  C:0BEFH         LINE#         109
  C:0BF7H         LINE#         110
  C:0BF7H         LINE#         111
  C:0C11H         LINE#         112
  C:0C1BH         LINE#         113
  C:0C1BH         LINE#         114
  C:0C1BH         LINE#         115
  C:0C1EH         LINE#         116
  C:0C29H         LINE#         117
  C:0C29H         LINE#         118
  C:0C43H         LINE#         119
  C:0C4DH         LINE#         120
  C:0C4DH         LINE#         121
  C:0C4DH         LINE#         122
  C:0C4DH         LINE#         123
  C:0C50H         LINE#         126
  C:0C71H         LINE#         127
  C:0C71H         LINE#         128
  C:0C77H         LINE#         129
  C:0C77H         LINE#         130
  C:0C91H         LINE#         131
  C:0CB8H         LINE#         132
  C:0CD5H         LINE#         133
  C:0CECH         LINE#         134
  C:0CEFH         LINE#         135
  C:0CF7H         LINE#         136
  C:0CF7H         LINE#         137
  C:0D11H         LINE#         138
  C:0D3BH         LINE#         139
  C:0D58H         LINE#         140
  C:0D6FH         LINE#         141
  C:0D72H         LINE#         142
  C:0D7DH         LINE#         143
  C:0D7DH         LINE#         144
  C:0D97H         LINE#         145
  C:0DC1H         LINE#         146
  C:0DDEH         LINE#         147
  C:0DFAH         LINE#         148
  C:0DFAH         LINE#         149
  C:0DFDH         LINE#         151
  C:0E1AH         LINE#         152
  C:0E1AH         LINE#         153
  C:0E20H         LINE#         154
  C:0E20H         LINE#         155
  C:0E42H         LINE#         156
  C:0E60H         LINE#         157
  C:0E63H         LINE#         158
  C:0E67H         LINE#         159
  C:0E67H         LINE#         160
  C:0E81H         LINE#         161
  C:0E9FH         LINE#         162
  C:0EA1H         LINE#         163
  C:0EA8H         LINE#         164
BL51 BANKED LINKER/LOCATER V6.05                                                      12/21/2011  16:08:57  PAGE 15


  C:0EA8H         LINE#         165
  C:0EC7H         LINE#         166
  C:0EE8H         LINE#         168
  C:0EE8H         LINE#         169
  C:0EE8H         LINE#         171
  C:0EFCH         LINE#         172
  C:0F1BH         LINE#         173
  C:0F31H         LINE#         174
  C:0F33H         LINE#         175
  C:0F38H         LINE#         176
  C:0F40H         LINE#         177
  C:0F48H         LINE#         178
  C:0F50H         LINE#         180
  C:0F70H         LINE#         181
  C:0F70H         LINE#         182
  C:0F75H         LINE#         183
  C:0F75H         LINE#         184
  C:0F7AH         LINE#         185
  C:0F98H         LINE#         186
  C:0F98H         LINE#         187
  C:0F9FH         LINE#         188
  C:0F9FH         LINE#         189
  C:0FA4H         LINE#         190
  C:0FC5H         LINE#         191
  C:0FC5H         LINE#         192
  C:0FD0H         LINE#         193
  C:0FD0H         LINE#         194
  C:0FD4H         LINE#         195
  C:0FF5H         LINE#         196
  C:0FF5H         LINE#         197
  C:0FF5H         LINE#         198
  C:1012H         LINE#         199
  C:1012H         LINE#         200
  C:1017H         LINE#         201
  C:1017H         LINE#         202
  C:101CH         LINE#         203
  C:103CH         LINE#         204
  C:103CH         LINE#         205
  C:1043H         LINE#         206
  C:1043H         LINE#         207
  C:1048H         LINE#         208
  C:1068H         LINE#         209
  C:1068H         LINE#         210
  C:106FH         LINE#         211
  C:106FH         LINE#         212
  C:1074H         LINE#         213
  C:1092H         LINE#         214
  C:1092H         LINE#         215
  C:1092H         LINE#         216
  C:1094H         LINE#         217
  -------         ENDPROC       _GET_GT23_DATA
  -------         PROC          _GET_GT23_DATA1
  D:0001H         SYMBOL        word
  X:02A0H         SYMBOL        word_size
  -------         DO            
  X:02A1H         SYMBOL        address1
  X:02A5H         SYMBOL        address2
BL51 BANKED LINKER/LOCATER V6.05                                                      12/21/2011  16:08:57  PAGE 16


  X:02A9H         SYMBOL        address3
  X:02ADH         SYMBOL        address4
  X:02B1H         SYMBOL        highbyte
  X:02B2H         SYMBOL        lowbyte
  -------         ENDDO         
  C:0675H         LINE#         231
  C:067AH         LINE#         232
  C:067AH         LINE#         235
  C:067CH         LINE#         237
  C:0684H         LINE#         238
  C:068BH         LINE#         239
  C:0692H         LINE#         240
  C:0698H         LINE#         241
  C:0698H         LINE#         242
  C:069EH         LINE#         243
  C:06A3H         LINE#         244
  C:06A3H         LINE#         246
  C:06C4H         LINE#         247
  C:06C4H         LINE#         248
  C:06CCH         LINE#         249
  C:06CCH         LINE#         250
  C:06E6H         LINE#         251
  C:06EDH         LINE#         252
  C:06EDH         LINE#         253
  C:06EDH         LINE#         254
  C:06F0H         LINE#         255
  C:06F8H         LINE#         256
  C:06F8H         LINE#         257
  C:0712H         LINE#         258
  C:071CH         LINE#         259
  C:071CH         LINE#         260
  C:071CH         LINE#         261
  C:071FH         LINE#         262
  C:072AH         LINE#         263
  C:072AH         LINE#         264
  C:0744H         LINE#         265
  C:074EH         LINE#         266
  C:074EH         LINE#         267
  C:074EH         LINE#         268
  C:074EH         LINE#         270
  C:0751H         LINE#         273
  C:0772H         LINE#         274
  C:0772H         LINE#         275
  C:077AH         LINE#         276
  C:077AH         LINE#         277
  C:0794H         LINE#         278
  C:07BBH         LINE#         279
  C:07D8H         LINE#         280
  C:07EFH         LINE#         281
  C:07F2H         LINE#         282
  C:07FAH         LINE#         283
  C:07FAH         LINE#         284
  C:0814H         LINE#         285
  C:083EH         LINE#         286
  C:085BH         LINE#         287
  C:0872H         LINE#         288
  C:0875H         LINE#         289
BL51 BANKED LINKER/LOCATER V6.05                                                      12/21/2011  16:08:57  PAGE 17


  C:0880H         LINE#         290
  C:0880H         LINE#         291
  C:089AH         LINE#         292
  C:08C4H         LINE#         293
  C:08E1H         LINE#         294
  C:08FDH         LINE#         295
  C:08FDH         LINE#         296
  C:0900H         LINE#         298
  C:091DH         LINE#         299
  C:091DH         LINE#         300
  C:0925H         LINE#         301
  C:0925H         LINE#         302
  C:0947H         LINE#         303
  C:0965H         LINE#         304
  C:0968H         LINE#         305
  C:096CH         LINE#         306
  C:096CH         LINE#         307
  C:0986H         LINE#         308
  C:09A4H         LINE#         309
  C:09A6H         LINE#         310
  C:09ADH         LINE#         311
  C:09ADH         LINE#         312
  C:09CCH         LINE#         313
  C:09EDH         LINE#         315
  C:09EDH         LINE#         316
  C:09EDH         LINE#         318
  C:0A01H         LINE#         319
  C:0A20H         LINE#         320
  C:0A36H         LINE#         321
  C:0A38H         LINE#         322
  C:0A3DH         LINE#         323
  C:0A45H         LINE#         324
  C:0A4DH         LINE#         325
  C:0A55H         LINE#         327
  C:0A75H         LINE#         328
  C:0A75H         LINE#         329
  C:0A7CH         LINE#         330
  C:0A7CH         LINE#         331
  C:0A81H         LINE#         332
  C:0A9FH         LINE#         333
  C:0A9FH         LINE#         334
  C:0AA6H         LINE#         335
  C:0AA6H         LINE#         336
  C:0AABH         LINE#         337
  C:0ACCH         LINE#         338
  C:0ACCH         LINE#         339
  C:0AD7H         LINE#         340
  C:0AD7H         LINE#         341
  C:0ADBH         LINE#         342
  C:0AFCH         LINE#         343
  C:0AFCH         LINE#         344
  C:0AFCH         LINE#         345
  C:0B19H         LINE#         346
  C:0B19H         LINE#         347
  C:0B20H         LINE#         348
  C:0B20H         LINE#         349
  C:0B25H         LINE#         350
BL51 BANKED LINKER/LOCATER V6.05                                                      12/21/2011  16:08:57  PAGE 18


  C:0B45H         LINE#         351
  C:0B45H         LINE#         352
  C:0B4CH         LINE#         353
  C:0B4CH         LINE#         354
  C:0B51H         LINE#         355
  C:0B71H         LINE#         356
  C:0B71H         LINE#         357
  C:0B78H         LINE#         358
  C:0B78H         LINE#         359
  C:0B7DH         LINE#         360
  C:0B9BH         LINE#         361
  C:0B9BH         LINE#         362
  C:0B9BH         LINE#         364
  C:0B9DH         LINE#         365
  -------         ENDPROC       _GET_GT23_DATA1
  -------         ENDMOD        GT23

  -------         MODULE        IAP
  C:0000H         SYMBOL        _ICE_DUMMY_
  D:0080H         PUBLIC        P0
  D:0090H         PUBLIC        P1
  D:00A0H         PUBLIC        P2
  D:00B0H         PUBLIC        P3
  D:00C0H         PUBLIC        P4
  D:00C8H         PUBLIC        P5
  D:00A8H         PUBLIC        IE
  C:4E48H         PUBLIC        _IapErase
  D:00C5H         PUBLIC        IAP_CMD
  C:4F81H         PUBLIC        DisableIAP
  D:00B8H         PUBLIC        IP
  D:00C3H         PUBLIC        IAP_ADDRH
  D:00D8H         PUBLIC        CCON
  D:00C4H         PUBLIC        IAP_ADDRL
  C:4FACH         PUBLIC        _EnableIAP
  C:4E0DH         PUBLIC        _IapReadByte
  D:0098H         PUBLIC        SCON
  D:0088H         PUBLIC        TCON
  C:4DF7H         PUBLIC        _IapWriteByte
  D:00C7H         PUBLIC        IAP_CONTR
  D:00E0H         PUBLIC        ACC
  D:00C2H         PUBLIC        IAP_DATA
  D:00C6H         PUBLIC        IAP_TRIG
  D:00D0H         PUBLIC        PSW
  -------         PROC          _ENABLEIAP
  D:0007H         SYMBOL        byCmd
  C:4FACH         LINE#         42
  C:4FACH         LINE#         43
  C:4FACH         LINE#         44
  C:4FAFH         LINE#         45
  C:4FB1H         LINE#         46
  -------         ENDPROC       _ENABLEIAP
  -------         PROC          DISABLEIAP
  C:4F81H         LINE#         62
  C:4F81H         LINE#         63
  C:4F81H         LINE#         64
  C:4F84H         LINE#         65
  C:4F86H         LINE#         66
BL51 BANKED LINKER/LOCATER V6.05                                                      12/21/2011  16:08:57  PAGE 19


  C:4F88H         LINE#         67
  -------         ENDPROC       DISABLEIAP
  -------         PROC          _IAPWRITEBYTE
  D:0002H         SYMBOL        uiAddr
  D:0005H         SYMBOL        byData
  C:4DF7H         LINE#         83
  C:4DFBH         LINE#         84
  C:4DFBH         LINE#         85
  C:4DFFH         LINE#         86
  C:4E02H         LINE#         87
  C:4E06H         LINE#         88
  C:4E09H         LINE#         89
  C:4E0CH         LINE#         90
  -------         ENDPROC       _IAPWRITEBYTE
  -------         PROC          _IAPREADBYTE
  D:0004H         SYMBOL        uiAddr
  C:4E0DH         LINE#         106
  C:4E11H         LINE#         107
  C:4E11H         LINE#         108
  C:4E14H         LINE#         109
  C:4E18H         LINE#         110
  C:4E1BH         LINE#         111
  C:4E1EH         LINE#         112
  C:4E20H         LINE#         113
  -------         ENDPROC       _IAPREADBYTE
  -------         PROC          _IAPERASE
  D:0004H         SYMBOL        uiAddr
  C:4E48H         LINE#         130
  C:4E4CH         LINE#         131
  C:4E4CH         LINE#         132
  C:4E4FH         LINE#         133
  C:4E53H         LINE#         134
  C:4E56H         LINE#         135
  C:4E59H         LINE#         136
  -------         ENDPROC       _IAPERASE
  -------         ENDMOD        IAP

  -------         MODULE        KEY
  C:0000H         SYMBOL        _ICE_DUMMY_
  D:0080H         PUBLIC        P0
  D:0090H         PUBLIC        P1
  D:00A0H         PUBLIC        P2
  D:00B0H         PUBLIC        P3
  X:0336H         PUBLIC        MainMenuSelect
  B:00A0H.3       PUBLIC        DOWN_KEY
  D:00C0H         PUBLIC        P4
  D:00C8H         PUBLIC        P5
  D:00A8H         PUBLIC        IE
  C:4237H         PUBLIC        _KeyAlwaysDeal
  B:00C8H.1       PUBLIC        BL_SW
  D:00B8H         PUBLIC        IP
  D:00D8H         PUBLIC        CCON
  B:00A0H.0       PUBLIC        ESC_KEY
  C:4A7AH         PUBLIC        KeyScan
  D:0098H         PUBLIC        SCON
  D:0088H         PUBLIC        TCON
  C:2C43H         PUBLIC        _KeyDownDeal
BL51 BANKED LINKER/LOCATER V6.05                                                      12/21/2011  16:08:57  PAGE 20


  D:00E0H         PUBLIC        ACC
  C:4ED9H         PUBLIC        _SetLedState
  B:00A0H.2       PUBLIC        ENTER_KEY
  B:00C8H.0       PUBLIC        LED
  B:00A0H.4       PUBLIC        CALL_KEY
  C:41EAH         PUBLIC        _KeyUpDeal
  C:3CD5H         PUBLIC        KeyManager
  B:00A0H.1       PUBLIC        UP_KEY
  D:00D0H         PUBLIC        PSW
  -------         PROC          _SETLEDSTATE
  D:0007H         SYMBOL        byState
  C:4ED9H         LINE#         44
  C:4ED9H         LINE#         45
  C:4ED9H         LINE#         46
  C:4EDEH         LINE#         47
  C:4EE0H         LINE#         48
  C:4EE5H         LINE#         49
  -------         ENDPROC       _SETLEDSTATE
  -------         PROC          KEYSCAN
  C:4A7AH         LINE#         68
  C:4A7AH         LINE#         69
  C:4A7AH         LINE#         70
  C:4A7DH         LINE#         71
  C:4A7DH         LINE#         72
  C:4A80H         LINE#         73
  C:4A80H         LINE#         76
  C:4A81H         LINE#         77
  C:4A82H         LINE#         78
  C:4A85H         LINE#         79
  C:4A85H         LINE#         81
  C:4A88H         LINE#         82
  C:4A88H         LINE#         84
  C:4A89H         LINE#         85
  C:4A8AH         LINE#         86
  C:4A8DH         LINE#         87
  C:4A8DH         LINE#         88
  C:4A90H         LINE#         89
  C:4A90H         LINE#         91
  C:4A91H         LINE#         92
  C:4A92H         LINE#         93
  C:4A95H         LINE#         94
  C:4A95H         LINE#         95
  C:4A98H         LINE#         96
  C:4A98H         LINE#         98
  C:4A99H         LINE#         99
  C:4A9AH         LINE#         100
  C:4A9DH         LINE#         101
  C:4A9DH         LINE#         102
  C:4AA0H         LINE#         103
  C:4AA0H         LINE#         105
  C:4AA2H         LINE#         106
  -------         ENDPROC       KEYSCAN
  -------         PROC          KEYMANAGER
  -------         DO            
  X:0334H         SYMBOL        byKeyValue
  X:0335H         SYMBOL        byKeyDelay
  C:3D44H         SYMBOL        KeyUp
BL51 BANKED LINKER/LOCATER V6.05                                                      12/21/2011  16:08:57  PAGE 21


  -------         ENDDO         
  C:3CD5H         LINE#         122
  C:3CD5H         LINE#         123
  C:3CD5H         LINE#         127
  C:3CD5H         LINE#         128
  C:3CD5H         LINE#         129
  C:3CDCH         LINE#         130
  C:3CE4H         LINE#         131
  C:3CE7H         LINE#         132
  C:3CE7H         LINE#         133
  C:3CE7H         LINE#         134
  C:3CE7H         LINE#         135
  C:3CEEH         LINE#         136
  C:3CF9H         LINE#         137
  C:3CF9H         LINE#         138
  C:3CF9H         LINE#         139
  C:3CF9H         LINE#         140
  C:3D02H         LINE#         142
  C:3D08H         LINE#         143
  C:3D12H         LINE#         144
  C:3D12H         LINE#         145
  C:3D1CH         LINE#         146
  C:3D1CH         LINE#         147
  C:3D23H         LINE#         148
  C:3D25H         LINE#         150
  C:3D25H         LINE#         151
  C:3D25H         LINE#         152
  C:3D25H         LINE#         153
  C:3D25H         LINE#         154
  C:3D31H         LINE#         155
  C:3D3BH         LINE#         156
  C:3D3BH         LINE#         157
  C:3D42H         LINE#         158
  C:3D44H         LINE#         159
  C:3D44H         LINE#         160
  C:3D50H         LINE#         161
  -------         ENDPROC       KEYMANAGER
  -------         PROC          _KEYDOWNDEAL
  X:0282H         SYMBOL        byKey
  -------         DO            
  X:0283H         SYMBOL        x
  X:0284H         SYMBOL        y
  -------         ENDDO         
  C:2C43H         LINE#         178
  C:2C48H         LINE#         179
  C:2C48H         LINE#         181
  C:2C4BH         LINE#         184
  C:2C54H         LINE#         185
  C:2C56H         LINE#         187
  C:2C5CH         LINE#         188
  C:2C5CH         LINE#         190
  C:2C5CH         LINE#         193
  C:2C79H         LINE#         194
  C:2C79H         LINE#         195
  C:2C79H         LINE#         197
  C:2C86H         LINE#         198
  C:2CA2H         LINE#         199
BL51 BANKED LINKER/LOCATER V6.05                                                      12/21/2011  16:08:57  PAGE 22


  C:2CA4H         LINE#         200
  C:2CA4H         LINE#         201
  C:2CA4H         LINE#         202
  C:2CA6H         LINE#         204
  C:2CA6H         LINE#         205
  C:2CB3H         LINE#         206
  C:2CCFH         LINE#         207
  C:2CD1H         LINE#         208
  C:2CD1H         LINE#         209
  C:2CD1H         LINE#         210
  C:2CD3H         LINE#         212
  C:2CD3H         LINE#         213
  C:2CE0H         LINE#         214
  C:2CFCH         LINE#         215
  C:2D01H         LINE#         216
  C:2D07H         LINE#         217
  C:2D11H         LINE#         218
  C:2D12H         LINE#         220
  C:2D12H         LINE#         221
  C:2D1AH         LINE#         222
  C:2D1AH         LINE#         223
  C:2D1FH         LINE#         224
  C:2D25H         LINE#         225
  C:2D28H         LINE#         226
  C:2D28H         LINE#         227
  C:2D28H         LINE#         229
  C:2D28H         LINE#         230
  C:2D30H         LINE#         231
  C:2D38H         LINE#         232
  C:2D40H         LINE#         233
  C:2D48H         LINE#         234
  C:2D50H         LINE#         235
  C:2D58H         LINE#         236
  C:2D62H         LINE#         237
  C:2D6BH         LINE#         238
  C:2D6BH         LINE#         240
  C:2D6BH         LINE#         241
  -------         ENDPROC       _KEYDOWNDEAL
  -------         PROC          _KEYUPDEAL
  D:0007H         SYMBOL        byKey
  C:41EAH         LINE#         257
  C:41EAH         LINE#         258
  C:41EAH         LINE#         259
  C:41EEH         LINE#         261
  C:41F1H         LINE#         262
  C:41F1H         LINE#         264
  C:41F1H         LINE#         266
  C:41F6H         LINE#         267
  C:41F6H         LINE#         268
  C:41F6H         LINE#         269
  C:41F6H         LINE#         270
  C:41F6H         LINE#         271
  C:41F6H         LINE#         272
  C:41F6H         LINE#         273
  C:41F6H         LINE#         274
  C:41FEH         LINE#         275
  C:4206H         LINE#         276
BL51 BANKED LINKER/LOCATER V6.05                                                      12/21/2011  16:08:57  PAGE 23


  C:420EH         LINE#         277
  C:4216H         LINE#         278
  C:421EH         LINE#         279
  C:4226H         LINE#         280
  C:422DH         LINE#         281
  C:4236H         LINE#         282
  C:4236H         LINE#         283
  C:4236H         LINE#         285
  -------         ENDPROC       _KEYUPDEAL
  -------         PROC          _KEYALWAYSDEAL
  D:0007H         SYMBOL        byKey
  C:4237H         LINE#         301
  C:4237H         LINE#         302
  C:4237H         LINE#         303
  C:423BH         LINE#         306
  C:423EH         LINE#         307
  C:423EH         LINE#         309
  C:423EH         LINE#         311
  C:4243H         LINE#         312
  C:4243H         LINE#         313
  C:4243H         LINE#         314
  C:4243H         LINE#         315
  C:4243H         LINE#         316
  C:4243H         LINE#         317
  C:4243H         LINE#         318
  C:4243H         LINE#         319
  C:424BH         LINE#         320
  C:4253H         LINE#         321
  C:425BH         LINE#         322
  C:4263H         LINE#         323
  C:426BH         LINE#         324
  C:4273H         LINE#         325
  C:427AH         LINE#         326
  C:4283H         LINE#         327
  C:4283H         LINE#         328
  C:4283H         LINE#         330
  -------         ENDPROC       _KEYALWAYSDEAL
  -------         ENDMOD        KEY

  -------         MODULE        LCD
  C:0000H         SYMBOL        _ICE_DUMMY_
  C:32A3H         PUBLIC        _Display_Chinese
  D:0080H         PUBLIC        P0
  C:3A27H         PUBLIC        ShowCallSuccess
  C:42D0H         PUBLIC        ShowBroadFace
  D:0090H         PUBLIC        P1
  B:0090H.1       PUBLIC        LCD_CS7
  D:00A0H         PUBLIC        P2
  D:00B0H         PUBLIC        P3
  D:00C0H         PUBLIC        P4
  D:00C8H         PUBLIC        P5
  C:4ACCH         PUBLIC        _Display_HLine
  D:00A8H         PUBLIC        IE
  C:4E5AH         PUBLIC        _Send_ST7735_Command
  C:27D2H         PUBLIC        _ShowFace
  X:011BH         PUBLIC        DispDataBuff
  X:01BBH         PUBLIC        ASCII_BCD
BL51 BANKED LINKER/LOCATER V6.05                                                      12/21/2011  16:08:57  PAGE 24


  D:00DAH         PUBLIC        CCAPM0
  B:00C8H.1       PUBLIC        BL_SW
  D:00B8H         PUBLIC        IP
  C:31CAH         PUBLIC        _DisplayChineseString
  C:4F97H         PUBLIC        ShowPromptFace
  C:3460H         PUBLIC        _ASCIIXDirectionIncrease
  C:4977H         PUBLIC        _Display_VLine
  C:4F89H         PUBLIC        ShowDietFace
  C:4F90H         PUBLIC        ShowPrescriptionFace
  C:4284H         PUBLIC        ShowTalkFace
  D:00D8H         PUBLIC        CCON
  C:3386H         PUBLIC        _Display_ASCII
  X:01BEH         PUBLIC        fontbuf1
  X:01BFH         PUBLIC        fontbuf2
  B:00C0H.4       PUBLIC        LCD_RST
  D:0098H         PUBLIC        SCON
  C:20FDH         PUBLIC        ShowMainMenuFace
  D:0088H         PUBLIC        TCON
  C:2FCEH         PUBLIC        _DisplayASCIIString
  C:3801H         PUBLIC        ColonCode16x32
  C:2D6CH         PUBLIC        _lcd_fangda_dis_text
  C:4525H         PUBLIC        _Set_Display_Area
  C:40F4H         PUBLIC        _DisplayASCII
  D:00E0H         PUBLIC        ACC
  C:4D1DH         PUBLIC        _Send_ST7735_Data
  C:3841H         PUBLIC        _DisplayBlock
  B:00B0H.7       PUBLIC        LCD_RD
  C:2B49H         PUBLIC        _DisplayDigitString
  C:3EB4H         PUBLIC        _DisplayDigit
  C:4D97H         PUBLIC        DispManager
  C:4C61H         PUBLIC        _Delayms
  C:14B3H         PUBLIC        _DisplayString
  C:17E7H         PUBLIC        ShowLandingFace
  B:0090H.0       PUBLIC        LCD_RS
  B:00B0H.6       PUBLIC        LCD_WR
  C:4882H         PUBLIC        _Lcd_Clear
  C:4AA3H         PUBLIC        _Display_Dot
  X:01C0H         PUBLIC        CurrentPage
  B:0027H.2       PUBLIC        bSecondDisState
  C:23B1H         PUBLIC        ShowPowerUpFace
  C:3539H         PUBLIC        _ChineseXDirectionIncrease
  C:25EDH         PUBLIC        ST7735_Init
  D:00D0H         PUBLIC        PSW
  C:45A5H         PUBLIC        _Lcd_Fill
  -------         PROC          L?0304
  -------         ENDPROC       L?0304
  -------         PROC          _DELAYMS
  D:0006H         SYMBOL        ms
  -------         DO            
  D:0004H         SYMBOL        i
  -------         ENDDO         
  C:4C61H         LINE#         41
  C:4C61H         LINE#         42
  C:4C61H         LINE#         44
  C:4C65H         LINE#         45
  C:4C79H         LINE#         46
  -------         ENDPROC       _DELAYMS
BL51 BANKED LINKER/LOCATER V6.05                                                      12/21/2011  16:08:57  PAGE 25


  -------         PROC          _SEND_ST7735_COMMAND
  D:0007H         SYMBOL        st7735_command
  C:4E5AH         LINE#         49
  C:4E5AH         LINE#         50
  C:4E5AH         LINE#         51
  C:4E5CH         LINE#         52
  C:4E5EH         LINE#         53
  C:4E60H         LINE#         54
  C:4E62H         LINE#         55
  C:4E64H         LINE#         56
  C:4E66H         LINE#         57
  C:4E68H         LINE#         58
  C:4E6AH         LINE#         59
  -------         ENDPROC       _SEND_ST7735_COMMAND
  C:4D12H         SYMBOL        L?0295
  C:4D15H         SYMBOL        L?0296
  -------         PROC          L?0294
  -------         ENDPROC       L?0294
  C:4D12H         SYMBOL        L?0295
  C:4D15H         SYMBOL        L?0296
  -------         PROC          _SEND_ST7735_DATA
  D:0007H         SYMBOL        st7735_data
  C:4D1DH         LINE#         60
  C:4D1DH         LINE#         61
  C:4D1DH         LINE#         62
  C:4D1FH         LINE#         63
  C:4D21H         LINE#         64
  C:4D23H         LINE#         65
  C:4D25H         LINE#         66
  C:4D27H         LINE#         67
  C:4D29H         LINE#         68
  C:4D2BH         LINE#         69
  C:4D2DH         LINE#         70
  -------         ENDPROC       _SEND_ST7735_DATA
  -------         PROC          ST7735_INIT
  C:25EDH         LINE#         71
  C:25EDH         LINE#         72
  C:25EDH         LINE#         73
  C:25EFH         LINE#         74
  C:25F6H         LINE#         75
  C:25F8H         LINE#         76
  C:25FFH         LINE#         77
  C:2601H         LINE#         78
  C:2608H         LINE#         79
  C:260AH         LINE#         80
  C:260DH         LINE#         81
  C:260FH         LINE#         82
  C:2612H         LINE#         83
  C:2617H         LINE#         84
  C:261CH         LINE#         85
  C:2621H         LINE#         86
  C:2626H         LINE#         87
  C:262BH         LINE#         88
  C:2630H         LINE#         89
  C:2635H         LINE#         90
  C:263AH         LINE#         91
  C:263FH         LINE#         92
BL51 BANKED LINKER/LOCATER V6.05                                                      12/21/2011  16:08:57  PAGE 26


  C:2644H         LINE#         93
  C:2649H         LINE#         94
  C:264EH         LINE#         95
  C:2653H         LINE#         96
  C:2658H         LINE#         97
  C:265DH         LINE#         98
  C:2662H         LINE#         99
  C:2667H         LINE#         100
  C:266CH         LINE#         101
  C:2671H         LINE#         102
  C:2676H         LINE#         103
  C:267BH         LINE#         104
  C:2680H         LINE#         105
  C:2685H         LINE#         106
  C:268AH         LINE#         107
  C:268FH         LINE#         108
  C:2694H         LINE#         109
  C:2699H         LINE#         110
  C:269EH         LINE#         111
  C:26A3H         LINE#         112
  C:26A8H         LINE#         113
  C:26ADH         LINE#         114
  C:26B2H         LINE#         115
  C:26B7H         LINE#         116
  C:26BCH         LINE#         117
  C:26C1H         LINE#         118
  C:26C6H         LINE#         119
  C:26CBH         LINE#         120
  C:26D0H         LINE#         121
  C:26D5H         LINE#         122
  C:26DAH         LINE#         123
  C:26DFH         LINE#         124
  C:26E4H         LINE#         125
  C:26E7H         LINE#         126
  C:26EAH         LINE#         127
  C:26EFH         LINE#         128
  C:26F4H         LINE#         129
  C:26F8H         LINE#         130
  C:26FBH         LINE#         131
  C:26FEH         LINE#         132
  C:2703H         LINE#         133
  C:2708H         LINE#         134
  C:270DH         LINE#         135
  C:2712H         LINE#         136
  C:2717H         LINE#         137
  C:271CH         LINE#         138
  C:2721H         LINE#         139
  C:2726H         LINE#         140
  C:272BH         LINE#         141
  C:2730H         LINE#         142
  C:2735H         LINE#         143
  C:273AH         LINE#         144
  C:273FH         LINE#         145
  C:2744H         LINE#         146
  C:2749H         LINE#         147
  C:274EH         LINE#         148
  C:2753H         LINE#         149
BL51 BANKED LINKER/LOCATER V6.05                                                      12/21/2011  16:08:57  PAGE 27


  C:2758H         LINE#         150
  C:275DH         LINE#         151
  C:2761H         LINE#         152
  C:2766H         LINE#         153
  C:276BH         LINE#         154
  C:2770H         LINE#         155
  C:2775H         LINE#         156
  C:277AH         LINE#         157
  C:277FH         LINE#         158
  C:2784H         LINE#         159
  C:2788H         LINE#         160
  C:278DH         LINE#         161
  C:2792H         LINE#         162
  C:2797H         LINE#         163
  C:279CH         LINE#         164
  C:27A1H         LINE#         165
  C:27A6H         LINE#         166
  C:27ABH         LINE#         167
  C:27B0H         LINE#         168
  C:27B3H         LINE#         169
  C:27B8H         LINE#         170
  C:27BDH         LINE#         171
  C:27C2H         LINE#         173
  C:27C7H         LINE#         174
  C:27CCH         LINE#         175
  -------         ENDPROC       ST7735_INIT
  C:4521H         SYMBOL        L?0301
  -------         PROC          L?0300
  -------         ENDPROC       L?0300
  C:4521H         SYMBOL        L?0301
  -------         PROC          _SET_DISPLAY_AREA
  D:0006H         SYMBOL        start_x
  D:0005H         SYMBOL        end_x
  D:0003H         SYMBOL        start_y
  X:02AFH         SYMBOL        end_y
  C:4525H         LINE#         187
  C:4527H         LINE#         188
  C:4527H         LINE#         189
  C:452CH         LINE#         190
  C:4531H         LINE#         191
  C:4538H         LINE#         192
  C:453DH         LINE#         193
  C:4544H         LINE#         194
  C:4549H         LINE#         195
  C:454EH         LINE#         196
  C:4554H         LINE#         197
  C:4559H         LINE#         198
  -------         ENDPROC       _SET_DISPLAY_AREA
  C:487EH         SYMBOL        L?0303
  -------         PROC          L?0302
  -------         ENDPROC       L?0302
  C:487EH         SYMBOL        L?0303
  -------         PROC          _LCD_CLEAR
  X:028FH         SYMBOL        color
  -------         DO            
  D:0005H         SYMBOL        i
  D:0004H         SYMBOL        j
BL51 BANKED LINKER/LOCATER V6.05                                                      12/21/2011  16:08:57  PAGE 28


  -------         ENDDO         
  C:4882H         LINE#         223
  C:488AH         LINE#         224
  C:488AH         LINE#         226
  C:4898H         LINE#         227
  C:489DH         LINE#         228
  C:489FH         LINE#         229
  C:489FH         LINE#         230
  C:48A1H         LINE#         231
  C:48A1H         LINE#         232
  C:48A4H         LINE#         233
  C:48A7H         LINE#         234
  C:48ACH         LINE#         235
  C:48B1H         LINE#         236
  -------         ENDPROC       _LCD_CLEAR
  -------         PROC          _LCD_FILL
  D:0001H         SYMBOL        start_x
  D:0006H         SYMBOL        start_y
  D:0002H         SYMBOL        width
  X:0303H         SYMBOL        height
  X:0304H         SYMBOL        color
  -------         DO            
  D:0005H         SYMBOL        i
  D:0004H         SYMBOL        j
  -------         ENDDO         
  C:45A5H         LINE#         247
  C:45ABH         LINE#         248
  C:45ABH         LINE#         250
  C:45C2H         LINE#         251
  C:45C7H         LINE#         252
  C:45D3H         LINE#         253
  C:45D3H         LINE#         254
  C:45DAH         LINE#         255
  C:45DAH         LINE#         256
  C:45DDH         LINE#         257
  C:45E0H         LINE#         258
  C:45E3H         LINE#         259
  C:45E6H         LINE#         260
  -------         ENDPROC       _LCD_FILL
  -------         PROC          _DISPLAYBLOCK
  D:0001H         SYMBOL        start_x
  D:0002H         SYMBOL        start_y
  D:0004H         SYMBOL        end_x
  X:028DH         SYMBOL        end_y
  X:028EH         SYMBOL        srgb
  -------         DO            
  X:028FH         SYMBOL        color
  D:0001H         SYMBOL        width
  D:0005H         SYMBOL        height
  D:0003H         SYMBOL        i
  D:0004H         SYMBOL        j
  -------         ENDDO         
  C:3841H         LINE#         262
  C:3847H         LINE#         263
  C:3847H         LINE#         267
  C:386CH         LINE#         268
  C:386CH         LINE#         269
BL51 BANKED LINKER/LOCATER V6.05                                                      12/21/2011  16:08:57  PAGE 29


  C:386CH         LINE#         270
  C:386DH         LINE#         271
  C:386FH         LINE#         272
  C:386FH         LINE#         273
  C:3873H         LINE#         274
  C:3875H         LINE#         275
  C:3875H         LINE#         276
  C:387AH         LINE#         277
  C:387CH         LINE#         278
  C:387CH         LINE#         279
  C:3886H         LINE#         280
  C:3888H         LINE#         281
  C:3888H         LINE#         282
  C:3891H         LINE#         283
  C:3893H         LINE#         284
  C:3893H         LINE#         285
  C:389DH         LINE#         286
  C:389FH         LINE#         287
  C:389FH         LINE#         288
  C:38A9H         LINE#         289
  C:38ABH         LINE#         290
  C:38ABH         LINE#         291
  C:38ABH         LINE#         292
  C:38B3H         LINE#         293
  C:38B3H         LINE#         294
  C:38B3H         LINE#         296
  C:38C0H         LINE#         297
  C:38C5H         LINE#         298
  C:38CAH         LINE#         299
  C:38D2H         LINE#         300
  C:38D9H         LINE#         301
  C:38D9H         LINE#         302
  C:38E0H         LINE#         303
  C:38E0H         LINE#         304
  C:38E3H         LINE#         305
  C:38E6H         LINE#         306
  C:38E9H         LINE#         307
  C:38ECH         LINE#         309
  -------         ENDPROC       _DISPLAYBLOCK
  -------         PROC          _DISPLAY_DOT
  D:0005H         SYMBOL        x
  D:0006H         SYMBOL        y
  X:033AH         SYMBOL        color
  C:4AA3H         LINE#         317
  C:4AAFH         LINE#         318
  C:4AAFH         LINE#         319
  C:4AB9H         LINE#         320
  C:4ABEH         LINE#         321
  C:4AC6H         LINE#         322
  -------         ENDPROC       _DISPLAY_DOT
  -------         PROC          _DISPLAY_HLINE
  D:0001H         SYMBOL        x
  D:0006H         SYMBOL        y
  D:0004H         SYMBOL        width
  X:0315H         SYMBOL        color
  C:4ACCH         LINE#         330
  C:4AD2H         LINE#         331
BL51 BANKED LINKER/LOCATER V6.05                                                      12/21/2011  16:08:57  PAGE 30


  C:4AD2H         LINE#         332
  C:4AE0H         LINE#         333
  C:4AE5H         LINE#         334
  C:4AEBH         LINE#         335
  C:4AEBH         LINE#         336
  C:4AEEH         LINE#         337
  C:4AF1H         LINE#         338
  C:4AF3H         LINE#         339
  -------         ENDPROC       _DISPLAY_HLINE
  -------         PROC          _DISPLAY_VLINE
  D:0006H         SYMBOL        x
  D:0004H         SYMBOL        y
  D:0002H         SYMBOL        height
  X:031AH         SYMBOL        color
  C:4977H         LINE#         346
  C:497DH         LINE#         347
  C:497DH         LINE#         348
  C:498FH         LINE#         349
  C:4994H         LINE#         350
  C:499AH         LINE#         351
  C:499AH         LINE#         352
  C:499DH         LINE#         353
  C:49A0H         LINE#         354
  C:49A2H         LINE#         355
  -------         ENDPROC       _DISPLAY_VLINE
  -------         PROC          _DISPLAY_ASCII
  X:02A0H         SYMBOL        x
  D:0006H         SYMBOL        y
  X:02A2H         SYMBOL        p
  X:02A5H         SYMBOL        fcolor
  X:02A7H         SYMBOL        bcolor
  X:02A9H         SYMBOL        size
  -------         DO            
  X:02AAH         SYMBOL        i
  X:02ABH         SYMBOL        j
  -------         ENDDO         
  C:3386H         LINE#         363
  C:3398H         LINE#         364
  C:3398H         LINE#         367
  C:33A5H         LINE#         368
  C:33A5H         LINE#         369
  C:33A5H         LINE#         370
  C:33A5H         LINE#         371
  C:33A5H         LINE#         372
  C:33A7H         LINE#         373
  C:33A7H         LINE#         374
  C:33B1H         LINE#         375
  C:33B7H         LINE#         376
  C:33B9H         LINE#         377
  C:33B9H         LINE#         378
  C:33C9H         LINE#         379
  C:33CFH         LINE#         380
  C:33D1H         LINE#         381
  C:33E1H         LINE#         383
  C:33E7H         LINE#         384
  C:33E7H         LINE#         385
  C:33E7H         LINE#         387
BL51 BANKED LINKER/LOCATER V6.05                                                      12/21/2011  16:08:57  PAGE 31


  C:33ECH         LINE#         389
  C:33F5H         LINE#         390
  C:33F5H         LINE#         391
  C:3402H         LINE#         392
  C:3402H         LINE#         393
  C:342DH         LINE#         394
  C:342DH         LINE#         395
  C:3430H         LINE#         396
  C:3430H         LINE#         397
  C:3432H         LINE#         399
  C:3432H         LINE#         400
  C:343FH         LINE#         401
  C:3442H         LINE#         402
  C:3442H         LINE#         403
  C:3442H         LINE#         404
  C:3445H         LINE#         405
  C:344DH         LINE#         406
  C:3457H         LINE#         407
  C:345FH         LINE#         408
  -------         ENDPROC       _DISPLAY_ASCII
  -------         PROC          _DISPLAY_CHINESE
  X:02A0H         SYMBOL        x
  D:0006H         SYMBOL        y
  X:02A2H         SYMBOL        p
  X:02A5H         SYMBOL        fcolor
  X:02A7H         SYMBOL        bcolor
  X:02A9H         SYMBOL        size
  -------         DO            
  X:02AAH         SYMBOL        i
  X:02ABH         SYMBOL        j
  -------         ENDDO         
  C:32A3H         LINE#         414
  C:32B5H         LINE#         415
  C:32B5H         LINE#         417
  C:32C4H         LINE#         418
  C:32C4H         LINE#         419
  C:32C4H         LINE#         420
  C:32CBH         LINE#         421
  C:32CBH         LINE#         422
  C:32CDH         LINE#         423
  C:32CDH         LINE#         424
  C:32D7H         LINE#         425
  C:32DDH         LINE#         426
  C:32DFH         LINE#         427
  C:32DFH         LINE#         428
  C:32EFH         LINE#         429
  C:32F5H         LINE#         430
  C:32F7H         LINE#         432
  C:32F7H         LINE#         433
  C:3307H         LINE#         434
  C:330DH         LINE#         435
  C:330DH         LINE#         436
  C:330DH         LINE#         438
  C:3312H         LINE#         439
  C:331BH         LINE#         440
  C:331BH         LINE#         441
  C:3328H         LINE#         442
BL51 BANKED LINKER/LOCATER V6.05                                                      12/21/2011  16:08:57  PAGE 32


  C:3328H         LINE#         443
  C:3353H         LINE#         444
  C:3353H         LINE#         445
  C:3356H         LINE#         446
  C:3356H         LINE#         447
  C:3358H         LINE#         449
  C:3358H         LINE#         450
  C:3365H         LINE#         451
  C:3368H         LINE#         453
  C:3368H         LINE#         454
  C:3368H         LINE#         455
  C:336BH         LINE#         456
  C:3373H         LINE#         457
  C:337DH         LINE#         458
  C:3385H         LINE#         459
  -------         ENDPROC       _DISPLAY_CHINESE
  -------         PROC          _ASCIIXDIRECTIONINCREASE
  D:0007H         SYMBOL        size
  X:02A1H         SYMBOL        px
  X:02A4H         SYMBOL        py
  -------         DO            
  D:0006H         SYMBOL        x
  D:0005H         SYMBOL        y
  -------         ENDDO         
  C:3460H         LINE#         462
  C:346BH         LINE#         463
  C:346BH         LINE#         465
  C:346FH         LINE#         466
  C:347EH         LINE#         467
  C:3488H         LINE#         468
  C:3488H         LINE#         469
  C:3488H         LINE#         470
  C:3488H         LINE#         471
  C:34A0H         LINE#         473
  C:34A0H         LINE#         474
  C:34B6H         LINE#         478
  C:34B6H         LINE#         479
  C:34CEH         LINE#         481
  C:34CEH         LINE#         482
  C:34E4H         LINE#         483
  C:34E4H         LINE#         484
  C:34E4H         LINE#         485
  C:34E6H         LINE#         486
  C:34E6H         LINE#         487
  C:34FEH         LINE#         489
  C:34FEH         LINE#         490
  C:3518H         LINE#         491
  C:351BH         LINE#         492
  C:351BH         LINE#         493
  C:351BH         LINE#         494
  C:351BH         LINE#         495
  C:352AH         LINE#         496
  -------         ENDPROC       _ASCIIXDIRECTIONINCREASE
  -------         PROC          _CHINESEXDIRECTIONINCREASE
  D:0007H         SYMBOL        size
  X:02A1H         SYMBOL        px
  X:02A4H         SYMBOL        py
BL51 BANKED LINKER/LOCATER V6.05                                                      12/21/2011  16:08:57  PAGE 33


  -------         DO            
  D:0006H         SYMBOL        x
  D:0005H         SYMBOL        y
  -------         ENDDO         
  C:3539H         LINE#         500
  C:3544H         LINE#         501
  C:3544H         LINE#         503
  C:3548H         LINE#         504
  C:3557H         LINE#         505
  C:3561H         LINE#         506
  C:3561H         LINE#         507
  C:3561H         LINE#         508
  C:3561H         LINE#         509
  C:3579H         LINE#         511
  C:3579H         LINE#         512
  C:358FH         LINE#         516
  C:358FH         LINE#         517
  C:35A7H         LINE#         519
  C:35A7H         LINE#         520
  C:35BDH         LINE#         521
  C:35BDH         LINE#         522
  C:35BDH         LINE#         523
  C:35BFH         LINE#         524
  C:35BFH         LINE#         525
  C:35D7H         LINE#         527
  C:35D7H         LINE#         528
  C:35F1H         LINE#         529
  C:35F4H         LINE#         530
  C:35F4H         LINE#         531
  C:35F4H         LINE#         533
  C:35F4H         LINE#         534
  C:3603H         LINE#         535
  -------         ENDPROC       _CHINESEXDIRECTIONINCREASE
  C:2B01H         SYMBOL        L?0285
  C:2B2CH         SYMBOL        L?0286
  C:2B2DH         SYMBOL        L?0287
  C:2B3DH         SYMBOL        L?0288
  C:2B3EH         SYMBOL        L?0289
  C:2B45H         SYMBOL        L?0290
  -------         PROC          L?0284
  -------         ENDPROC       L?0284
  C:2B01H         SYMBOL        L?0285
  C:2B2CH         SYMBOL        L?0286
  C:2B2DH         SYMBOL        L?0287
  C:2B3DH         SYMBOL        L?0288
  C:2B3EH         SYMBOL        L?0289
  C:2B45H         SYMBOL        L?0290
  -------         PROC          _DISPLAYDIGITSTRING
  X:028AH         SYMBOL        px
  X:028DH         SYMBOL        py
  X:0290H         SYMBOL        pDigit
  X:0293H         SYMBOL        Length
  X:0294H         SYMBOL        fcolor
  X:0296H         SYMBOL        bcolor
  X:0298H         SYMBOL        size
  -------         DO            
  X:0299H         SYMBOL        x
BL51 BANKED LINKER/LOCATER V6.05                                                      12/21/2011  16:08:57  PAGE 34


  X:029AH         SYMBOL        y
  -------         ENDDO         
  C:2B49H         LINE#         540
  C:2B54H         LINE#         541
  C:2B54H         LINE#         543
  C:2B5BH         LINE#         544
  C:2B6DH         LINE#         545
  C:2B79H         LINE#         546
  C:2B79H         LINE#         547
  C:2B7CH         LINE#         548
  C:2B95H         LINE#         549
  C:2BB0H         LINE#         550
  C:2BB3H         LINE#         551
  C:2BECH         LINE#         553
  C:2C08H         LINE#         554
  C:2C12H         LINE#         555
  C:2C1BH         LINE#         556
  C:2C2FH         LINE#         557
  -------         ENDPROC       _DISPLAYDIGITSTRING
  -------         PROC          _DISPLAYDIGIT
  X:02E8H         SYMBOL        x
  X:02E9H         SYMBOL        y
  X:02EAH         SYMBOL        Digit
  X:02EBH         SYMBOL        fcolor
  X:02EDH         SYMBOL        bcolor
  X:02EFH         SYMBOL        size
  C:3EB4H         LINE#         561
  C:3EBFH         LINE#         562
  C:3EBFH         LINE#         563
  C:3EC2H         LINE#         564
  C:3ECDH         LINE#         565
  C:3EDEH         LINE#         566
  C:3EE1H         LINE#         567
  -------         ENDPROC       _DISPLAYDIGIT
  C:2FB1H         SYMBOL        L?0292
  C:2FC2H         SYMBOL        L?0293
  -------         PROC          L?0291
  -------         ENDPROC       L?0291
  C:2FB1H         SYMBOL        L?0292
  C:2FC2H         SYMBOL        L?0293
  -------         PROC          _DISPLAYASCIISTRING
  X:028AH         SYMBOL        px
  X:028DH         SYMBOL        py
  X:0290H         SYMBOL        pASCII
  X:0293H         SYMBOL        Length
  X:0294H         SYMBOL        fcolor
  X:0296H         SYMBOL        bcolor
  X:0298H         SYMBOL        size
  -------         DO            
  X:0299H         SYMBOL        x
  X:029AH         SYMBOL        y
  -------         ENDDO         
  C:2FCEH         LINE#         571
  C:2FD9H         LINE#         572
  C:2FD9H         LINE#         574
  C:2FE0H         LINE#         575
  C:2FF2H         LINE#         576
BL51 BANKED LINKER/LOCATER V6.05                                                      12/21/2011  16:08:57  PAGE 35


  C:2FFEH         LINE#         577
  C:2FFEH         LINE#         578
  C:3001H         LINE#         579
  C:301AH         LINE#         580
  C:301DH         LINE#         581
  C:3056H         LINE#         583
  C:3072H         LINE#         584
  C:307CH         LINE#         585
  C:3085H         LINE#         586
  C:3099H         LINE#         587
  -------         ENDPROC       _DISPLAYASCIISTRING
  -------         PROC          _DISPLAYASCII
  X:02F0H         SYMBOL        x
  X:02F1H         SYMBOL        y
  D:0003H         SYMBOL        ASCII
  X:02F3H         SYMBOL        fcolor
  X:02F5H         SYMBOL        bcolor
  X:02F7H         SYMBOL        size
  C:40F4H         LINE#         590
  C:40FCH         LINE#         591
  C:40FCH         LINE#         592
  C:40FFH         LINE#         593
  C:410DH         LINE#         594
  C:4110H         LINE#         595
  -------         ENDPROC       _DISPLAYASCII
  C:31BEH         SYMBOL        L?0298
  C:31BFH         SYMBOL        L?0299
  -------         PROC          L?0297
  -------         ENDPROC       L?0297
  C:31BEH         SYMBOL        L?0298
  C:31BFH         SYMBOL        L?0299
  -------         PROC          _DISPLAYCHINESESTRING
  X:028FH         SYMBOL        px
  X:0292H         SYMBOL        py
  X:0295H         SYMBOL        pChinese
  X:0298H         SYMBOL        Length
  X:0299H         SYMBOL        fcolor
  X:029BH         SYMBOL        bcolor
  X:029DH         SYMBOL        size
  -------         DO            
  X:029EH         SYMBOL        x
  X:029FH         SYMBOL        y
  -------         ENDDO         
  C:31CAH         LINE#         599
  C:31D5H         LINE#         600
  C:31D5H         LINE#         602
  C:31DCH         LINE#         603
  C:31EEH         LINE#         604
  C:31FAH         LINE#         605
  C:31FAH         LINE#         606
  C:31FDH         LINE#         607
  C:3210H         LINE#         608
  C:3213H         LINE#         609
  C:324CH         LINE#         611
  C:3268H         LINE#         612
  C:3272H         LINE#         613
  C:327BH         LINE#         614
BL51 BANKED LINKER/LOCATER V6.05                                                      12/21/2011  16:08:57  PAGE 36


  C:328FH         LINE#         615
  -------         ENDPROC       _DISPLAYCHINESESTRING
  -------         PROC          _DISPLAYSTRING
  X:028FH         SYMBOL        px
  X:0292H         SYMBOL        py
  X:0295H         SYMBOL        pDispData
  X:0298H         SYMBOL        Length
  X:0299H         SYMBOL        fcolor
  X:029BH         SYMBOL        bcolor
  X:029DH         SYMBOL        size
  -------         DO            
  X:029EH         SYMBOL        x
  X:029FH         SYMBOL        y
  -------         ENDDO         
  C:14B3H         LINE#         619
  C:14BEH         LINE#         620
  C:14BEH         LINE#         622
  C:14C5H         LINE#         623
  C:14D7H         LINE#         626
  C:14E4H         LINE#         627
  C:14E4H         LINE#         628
  C:1504H         LINE#         629
  C:1504H         LINE#         630
  C:150EH         LINE#         631
  C:1524H         LINE#         632
  C:1524H         LINE#         633
  C:152CH         LINE#         634
  C:152CH         LINE#         635
  C:1536H         LINE#         636
  C:1549H         LINE#         639
  C:155CH         LINE#         640
  C:155CH         LINE#         641
  C:155CH         LINE#         642
  C:1574H         LINE#         643
  C:1574H         LINE#         644
  C:1576H         LINE#         645
  C:158DH         LINE#         646
  C:1594H         LINE#         647
  C:1594H         LINE#         648
  C:1596H         LINE#         649
  C:1596H         LINE#         650
  C:15ABH         LINE#         651
  C:15ABH         LINE#         652
  C:15ADH         LINE#         653
  C:15C4H         LINE#         654
  C:15CBH         LINE#         655
  C:15CBH         LINE#         656
  C:15CDH         LINE#         657
  C:15CDH         LINE#         658
  C:15E2H         LINE#         659
  C:15E2H         LINE#         660
  C:15E4H         LINE#         661
  C:15FBH         LINE#         662
  C:1602H         LINE#         663
  C:1602H         LINE#         664
  C:1602H         LINE#         665
  C:1602H         LINE#         666
BL51 BANKED LINKER/LOCATER V6.05                                                      12/21/2011  16:08:57  PAGE 37


  C:1636H         LINE#         668
  C:1652H         LINE#         669
  C:165CH         LINE#         670
  C:1663H         LINE#         671
  C:1666H         LINE#         678
  C:1666H         LINE#         679
  C:1666H         LINE#         680
  C:1666H         LINE#         681
  C:1669H         LINE#         682
  C:1689H         LINE#         683
  C:1689H         LINE#         684
  C:1697H         LINE#         686
  C:16AAH         LINE#         687
  C:16AAH         LINE#         688
  C:16AAH         LINE#         689
  C:16C2H         LINE#         690
  C:16C2H         LINE#         691
  C:16C4H         LINE#         692
  C:16DBH         LINE#         693
  C:16E2H         LINE#         694
  C:16E2H         LINE#         695
  C:16E4H         LINE#         696
  C:16E4H         LINE#         697
  C:16F9H         LINE#         698
  C:16F9H         LINE#         699
  C:16FBH         LINE#         700
  C:1712H         LINE#         701
  C:1719H         LINE#         702
  C:1719H         LINE#         703
  C:171BH         LINE#         704
  C:171BH         LINE#         705
  C:1730H         LINE#         706
  C:1730H         LINE#         707
  C:1732H         LINE#         708
  C:1749H         LINE#         709
  C:1750H         LINE#         710
  C:1750H         LINE#         711
  C:1750H         LINE#         712
  C:1750H         LINE#         713
  C:1784H         LINE#         715
  C:17A0H         LINE#         716
  C:17AAH         LINE#         717
  C:17AAH         LINE#         718
  C:17ACH         LINE#         720
  C:17ACH         LINE#         721
  C:17B6H         LINE#         722
  C:17BCH         LINE#         723
  C:17BCH         LINE#         724
  C:17BFH         LINE#         726
  C:17D3H         LINE#         727
  -------         ENDPROC       _DISPLAYSTRING
  -------         PROC          _LCD_FANGDA_DIS_TEXT
  D:0005H         SYMBOL        x
  D:0006H         SYMBOL        y
  X:02C9H         SYMBOL        type_x_wide
  X:02CAH         SYMBOL        type_y_height
  X:02CBH         SYMBOL        mul_row
BL51 BANKED LINKER/LOCATER V6.05                                                      12/21/2011  16:08:57  PAGE 38


  X:02CCH         SYMBOL        mul_col
  X:02CDH         SYMBOL        fcolor
  X:02CFH         SYMBOL        bcolor
  X:02D1H         SYMBOL        p
  -------         DO            
  X:02D4H         SYMBOL        i
  X:02D5H         SYMBOL        j
  X:02D6H         SYMBOL        k
  X:02D7H         SYMBOL        m
  X:02D8H         SYMBOL        n
  -------         ENDDO         
  C:2D6CH         LINE#         850
  C:2D75H         LINE#         852
  C:2D75H         LINE#         857
  C:2D94H         LINE#         858
  C:2D99H         LINE#         859
  C:2DAEH         LINE#         860
  C:2DAEH         LINE#         862
  C:2DC3H         LINE#         863
  C:2DC3H         LINE#         865
  C:2DDDH         LINE#         866
  C:2DDDH         LINE#         868
  C:2DE0H         LINE#         869
  C:2DE0H         LINE#         871
  C:2DF2H         LINE#         872
  C:2DF2H         LINE#         875
  C:2E3AH         LINE#         876
  C:2E3AH         LINE#         877
  C:2E3DH         LINE#         878
  C:2E3DH         LINE#         879
  C:2E3FH         LINE#         882
  C:2E3FH         LINE#         883
  C:2E4AH         LINE#         884
  C:2E4DH         LINE#         885
  C:2E4DH         LINE#         887
  C:2E4DH         LINE#         888
  C:2E50H         LINE#         890
  C:2E58H         LINE#         891
  C:2E67H         LINE#         892
  C:2E70H         LINE#         893
  C:2E79H         LINE#         894
  C:2E82H         LINE#         895
  -------         ENDPROC       _LCD_FANGDA_DIS_TEXT
  -------         PROC          SHOWPOWERUPFACE
  -------         DO            
  X:0281H         SYMBOL        x
  X:0282H         SYMBOL        y
  -------         ENDDO         
  C:23B1H         LINE#         899
  C:23B1H         LINE#         900
  C:23B1H         LINE#         903
  C:23B4H         LINE#         904
  C:23BAH         LINE#         905
  C:23BEH         LINE#         906
  C:23F6H         LINE#         908
  C:23FCH         LINE#         909
  C:2401H         LINE#         910
BL51 BANKED LINKER/LOCATER V6.05                                                      12/21/2011  16:08:57  PAGE 39


  C:2438H         LINE#         911
  C:246FH         LINE#         912
  C:247DH         LINE#         913
  C:248BH         LINE#         914
  C:2494H         LINE#         915
  C:249AH         LINE#         916
  C:249AH         LINE#         917
  C:24B7H         LINE#         918
  C:24B9H         LINE#         920
  C:24B9H         LINE#         921
  C:24C2H         LINE#         922
  C:24C2H         LINE#         923
  C:24DCH         LINE#         924
  C:24DEH         LINE#         925
  C:2512H         LINE#         926
  C:2512H         LINE#         927
  C:2549H         LINE#         929
  C:2557H         LINE#         930
  C:2565H         LINE#         931
  C:256EH         LINE#         932
  C:2574H         LINE#         933
  C:2574H         LINE#         934
  C:2591H         LINE#         935
  C:2593H         LINE#         937
  C:2593H         LINE#         938
  C:259CH         LINE#         939
  C:259CH         LINE#         940
  C:25B6H         LINE#         941
  C:25B8H         LINE#         942
  C:25ECH         LINE#         943
  C:25ECH         LINE#         945
  -------         ENDPROC       SHOWPOWERUPFACE
  -------         PROC          SHOWLANDINGFACE
  -------         DO            
  X:0286H         SYMBOL        temp1
  X:0287H         SYMBOL        temp2
  X:0288H         SYMBOL        x
  X:0289H         SYMBOL        y
  -------         ENDDO         
  C:17E7H         LINE#         963
  C:17E7H         LINE#         964
  C:17E7H         LINE#         969
  C:17F5H         LINE#         970
  C:17FFH         LINE#         971
  C:1808H         LINE#         973
  C:180FH         LINE#         974
  C:1841H         LINE#         975
  C:186DH         LINE#         976
  C:1899H         LINE#         978
  C:18A7H         LINE#         979
  C:18B1H         LINE#         980
  C:18BAH         LINE#         981
  C:18E7H         LINE#         982
  C:1914H         LINE#         983
  C:1941H         LINE#         985
  C:194AH         LINE#         986
  C:194DH         LINE#         987
BL51 BANKED LINKER/LOCATER V6.05                                                      12/21/2011  16:08:57  PAGE 40


  C:194DH         LINE#         988
  C:194DH         LINE#         989
  C:1950H         LINE#         990
  C:196BH         LINE#         991
  C:196EH         LINE#         993
  C:1971H         LINE#         994
  C:1971H         LINE#         995
  C:1971H         LINE#         996
  C:1974H         LINE#         997
  C:1990H         LINE#         998
  C:1993H         LINE#         1000
  C:1996H         LINE#         1001
  C:1996H         LINE#         1002
  C:1996H         LINE#         1003
  C:1999H         LINE#         1004
  C:19B5H         LINE#         1006
  C:19C8H         LINE#         1007
  C:19D2H         LINE#         1008
  C:19D5H         LINE#         1009
  C:19D5H         LINE#         1010
  C:19D5H         LINE#         1011
  C:19D8H         LINE#         1012
  C:19F4H         LINE#         1013
  C:1A0FH         LINE#         1015
  C:1A12H         LINE#         1016
  C:1A12H         LINE#         1017
  C:1A12H         LINE#         1018
  C:1A15H         LINE#         1019
  C:1A31H         LINE#         1020
  C:1A48H         LINE#         1022
  C:1A5BH         LINE#         1023
  C:1A65H         LINE#         1024
  C:1A80H         LINE#         1029
  C:1A89H         LINE#         1030
  C:1AA4H         LINE#         1031
  C:1AD2H         LINE#         1032
  C:1AE9H         LINE#         1034
  C:1AEFH         LINE#         1035
  C:1AF5H         LINE#         1036
  C:1AF5H         LINE#         1037
  C:1AF8H         LINE#         1038
  C:1AFBH         LINE#         1039
  C:1AFDH         LINE#         1040
  C:1AFEH         LINE#         1042
  C:1AFEH         LINE#         1043
  C:1B00H         LINE#         1044
  C:1B00H         LINE#         1045
  -------         ENDPROC       SHOWLANDINGFACE
  -------         PROC          SHOWMAINMENUFACE
  -------         DO            
  X:033CH         SYMBOL        x
  X:033DH         SYMBOL        y
  -------         ENDDO         
  C:20FDH         LINE#         1049
  C:20FDH         LINE#         1050
  C:20FDH         LINE#         1052
  C:2100H         LINE#         1053
BL51 BANKED LINKER/LOCATER V6.05                                                      12/21/2011  16:08:57  PAGE 41


  C:2107H         LINE#         1054
  C:210FH         LINE#         1055
  C:210FH         LINE#         1056
  C:2146H         LINE#         1057
  C:2170H         LINE#         1058
  C:2172H         LINE#         1060
  C:2172H         LINE#         1061
  C:21AAH         LINE#         1062
  C:21E2H         LINE#         1063
  C:21E2H         LINE#         1068
  C:21EBH         LINE#         1069
  C:21F3H         LINE#         1070
  C:21F3H         LINE#         1071
  C:222AH         LINE#         1072
  C:2254H         LINE#         1073
  C:2256H         LINE#         1075
  C:2256H         LINE#         1076
  C:228EH         LINE#         1077
  C:22C6H         LINE#         1078
  C:22C6H         LINE#         1081
  C:22CFH         LINE#         1082
  C:22D7H         LINE#         1083
  C:22D7H         LINE#         1084
  C:230EH         LINE#         1085
  C:2338H         LINE#         1086
  C:233AH         LINE#         1088
  C:233AH         LINE#         1089
  C:2372H         LINE#         1090
  C:23AAH         LINE#         1091
  C:23AAH         LINE#         1093
  C:23B0H         LINE#         1095
  -------         ENDPROC       SHOWMAINMENUFACE
  -------         PROC          SHOWTALKFACE
  -------         DO            
  X:0286H         SYMBOL        x
  X:0287H         SYMBOL        y
  -------         ENDDO         
  C:4284H         LINE#         1111
  C:4284H         LINE#         1112
  C:4284H         LINE#         1114
  C:4287H         LINE#         1115
  C:428DH         LINE#         1116
  C:4291H         LINE#         1118
  C:42C9H         LINE#         1119
  C:42CFH         LINE#         1120
  -------         ENDPROC       SHOWTALKFACE
  -------         PROC          SHOWBROADFACE
  -------         DO            
  X:0286H         SYMBOL        x
  X:0287H         SYMBOL        y
  -------         ENDDO         
  C:42D0H         LINE#         1123
  C:42D0H         LINE#         1124
  C:42D0H         LINE#         1126
  C:42D3H         LINE#         1127
  C:42D9H         LINE#         1128
  C:42DDH         LINE#         1130
BL51 BANKED LINKER/LOCATER V6.05                                                      12/21/2011  16:08:57  PAGE 42


  C:4315H         LINE#         1131
  C:431BH         LINE#         1132
  -------         ENDPROC       SHOWBROADFACE
  -------         PROC          SHOWCALLSUCCESS
  -------         DO            
  X:0286H         SYMBOL        x
  X:0287H         SYMBOL        y
  -------         ENDDO         
  C:3A27H         LINE#         1135
  C:3A27H         LINE#         1136
  C:3A27H         LINE#         1138
  C:3A2AH         LINE#         1139
  C:3A2FH         LINE#         1140
  C:3A33H         LINE#         1142
  C:3A6BH         LINE#         1144
  C:3A71H         LINE#         1145
  C:3A76H         LINE#         1146
  C:3AAEH         LINE#         1148
  C:3AB4H         LINE#         1149
  -------         ENDPROC       SHOWCALLSUCCESS
  -------         PROC          _SHOWFACE
  X:0285H         SYMBOL        DispFaceType
  -------         DO            
  X:0286H         SYMBOL        TotalDataLen
  X:0288H         SYMBOL        DispDataLen
  X:0289H         SYMBOL        x
  X:028AH         SYMBOL        y
  X:028BH         SYMBOL        MRReadAddr
  C:2967H         SYMBOL        SHOW_FACE_RETURN
  -------         ENDDO         
  C:27D2H         LINE#         1153
  C:27D7H         LINE#         1154
  C:27D7H         LINE#         1164
  C:27E2H         LINE#         1165
  C:27E2H         LINE#         1166
  C:27E2H         LINE#         1167
  C:27E5H         LINE#         1168
  C:27E7H         LINE#         1169
  C:27E7H         LINE#         1170
  C:27EAH         LINE#         1171
  C:27ECH         LINE#         1172
  C:27ECH         LINE#         1173
  C:27FBH         LINE#         1174
  C:27FDH         LINE#         1175
  C:27FDH         LINE#         1176
  C:2804H         LINE#         1177
  C:2804H         LINE#         1178
  C:2804H         LINE#         1180
  C:280EH         LINE#         1181
  C:280EH         LINE#         1182
  C:2814H         LINE#         1183
  C:281DH         LINE#         1184
  C:2855H         LINE#         1186
  C:2858H         LINE#         1187
  C:2858H         LINE#         1191
  C:2871H         LINE#         1192
  C:2871H         LINE#         1193
BL51 BANKED LINKER/LOCATER V6.05                                                      12/21/2011  16:08:57  PAGE 43


  C:2877H         LINE#         1195
  C:287AH         LINE#         1196
  C:287AH         LINE#         1200
  C:2889H         LINE#         1201
  C:2889H         LINE#         1202
  C:2889H         LINE#         1203
  C:2889H         LINE#         1204
  C:288BH         LINE#         1205
  C:288BH         LINE#         1206
  C:289BH         LINE#         1207
  C:289DH         LINE#         1208
  C:289DH         LINE#         1209
  C:28BAH         LINE#         1210
  C:28BCH         LINE#         1211
  C:28BCH         LINE#         1212
  C:28C6H         LINE#         1213
  C:28C6H         LINE#         1214
  C:28C6H         LINE#         1219
  C:28E8H         LINE#         1220
  C:28E8H         LINE#         1221
  C:28ECH         LINE#         1222
  C:28EEH         LINE#         1224
  C:28EEH         LINE#         1225
  C:28FBH         LINE#         1226
  C:28FBH         LINE#         1230
  C:28FEH         LINE#         1232
  C:2904H         LINE#         1233
  C:2904H         LINE#         1234
  C:2926H         LINE#         1236
  C:292DH         LINE#         1237
  C:2967H         LINE#         1240
  C:2967H         LINE#         1243
  C:2967H         LINE#         1245
  C:2976H         LINE#         1246
  C:2976H         LINE#         1247
  C:2976H         LINE#         1248
  C:297CH         LINE#         1249
  C:297DH         LINE#         1251
  C:297DH         LINE#         1252
  C:2983H         LINE#         1253
  C:2984H         LINE#         1254
  C:2984H         LINE#         1255
  C:298AH         LINE#         1256
  C:298AH         LINE#         1257
  C:298AH         LINE#         1258
  C:298AH         LINE#         1259
  C:298AH         LINE#         1261
  -------         ENDPROC       _SHOWFACE
  -------         PROC          SHOWDIETFACE
  C:4F89H         LINE#         1266
  C:4F89H         LINE#         1267
  C:4F89H         LINE#         1268
  C:4F8FH         LINE#         1270
  -------         ENDPROC       SHOWDIETFACE
  -------         PROC          SHOWPRESCRIPTIONFACE
  C:4F90H         LINE#         1272
  C:4F90H         LINE#         1273
BL51 BANKED LINKER/LOCATER V6.05                                                      12/21/2011  16:08:57  PAGE 44


  C:4F90H         LINE#         1274
  C:4F96H         LINE#         1275
  -------         ENDPROC       SHOWPRESCRIPTIONFACE
  -------         PROC          SHOWPROMPTFACE
  C:4F97H         LINE#         1278
  C:4F97H         LINE#         1279
  C:4F97H         LINE#         1280
  C:4F9DH         LINE#         1282
  -------         ENDPROC       SHOWPROMPTFACE
  -------         PROC          DISPMANAGER
  C:4D97H         LINE#         1298
  C:4D97H         LINE#         1299
  C:4D97H         LINE#         1300
  C:4D9AH         LINE#         1301
  C:4D9AH         LINE#         1303
  C:4DA1H         LINE#         1304
  C:4DA3H         LINE#         1307
  C:4DA6H         LINE#         1308
  C:4DA6H         LINE#         1309
  C:4DA6H         LINE#         1311
  C:4DADH         LINE#         1312
  -------         ENDPROC       DISPMANAGER
  -------         ENDMOD        LCD

  -------         MODULE        MAIN
  C:0000H         SYMBOL        _ICE_DUMMY_
  D:0093H         PUBLIC        P0M1
  D:0092H         PUBLIC        P1M0
  C:4629H         PUBLIC        _DispatchMessage
  D:0096H         PUBLIC        P2M0
  D:0091H         PUBLIC        P1M1
  D:0080H         PUBLIC        P0
  D:00B2H         PUBLIC        P3M0
  D:0095H         PUBLIC        P2M1
  D:0090H         PUBLIC        P1
  B:0090H.1       PUBLIC        LCD_CS7
  D:00B4H         PUBLIC        P4M0
  D:00B1H         PUBLIC        P3M1
  D:00A0H         PUBLIC        P2
  D:00CAH         PUBLIC        P5M0
  D:00B3H         PUBLIC        P4M1
  D:00B0H         PUBLIC        P3
  C:000AH         PUBLIC        byVersionLo
  D:00C9H         PUBLIC        P5M1
  D:00C0H         PUBLIC        P4
  D:00C8H         PUBLIC        P5
  D:00F9H         PUBLIC        CH
  B:00A8H.5       PUBLIC        EADC
  D:00A8H         PUBLIC        IE
  X:024AH         PUBLIC        DispData
  D:00E9H         PUBLIC        CL
  C:4F67H         PUBLIC        BL_SW_Init
  D:00FAH         PUBLIC        CCAP0H
  D:00EAH         PUBLIC        CCAP0L
  B:00D8H.6       PUBLIC        CR
  C:30ADH         PUBLIC        Init
  D:00DAH         PUBLIC        CCAPM0
BL51 BANKED LINKER/LOCATER V6.05                                                      12/21/2011  16:08:57  PAGE 45


  B:00C8H.1       PUBLIC        BL_SW
  D:00B8H         PUBLIC        IP
  C:000EH         PUBLIC        Ex0Int
  C:419CH         PUBLIC        MainTask
  X:024CH         PUBLIC        uiIsrTimerCount
  D:00D9H         PUBLIC        CMOD
  D:00D8H         PUBLIC        CCON
  C:4E6BH         PUBLIC        main
  B:00A8H.6       PUBLIC        ELVD
  D:00BBH         PUBLIC        P4SW
  C:4C17H         PUBLIC        UserTickTimer
  D:0098H         PUBLIC        SCON
  D:0088H         PUBLIC        TCON
  C:001EH         PUBLIC        AdcInt
  X:024EH         PUBLIC        MicCtrlState
  X:024FH         PUBLIC        stLocalControl
  B:0090H.3       PUBLIC        GT23L_CS
  D:00E0H         PUBLIC        ACC
  B:00A8H.3       PUBLIC        ET1
  I:0064H         PUBLIC        byMainCmdQ
  B:00A8H.0       PUBLIC        EX0
  C:0026H         PUBLIC        LvdInt
  B:0027H.3       PUBLIC        bBL_SW_State
  C:0016H         PUBLIC        TIMER1Int
  C:4F9EH         PUBLIC        _GetMessage
  B:00B0H.2       PUBLIC        MIC_CTRL
  B:0090H.4       PUBLIC        SST25VF_CS
  C:0009H         PUBLIC        byVersionHi
  D:00D0H         PUBLIC        PSW
  B:00D8H.0       PUBLIC        CCF0
  D:0094H         PUBLIC        P0M0
  -------         PROC          EX0INT
  C:000EH         LINE#         41
  C:000EH         LINE#         43
  C:0010H         LINE#         44
  -------         ENDPROC       EX0INT
  -------         PROC          TIMER1INT
  C:0016H         LINE#         46
  C:0016H         LINE#         48
  C:0018H         LINE#         49
  -------         ENDPROC       TIMER1INT
  -------         PROC          ADCINT
  C:001EH         LINE#         52
  C:001EH         LINE#         54
  C:0020H         LINE#         55
  -------         ENDPROC       ADCINT
  -------         PROC          LVDINT
  C:0026H         LINE#         57
  C:0026H         LINE#         59
  C:0028H         LINE#         60
  -------         ENDPROC       LVDINT
  -------         PROC          USERTICKTIMER
  C:4C17H         LINE#         71
  C:4C17H         LINE#         72
  C:4C17H         LINE#         75
  C:4C25H         LINE#         76
  C:4C2BH         LINE#         77
BL51 BANKED LINKER/LOCATER V6.05                                                      12/21/2011  16:08:57  PAGE 46


  C:4C2EH         LINE#         78
  C:4C30H         LINE#         82
  C:4C38H         LINE#         83
  -------         ENDPROC       USERTICKTIMER
  -------         PROC          BL_SW_INIT
  C:4F67H         LINE#         85
  C:4F67H         LINE#         86
  C:4F67H         LINE#         88
  C:4F6AH         LINE#         89
  C:4F6DH         LINE#         90
  C:4F6FH         LINE#         91
  -------         ENDPROC       BL_SW_INIT
  -------         PROC          INIT
  C:30ADH         LINE#         108
  C:30ADH         LINE#         109
  C:30ADH         LINE#         110
  C:30BCH         LINE#         112
  C:30BFH         LINE#         113
  C:30C2H         LINE#         114
  C:30C4H         LINE#         115
  C:30C6H         LINE#         116
  C:30CFH         LINE#         117
  C:30D2H         LINE#         119
  C:30D5H         LINE#         122
  C:30D7H         LINE#         130
  C:30DAH         LINE#         131
  C:30DCH         LINE#         136
  C:30DFH         LINE#         137
  C:30E1H         LINE#         142
  C:30E3H         LINE#         143
  C:30E5H         LINE#         154
  C:30E8H         LINE#         155
  C:30EAH         LINE#         161
  C:30EDH         LINE#         162
  C:30EFH         LINE#         163
  C:30F2H         LINE#         168
  C:30F5H         LINE#         169
  C:30F7H         LINE#         173
  C:30F9H         LINE#         174
  C:30FBH         LINE#         175
  C:30FDH         LINE#         178
  C:3101H         LINE#         180
  C:3104H         LINE#         181
  C:310BH         LINE#         185
  C:310EH         LINE#         188
  C:3111H         LINE#         192
  C:3114H         LINE#         195
  C:3117H         LINE#         199
  C:311AH         LINE#         202
  C:311DH         LINE#         205
  C:3122H         LINE#         208
  C:3128H         LINE#         209
  C:312EH         LINE#         210
  C:3134H         LINE#         211
  C:313AH         LINE#         212
  C:3140H         LINE#         215
  C:3142H         LINE#         216
BL51 BANKED LINKER/LOCATER V6.05                                                      12/21/2011  16:08:57  PAGE 47


  C:3149H         LINE#         219
  C:314FH         LINE#         220
  C:3153H         LINE#         222
  C:3157H         LINE#         226
  C:3172H         LINE#         227
  C:318DH         LINE#         228
  C:31A8H         LINE#         231
  -------         ENDPROC       INIT
  -------         PROC          _GETMESSAGE
  D:0007H         SYMBOL        Msg
  C:4F9EH         LINE#         248
  C:4F9EH         LINE#         249
  C:4F9EH         LINE#         250
  -------         ENDPROC       _GETMESSAGE
  -------         PROC          _DISPATCHMESSAGE
  X:0281H         SYMBOL        Msg
  C:4629H         LINE#         267
  C:462EH         LINE#         268
  C:462EH         LINE#         269
  C:4648H         LINE#         270
  C:4648H         LINE#         271
  C:4648H         LINE#         272
  C:464BH         LINE#         273
  C:464BH         LINE#         274
  C:464BH         LINE#         275
  C:464EH         LINE#         276
  C:464EH         LINE#         277
  C:464EH         LINE#         278
  C:4656H         LINE#         279
  C:4656H         LINE#         280
  C:4656H         LINE#         281
  C:465EH         LINE#         282
  C:465EH         LINE#         283
  C:465EH         LINE#         284
  C:4666H         LINE#         285
  C:4666H         LINE#         286
  C:4666H         LINE#         287
  C:4669H         LINE#         288
  C:4669H         LINE#         289
  C:4669H         LINE#         290
  -------         ENDPROC       _DISPATCHMESSAGE
  -------         PROC          MAINTASK
  -------         DO            
  D:001BH         SYMBOL        Msg
  -------         ENDDO         
  C:419CH         LINE#         306
  C:419CH         LINE#         307
  C:419CH         LINE#         311
  C:419FH         LINE#         313
  C:41A6H         LINE#         315
  C:41B2H         LINE#         316
  C:41BEH         LINE#         317
  C:41CAH         LINE#         318
  C:41D6H         LINE#         322
  C:41D6H         LINE#         323
  C:41D6H         LINE#         324
  C:41DBH         LINE#         325
BL51 BANKED LINKER/LOCATER V6.05                                                      12/21/2011  16:08:57  PAGE 48


  C:41E0H         LINE#         326
  C:41E3H         LINE#         327
  C:41E3H         LINE#         328
  C:41E5H         LINE#         329
  C:41E8H         LINE#         330
  C:41E8H         LINE#         331
  -------         ENDPROC       MAINTASK
  -------         PROC          MAIN
  C:4E6BH         LINE#         348
  C:4E6BH         LINE#         349
  C:4E6BH         LINE#         351
  C:4E6EH         LINE#         355
  C:4E79H         LINE#         357
  C:4E79H         LINE#         358
  C:4E79H         LINE#         359
  C:4E7AH         LINE#         361
  -------         ENDPROC       MAIN
  -------         ENDMOD        MAIN

  -------         MODULE        SINGLEBUS
  C:0000H         SYMBOL        _ICE_DUMMY_
  C:4C7AH         PUBLIC        TimerOutManager
  D:0028H         PUBLIC        byBus0DisableCount
  D:0080H         PUBLIC        P0
  D:00B2H         PUBLIC        P3M0
  D:0090H         PUBLIC        P1
  D:00B1H         PUBLIC        P3M1
  D:00A0H         PUBLIC        P2
  D:00B0H         PUBLIC        P3
  D:00C0H         PUBLIC        P4
  D:00C8H         PUBLIC        P5
  B:00A8H.7       PUBLIC        EA
  B:0020H.7       PUBLIC        bBusy
  B:0021H.2       PUBLIC        bBus0Enable
  B:0022H.7       PUBLIC        bWaitAck
  B:0023H.4       PUBLIC        bEnCallDeal
  D:00A8H         PUBLIC        IE
  B:0024H.0       PUBLIC        bPWState
  B:0024H.4       PUBLIC        bConfusionNoting
  B:00B0H.4       PUBLIC        Bus0SendPin
  D:0029H         PUBLIC        byBus0TxTail
  D:00DAH         PUBLIC        CCAPM0
  B:0021H.1       PUBLIC        bBus0OnRec
  B:00C8H.1       PUBLIC        BL_SW
  D:00B8H         PUBLIC        IP
  X:033EH         PUBLIC        uitTimer0TimerCount
  B:0021H.5       PUBLIC        bBus0OnSendFreq
  B:0023H.2       PUBLIC        bEnHelpDeal
  B:0027H.4       PUBLIC        FLED
  B:0025H.2       PUBLIC        bEnAllBroad
  B:0022H.2       PUBLIC        bOfficeBroad
  B:00B0H.3       PUBLIC        Bus0RecPin
  D:002AH         PUBLIC        byBus0RecTimeOut
  B:0020H.5       PUBLIC        bDealKeyDown
  B:0020H.0       PUBLIC        bLanding
  D:00D8H         PUBLIC        CCON
  C:4EBDH         PUBLIC        Bus0RecInt
BL51 BANKED LINKER/LOCATER V6.05                                                      12/21/2011  16:08:57  PAGE 49


  C:431CH         PUBLIC        ReadParameter
  B:0025H.5       PUBLIC        bEnAutoListen
  C:4CF5H         PUBLIC        Bus0Manage
  C:4849H         PUBLIC        SingleBusInit
  B:0025H.6       PUBLIC        bEnVoiceNote
  B:0022H.5       PUBLIC        bChannel0Talked
  B:0021H.4       PUBLIC        bBus0OnSendBit
  B:0020H.3       PUBLIC        bChannel1Talked
  B:0020H.4       PUBLIC        bNurseIn
  B:0024H.3       PUBLIC        bServiceNoting
  B:0023H.6       PUBLIC        bEnHandDown
  B:0025H.0       PUBLIC        bEnSickRoomBroad
  B:0026H.2       PUBLIC        bBus0SendFinish
  D:0020H         PUBLIC        byDevState1
  D:0022H         PUBLIC        byDevState2
  D:0098H         PUBLIC        SCON
  B:0026H.1       PUBLIC        bBus0RecBit9
  B:0023H.3       PUBLIC        bEnEmergencyDeal
  D:0024H         PUBLIC        byDevState3
  D:0089H         PUBLIC        TMOD
  D:0088H         PUBLIC        TCON
  C:2E83H         PUBLIC        TimerOutDeal
  C:3E5DH         PUBLIC        SaveParameter
  B:0025H.3       PUBLIC        bEnSoundNote
  C:4812H         PUBLIC        InitParameter
  B:0024H.7       PUBLIC        bCalledRing
  B:0088H.3       PUBLIC        IE1
  B:0026H.0       PUBLIC        bBus0RecFinish
  B:0024H.5       PUBLIC        bMusicPlaying
  D:008EH         PUBLIC        AUXR
  D:002BH         PUBLIC        byBus0SendData
  D:00C7H         PUBLIC        IAP_CONTR
  C:0011H         PUBLIC        SysReset
  D:00E0H         PUBLIC        ACC
  C:4670H         PUBLIC        _AddrCompare
  B:00A8H.1       PUBLIC        ET0
  B:0088H.5       PUBLIC        TF0
  B:0021H.7       PUBLIC        bBus0Error
  D:008CH         PUBLIC        TH0
  B:0088H.2       PUBLIC        IT1
  B:00A8H.2       PUBLIC        EX1
  B:0024H.6       PUBLIC        bVoiceNoting
  D:008AH         PUBLIC        TL0
  D:0032H         PUBLIC        byBus0RecData
  D:0039H         PUBLIC        byBus0SendCount
  B:0025H.1       PUBLIC        bEnOfficeBroad
  B:0023H.5       PUBLIC        bEnMusicplay
  B:00C8H.0       PUBLIC        LED
  B:0020H.6       PUBLIC        bSetKeyDown
  B:0088H.4       PUBLIC        TR0
  D:003AH         PUBLIC        byBus0TxQ
  D:0025H         PUBLIC        byEnable1
  B:0021H.6       PUBLIC        bBus0SendError
  D:0023H         PUBLIC        byEnable2
  B:0022H.0       PUBLIC        bSelfBroad
  B:0025H.7       PUBLIC        bEnHandleDeal
  B:0022H.4       PUBLIC        bChannel0Talk
BL51 BANKED LINKER/LOCATER V6.05                                                      12/21/2011  16:08:57  PAGE 50


  B:0023H.0       PUBLIC        bEnInfusionDeal
  B:0020H.2       PUBLIC        bChannel1Talk
  C:4917H         PUBLIC        Bus0SendDeal
  C:1E05H         PUBLIC        Timer0Int
  D:005EH         PUBLIC        byBus0RecCount
  B:0024H.2       PUBLIC        bHelpNoting
  B:0025H.4       PUBLIC        bEnOutRing
  D:005FH         PUBLIC        byBus0SendBuf
  B:0023H.1       PUBLIC        bEnServiceDeal
  B:0022H.1       PUBLIC        bAllBroad
  B:0020H.1       PUBLIC        bIndicatingOther
  C:48E5H         PUBLIC        _DirAddrCompare
  B:0026H.4       PUBLIC        bBus0SendBit
  B:0021H.0       PUBLIC        bBus0StartRec
  D:0021H         PUBLIC        byBus0State0
  B:0022H.6       PUBLIC        bWaitListen
  C:3C5CH         PUBLIC        _Bus0OutputData
  D:0060H         PUBLIC        byBus0RecSendCount
  D:0026H         PUBLIC        byBus0State1
  C:004EH         PUBLIC        Bus0RecDeal
  B:00B0H.2       PUBLIC        MIC_CTRL
  D:0061H         PUBLIC        byBus0RecBuf
  B:0021H.3       PUBLIC        bBus0ReqSend
  B:0026H.3       PUBLIC        bBus0Disable
  C:4EE6H         PUBLIC        led0flash
  D:0062H         PUBLIC        byBus0TxHead
  B:0022H.3       PUBLIC        bSickRoomBroad
  D:00D0H         PUBLIC        PSW
  C:4F25H         PUBLIC        _MakeCH0TimerOut
  D:0063H         PUBLIC        byBus0SendStopCount
  B:0026H.5       PUBLIC        bBus0RecBit
  B:0024H.1       PUBLIC        bEmergencyNoting
  -------         PROC          LED0FLASH
  C:4EE6H         LINE#         66
  C:4EE6H         LINE#         67
  C:4EE6H         LINE#         68
  C:4EE9H         LINE#         69
  C:4EE9H         LINE#         70
  C:4EEBH         LINE#         71
  C:4EEDH         LINE#         72
  C:4EEEH         LINE#         74
  C:4EEEH         LINE#         75
  C:4EF0H         LINE#         76
  C:4EF2H         LINE#         77
  C:4EF2H         LINE#         78
  -------         ENDPROC       LED0FLASH
  -------         PROC          SINGLEBUSINIT
  C:4849H         LINE#         94
  C:4849H         LINE#         95
  C:4849H         LINE#         105
  C:484CH         LINE#         106
  C:484FH         LINE#         109
  C:4852H         LINE#         110
  C:4855H         LINE#         113
  C:4857H         LINE#         114
  C:4859H         LINE#         118
  C:485CH         LINE#         119
BL51 BANKED LINKER/LOCATER V6.05                                                      12/21/2011  16:08:57  PAGE 51


  C:485FH         LINE#         121
  C:4862H         LINE#         122
  C:4865H         LINE#         126
  C:4867H         LINE#         127
  C:486AH         LINE#         128
  C:486CH         LINE#         129
  C:486EH         LINE#         131
  C:4871H         LINE#         132
  C:4873H         LINE#         133
  C:4875H         LINE#         134
  C:4878H         LINE#         135
  C:4878H         LINE#         136
  C:487AH         LINE#         137
  C:487BH         LINE#         139
  C:487BH         LINE#         140
  C:487DH         LINE#         141
  C:487DH         LINE#         142
  -------         ENDPROC       SINGLEBUSINIT
  -------         PROC          BUS0RECINT
  C:4EBDH         LINE#         159
  C:4EBFH         LINE#         161
  C:4EC1H         LINE#         162
  C:4EC3H         LINE#         163
  C:4EC5H         LINE#         164
  C:4EC8H         LINE#         165
  -------         ENDPROC       BUS0RECINT
  -------         PROC          TIMER0INT
  C:1E05H         LINE#         183
  C:1E1EH         LINE#         185
  C:1E20H         LINE#         186
  C:1E23H         LINE#         187
  C:1E26H         LINE#         188
  C:1E28H         LINE#         189
  C:1E2CH         LINE#         191
  C:1E2FH         LINE#         192
  C:1E2FH         LINE#         193
  C:1E35H         LINE#         194
  C:1E3EH         LINE#         195
  C:1E3EH         LINE#         196
  C:1E40H         LINE#         197
  C:1E42H         LINE#         198
  C:1E45H         LINE#         199
  C:1E45H         LINE#         200
  C:1E4BH         LINE#         201
  C:1E4BH         LINE#         202
  C:1E4EH         LINE#         203
  C:1E50H         LINE#         204
  C:1E52H         LINE#         205
  C:1E52H         LINE#         206
  C:1E55H         LINE#         207
  C:1E58H         LINE#         208
  C:1E58H         LINE#         209
  C:1E5AH         LINE#         211
  C:1E5AH         LINE#         212
  C:1E5CH         LINE#         213
  C:1E5CH         LINE#         214
  C:1E5CH         LINE#         215
BL51 BANKED LINKER/LOCATER V6.05                                                      12/21/2011  16:08:57  PAGE 52


  C:1E5FH         LINE#         216
  C:1E65H         LINE#         217
  C:1E65H         LINE#         218
  C:1E6BH         LINE#         219
  C:1E74H         LINE#         220
  C:1E74H         LINE#         221
  C:1E77H         LINE#         222
  C:1E79H         LINE#         223
  C:1E82H         LINE#         224
  C:1E82H         LINE#         225
  C:1E84H         LINE#         226
  C:1E87H         LINE#         227
  C:1E87H         LINE#         228
  C:1E93H         LINE#         229
  C:1E93H         LINE#         230
  C:1E96H         LINE#         231
  C:1E99H         LINE#         232
  C:1E9BH         LINE#         234
  C:1E9BH         LINE#         235
  C:1E9EH         LINE#         236
  C:1EA8H         LINE#         237
  C:1EAEH         LINE#         238
  C:1EB5H         LINE#         239
  C:1EB5H         LINE#         240
  C:1EB8H         LINE#         241
  C:1EBEH         LINE#         242
  C:1EBEH         LINE#         243
  C:1EC0H         LINE#         244
  C:1EC0H         LINE#         245
  C:1EC3H         LINE#         246
  C:1EC6H         LINE#         247
  C:1EC8H         LINE#         248
  C:1EC8H         LINE#         249
  C:1EC8H         LINE#         250
  C:1ECBH         LINE#         251
  C:1ECFH         LINE#         252
  C:1ED1H         LINE#         254
  C:1ED1H         LINE#         255
  C:1ED3H         LINE#         256
  C:1ED9H         LINE#         257
  C:1ED9H         LINE#         258
  C:1EDCH         LINE#         259
  C:1EDEH         LINE#         260
  C:1EE0H         LINE#         261
  C:1EE0H         LINE#         262
  C:1EE3H         LINE#         263
  C:1EE3H         LINE#         264
  C:1EE5H         LINE#         265
  C:1EE8H         LINE#         266
  C:1EE8H         LINE#         267
  C:1EECH         LINE#         268
  C:1EEEH         LINE#         270
  C:1EEEH         LINE#         271
  C:1EF4H         LINE#         272
  C:1EF7H         LINE#         273
  C:1EF7H         LINE#         274
  C:1EFAH         LINE#         275
BL51 BANKED LINKER/LOCATER V6.05                                                      12/21/2011  16:08:57  PAGE 53


  C:1EFAH         LINE#         276
  C:1EFAH         LINE#         277
  C:1EFAH         LINE#         278
  C:1EFAH         LINE#         280
  C:1F02H         LINE#         281
  C:1F02H         LINE#         282
  C:1F05H         LINE#         283
  C:1F05H         LINE#         284
  C:1F07H         LINE#         285
  C:1F09H         LINE#         286
  C:1F0BH         LINE#         287
  C:1F0EH         LINE#         288
  C:1F18H         LINE#         289
  C:1F1AH         LINE#         290
  C:1F1DH         LINE#         292
  C:1F1DH         LINE#         293
  C:1F20H         LINE#         294
  C:1F22H         LINE#         295
  C:1F25H         LINE#         296
  C:1F25H         LINE#         297
  C:1F25H         LINE#         298
  C:1F25H         LINE#         299
  C:1F28H         LINE#         300
  C:1F2EH         LINE#         301
  C:1F2EH         LINE#         302
  C:1F36H         LINE#         303
  C:1F36H         LINE#         304
  C:1F3CH         LINE#         305
  C:1F42H         LINE#         306
  C:1F42H         LINE#         307
  C:1F45H         LINE#         308
  C:1F47H         LINE#         309
  C:1F4FH         LINE#         310
  C:1F4FH         LINE#         311
  C:1F58H         LINE#         312
  C:1F5CH         LINE#         313
  C:1F5EH         LINE#         314
  C:1F61H         LINE#         315
  C:1F61H         LINE#         316
  C:1F63H         LINE#         317
  C:1F65H         LINE#         318
  C:1F67H         LINE#         319
  C:1F6FH         LINE#         320
  C:1F6FH         LINE#         321
  C:1F71H         LINE#         322
  C:1F73H         LINE#         323
  C:1F7CH         LINE#         324
  C:1F7CH         LINE#         325
  C:1F7FH         LINE#         326
  C:1F82H         LINE#         327
  C:1F85H         LINE#         328
  C:1F88H         LINE#         329
  C:1F8BH         LINE#         330
  C:1F8DH         LINE#         332
  C:1F8DH         LINE#         333
  C:1F90H         LINE#         334
  C:1F92H         LINE#         335
BL51 BANKED LINKER/LOCATER V6.05                                                      12/21/2011  16:08:57  PAGE 54


  C:1F92H         LINE#         336
  C:1F96H         LINE#         337
  C:1F98H         LINE#         339
  C:1F98H         LINE#         340
  C:1F9DH         LINE#         341
  C:1F9DH         LINE#         342
  C:1F9FH         LINE#         343
  C:1FA1H         LINE#         344
  C:1FA3H         LINE#         346
  C:1FA3H         LINE#         347
  C:1FA5H         LINE#         348
  C:1FA7H         LINE#         349
  C:1FA7H         LINE#         350
  C:1FADH         LINE#         351
  C:1FADH         LINE#         352
  C:1FADH         LINE#         353
  C:1FAFH         LINE#         355
  C:1FAFH         LINE#         356
  C:1FB2H         LINE#         357
  C:1FB5H         LINE#         358
  C:1FB7H         LINE#         359
  C:1FB9H         LINE#         360
  C:1FBCH         LINE#         361
  C:1FBCH         LINE#         362
  C:1FBCH         LINE#         364
  C:1FC2H         LINE#         365
  C:1FC2H         LINE#         366
  C:1FC6H         LINE#         367
  C:1FC6H         LINE#         368
  C:1FC9H         LINE#         369
  C:1FC9H         LINE#         370
  C:1FCBH         LINE#         371
  C:1FCBH         LINE#         372
  C:1FCBH         LINE#         373
  C:1FCEH         LINE#         374
  C:1FCEH         LINE#         375
  C:1FD0H         LINE#         376
  C:1FD3H         LINE#         377
  C:1FD3H         LINE#         378
  C:1FD5H         LINE#         379
  C:1FD9H         LINE#         380
  C:1FDCH         LINE#         381
  C:1FDCH         LINE#         382
  C:1FDCH         LINE#         383
  C:1FDCH         LINE#         385
  C:1FE0H         LINE#         386
  C:1FE0H         LINE#         387
  C:1FE3H         LINE#         388
  C:1FE3H         LINE#         389
  C:1FE6H         LINE#         390
  C:1FE6H         LINE#         391
  C:1FE6H         LINE#         392
  C:1FEAH         LINE#         393
  C:1FEAH         LINE#         394
  C:1FEDH         LINE#         395
  C:1FEDH         LINE#         396
  C:1FEFH         LINE#         397
BL51 BANKED LINKER/LOCATER V6.05                                                      12/21/2011  16:08:57  PAGE 55


  C:1FEFH         LINE#         398
  C:1FEFH         LINE#         400
  C:1FF8H         LINE#         401
  C:1FF8H         LINE#         402
  C:1FFBH         LINE#         403
  C:1FFBH         LINE#         404
  C:1FFDH         LINE#         405
  C:1FFDH         LINE#         406
  C:2000H         LINE#         408
  C:2000H         LINE#         409
  C:2009H         LINE#         410
  C:2009H         LINE#         411
  C:202DH         LINE#         412
  C:202DH         LINE#         413
  C:2035H         LINE#         414
  C:2045H         LINE#         415
  C:204DH         LINE#         416
  C:205EH         LINE#         417
  C:2066H         LINE#         418
  C:2077H         LINE#         419
  C:207FH         LINE#         420
  C:2090H         LINE#         421
  C:2098H         LINE#         422
  C:20A9H         LINE#         423
  C:20B1H         LINE#         424
  C:20C2H         LINE#         425
  C:20CAH         LINE#         426
  C:20DBH         LINE#         427
  C:20DEH         LINE#         428
  C:20E0H         LINE#         430
  C:20E0H         LINE#         431
  C:20E6H         LINE#         432
  C:20E6H         LINE#         433
  C:20E6H         LINE#         434
  C:20E6H         LINE#         435
  C:20E6H         LINE#         436
  -------         ENDPROC       TIMER0INT
  -------         PROC          L?0201
  -------         ENDPROC       L?0201
  -------         PROC          _BUS0OUTPUTDATA
  X:0286H         SYMBOL        pbyData
  -------         DO            
  X:0289H         SYMBOL        byTemp
  -------         ENDDO         
  C:3C5CH         LINE#         453
  C:3C67H         LINE#         454
  C:3C67H         LINE#         455
  C:3C6BH         LINE#         457
  C:3C6FH         LINE#         458
  C:3C8DH         LINE#         459
  C:3C8DH         LINE#         460
  C:3C92H         LINE#         461
  C:3C95H         LINE#         462
  C:3C95H         LINE#         463
  C:3C9FH         LINE#         464
  C:3C9FH         LINE#         465
  C:3CBAH         LINE#         466
BL51 BANKED LINKER/LOCATER V6.05                                                      12/21/2011  16:08:57  PAGE 56


  C:3CCBH         LINE#         467
  C:3CCDH         LINE#         468
  C:3CD2H         LINE#         469
  C:3CD4H         LINE#         470
  -------         ENDPROC       _BUS0OUTPUTDATA
  -------         PROC          L?0202
  -------         ENDPROC       L?0202
  -------         PROC          _ADDRCOMPARE
  D:0001H         SYMBOL        pstBusFreq
  C:4670H         LINE#         486
  C:4670H         LINE#         487
  C:4670H         LINE#         488
  C:4681H         LINE#         489
  C:4681H         LINE#         490
  C:4683H         LINE#         491
  C:4683H         LINE#         492
  C:4694H         LINE#         493
  C:4694H         LINE#         494
  C:4696H         LINE#         495
  C:4696H         LINE#         496
  C:46A7H         LINE#         497
  C:46A7H         LINE#         498
  C:46A9H         LINE#         499
  C:46A9H         LINE#         500
  C:46AAH         LINE#         501
  -------         ENDPROC       _ADDRCOMPARE
  -------         PROC          _DIRADDRCOMPARE
  D:0001H         SYMBOL        pstBusFreq
  C:48E5H         LINE#         517
  C:48E5H         LINE#         518
  C:48E5H         LINE#         519
  C:48F3H         LINE#         520
  C:48F3H         LINE#         521
  C:48F5H         LINE#         522
  C:48F5H         LINE#         523
  C:4903H         LINE#         524
  C:4903H         LINE#         525
  C:4905H         LINE#         526
  C:4905H         LINE#         527
  C:4913H         LINE#         528
  C:4913H         LINE#         529
  C:4915H         LINE#         530
  C:4915H         LINE#         531
  C:4916H         LINE#         532
  -------         ENDPROC       _DIRADDRCOMPARE
  -------         PROC          _MAKECH0TIMEROUT
  D:0007H         SYMBOL        byTimerOut
  D:0005H         SYMBOL        byTimerOutCount
  C:4F25H         LINE#         548
  C:4F25H         LINE#         549
  C:4F25H         LINE#         550
  C:4F2AH         LINE#         551
  C:4F2CH         LINE#         552
  C:4F2FH         LINE#         553
  -------         ENDPROC       _MAKECH0TIMEROUT
  -------         PROC          SYSRESET
  C:0011H         LINE#         571
BL51 BANKED LINKER/LOCATER V6.05                                                      12/21/2011  16:08:57  PAGE 57


  C:0011H         LINE#         572
  C:0011H         LINE#         574
  -------         ENDPROC       SYSRESET
  -------         PROC          L?0200
  -------         ENDPROC       L?0200
  -------         PROC          SAVEPARAMETER
  C:3E5DH         LINE#         591
  C:3E5DH         LINE#         592
  C:3E5DH         LINE#         593
  C:3E64H         LINE#         594
  C:3E6EH         LINE#         595
  C:3E74H         LINE#         596
  C:3E79H         LINE#         597
  C:3E7FH         LINE#         598
  C:3E84H         LINE#         599
  C:3E8EH         LINE#         600
  C:3E8EH         LINE#         601
  C:3EAFH         LINE#         602
  C:3EB1H         LINE#         603
  -------         ENDPROC       SAVEPARAMETER
  -------         PROC          READPARAMETER
  C:431CH         LINE#         622
  C:431CH         LINE#         623
  C:431CH         LINE#         625
  C:4323H         LINE#         626
  C:432DH         LINE#         627
  C:4333H         LINE#         629
  C:4338H         LINE#         630
  C:4342H         LINE#         631
  C:4342H         LINE#         632
  C:4363H         LINE#         633
  C:4365H         LINE#         634
  -------         ENDPROC       READPARAMETER
  -------         PROC          INITPARAMETER
  C:4812H         LINE#         651
  C:4812H         LINE#         652
  C:4812H         LINE#         653
  C:4817H         LINE#         654
  C:4820H         LINE#         655
  C:4820H         LINE#         656
  C:4823H         LINE#         657
  C:4823H         LINE#         659
  C:4823H         LINE#         660
  C:4829H         LINE#         661
  C:482DH         LINE#         662
  C:4831H         LINE#         663
  C:4835H         LINE#         665
  C:4839H         LINE#         666
  C:483BH         LINE#         667
  C:483DH         LINE#         668
  C:4841H         LINE#         669
  C:4845H         LINE#         670
  C:4848H         LINE#         671
  C:4848H         LINE#         672
  -------         ENDPROC       INITPARAMETER
  -------         PROC          BUS0RECDEAL
  -------         DO            
BL51 BANKED LINKER/LOCATER V6.05                                                      12/21/2011  16:08:57  PAGE 58


  X:0282H         SYMBOL        x
  X:0283H         SYMBOL        y
  X:0284H         SYMBOL        temp1
  X:0285H         SYMBOL        temp2
  -------         ENDDO         
  C:004EH         LINE#         690
  C:004EH         LINE#         691
  C:004EH         LINE#         694
  C:0052H         LINE#         695
  C:0065H         LINE#         696
  C:0067H         LINE#         697
  C:006CH         LINE#         700
  C:007AH         LINE#         701
  C:007AH         LINE#         703
  C:007AH         LINE#         705
  C:00E5H         LINE#         706
  C:00E5H         LINE#         707
  C:00E5H         LINE#         708
  C:00EBH         LINE#         709
  C:00EBH         LINE#         710
  C:00EDH         LINE#         711
  C:00F3H         LINE#         712
  C:0117H         LINE#         715
  C:0117H         LINE#         716
  C:0125H         LINE#         717
  C:0134H         LINE#         718
  C:013BH         LINE#         720
  C:0148H         LINE#         721
  C:0157H         LINE#         722
  C:015EH         LINE#         724
  C:016BH         LINE#         725
  C:017AH         LINE#         726
  C:0181H         LINE#         728
  C:0181H         LINE#         729
  C:0181H         LINE#         730
  C:0181H         LINE#         731
  C:0184H         LINE#         732
  C:0184H         LINE#         734
  C:018BH         LINE#         735
  C:018BH         LINE#         736
  C:0191H         LINE#         737
  C:0193H         LINE#         738
  C:0195H         LINE#         740
  C:0195H         LINE#         741
  C:019AH         LINE#         742
  C:019AH         LINE#         745
  C:01A1H         LINE#         746
  C:01A1H         LINE#         747
  C:01A3H         LINE#         748
  C:01A9H         LINE#         749
  C:01A9H         LINE#         750
  C:01ABH         LINE#         751
  C:01ADH         LINE#         752
  C:01AFH         LINE#         753
  C:01B1H         LINE#         755
  C:01B1H         LINE#         756
  C:01B5H         LINE#         757
BL51 BANKED LINKER/LOCATER V6.05                                                      12/21/2011  16:08:57  PAGE 59


  C:01B5H         LINE#         758
  C:01B5H         LINE#         759
  C:01B5H         LINE#         760
  C:01B7H         LINE#         761
  C:01B7H         LINE#         762
  C:01B7H         LINE#         763
  C:01B7H         LINE#         764
  C:01B7H         LINE#         765
  C:01BCH         LINE#         766
  C:01BFH         LINE#         767
  C:01C8H         LINE#         768
  C:01CAH         LINE#         769
  C:01CBH         LINE#         770
  C:01CBH         LINE#         771
  C:01CBH         LINE#         772
  C:01CBH         LINE#         773
  C:01CBH         LINE#         774
  C:01D0H         LINE#         775
  C:01D0H         LINE#         776
  C:01D2H         LINE#         777
  C:01D2H         LINE#         782
  C:01D2H         LINE#         783
  C:01D2H         LINE#         784
  C:01D7H         LINE#         785
  C:01DFH         LINE#         786
  C:01E2H         LINE#         787
  C:01E2H         LINE#         788
  C:01E2H         LINE#         789
  C:01E2H         LINE#         790
  C:01E2H         LINE#         791
  C:01E9H         LINE#         792
  C:01EEH         LINE#         793
  C:01F1H         LINE#         794
  C:01F1H         LINE#         795
  C:01F1H         LINE#         796
  C:01F9H         LINE#         797
  C:0201H         LINE#         798
  C:0209H         LINE#         799
  C:0211H         LINE#         800
  C:0219H         LINE#         801
  C:0221H         LINE#         802
  C:022CH         LINE#         803
  C:022CH         LINE#         804
  C:0234H         LINE#         805
  C:023CH         LINE#         806
  C:0242H         LINE#         807
  C:024AH         LINE#         808
  C:0282H         LINE#         809
  C:02BAH         LINE#         812
  C:02C1H         LINE#         813
  C:02C9H         LINE#         814
  C:02CFH         LINE#         815
  C:02D7H         LINE#         816
  C:030FH         LINE#         817
  C:0347H         LINE#         820
  C:034EH         LINE#         821
  C:0356H         LINE#         822
BL51 BANKED LINKER/LOCATER V6.05                                                      12/21/2011  16:08:57  PAGE 60


  C:035CH         LINE#         823
  C:0364H         LINE#         824
  C:039CH         LINE#         825
  C:03D4H         LINE#         828
  C:03DEH         LINE#         829
  C:03E6H         LINE#         830
  C:03ECH         LINE#         831
  C:03F4H         LINE#         832
  C:042CH         LINE#         833
  C:0464H         LINE#         836
  C:046BH         LINE#         837
  C:0473H         LINE#         838
  C:0479H         LINE#         839
  C:0481H         LINE#         840
  C:04B9H         LINE#         841
  C:04F1H         LINE#         843
  C:04F1H         LINE#         844
  C:04F1H         LINE#         846
  C:04F1H         LINE#         848
  C:0502H         LINE#         851
  C:0502H         LINE#         852
  C:0504H         LINE#         853
  C:0504H         LINE#         855
  C:0505H         LINE#         856
  C:0505H         LINE#         857
  C:0505H         LINE#         858
  C:0507H         LINE#         860
  C:0507H         LINE#         861
  C:0512H         LINE#         862
  C:0512H         LINE#         863
  C:0516H         LINE#         864
  C:0518H         LINE#         865
  C:051FH         LINE#         866
  C:051FH         LINE#         867
  C:0520H         LINE#         869
  C:0520H         LINE#         870
  C:052BH         LINE#         871
  C:052BH         LINE#         872
  C:0533H         LINE#         873
  C:0533H         LINE#         874
  C:0534H         LINE#         875
  C:0534H         LINE#         876
  C:0534H         LINE#         877
  C:0534H         LINE#         878
  C:0561H         LINE#         881
  C:0561H         LINE#         882
  C:0568H         LINE#         883
  C:056BH         LINE#         884
  C:056BH         LINE#         885
  C:056BH         LINE#         886
  C:056BH         LINE#         887
  C:0576H         LINE#         888
  C:0576H         LINE#         889
  C:057AH         LINE#         890
  C:057BH         LINE#         891
  C:0583H         LINE#         892
  C:0583H         LINE#         893
BL51 BANKED LINKER/LOCATER V6.05                                                      12/21/2011  16:08:57  PAGE 61


  C:0585H         LINE#         894
  C:058EH         LINE#         895
  C:058EH         LINE#         896
  C:0590H         LINE#         897
  C:0590H         LINE#         898
  C:0590H         LINE#         899
  C:0591H         LINE#         901
  C:0591H         LINE#         902
  C:0595H         LINE#         903
  C:0596H         LINE#         905
  C:0596H         LINE#         906
  C:059CH         LINE#         907
  C:059EH         LINE#         909
  C:059EH         LINE#         910
  C:059EH         LINE#         912
  C:059EH         LINE#         913
  C:059EH         LINE#         915
  C:059EH         LINE#         916
  C:059EH         LINE#         918
  C:059EH         LINE#         919
  C:059EH         LINE#         920
  C:059EH         LINE#         921
  C:05A0H         LINE#         923
  C:05A0H         LINE#         924
  C:05AEH         LINE#         925
  C:05BDH         LINE#         927
  C:05CBH         LINE#         928
  C:05DAH         LINE#         930
  C:05E8H         LINE#         931
  C:05F7H         LINE#         933
  C:05FEH         LINE#         934
  C:0602H         LINE#         935
  C:0606H         LINE#         936
  C:0607H         LINE#         938
  C:0607H         LINE#         939
  C:0612H         LINE#         940
  C:0612H         LINE#         941
  C:0614H         LINE#         942
  C:0614H         LINE#         943
  C:0615H         LINE#         944
  C:0615H         LINE#         945
  C:0620H         LINE#         946
  C:0620H         LINE#         947
  C:0622H         LINE#         948
  C:0622H         LINE#         949
  C:0623H         LINE#         950
  C:0623H         LINE#         951
  C:062AH         LINE#         952
  C:062AH         LINE#         953
  C:062AH         LINE#         954
  C:062AH         LINE#         955
  C:062AH         LINE#         956
  C:062DH         LINE#         957
  C:0630H         LINE#         958
  C:0630H         LINE#         959
  C:0630H         LINE#         960
  C:0635H         LINE#         961
BL51 BANKED LINKER/LOCATER V6.05                                                      12/21/2011  16:08:57  PAGE 62


  C:0635H         LINE#         962
  C:0637H         LINE#         964
  C:0637H         LINE#         965
  C:063CH         LINE#         966
  C:063CH         LINE#         967
  C:0640H         LINE#         969
  C:0643H         LINE#         970
  C:0645H         LINE#         971
  C:0647H         LINE#         972
  C:0649H         LINE#         973
  C:064CH         LINE#         974
  C:064CH         LINE#         975
  C:064DH         LINE#         977
  C:064DH         LINE#         978
  C:0655H         LINE#         979
  C:065DH         LINE#         980
  C:0665H         LINE#         981
  C:0669H         LINE#         982
  C:066DH         LINE#         983
  C:0670H         LINE#         984
  C:0671H         LINE#         985
  C:0674H         LINE#         986
  C:0674H         LINE#         987
  C:0674H         LINE#         988
  C:0674H         LINE#         989
  C:0674H         LINE#         991
  -------         ENDPROC       BUS0RECDEAL
  -------         PROC          BUS0SENDDEAL
  C:4917H         LINE#         1009
  C:4917H         LINE#         1010
  C:4917H         LINE#         1012
  C:491BH         LINE#         1013
  C:492EH         LINE#         1014
  C:4930H         LINE#         1015
  C:4935H         LINE#         1022
  C:493DH         LINE#         1023
  C:493DH         LINE#         1024
  C:493DH         LINE#         1025
  C:4940H         LINE#         1026
  C:4940H         LINE#         1027
  C:4947H         LINE#         1028
  C:4947H         LINE#         1029
  C:4947H         LINE#         1030
  C:4947H         LINE#         1031
  C:4947H         LINE#         1033
  C:4947H         LINE#         1034
  -------         ENDPROC       BUS0SENDDEAL
  -------         PROC          BUS0MANAGE
  C:4CF5H         LINE#         1050
  C:4CF5H         LINE#         1051
  C:4CF5H         LINE#         1052
  C:4CF5H         LINE#         1053
  C:4CF5H         LINE#         1054
  C:4CF8H         LINE#         1055
  C:4CF8H         LINE#         1056
  C:4CFFH         LINE#         1057
  C:4CFFH         LINE#         1058
BL51 BANKED LINKER/LOCATER V6.05                                                      12/21/2011  16:08:57  PAGE 63


  C:4D02H         LINE#         1059
  C:4D02H         LINE#         1060
  C:4D09H         LINE#         1061
  C:4D09H         LINE#         1062
  C:4D10H         LINE#         1063
  -------         ENDPROC       BUS0MANAGE
  -------         PROC          TIMEROUTDEAL
  -------         DO            
  X:0282H         SYMBOL        x
  X:0283H         SYMBOL        y
  C:2E9BH         SYMBOL        TIMER0OUTDEAL
  -------         ENDDO         
  C:2E83H         LINE#         1081
  C:2E83H         LINE#         1082
  C:2E83H         LINE#         1085
  C:2E89H         LINE#         1086
  C:2E89H         LINE#         1087
  C:2E8BH         LINE#         1088
  C:2E8EH         LINE#         1089
  C:2E8EH         LINE#         1090
  C:2E92H         LINE#         1091
  C:2E92H         LINE#         1092
  C:2E92H         LINE#         1093
  C:2E92H         LINE#         1095
  C:2E92H         LINE#         1096
  C:2E98H         LINE#         1097
  C:2E9BH         LINE#         1098
  C:2E9BH         LINE#         1099
  C:2E9BH         LINE#         1100
  C:2E9EH         LINE#         1101
  C:2E9EH         LINE#         1102
  C:2EA6H         LINE#         1103
  C:2EAEH         LINE#         1104
  C:2EB6H         LINE#         1105
  C:2EBAH         LINE#         1106
  C:2EC2H         LINE#         1107
  C:2ECAH         LINE#         1108
  C:2ED1H         LINE#         1109
  C:2ED4H         LINE#         1110
  C:2ED4H         LINE#         1112
  C:2ED6H         LINE#         1114
  C:2ED6H         LINE#         1115
  C:2EDCH         LINE#         1116
  C:2EDCH         LINE#         1117
  C:2EDCH         LINE#         1118
  C:2EDCH         LINE#         1119
  C:2EDCH         LINE#         1121
  C:2EE4H         LINE#         1122
  C:2EE4H         LINE#         1123
  C:2EEAH         LINE#         1124
  C:2EF4H         LINE#         1125
  C:2EF4H         LINE#         1126
  C:2EF6H         LINE#         1127
  C:2EFAH         LINE#         1128
  C:2EFAH         LINE#         1129
  C:2EFAH         LINE#         1131
  C:2F02H         LINE#         1132
BL51 BANKED LINKER/LOCATER V6.05                                                      12/21/2011  16:08:57  PAGE 64


  C:2F02H         LINE#         1133
  C:2F05H         LINE#         1134
  C:2F0BH         LINE#         1135
  C:2F0BH         LINE#         1136
  C:2F15H         LINE#         1137
  C:2F17H         LINE#         1138
  C:2F1AH         LINE#         1139
  C:2F1AH         LINE#         1140
  C:2F3AH         LINE#         1141
  C:2F3CH         LINE#         1143
  C:2F3CH         LINE#         1144
  C:2F4FH         LINE#         1145
  C:2F4FH         LINE#         1147
  C:2F4FH         LINE#         1148
  C:2F4FH         LINE#         1149
  C:2F59H         LINE#         1150
  C:2F59H         LINE#         1151
  C:2F67H         LINE#         1152
  C:2F67H         LINE#         1153
  C:2F71H         LINE#         1154
  C:2F71H         LINE#         1155
  C:2F73H         LINE#         1156
  C:2F73H         LINE#         1157
  C:2F73H         LINE#         1158
  C:2F73H         LINE#         1160
  C:2F7DH         LINE#         1161
  C:2F7DH         LINE#         1162
  C:2F8BH         LINE#         1163
  C:2F8BH         LINE#         1164
  C:2F8FH         LINE#         1165
  C:2F95H         LINE#         1166
  C:2F98H         LINE#         1167
  C:2F98H         LINE#         1168
  C:2F98H         LINE#         1169
  -------         ENDPROC       TIMEROUTDEAL
  -------         PROC          TIMEROUTMANAGER
  C:4C7AH         LINE#         1185
  C:4C7AH         LINE#         1186
  C:4C7AH         LINE#         1187
  C:4C7AH         LINE#         1188
  C:4C7AH         LINE#         1189
  C:4C81H         LINE#         1190
  C:4C87H         LINE#         1191
  C:4C87H         LINE#         1192
  C:4C8EH         LINE#         1193
  C:4C90H         LINE#         1195
  C:4C90H         LINE#         1196
  C:4C97H         LINE#         1197
  C:4C97H         LINE#         1198
  -------         ENDPROC       TIMEROUTMANAGER
  -------         ENDMOD        SINGLEBUS

  -------         MODULE        SPI
  C:0000H         SYMBOL        _ICE_DUMMY_
  D:0080H         PUBLIC        P0
  D:0090H         PUBLIC        P1
  D:00A0H         PUBLIC        P2
BL51 BANKED LINKER/LOCATER V6.05                                                      12/21/2011  16:08:57  PAGE 65


  D:00B0H         PUBLIC        P3
  D:00C0H         PUBLIC        P4
  D:00C8H         PUBLIC        P5
  D:00CEH         PUBLIC        SPCTL
  D:00A8H         PUBLIC        IE
  D:00B8H         PUBLIC        IP
  D:00D8H         PUBLIC        CCON
  D:0098H         PUBLIC        SCON
  D:0088H         PUBLIC        TCON
  B:0090H.6       PUBLIC        MISO
  D:00AFH         PUBLIC        IE2
  C:4F0DH         PUBLIC        SpiInit
  D:00E0H         PUBLIC        ACC
  C:4FA5H         PUBLIC        SpiInt
  D:00CDH         PUBLIC        SPSTAT
  C:4EF3H         PUBLIC        _SPI_WriteByte
  D:00D0H         PUBLIC        PSW
  D:00CFH         PUBLIC        SPDAT
  -------         PROC          SPIINIT
  C:4F0DH         LINE#         41
  C:4F0DH         LINE#         42
  C:4F0DH         LINE#         46
  C:4F10H         LINE#         47
  C:4F13H         LINE#         48
  C:4F16H         LINE#         49
  C:4F18H         LINE#         50
  -------         ENDPROC       SPIINIT
  -------         PROC          SPIINT
  C:4FA5H         LINE#         68
  C:4FA5H         LINE#         70
  C:4FA8H         LINE#         71
  C:4FABH         LINE#         72
  -------         ENDPROC       SPIINT
  -------         PROC          _SPI_WRITEBYTE
  D:0007H         SYMBOL        dat
  C:4EF3H         LINE#         90
  C:4EF3H         LINE#         91
  C:4EF3H         LINE#         93
  C:4EF5H         LINE#         94
  C:4EFAH         LINE#         95
  C:4EFDH         LINE#         96
  C:4EFFH         LINE#         97
  -------         ENDPROC       _SPI_WRITEBYTE
  -------         ENDMOD        SPI

  -------         MODULE        USART
  C:0000H         SYMBOL        _ICE_DUMMY_
  D:0080H         PUBLIC        P0
  D:00B2H         PUBLIC        P3M0
  D:0090H         PUBLIC        P1
  D:00B1H         PUBLIC        P3M1
  D:00A0H         PUBLIC        P2
  D:00B0H         PUBLIC        P3
  D:00C0H         PUBLIC        P4
  D:00C8H         PUBLIC        P5
  X:0000H         PUBLIC        stUsartCfg
  D:00A8H         PUBLIC        IE
BL51 BANKED LINKER/LOCATER V6.05                                                      12/21/2011  16:08:57  PAGE 66


  C:3DCEH         PUBLIC        _CheckPsk
  B:00A8H.4       PUBLIC        ES
  D:00B8H         PUBLIC        IP
  B:0098H.0       PUBLIC        RI
  B:0098H.1       PUBLIC        TI
  D:00D8H         PUBLIC        CCON
  B:0027H.0       PUBLIC        bUsart0RecFinish
  C:43FBH         PUBLIC        UsartInit
  D:0099H         PUBLIC        SBUF
  D:0087H         PUBLIC        PCON
  D:0098H         PUBLIC        SCON
  B:0027H.1       PUBLIC        bRS485DataError
  D:0088H         PUBLIC        TCON
  D:008EH         PUBLIC        AUXR
  D:00E0H         PUBLIC        ACC
  C:1B01H         PUBLIC        Usart0RecDeal
  X:000FH         PUBLIC        byUsart0RecBuf
  C:4FB2H         PUBLIC        _Send_Data_Byte
  B:0098H.4       PUBLIC        REN
  D:009AH         PUBLIC        S2CON
  C:4EAEH         PUBLIC        _Send_Data
  D:009CH         PUBLIC        BRT
  C:3F7EH         PUBLIC        _GetPskCrc
  C:298BH         PUBLIC        UART0
  C:4D4AH         PUBLIC        UART1
  B:00B0H.2       PUBLIC        MIC_CTRL
  D:00D0H         PUBLIC        PSW
  -------         PROC          USARTINIT
  C:43FBH         LINE#         54
  C:43FBH         LINE#         55
  C:43FBH         LINE#         57
  C:43FEH         LINE#         58
  C:4401H         LINE#         61
  C:440BH         LINE#         62
  C:4410H         LINE#         63
  C:4412H         LINE#         64
  C:4416H         LINE#         65
  C:441AH         LINE#         66
  C:441CH         LINE#         67
  C:4428H         LINE#         69
  C:442BH         LINE#         79
  C:442EH         LINE#         80
  C:4431H         LINE#         81
  C:4434H         LINE#         82
  C:4437H         LINE#         83
  C:443AH         LINE#         85
  C:443CH         LINE#         86
  C:443EH         LINE#         87
  C:4440H         LINE#         88
  C:4442H         LINE#         89
  -------         ENDPROC       USARTINIT
  -------         PROC          UART0
  -------         DO            
  D:0007H         SYMBOL        byTemp
  -------         ENDDO         
  C:298BH         LINE#         106
  C:29A4H         LINE#         109
BL51 BANKED LINKER/LOCATER V6.05                                                      12/21/2011  16:08:57  PAGE 67


  C:29AAH         LINE#         110
  C:29AAH         LINE#         111
  C:29ACH         LINE#         112
  C:29AEH         LINE#         113
  C:29B8H         LINE#         114
  C:29B8H         LINE#         115
  C:29BEH         LINE#         116
  C:29BEH         LINE#         117
  C:29C1H         LINE#         118
  C:29C4H         LINE#         120
  C:29C4H         LINE#         121
  C:29C4H         LINE#         122
  C:29CAH         LINE#         123
  C:29E2H         LINE#         124
  C:29F9H         LINE#         125
  C:29F9H         LINE#         126
  C:29F9H         LINE#         127
  C:29FDH         LINE#         128
  C:29FDH         LINE#         129
  C:2A03H         LINE#         131
  C:2A09H         LINE#         132
  C:2A0CH         LINE#         134
  C:2A0CH         LINE#         135
  C:2A10H         LINE#         136
  C:2A10H         LINE#         137
  C:2A13H         LINE#         138
  C:2A13H         LINE#         139
  C:2A1EH         LINE#         140
  C:2A1EH         LINE#         141
  C:2A24H         LINE#         142
  C:2A29H         LINE#         143
  C:2A29H         LINE#         144
  C:2A2CH         LINE#         145
  C:2A2CH         LINE#         146
  C:2A32H         LINE#         147
  C:2A37H         LINE#         148
  C:2A37H         LINE#         149
  C:2A3FH         LINE#         150
  C:2A42H         LINE#         151
  C:2A48H         LINE#         152
  C:2A48H         LINE#         154
  C:2A57H         LINE#         155
  C:2A67H         LINE#         156
  C:2A67H         LINE#         157
  C:2A6AH         LINE#         158
  C:2A78H         LINE#         159
  C:2A7AH         LINE#         161
  C:2A7AH         LINE#         162
  C:2A7CH         LINE#         163
  C:2A7DH         LINE#         164
  C:2A7DH         LINE#         165
  C:2A7DH         LINE#         166
  C:2A7FH         LINE#         167
  C:2A7FH         LINE#         168
  C:2A8DH         LINE#         169
  C:2A8DH         LINE#         170
  C:2A91H         LINE#         171
BL51 BANKED LINKER/LOCATER V6.05                                                      12/21/2011  16:08:57  PAGE 68


  C:2A91H         LINE#         172
  C:2A93H         LINE#         173
  C:2A93H         LINE#         174
  C:2A98H         LINE#         175
  C:2A99H         LINE#         176
  C:2A99H         LINE#         177
  C:2A9BH         LINE#         178
  C:2A9BH         LINE#         179
  C:2AA0H         LINE#         180
  C:2AA4H         LINE#         181
  C:2AA6H         LINE#         182
  C:2AA6H         LINE#         183
  C:2AA6H         LINE#         184
  C:2AA9H         LINE#         185
  C:2AA9H         LINE#         186
  C:2AABH         LINE#         187
  C:2AB9H         LINE#         188
  C:2AC7H         LINE#         189
  C:2AD1H         LINE#         190
  C:2AD1H         LINE#         191
  C:2AEAH         LINE#         193
  C:2AEAH         LINE#         194
  C:2AEAH         LINE#         195
  -------         ENDPROC       UART0
  -------         PROC          UART1
  C:4D4AH         LINE#         214
  C:4D4EH         LINE#         216
  C:4D53H         LINE#         217
  C:4D53H         LINE#         218
  C:4D56H         LINE#         219
  C:4D58H         LINE#         220
  C:4D5DH         LINE#         221
  C:4D5DH         LINE#         222
  C:4D60H         LINE#         223
  C:4D60H         LINE#         224
  -------         ENDPROC       UART1
  -------         PROC          _GETPSKCRC
  X:02F8H         SYMBOL        pstDataFreq
  -------         DO            
  X:02FBH         SYMBOL        pbyData
  X:02FEH         SYMBOL        uiLen
  D:0005H         SYMBOL        byCrc
  -------         ENDDO         
  C:3F7EH         LINE#         241
  C:3F89H         LINE#         242
  C:3F89H         LINE#         245
  C:3F8BH         LINE#         247
  C:3F9BH         LINE#         248
  C:3FB9H         LINE#         249
  C:3FC7H         LINE#         250
  C:3FC7H         LINE#         251
  C:3FDCH         LINE#         252
  C:3FDEH         LINE#         253
  C:3FE0H         LINE#         254
  -------         ENDPROC       _GETPSKCRC
  -------         PROC          _CHECKPSK
  X:0283H         SYMBOL        pstDataFreq
BL51 BANKED LINKER/LOCATER V6.05                                                      12/21/2011  16:08:57  PAGE 69


  -------         DO            
  X:0286H         SYMBOL        pbyData
  X:0289H         SYMBOL        uiLen
  D:0005H         SYMBOL        byCrc
  -------         ENDDO         
  C:3DCEH         LINE#         270
  C:3DD9H         LINE#         271
  C:3DD9H         LINE#         274
  C:3DDBH         LINE#         276
  C:3DEBH         LINE#         277
  C:3E09H         LINE#         278
  C:3E17H         LINE#         279
  C:3E17H         LINE#         280
  C:3E2CH         LINE#         281
  C:3E2EH         LINE#         282
  C:3E3FH         LINE#         283
  C:3E3FH         LINE#         284
  C:3E42H         LINE#         285
  C:3E42H         LINE#         286
  C:3E44H         LINE#         287
  -------         ENDPROC       _CHECKPSK
  -------         PROC          USART0RECDEAL
  -------         DO            
  D:0001H         SYMBOL        pstDataFreq
  X:0281H         SYMBOL        uiDataLen
  -------         ENDDO         
  C:1B01H         LINE#         473
  C:1B01H         LINE#         474
  C:1B01H         LINE#         478
  C:1B16H         LINE#         480
  C:1B1EH         LINE#         481
  C:1B26H         LINE#         482
  C:1B2EH         LINE#         483
  C:1B34H         LINE#         487
  C:1B74H         LINE#         491
  C:1B74H         LINE#         493
  C:1B86H         LINE#         494
  C:1B86H         LINE#         495
  C:1B8CH         LINE#         496
  C:1B8CH         LINE#         497
  C:1B8CH         LINE#         498
  C:1B8CH         LINE#         499
  C:1B8CH         LINE#         500
  C:1B8FH         LINE#         502
  C:1B8FH         LINE#         503
  C:1B96H         LINE#         504
  C:1B96H         LINE#         505
  C:1B9EH         LINE#         506
  C:1B9EH         LINE#         508
  C:1BB6H         LINE#         509
  C:1BB6H         LINE#         510
  C:1BB6H         LINE#         511
  C:1BBDH         LINE#         512
  C:1BBDH         LINE#         517
  C:1BD9H         LINE#         519
  C:1BEDH         LINE#         522
  C:1BEFH         LINE#         524
BL51 BANKED LINKER/LOCATER V6.05                                                      12/21/2011  16:08:57  PAGE 70


  C:1BEFH         LINE#         525
  C:1C12H         LINE#         526
  C:1C2CH         LINE#         529
  C:1C2CH         LINE#         531
  C:1C37H         LINE#         532
  C:1C37H         LINE#         533
  C:1C4EH         LINE#         534
  C:1C59H         LINE#         535
  C:1C59H         LINE#         536
  C:1C5EH         LINE#         537
  C:1C60H         LINE#         538
  C:1C60H         LINE#         539
  C:1C60H         LINE#         540
  C:1C60H         LINE#         541
  C:1C60H         LINE#         542
  C:1C63H         LINE#         544
  C:1C63H         LINE#         545
  C:1C6AH         LINE#         546
  C:1C6AH         LINE#         551
  C:1C86H         LINE#         553
  C:1C9AH         LINE#         556
  C:1C9CH         LINE#         558
  C:1C9CH         LINE#         559
  C:1CC5H         LINE#         560
  C:1CDFH         LINE#         563
  C:1CDFH         LINE#         565
  C:1CEAH         LINE#         566
  C:1CEAH         LINE#         567
  C:1D01H         LINE#         568
  C:1D0CH         LINE#         569
  C:1D0CH         LINE#         570
  C:1D11H         LINE#         571
  C:1D13H         LINE#         572
  C:1D13H         LINE#         573
  C:1D13H         LINE#         574
  C:1D13H         LINE#         575
  C:1D13H         LINE#         576
  C:1D16H         LINE#         577
  C:1D16H         LINE#         578
  C:1D1DH         LINE#         579
  C:1D1DH         LINE#         584
  C:1D39H         LINE#         586
  C:1D4DH         LINE#         589
  C:1D4FH         LINE#         591
  C:1D4FH         LINE#         592
  C:1D7CH         LINE#         593
  C:1D96H         LINE#         596
  C:1D96H         LINE#         598
  C:1D9DH         LINE#         599
  C:1D9DH         LINE#         600
  C:1DB4H         LINE#         601
  C:1DBCH         LINE#         602
  C:1DBCH         LINE#         603
  C:1DC1H         LINE#         604
  C:1DC6H         LINE#         605
  C:1DCCH         LINE#         606
  C:1DD6H         LINE#         607
BL51 BANKED LINKER/LOCATER V6.05                                                      12/21/2011  16:08:57  PAGE 71


  C:1DD6H         LINE#         608
  C:1DD6H         LINE#         609
  C:1DD6H         LINE#         611
  C:1DD6H         LINE#         612
  C:1DE5H         LINE#         614
  C:1DEBH         LINE#         615
  C:1DEFH         LINE#         616
  C:1DF0H         LINE#         618
  C:1DF0H         LINE#         619
  C:1DF2H         LINE#         621
  C:1DF2H         LINE#         622
  C:1DF8H         LINE#         623
  C:1DFBH         LINE#         624
  C:1E04H         LINE#         625
  C:1E04H         LINE#         626
  C:1E04H         LINE#         627
  -------         ENDPROC       USART0RECDEAL
  -------         PROC          _SEND_DATA
  X:031CH         SYMBOL        Databuf
  X:031FH         SYMBOL        l
  C:4EAEH         LINE#         629
  C:4EBCH         LINE#         630
  C:4EBCH         LINE#         652
  -------         ENDPROC       _SEND_DATA
  -------         PROC          _SEND_DATA_BYTE
  X:0281H         SYMBOL        SendData
  C:4FB2H         LINE#         655
  C:4FB7H         LINE#         656
  C:4FB7H         LINE#         673
  -------         ENDPROC       _SEND_DATA_BYTE
  -------         ENDMOD        USART

  -------         MODULE        PCT25VF
  C:0000H         SYMBOL        _ICE_DUMMY_
  C:4C39H         PUBLIC        WREN_Check
  D:0080H         PUBLIC        P0
  D:0090H         PUBLIC        P1
  D:00A0H         PUBLIC        P2
  C:4E45H         PUBLIC        _Send_Byte
  D:00B0H         PUBLIC        P3
  D:00C0H         PUBLIC        P4
  C:49FBH         PUBLIC        _Byte_Write
  D:00C8H         PUBLIC        P5
  D:00A8H         PUBLIC        IE
  C:4E7CH         PUBLIC        Read_Status_Register
  C:4B3BH         PUBLIC        Get_Byte
  D:00B8H         PUBLIC        IP
  C:4FBBH         PUBLIC        CE_Low
  C:49A3H         PUBLIC        Poll_SO
  C:4BD1H         PUBLIC        Wait_Busy
  C:0012H         PUBLIC        Hold_Low
  D:00D8H         PUBLIC        CCON
  C:4443H         PUBLIC        Jedec_ID_Read
  C:4A50H         PUBLIC        WREN_AAI_Check
  X:02B3H         PUBLIC        FRAM_BUFF
  C:4F51H         PUBLIC        DBSY
  C:4F46H         PUBLIC        EBSY
BL51 BANKED LINKER/LOCATER V6.05                                                      12/21/2011  16:08:57  PAGE 72


  D:0098H         PUBLIC        SCON
  D:0088H         PUBLIC        TCON
  C:4C99H         PUBLIC        _Byte_Write1
  C:4F3BH         PUBLIC        WRDI
  B:0090H.6       PUBLIC        MISO
  C:3F1AH         PUBLIC        _AAI_Write
  C:001AH         PUBLIC        WP_Low
  C:4ECBH         PUBLIC        WREN
  C:4CD7H         PUBLIC        _delay_nms
  C:4F30H         PUBLIC        EWSR
  C:4368H         PUBLIC        _Auto_Add_IncA
  C:4BAEH         PUBLIC        _Auto_Add_IncB
  C:44DEH         PUBLIC        _Sector_Erase
  D:00E0H         PUBLIC        ACC
  C:38EDH         PUBLIC        FRAM_TEST
  C:4AF4H         PUBLIC        Wait_Busy_AAI
  C:4D69H         PUBLIC        _delay_nus
  C:36D0H         PUBLIC        _HighSpeed_Read_Cont
  C:4D2EH         PUBLIC        _WRSR
  C:46EAH         PUBLIC        _Block_Erase_32K
  C:405AH         PUBLIC        _Byte_Program
  C:448BH         PUBLIC        _HighSpeed_Read
  C:4727H         PUBLIC        _Block_Erase_64K
  C:4149H         PUBLIC        _Auto_Add_IncA_EBSY
  C:4F5CH         PUBLIC        Chip_Erase
  C:49CFH         PUBLIC        _Auto_Add_IncB_EBSY
  C:002EH         PUBLIC        CE_High
  C:409CH         PUBLIC        _AAI_Write1
  C:4A26H         PUBLIC        _Read_ID
  C:0021H         PUBLIC        UnWP
  C:0019H         PUBLIC        Unhold
  C:3612H         PUBLIC        _Read_Cont
  C:4B8BH         PUBLIC        SST25VF_Init
  B:0090H.4       PUBLIC        SST25VF_CS
  D:00D0H         PUBLIC        PSW
  C:46ABH         PUBLIC        _Read
  -------         PROC          SST25VF_INIT
  C:4B8BH         LINE#         162
  C:4B8BH         LINE#         163
  C:4B8BH         LINE#         166
  C:4B91H         LINE#         168
  C:4B94H         LINE#         169
  C:4B9BH         LINE#         170
  C:4BA1H         LINE#         171
  C:4BA8H         LINE#         173
  -------         ENDPROC       SST25VF_INIT
  C:4E35H         SYMBOL        L?0091
  C:4E41H         SYMBOL        L?0092
  -------         PROC          L?0090
  -------         ENDPROC       L?0090
  C:4E35H         SYMBOL        L?0091
  C:4E41H         SYMBOL        L?0092
  -------         PROC          _SEND_BYTE
  D:0007H         SYMBOL        out
  C:4E45H         LINE#         188
  C:4E45H         LINE#         189
  C:4E45H         LINE#         203
BL51 BANKED LINKER/LOCATER V6.05                                                      12/21/2011  16:08:57  PAGE 73


  -------         ENDPROC       _SEND_BYTE
  -------         PROC          L?0095
  -------         ENDPROC       L?0095
  -------         PROC          GET_BYTE
  -------         DO            
  D:0007H         SYMBOL        in
  -------         ENDDO         
  C:4B3BH         LINE#         218
  C:4B3BH         LINE#         219
  C:4B3BH         LINE#         235
  C:4B40H         LINE#         236
  C:4B40H         LINE#         237
  -------         ENDPROC       GET_BYTE
  -------         PROC          POLL_SO
  -------         DO            
  X:0337H         SYMBOL        i
  X:0339H         SYMBOL        temp
  -------         ENDDO         
  C:49A3H         LINE#         252
  C:49A3H         LINE#         253
  C:49A3H         LINE#         254
  C:49ABH         LINE#         256
  C:49AEH         LINE#         257
  C:49B1H         LINE#         258
  C:49B7H         LINE#         259
  C:49B7H         LINE#         260
  C:49BBH         LINE#         261
  C:49BEH         LINE#         262
  C:49CCH         LINE#         263
  C:49CCH         LINE#         264
  -------         ENDPROC       POLL_SO
  -------         PROC          CE_HIGH
  C:002EH         LINE#         279
  C:002EH         LINE#         280
  C:002EH         LINE#         281
  C:0030H         LINE#         282
  -------         ENDPROC       CE_HIGH
  -------         PROC          L?0096
  -------         ENDPROC       L?0096
  -------         PROC          CE_LOW
  C:4FBBH         LINE#         296
  C:4FBBH         LINE#         297
  C:4FBBH         LINE#         298
  C:4FBDH         LINE#         299
  -------         ENDPROC       CE_LOW
  -------         PROC          HOLD_LOW
  C:0012H         LINE#         312
  C:0012H         LINE#         313
  C:0012H         LINE#         317
  -------         ENDPROC       HOLD_LOW
  -------         PROC          UNHOLD
  C:0019H         LINE#         330
  C:0019H         LINE#         331
  C:0019H         LINE#         335
  -------         ENDPROC       UNHOLD
  -------         PROC          WP_LOW
  C:001AH         LINE#         348
BL51 BANKED LINKER/LOCATER V6.05                                                      12/21/2011  16:08:57  PAGE 74


  C:001AH         LINE#         349
  C:001AH         LINE#         353
  -------         ENDPROC       WP_LOW
  -------         PROC          UNWP
  C:0021H         LINE#         366
  C:0021H         LINE#         367
  C:0021H         LINE#         371
  -------         ENDPROC       UNWP
  -------         PROC          READ_STATUS_REGISTER
  -------         DO            
  D:0007H         SYMBOL        byte
  -------         ENDDO         
  C:4E7CH         LINE#         384
  C:4E7CH         LINE#         385
  C:4E7CH         LINE#         386
  C:4E7EH         LINE#         387
  C:4E81H         LINE#         388
  C:4E86H         LINE#         389
  C:4E89H         LINE#         390
  C:4E8CH         LINE#         391
  C:4E8CH         LINE#         392
  -------         ENDPROC       READ_STATUS_REGISTER
  -------         PROC          EWSR
  C:4F30H         LINE#         405
  C:4F30H         LINE#         406
  C:4F30H         LINE#         407
  C:4F33H         LINE#         408
  C:4F38H         LINE#         409
  -------         ENDPROC       EWSR
  -------         PROC          _WRSR
  X:0281H         SYMBOL        byte
  C:4D2EH         LINE#         423
  C:4D36H         LINE#         424
  C:4D36H         LINE#         425
  C:4D39H         LINE#         426
  C:4D3EH         LINE#         427
  C:4D47H         LINE#         429
  -------         ENDPROC       _WRSR
  -------         PROC          WREN
  C:4ECBH         LINE#         444
  C:4ECBH         LINE#         445
  C:4ECBH         LINE#         446
  C:4ECEH         LINE#         447
  C:4ED3H         LINE#         448
  C:4ED6H         LINE#         449
  -------         ENDPROC       WREN
  -------         PROC          WRDI
  C:4F3BH         LINE#         463
  C:4F3BH         LINE#         464
  C:4F3BH         LINE#         465
  C:4F3EH         LINE#         466
  C:4F43H         LINE#         467
  -------         ENDPROC       WRDI
  -------         PROC          EBSY
  C:4F46H         LINE#         482
  C:4F46H         LINE#         483
  C:4F46H         LINE#         484
BL51 BANKED LINKER/LOCATER V6.05                                                      12/21/2011  16:08:57  PAGE 75


  C:4F49H         LINE#         485
  C:4F4EH         LINE#         486
  -------         ENDPROC       EBSY
  -------         PROC          DBSY
  C:4F51H         LINE#         501
  C:4F51H         LINE#         502
  C:4F51H         LINE#         503
  C:4F54H         LINE#         504
  C:4F59H         LINE#         505
  -------         ENDPROC       DBSY
  -------         PROC          _READ_ID
  X:0340H         SYMBOL        ID_addr
  -------         DO            
  D:0007H         SYMBOL        byte
  -------         ENDDO         
  C:4A26H         LINE#         525
  C:4A2EH         LINE#         526
  C:4A2EH         LINE#         528
  C:4A31H         LINE#         529
  C:4A36H         LINE#         530
  C:4A3BH         LINE#         531
  C:4A40H         LINE#         532
  C:4A49H         LINE#         533
  C:4A4CH         LINE#         534
  C:4A4FH         LINE#         535
  C:4A4FH         LINE#         536
  -------         ENDPROC       _READ_ID
  -------         PROC          JEDEC_ID_READ
  -------         DO            
  X:0320H         SYMBOL        temp
  -------         ENDDO         
  C:4443H         LINE#         553
  C:4443H         LINE#         554
  C:4443H         LINE#         557
  C:444DH         LINE#         559
  C:4450H         LINE#         560
  C:4455H         LINE#         561
  C:4458H         LINE#         562
  C:445BH         LINE#         563
  C:4479H         LINE#         564
  C:447CH         LINE#         566
  C:448AH         LINE#         567
  -------         ENDPROC       JEDEC_ID_READ
  -------         PROC          _READ
  X:0324H         SYMBOL        Dst
  -------         DO            
  D:0007H         SYMBOL        byte
  -------         ENDDO         
  C:46ABH         LINE#         586
  C:46B1H         LINE#         587
  C:46B1H         LINE#         588
  C:46B3H         LINE#         590
  C:46B6H         LINE#         591
  C:46BBH         LINE#         592
  C:46C1H         LINE#         593
  C:46D2H         LINE#         594
  C:46E3H         LINE#         595
BL51 BANKED LINKER/LOCATER V6.05                                                      12/21/2011  16:08:57  PAGE 76


  C:46E6H         LINE#         596
  C:46E9H         LINE#         597
  C:46E9H         LINE#         598
  -------         ENDPROC       _READ
  -------         PROC          _READ_CONT
  X:028FH         SYMBOL        pBuffer
  X:0292H         SYMBOL        Dst
  X:0296H         SYMBOL        no_bytes
  -------         DO            
  X:029AH         SYMBOL        i
  -------         ENDDO         
  C:3612H         LINE#         615
  C:3621H         LINE#         616
  C:3621H         LINE#         617
  C:362BH         LINE#         618
  C:362EH         LINE#         619
  C:3633H         LINE#         620
  C:3639H         LINE#         621
  C:364EH         LINE#         622
  C:365FH         LINE#         623
  C:3689H         LINE#         624
  C:3689H         LINE#         625
  C:36ACH         LINE#         626
  C:36CDH         LINE#         627
  -------         ENDPROC       _READ_CONT
  -------         PROC          _HIGHSPEED_READ
  X:0328H         SYMBOL        Dst
  -------         DO            
  D:0007H         SYMBOL        byte
  -------         ENDDO         
  C:448BH         LINE#         648
  C:4491H         LINE#         649
  C:4491H         LINE#         650
  C:4493H         LINE#         652
  C:4496H         LINE#         653
  C:449BH         LINE#         654
  C:44A1H         LINE#         655
  C:44B6H         LINE#         656
  C:44C7H         LINE#         657
  C:44CCH         LINE#         658
  C:44CFH         LINE#         659
  C:44D2H         LINE#         660
  C:44D2H         LINE#         661
  -------         ENDPROC       _HIGHSPEED_READ
  -------         PROC          _HIGHSPEED_READ_CONT
  X:02D9H         SYMBOL        Dst
  X:02DDH         SYMBOL        no_bytes
  X:02E1H         SYMBOL        pBuffer
  -------         DO            
  X:02E4H         SYMBOL        i
  -------         ENDDO         
  C:36D0H         LINE#         677
  C:36D6H         LINE#         678
  C:36D6H         LINE#         679
  C:36E0H         LINE#         680
  C:36E3H         LINE#         681
  C:36E8H         LINE#         682
BL51 BANKED LINKER/LOCATER V6.05                                                      12/21/2011  16:08:57  PAGE 77


  C:36EEH         LINE#         683
  C:3703H         LINE#         684
  C:3714H         LINE#         685
  C:3719H         LINE#         686
  C:3745H         LINE#         687
  C:3745H         LINE#         688
  C:3768H         LINE#         689
  C:3789H         LINE#         690
  -------         ENDPROC       _HIGHSPEED_READ_CONT
  C:4056H         SYMBOL        L?0094
  -------         PROC          L?0093
  -------         ENDPROC       L?0093
  C:4056H         SYMBOL        L?0094
  -------         PROC          _BYTE_PROGRAM
  X:028BH         SYMBOL        Dst
  X:028FH         SYMBOL        byte
  C:405AH         LINE#         711
  C:405DH         LINE#         712
  C:405DH         LINE#         713
  C:4060H         LINE#         714
  C:4065H         LINE#         715
  C:406BH         LINE#         716
  C:4080H         LINE#         717
  C:4091H         LINE#         718
  C:4099H         LINE#         719
  -------         ENDPROC       _BYTE_PROGRAM
  -------         PROC          _AUTO_ADD_INCA
  X:0306H         SYMBOL        Dst
  X:030AH         SYMBOL        byte1
  X:030BH         SYMBOL        byte2
  C:4368H         LINE#         750
  C:436BH         LINE#         751
  C:436BH         LINE#         752
  C:436EH         LINE#         753
  C:4373H         LINE#         754
  C:4379H         LINE#         755
  C:438EH         LINE#         756
  C:439FH         LINE#         757
  C:43A7H         LINE#         758
  C:43AFH         LINE#         759
  -------         ENDPROC       _AUTO_ADD_INCA
  -------         PROC          _AUTO_ADD_INCB
  X:0342H         SYMBOL        byte1
  X:0343H         SYMBOL        byte2
  C:4BAEH         LINE#         790
  C:4BB6H         LINE#         791
  C:4BB6H         LINE#         792
  C:4BB9H         LINE#         793
  C:4BBEH         LINE#         794
  C:4BC6H         LINE#         795
  C:4BCEH         LINE#         796
  -------         ENDPROC       _AUTO_ADD_INCB
  -------         PROC          _AUTO_ADD_INCA_EBSY
  X:030CH         SYMBOL        Dst
  X:0310H         SYMBOL        byte1
  X:0311H         SYMBOL        byte2
  C:4149H         LINE#         829
BL51 BANKED LINKER/LOCATER V6.05                                                      12/21/2011  16:08:57  PAGE 78


  C:414FH         LINE#         830
  C:414FH         LINE#         831
  C:4152H         LINE#         833
  C:4155H         LINE#         834
  C:415AH         LINE#         835
  C:4160H         LINE#         836
  C:4175H         LINE#         837
  C:4186H         LINE#         838
  C:418EH         LINE#         839
  C:4196H         LINE#         840
  C:4199H         LINE#         842
  -------         ENDPROC       _AUTO_ADD_INCA_EBSY
  -------         PROC          _AUTO_ADD_INCB_EBSY
  X:0344H         SYMBOL        byte1
  X:0345H         SYMBOL        byte2
  C:49CFH         LINE#         876
  C:49D7H         LINE#         877
  C:49D7H         LINE#         878
  C:49DAH         LINE#         879
  C:49DFH         LINE#         880
  C:49E7H         LINE#         881
  C:49EFH         LINE#         882
  C:49F2H         LINE#         884
  C:49F5H         LINE#         886
  C:49F8H         LINE#         887
  -------         ENDPROC       _AUTO_ADD_INCB_EBSY
  -------         PROC          CHIP_ERASE
  C:4F5CH         LINE#         901
  C:4F5CH         LINE#         902
  C:4F5CH         LINE#         903
  C:4F5FH         LINE#         904
  C:4F64H         LINE#         905
  -------         ENDPROC       CHIP_ERASE
  -------         PROC          L?0097
  -------         ENDPROC       L?0097
  -------         PROC          _SECTOR_ERASE
  X:028BH         SYMBOL        Dst
  C:44DEH         LINE#         919
  C:44E4H         LINE#         920
  C:44E4H         LINE#         923
  C:44E7H         LINE#         924
  C:44ECH         LINE#         925
  C:44F2H         LINE#         926
  C:4507H         LINE#         927
  C:4518H         LINE#         928
  -------         ENDPROC       _SECTOR_ERASE
  -------         PROC          _BLOCK_ERASE_32K
  X:032CH         SYMBOL        Dst
  C:46EAH         LINE#         942
  C:46F0H         LINE#         943
  C:46F0H         LINE#         944
  C:46F3H         LINE#         945
  C:46F8H         LINE#         946
  C:46FEH         LINE#         947
  C:4713H         LINE#         948
  C:4724H         LINE#         949
  -------         ENDPROC       _BLOCK_ERASE_32K
BL51 BANKED LINKER/LOCATER V6.05                                                      12/21/2011  16:08:57  PAGE 79


  -------         PROC          _BLOCK_ERASE_64K
  X:0330H         SYMBOL        Dst
  C:4727H         LINE#         963
  C:472DH         LINE#         964
  C:472DH         LINE#         965
  C:4730H         LINE#         966
  C:4735H         LINE#         967
  C:473BH         LINE#         968
  C:4750H         LINE#         969
  C:4761H         LINE#         970
  -------         ENDPROC       _BLOCK_ERASE_64K
  -------         PROC          WAIT_BUSY
  -------         DO            
  X:028BH         SYMBOL        i
  -------         ENDDO         
  C:4BD1H         LINE#         985
  C:4BD1H         LINE#         986
  C:4BD1H         LINE#         988
  C:4BDBH         LINE#         990
  C:4BE2H         LINE#         991
  C:4BE2H         LINE#         993
  C:4BE5H         LINE#         994
  C:4BF3H         LINE#         995
  C:4BF3H         LINE#         997
  -------         ENDPROC       WAIT_BUSY
  -------         PROC          WAIT_BUSY_AAI
  -------         DO            
  X:0346H         SYMBOL        i
  -------         ENDDO         
  C:4AF4H         LINE#         1010
  C:4AF4H         LINE#         1011
  C:4AF4H         LINE#         1013
  C:4AFEH         LINE#         1015
  C:4B05H         LINE#         1016
  C:4B05H         LINE#         1017
  C:4B0CH         LINE#         1018
  C:4B1AH         LINE#         1020
  C:4B1AH         LINE#         1021
  -------         ENDPROC       WAIT_BUSY_AAI
  -------         PROC          WREN_CHECK
  -------         DO            
  X:0348H         SYMBOL        i
  -------         ENDDO         
  C:4C39H         LINE#         1034
  C:4C39H         LINE#         1035
  C:4C39H         LINE#         1037
  C:4C41H         LINE#         1039
  C:4C48H         LINE#         1040
  C:4C48H         LINE#         1041
  C:4C4BH         LINE#         1042
  C:4C59H         LINE#         1044
  C:4C59H         LINE#         1045
  -------         ENDPROC       WREN_CHECK
  -------         PROC          WREN_AAI_CHECK
  -------         DO            
  X:034AH         SYMBOL        i
  -------         ENDDO         
BL51 BANKED LINKER/LOCATER V6.05                                                      12/21/2011  16:08:57  PAGE 80


  C:4A50H         LINE#         1058
  C:4A50H         LINE#         1059
  C:4A50H         LINE#         1061
  C:4A5AH         LINE#         1063
  C:4A64H         LINE#         1064
  C:4A64H         LINE#         1065
  C:4A6BH         LINE#         1066
  C:4A79H         LINE#         1068
  C:4A79H         LINE#         1069
  -------         ENDPROC       WREN_AAI_CHECK
  -------         PROC          _BYTE_WRITE
  X:0286H         SYMBOL        Dst
  X:028AH         SYMBOL        byte
  C:49FBH         LINE#         1074
  C:4A01H         LINE#         1075
  C:4A01H         LINE#         1076
  C:4A04H         LINE#         1077
  C:4A0AH         LINE#         1078
  C:4A0DH         LINE#         1081
  C:4A10H         LINE#         1082
  C:4A23H         LINE#         1083
  -------         ENDPROC       _BYTE_WRITE
  -------         PROC          _AAI_WRITE
  X:0283H         SYMBOL        Dst
  X:0287H         SYMBOL        p
  X:028AH         SYMBOL        no_bytes
  C:3F1AH         LINE#         1122
  C:3F2BH         LINE#         1123
  C:3F2BH         LINE#         1125
  C:3F2EH         LINE#         1126
  C:3F34H         LINE#         1128
  C:3F37H         LINE#         1155
  C:3F40H         LINE#         1156
  C:3F40H         LINE#         1157
  C:3F43H         LINE#         1158
  C:3F49H         LINE#         1159
  C:3F4CH         LINE#         1160
  C:3F6BH         LINE#         1161
  C:3F75H         LINE#         1162
  C:3F7DH         LINE#         1164
  -------         ENDPROC       _AAI_WRITE
  -------         PROC          _BYTE_WRITE1
  X:0286H         SYMBOL        Dst
  X:028AH         SYMBOL        byte
  C:4C99H         LINE#         1168
  C:4C9FH         LINE#         1169
  C:4C9FH         LINE#         1170
  C:4CA2H         LINE#         1171
  C:4CB5H         LINE#         1172
  -------         ENDPROC       _BYTE_WRITE1
  -------         PROC          _AAI_WRITE1
  X:0283H         SYMBOL        Dst
  X:0287H         SYMBOL        p
  X:028AH         SYMBOL        no_bytes
  C:409CH         LINE#         1206
  C:40ADH         LINE#         1207
  C:40ADH         LINE#         1231
BL51 BANKED LINKER/LOCATER V6.05                                                      12/21/2011  16:08:57  PAGE 81


  C:40B6H         LINE#         1232
  C:40B6H         LINE#         1233
  C:40B9H         LINE#         1234
  C:40BFH         LINE#         1235
  C:40C2H         LINE#         1236
  C:40E1H         LINE#         1237
  C:40EBH         LINE#         1238
  C:40F3H         LINE#         1240
  -------         ENDPROC       _AAI_WRITE1
  -------         PROC          FRAM_TEST
  -------         DO            
  D:0007H         SYMBOL        i
  -------         ENDDO         
  C:38EDH         LINE#         1257
  C:38EDH         LINE#         1258
  C:38EDH         LINE#         1261
  C:38F3H         LINE#         1262
  C:38F7H         LINE#         1263
  C:38FBH         LINE#         1264
  C:38FFH         LINE#         1265
  C:3903H         LINE#         1266
  C:3907H         LINE#         1268
  C:390BH         LINE#         1269
  C:390FH         LINE#         1270
  C:3913H         LINE#         1271
  C:3917H         LINE#         1272
  C:391BH         LINE#         1275
  C:392EH         LINE#         1276
  C:3945H         LINE#         1278
  C:394FH         LINE#         1279
  C:3956H         LINE#         1281
  C:3966H         LINE#         1282
  C:3981H         LINE#         1283
  C:3988H         LINE#         1285
  -------         ENDPROC       FRAM_TEST
  -------         PROC          _DELAY_NMS
  D:0006H         SYMBOL        i
  -------         DO            
  D:0004H         SYMBOL        j
  -------         ENDDO         
  C:4CD7H         LINE#         1304
  C:4CD7H         LINE#         1305
  C:4CD7H         LINE#         1308
  C:4CE0H         LINE#         1309
  C:4CE0H         LINE#         1310
  C:4CEDH         LINE#         1311
  C:4CF4H         LINE#         1313
  -------         ENDPROC       _DELAY_NMS
  C:4D65H         SYMBOL        L?0099
  -------         PROC          L?0098
  -------         ENDPROC       L?0098
  C:4D65H         SYMBOL        L?0099
  -------         PROC          _DELAY_NUS
  D:0006H         SYMBOL        i
  -------         DO            
  D:0005H         SYMBOL        j
  -------         ENDDO         
BL51 BANKED LINKER/LOCATER V6.05                                                      12/21/2011  16:08:57  PAGE 82


  C:4D69H         LINE#         1331
  C:4D69H         LINE#         1332
  C:4D69H         LINE#         1335
  C:4D72H         LINE#         1336
  C:4D72H         LINE#         1337
  C:4D76H         LINE#         1338
  C:4D7DH         LINE#         1340
  -------         ENDPROC       _DELAY_NUS
  -------         ENDMOD        PCT25VF

  -------         MODULE        OS_CORE
  C:0000H         SYMBOL        _ICE_DUMMY_
  C:4DAFH         PUBLIC        _OS_TaskSuspend
  D:0080H         PUBLIC        P0
  D:0090H         PUBLIC        P1
  D:00A0H         PUBLIC        P2
  D:00B0H         PUBLIC        P3
  D:00C0H         PUBLIC        P4
  D:00C8H         PUBLIC        P5
  B:00A8H.7       PUBLIC        EA
  C:4E21H         PUBLIC        OSSched
  D:00A8H         PUBLIC        IE
  D:00B8H         PUBLIC        IP
  C:4F19H         PUBLIC        _OSTaskSuspend
  D:00D8H         PUBLIC        CCON
  D:0008H         PUBLIC        OSIntNesting
  C:4D7EH         PUBLIC        _OSTaskResume
  D:0009H         PUBLIC        OSTaskRuning
  D:0098H         PUBLIC        SCON
  D:0088H         PUBLIC        TCON
  C:4E8DH         PUBLIC        OSInit
  C:3FE1H         PUBLIC        _OSWait
  D:000AH         PUBLIC        Os_Enter_Sum
  C:4CB8H         PUBLIC        OSTimeTick
  C:4DC7H         PUBLIC        OSFindNextRunningTask
  D:000BH         PUBLIC        OSTaskID
  D:00E0H         PUBLIC        ACC
  D:000CH         PUBLIC        OSWaitTick
  C:4BF4H         PUBLIC        _OSTimeDly
  C:4F70H         PUBLIC        OSMapTbl
  D:0011H         PUBLIC        OSNextTaskID
  C:4B67H         PUBLIC        OSIntExit
  C:4764H         PUBLIC        __OSTaskCreate
  D:0012H         PUBLIC        OSTaskCreated
  D:00D0H         PUBLIC        PSW
  -------         PROC          OSINIT
  C:4E8DH         LINE#         87
  C:4E8DH         LINE#         89
  C:4E90H         LINE#         90
  C:4E92H         LINE#         95
  C:4E94H         LINE#         96
  C:4E97H         LINE#         97
  C:4E99H         LINE#         98
  C:4E9BH         LINE#         99
  -------         ENDPROC       OSINIT
  -------         PROC          __OSTASKCREATE
  D:0001H         SYMBOL        TaskID
BL51 BANKED LINKER/LOCATER V6.05                                                      12/21/2011  16:08:57  PAGE 83


  D:0006H         SYMBOL        task
  D:0002H         SYMBOL        ptos
  C:4764H         LINE#         119
  C:476AH         LINE#         121
  C:4770H         LINE#         122
  C:4770H         LINE#         123
  C:4774H         LINE#         125
  C:477DH         LINE#         126
  C:477DH         LINE#         127
  C:4780H         LINE#         128
  C:4780H         LINE#         129
  C:4787H         LINE#         130
  C:4789H         LINE#         151
  C:4792H         LINE#         152
  C:4795H         LINE#         153
  C:479AH         LINE#         154
  C:479DH         LINE#         155
  C:479DH         LINE#         156
  C:479FH         LINE#         157
  -------         ENDPROC       __OSTASKCREATE
  -------         PROC          _OSTASKRESUME
  D:0007H         SYMBOL        TaskID
  C:4D7EH         LINE#         217
  C:4D7EH         LINE#         219
  C:4D84H         LINE#         220
  C:4D84H         LINE#         221
  C:4D88H         LINE#         223
  C:4D8FH         LINE#         234
  C:4D94H         LINE#         235
  C:4D94H         LINE#         236
  -------         ENDPROC       _OSTASKRESUME
  -------         PROC          _OS_TASKSUSPEND
  D:0007H         SYMBOL        TaskID
  C:4DAFH         LINE#         254
  C:4DAFH         LINE#         256
  C:4DB5H         LINE#         257
  C:4DB5H         LINE#         258
  C:4DB9H         LINE#         260
  C:4DC1H         LINE#         271
  C:4DC6H         LINE#         272
  C:4DC6H         LINE#         273
  -------         ENDPROC       _OS_TASKSUSPEND
  -------         PROC          _OSTASKSUSPEND
  D:0007H         SYMBOL        TaskID
  C:4F19H         LINE#         291
  C:4F19H         LINE#         293
  C:4F1FH         LINE#         295
  C:4F22H         LINE#         296
  -------         ENDPROC       _OSTASKSUSPEND
  -------         PROC          OSFINDNEXTRUNNINGTASK
  -------         DO            
  D:0007H         SYMBOL        temp
  -------         ENDDO         
  C:4DC7H         LINE#         314
  C:4DC7H         LINE#         318
  C:4DCCH         LINE#         321
  C:4DCFH         LINE#         322
BL51 BANKED LINKER/LOCATER V6.05                                                      12/21/2011  16:08:57  PAGE 84


  C:4DCFH         LINE#         323
  C:4DD3H         LINE#         324
  C:4DD3H         LINE#         325
  C:4DD3H         LINE#         326
  C:4DD3H         LINE#         327
  C:4DD7H         LINE#         328
  C:4DDEH         LINE#         351
  -------         ENDPROC       OSFINDNEXTRUNNINGTASK
  -------         PROC          OSINTEXIT
  C:4B67H         LINE#         368
  C:4B67H         LINE#         371
  C:4B6BH         LINE#         373
  C:4B72H         LINE#         374
  C:4B72H         LINE#         375
  C:4B74H         LINE#         376
  C:4B74H         LINE#         377
  C:4B78H         LINE#         378
  C:4B78H         LINE#         379
  C:4B7AH         LINE#         380
  C:4B7DH         LINE#         381
  C:4B80H         LINE#         382
  C:4B83H         LINE#         383
  C:4B83H         LINE#         384
  C:4B88H         LINE#         385
  C:4B8AH         LINE#         386
  -------         ENDPROC       OSINTEXIT
  -------         PROC          OSSCHED
  C:4E21H         LINE#         403
  C:4E21H         LINE#         406
  C:4E25H         LINE#         407
  C:4E29H         LINE#         408
  C:4E29H         LINE#         409
  C:4E2CH         LINE#         410
  C:4E2FH         LINE#         411
  C:4E2FH         LINE#         412
  C:4E34H         LINE#         413
  -------         ENDPROC       OSSCHED
  -------         PROC          OSTIMETICK
  -------         DO            
  D:0007H         SYMBOL        i
  -------         ENDDO         
  C:4CB8H         LINE#         430
  C:4CB8H         LINE#         434
  C:4CBAH         LINE#         435
  C:4CBAH         LINE#         436
  C:4CC1H         LINE#         437
  C:4CC1H         LINE#         438
  C:4CC2H         LINE#         439
  C:4CC9H         LINE#         440
  C:4CC9H         LINE#         442
  C:4CD0H         LINE#         453
  C:4CD0H         LINE#         454
  C:4CD0H         LINE#         455
  C:4CD4H         LINE#         456
  -------         ENDPROC       OSTIMETICK
  -------         PROC          _OSTIMEDLY
  D:0007H         SYMBOL        ticks
BL51 BANKED LINKER/LOCATER V6.05                                                      12/21/2011  16:08:57  PAGE 85


  C:4BF4H         LINE#         475
  C:4BF4H         LINE#         477
  C:4BFBH         LINE#         478
  C:4BFFH         LINE#         479
  C:4C07H         LINE#         480
  C:4C07H         LINE#         481
  C:4C0CH         LINE#         482
  C:4C0FH         LINE#         483
  C:4C11H         LINE#         484
  C:4C16H         LINE#         485
  -------         ENDPROC       _OSTIMEDLY
  -------         PROC          _OSWAIT
  D:0007H         SYMBOL        typ
  D:0005H         SYMBOL        ticks
  C:3FE1H         LINE#         534
  C:3FE1H         LINE#         536
  C:3FE8H         LINE#         538
  C:3FF4H         LINE#         539
  C:3FF4H         LINE#         540
  C:3FF4H         LINE#         541
  C:3FF9H         LINE#         542
  C:3FFCH         LINE#         543
  C:3FFCH         LINE#         544
  C:4006H         LINE#         545
  C:4009H         LINE#         546
  C:4009H         LINE#         548
  C:400DH         LINE#         549
  C:4015H         LINE#         550
  C:4015H         LINE#         551
  C:4018H         LINE#         552
  C:4018H         LINE#         553
  C:401DH         LINE#         554
  C:4020H         LINE#         555
  C:4025H         LINE#         556
  C:402DH         LINE#         557
  C:402DH         LINE#         558
  C:402FH         LINE#         559
  C:4032H         LINE#         560
  C:4032H         LINE#         561
  C:4035H         LINE#         562
  C:4035H         LINE#         563
  C:403CH         LINE#         564
  C:403EH         LINE#         565
  C:403EH         LINE#         566
  -------         ENDPROC       _OSWAIT
  -------         ENDMOD        OS_CORE

  -------         MODULE        OS_MEM
  C:0000H         SYMBOL        _ICE_DUMMY_
  D:0080H         PUBLIC        P0
  D:0090H         PUBLIC        P1
  D:00A0H         PUBLIC        P2
  D:00B0H         PUBLIC        P3
  D:00C0H         PUBLIC        P4
  D:00C8H         PUBLIC        P5
  D:00A8H         PUBLIC        IE
  D:00B8H         PUBLIC        IP
BL51 BANKED LINKER/LOCATER V6.05                                                      12/21/2011  16:08:57  PAGE 86


  D:00D8H         PUBLIC        CCON
  D:0098H         PUBLIC        SCON
  D:0088H         PUBLIC        TCON
  D:00E0H         PUBLIC        ACC
  D:00D0H         PUBLIC        PSW
  -------         ENDMOD        OS_MEM

  -------         MODULE        OS_Q
  C:0000H         SYMBOL        _ICE_DUMMY_
  D:0080H         PUBLIC        P0
  D:0090H         PUBLIC        P1
  D:00A0H         PUBLIC        P2
  D:00B0H         PUBLIC        P3
  D:00C0H         PUBLIC        P4
  D:00C8H         PUBLIC        P5
  B:00A8H.7       PUBLIC        EA
  D:00A8H         PUBLIC        IE
  D:00B8H         PUBLIC        IP
  C:3BCDH         PUBLIC        _OSQPost
  D:0081H         PUBLIC        SP
  D:00D8H         PUBLIC        CCON
  D:0098H         PUBLIC        SCON
  D:0088H         PUBLIC        TCON
  D:00E0H         PUBLIC        ACC
  C:47D9H         PUBLIC        _OSQCreate
  D:00D0H         PUBLIC        PSW
  C:3993H         PUBLIC        _OSQPend
  -------         PROC          _OSQCREATE
  D:0007H         SYMBOL        Buf
  D:0005H         SYMBOL        SizeOfBuf
  C:47D9H         LINE#         62
  C:47D9H         LINE#         64
  C:47D9H         LINE#         65
  C:47DDH         LINE#         67
  C:47E6H         LINE#         68
  C:47E6H         LINE#         69
  C:47E9H         LINE#         70
  C:47F0H         LINE#         72
  C:47F6H         LINE#         76
  C:47FCH         LINE#         77
  C:4802H         LINE#         80
  C:4807H         LINE#         81
  C:480AH         LINE#         82
  C:480AH         LINE#         84
  C:480AH         LINE#         85
  C:480FH         LINE#         86
  C:4811H         LINE#         87
  C:4811H         LINE#         89
  -------         ENDPROC       _OSQCREATE
  -------         PROC          _OSQPEND
  D:0007H         SYMBOL        Ret
  D:0005H         SYMBOL        Buf
  D:0003H         SYMBOL        Tick
  -------         DO            
  D:0007H         SYMBOL        cp
  -------         ENDDO         
  C:3993H         LINE#         119
BL51 BANKED LINKER/LOCATER V6.05                                                      12/21/2011  16:08:57  PAGE 87


  C:3993H         LINE#         120
  C:3993H         LINE#         132
  C:3997H         LINE#         134
  C:39A0H         LINE#         139
  C:39A2H         LINE#         140
  C:39A8H         LINE#         145
  C:39B4H         LINE#         157
  C:39B9H         LINE#         158
  C:39B9H         LINE#         161
  C:39BBH         LINE#         162
  C:39C1H         LINE#         165
  C:39C6H         LINE#         166
  C:39C9H         LINE#         169
  C:39CFH         LINE#         170
  C:39D1H         LINE#         173
  C:39D9H         LINE#         174
  C:39D9H         LINE#         175
  C:39D9H         LINE#         176
  C:39D9H         LINE#         177
  C:39D9H         LINE#         181
  C:39E6H         LINE#         193
  C:39EEH         LINE#         194
  C:39EEH         LINE#         196
  C:39EFH         LINE#         198
  C:39F4H         LINE#         199
  C:3A00H         LINE#         200
  C:3A00H         LINE#         202
  C:3A02H         LINE#         206
  C:3A02H         LINE#         208
  C:3A08H         LINE#         209
  C:3A0AH         LINE#         210
  C:3A15H         LINE#         214
  C:3A1AH         LINE#         215
  C:3A1DH         LINE#         216
  C:3A1DH         LINE#         218
  C:3A1DH         LINE#         221
  C:3A1FH         LINE#         224
  C:3A24H         LINE#         225
  C:3A26H         LINE#         226
  C:3A26H         LINE#         227
  -------         ENDPROC       _OSQPEND
  -------         PROC          _OSQPOST
  D:0007H         SYMBOL        Buf
  D:0005H         SYMBOL        Data
  -------         DO            
  D:0006H         SYMBOL        temp
  D:0005H         SYMBOL        i
  -------         ENDDO         
  C:3BCDH         LINE#         307
  C:3BCDH         LINE#         308
  C:3BCDH         LINE#         318
  C:3BD1H         LINE#         322
  C:3BDFH         LINE#         326
  C:3BDFH         LINE#         329
  C:3BE1H         LINE#         330
  C:3BE9H         LINE#         333
  C:3BF5H         LINE#         334
BL51 BANKED LINKER/LOCATER V6.05                                                      12/21/2011  16:08:57  PAGE 88


  C:3BFFH         LINE#         335
  C:3BFFH         LINE#         337
  C:3C04H         LINE#         341
  C:3C04H         LINE#         344
  C:3C0FH         LINE#         345
  C:3C11H         LINE#         350
  C:3C14H         LINE#         352
  C:3C19H         LINE#         353
  C:3C19H         LINE#         355
  C:3C1FH         LINE#         357
  C:3C21H         LINE#         358
  C:3C21H         LINE#         359
  C:3C25H         LINE#         360
  C:3C25H         LINE#         361
  C:3C25H         LINE#         362
  C:3C25H         LINE#         363
  C:3C29H         LINE#         364
  C:3C2EH         LINE#         365
  C:3C34H         LINE#         366
  C:3C34H         LINE#         368
  C:3C40H         LINE#         369
  C:3C45H         LINE#         370
  C:3C45H         LINE#         406
  C:3C45H         LINE#         407
  C:3C4AH         LINE#         408
  C:3C4DH         LINE#         409
  C:3C4DH         LINE#         411
  C:3C4DH         LINE#         412
  C:3C52H         LINE#         413
  C:3C54H         LINE#         414
  C:3C54H         LINE#         415
  -------         ENDPROC       _OSQPOST
  -------         ENDMOD        OS_Q

  -------         MODULE        OS_SEM
  C:0000H         SYMBOL        _ICE_DUMMY_
  D:0080H         PUBLIC        P0
  D:0090H         PUBLIC        P1
  D:00A0H         PUBLIC        P2
  D:00B0H         PUBLIC        P3
  D:00C0H         PUBLIC        P4
  D:00C8H         PUBLIC        P5
  D:00A8H         PUBLIC        IE
  D:00B8H         PUBLIC        IP
  D:00D8H         PUBLIC        CCON
  D:0098H         PUBLIC        SCON
  D:0088H         PUBLIC        TCON
  D:00E0H         PUBLIC        ACC
  D:00D0H         PUBLIC        PSW
  -------         ENDMOD        OS_SEM

  -------         MODULE        OS_CPU_C
  C:0000H         SYMBOL        _ICE_DUMMY_
  D:0080H         PUBLIC        P0
  D:0090H         PUBLIC        P1
  D:00A0H         PUBLIC        P2
  D:00B0H         PUBLIC        P3
BL51 BANKED LINKER/LOCATER V6.05                                                      12/21/2011  16:08:57  PAGE 89


  C:4B41H         PUBLIC        _OSTaskStkDel
  D:00C0H         PUBLIC        P4
  D:00C8H         PUBLIC        P5
  B:00A8H.7       PUBLIC        EA
  C:4562H         PUBLIC        _StkDelA
  C:45E7H         PUBLIC        _StkDelB
  C:4DDFH         PUBLIC        _StkDelC
  D:00A8H         PUBLIC        IE
  D:00B8H         PUBLIC        IP
  C:43B2H         PUBLIC        OSTickISR
  C:4E9EH         PUBLIC        OSCPUInit
  D:0081H         PUBLIC        SP
  D:00D8H         PUBLIC        CCON
  D:0013H         PUBLIC        OSTsakStackBotton
  D:0098H         PUBLIC        SCON
  D:0088H         PUBLIC        TCON
  D:00E0H         PUBLIC        ACC
  D:001AH         PUBLIC        OSFastSwap
  X:034CH         PUBLIC        timer_i
  D:00D0H         PUBLIC        PSW
  -------         PROC          OSCPUINIT
  -------         DO            
  D:0007H         SYMBOL        i
  -------         ENDDO         
  C:4E9EH         LINE#         81
  C:4E9EH         LINE#         85
  C:4EA0H         LINE#         86
  C:4EA0H         LINE#         87
  C:4EA6H         LINE#         88
  C:4EAAH         LINE#         89
  C:4EADH         LINE#         91
  -------         ENDPROC       OSCPUINIT
  -------         PROC          _STKDELA
  D:0007H         SYMBOL        TaskID
  -------         DO            
  D:0006H         SYMBOL        cp
  D:0005H         SYMBOL        cp1
  D:0004H         SYMBOL        temp
  D:0007H         SYMBOL        i
  -------         ENDDO         
  C:4562H         LINE#         203
  C:4562H         LINE#         204
  C:4562H         LINE#         209
  C:4568H         LINE#         210
  C:456EH         LINE#         211
  C:4573H         LINE#         212
  C:457CH         LINE#         213
  C:457CH         LINE#         214
  C:4587H         LINE#         215
  C:458AH         LINE#         216
  C:4590H         LINE#         218
  C:4590H         LINE#         219
  C:459CH         LINE#         220
  C:459EH         LINE#         221
  C:45A4H         LINE#         222
  -------         ENDPROC       _STKDELA
  -------         PROC          _STKDELB
BL51 BANKED LINKER/LOCATER V6.05                                                      12/21/2011  16:08:57  PAGE 90


  D:0007H         SYMBOL        TaskID
  -------         DO            
  D:0005H         SYMBOL        cp
  D:0004H         SYMBOL        cp1
  D:0005H         SYMBOL        temp
  D:0006H         SYMBOL        i
  -------         ENDDO         
  C:45E7H         LINE#         225
  C:45E7H         LINE#         226
  C:45E7H         LINE#         231
  C:45EEH         LINE#         232
  C:45F4H         LINE#         233
  C:45FFH         LINE#         234
  C:4601H         LINE#         235
  C:4601H         LINE#         237
  C:4601H         LINE#         238
  C:460DH         LINE#         239
  C:460FH         LINE#         240
  C:460FH         LINE#         241
  C:4615H         LINE#         242
  C:461EH         LINE#         243
  C:461EH         LINE#         244
  C:4625H         LINE#         245
  C:4628H         LINE#         246
  -------         ENDPROC       _STKDELB
  -------         PROC          _STKDELC
  D:0007H         SYMBOL        TaskID
  -------         DO            
  D:0005H         SYMBOL        cp
  -------         ENDDO         
  C:4DDFH         LINE#         248
  C:4DDFH         LINE#         249
  C:4DDFH         LINE#         254
  C:4DE5H         LINE#         255
  C:4DEBH         LINE#         256
  C:4DF0H         LINE#         257
  C:4DF4H         LINE#         258
  -------         ENDPROC       _STKDELC
  -------         PROC          _OSTASKSTKDEL
  D:0007H         SYMBOL        TaskID
  -------         DO            
  D:0006H         SYMBOL        temp
  -------         ENDDO         
  C:4B41H         LINE#         261
  C:4B41H         LINE#         265
  C:4B43H         LINE#         266
  C:4B47H         LINE#         267
  C:4B47H         LINE#         268
  C:4B48H         LINE#         269
  C:4B4AH         LINE#         270
  C:4B50H         LINE#         271
  C:4B50H         LINE#         272
  C:4B52H         LINE#         273
  C:4B52H         LINE#         274
  C:4B5DH         LINE#         275
  C:4B5DH         LINE#         276
  C:4B5DH         LINE#         277
BL51 BANKED LINKER/LOCATER V6.05                                                      12/21/2011  16:08:57  PAGE 91


  C:4B60H         LINE#         278
  C:4B60H         LINE#         279
  C:4B60H         LINE#         280
  C:4B63H         LINE#         281
  C:4B63H         LINE#         282
  C:4B63H         LINE#         283
  C:4B66H         LINE#         284
  C:4B66H         LINE#         285
  C:4B66H         LINE#         286
  C:4B66H         LINE#         287
  C:4B66H         LINE#         288
  -------         ENDPROC       _OSTASKSTKDEL
  -------         PROC          OSTICKISR
  C:43B2H         LINE#         311
  C:43D1H         LINE#         319
  C:43D4H         LINE#         329
  C:43D8H         LINE#         332
  C:43DBH         LINE#         337
  C:43DEH         LINE#         338
  -------         ENDPROC       OSTICKISR
  -------         ENDMOD        OS_CPU_C

  -------         MODULE        OS_CPU_A_ASM
  C:4F00H         SEGMENT       ?PR?OSCTXSW?OS_CPU_A
  C:4948H         SEGMENT       ?PR?OSINTCTXSW?OS_CPU_A
  C:48B2H         SEGMENT       ?PR?LOADCTX?OS_CPU_A
  C:3AB5H         SEGMENT       ?PR?C_OSCTXSW?OS_CPU_A
  C:3D52H         SEGMENT       ?PR?_OSTASKSTKINIT?OS_CPU_A
  I:0074H         SEGMENT       ?STACK
  C:3AB5H         PUBLIC        C_OSCTXSW
  C:48B2H         PUBLIC        LOADCTX
  C:4F00H         PUBLIC        OSCTXSW
  C:4948H         PUBLIC        OSINTCTXSW
  I:0074H         PUBLIC        STACK
  C:3D52H         PUBLIC        _OSTASKSTKINIT
  C:3B02H         SYMBOL        ?C0001
  C:3AD3H         SYMBOL        ?C0002
  C:3AD9H         SYMBOL        ?C0003
  C:3AF6H         SYMBOL        ?C0004
  C:3AFCH         SYMBOL        ?C0005
  C:3B3BH         SYMBOL        ?C0007
  C:3B0CH         SYMBOL        ?C0008
  C:3B12H         SYMBOL        ?C0009
  C:3B3EH         SYMBOL        ?C000R
  C:3B30H         SYMBOL        ?C0010
  C:3B36H         SYMBOL        ?C0011
  D:00E0H         SYMBOL        ACC
  D:00F0H         SYMBOL        B
  D:0083H         SYMBOL        DPH
  D:0082H         SYMBOL        DPL
  B:00A8H.7       SYMBOL        EA
  C:48BBH         SYMBOL        LOADCTX_0
  C:48DDH         SYMBOL        LOADCTX_2
  C:48E4H         SYMBOL        LOADCTX_3
  C:495DH         SYMBOL        OSINTCTXSW_0
  N:0000H         SYMBOL        OS_CPU_A_ASM
  D:00D0H         SYMBOL        PSW
BL51 BANKED LINKER/LOCATER V6.05                                                      12/21/2011  16:08:57  PAGE 92


  D:0081H         SYMBOL        SP
  C:3D89H         SYMBOL        STKINIT11
  C:3DBDH         SYMBOL        STKINIT12
  C:3D9BH         SYMBOL        STKINIT15
  C:3DB7H         SYMBOL        STKINIT18
  C:3D91H         SYMBOL        STKINIT5
  C:3D6CH         SYMBOL        STKINIT8
  C:3D52H         LINE#         137
  C:3D54H         LINE#         138
  C:3D56H         LINE#         142
  C:3D57H         LINE#         143
  C:3D5AH         LINE#         144
  C:3D5BH         LINE#         145
  C:3D5DH         LINE#         173
  C:3D5EH         LINE#         174
  C:3D5FH         LINE#         175
  C:3D61H         LINE#         176
  C:3D63H         LINE#         179
  C:3D64H         LINE#         180
  C:3D66H         LINE#         181
  C:3D67H         LINE#         182
  C:3D68H         LINE#         184
  C:3D6AH         LINE#         185
  C:3D6BH         LINE#         186
  C:3D6CH         LINE#         191
  C:3D6EH         LINE#         192
  C:3D6FH         LINE#         193
  C:3D70H         LINE#         195
  C:3D71H         LINE#         197
  C:3D73H         LINE#         200
  C:3D75H         LINE#         203
  C:3D77H         LINE#         204
  C:3D79H         LINE#         205
  C:3D7BH         LINE#         207
  C:3D7DH         LINE#         208
  C:3D7EH         LINE#         209
  C:3D7FH         LINE#         210
  C:3D81H         LINE#         211
  C:3D82H         LINE#         212
  C:3D84H         LINE#         213
  C:3D85H         LINE#         214
  C:3D86H         LINE#         215
  C:3D87H         LINE#         217
  C:3D89H         LINE#         222
  C:3D8AH         LINE#         223
  C:3D8BH         LINE#         224
  C:3D8CH         LINE#         225
  C:3D8DH         LINE#         227
  C:3D8FH         LINE#         229
  C:3D91H         LINE#         234
  C:3D93H         LINE#         235
  C:3D95H         LINE#         236
  C:3D96H         LINE#         238
  C:3D97H         LINE#         239
  C:3D98H         LINE#         240
  C:3D9AH         LINE#         241
  C:3D9BH         LINE#         246
BL51 BANKED LINKER/LOCATER V6.05                                                      12/21/2011  16:08:57  PAGE 93


  C:3D9DH         LINE#         247
  C:3D9EH         LINE#         248
  C:3D9FH         LINE#         250
  C:3DA0H         LINE#         252
  C:3DA2H         LINE#         255
  C:3DA4H         LINE#         256
  C:3DA6H         LINE#         257
  C:3DA7H         LINE#         258
  C:3DA8H         LINE#         259
  C:3DA9H         LINE#         261
  C:3DAAH         LINE#         262
  C:3DACH         LINE#         263
  C:3DADH         LINE#         265
  C:3DAFH         LINE#         266
  C:3DB0H         LINE#         267
  C:3DB1H         LINE#         268
  C:3DB2H         LINE#         269
  C:3DB3H         LINE#         270
  C:3DB4H         LINE#         271
  C:3DB5H         LINE#         273
  C:3DB7H         LINE#         278
  C:3DB8H         LINE#         279
  C:3DB9H         LINE#         280
  C:3DBAH         LINE#         281
  C:3DBBH         LINE#         283
  C:3DBDH         LINE#         287
  C:3DBFH         LINE#         288
  C:3DC0H         LINE#         289
  C:3DC1H         LINE#         290
  C:3DC2H         LINE#         291
  C:3DC3H         LINE#         293
  C:3DC5H         LINE#         294
  C:3DC6H         LINE#         295
  C:3DC7H         LINE#         297
  C:3DC9H         LINE#         298
  C:3DCAH         LINE#         299
  C:3DCBH         LINE#         309
  C:3DCCH         LINE#         310
  C:3DCDH         LINE#         312
  C:48B2H         LINE#         340
  C:48B4H         LINE#         348
  C:48B6H         LINE#         349
  C:48B9H         LINE#         350
  C:48BBH         LINE#         352
  C:48BEH         LINE#         354
  C:48BFH         LINE#         355
  C:48C1H         LINE#         367
  C:48C3H         LINE#         369
  C:48C5H         LINE#         370
  C:48C7H         LINE#         371
  C:48C9H         LINE#         372
  C:48CBH         LINE#         373
  C:48CDH         LINE#         374
  C:48CFH         LINE#         375
  C:48D1H         LINE#         376
  C:48D3H         LINE#         377
  C:48D5H         LINE#         378
BL51 BANKED LINKER/LOCATER V6.05                                                      12/21/2011  16:08:57  PAGE 94


  C:48D7H         LINE#         379
  C:48D9H         LINE#         380
  C:48DBH         LINE#         381
  C:48DDH         LINE#         384
  C:48DFH         LINE#         385
  C:48E2H         LINE#         386
  C:48E4H         LINE#         388
  C:4F00H         LINE#         415
  C:4F02H         LINE#         417
  C:4F05H         LINE#         418
  C:4F07H         LINE#         420
  C:4F08H         LINE#         421
  C:4F0AH         LINE#         434
  C:3AB5H         LINE#         457
  C:3AB7H         LINE#         460
  C:3AB9H         LINE#         466
  C:3ABAH         LINE#         468
  C:3ABCH         LINE#         469
  C:3ABEH         LINE#         470
  C:3ABFH         LINE#         471
  C:3AC0H         LINE#         472
  C:3AC1H         LINE#         474
  C:3AC3H         LINE#         475
  C:3AC5H         LINE#         476
  C:3AC6H         LINE#         477
  C:3AC7H         LINE#         478
  C:3AC8H         LINE#         480
  C:3ACAH         LINE#         481
  C:3ACBH         LINE#         482
  C:3ACDH         LINE#         483
  C:3ACFH         LINE#         489
  C:3AD0H         LINE#         490
  C:3AD1H         LINE#         491
  C:3AD2H         LINE#         492
  C:3AD3H         LINE#         494
  C:3AD4H         LINE#         495
  C:3AD5H         LINE#         496
  C:3AD6H         LINE#         497
  C:3AD7H         LINE#         498
  C:3AD9H         LINE#         501
  C:3ADBH         LINE#         502
  C:3ADDH         LINE#         503
  C:3ADEH         LINE#         504
  C:3ADFH         LINE#         505
  C:3AE0H         LINE#         507
  C:3AE1H         LINE#         508
  C:3AE2H         LINE#         510
  C:3AE3H         LINE#         511
  C:3AE5H         LINE#         516
  C:3AE7H         LINE#         517
  C:3AE8H         LINE#         518
  C:3AEAH         LINE#         519
  C:3AEBH         LINE#         520
  C:3AEDH         LINE#         522
  C:3AEFH         LINE#         523
  C:3AF1H         LINE#         524
  C:3AF2H         LINE#         525
BL51 BANKED LINKER/LOCATER V6.05                                                      12/21/2011  16:08:57  PAGE 95


  C:3AF3H         LINE#         526
  C:3AF4H         LINE#         527
  C:3AF5H         LINE#         528
  C:3AF6H         LINE#         530
  C:3AF7H         LINE#         531
  C:3AF8H         LINE#         532
  C:3AF9H         LINE#         533
  C:3AFAH         LINE#         534
  C:3AFCH         LINE#         537
  C:3AFFH         LINE#         539
  C:3B02H         LINE#         544
  C:3B04H         LINE#         545
  C:3B06H         LINE#         546
  C:3B08H         LINE#         558
  C:3B09H         LINE#         559
  C:3B0AH         LINE#         560
  C:3B0BH         LINE#         561
  C:3B0CH         LINE#         563
  C:3B0DH         LINE#         564
  C:3B0EH         LINE#         565
  C:3B0FH         LINE#         566
  C:3B10H         LINE#         567
  C:3B12H         LINE#         570
  C:3B14H         LINE#         571
  C:3B16H         LINE#         572
  C:3B17H         LINE#         573
  C:3B18H         LINE#         574
  C:3B19H         LINE#         576
  C:3B1AH         LINE#         577
  C:3B1BH         LINE#         579
  C:3B1DH         LINE#         580
  C:3B1FH         LINE#         581
  C:3B20H         LINE#         582
  C:3B21H         LINE#         583
  C:3B23H         LINE#         589
  C:3B25H         LINE#         590
  C:3B26H         LINE#         591
  C:3B28H         LINE#         592
  C:3B2AH         LINE#         594
  C:3B2BH         LINE#         595
  C:3B2DH         LINE#         596
  C:3B2FH         LINE#         597
  C:3B30H         LINE#         599
  C:3B31H         LINE#         600
  C:3B32H         LINE#         601
  C:3B33H         LINE#         602
  C:3B34H         LINE#         603
  C:3B36H         LINE#         607
  C:3B39H         LINE#         609
  C:3B3BH         LINE#         613
  C:3B3EH         LINE#         618
  C:4948H         LINE#         642
  C:494AH         LINE#         643
  C:494CH         LINE#         644
  C:494EH         LINE#         647
  C:4950H         LINE#         648
  C:4952H         LINE#         649
BL51 BANKED LINKER/LOCATER V6.05                                                      12/21/2011  16:08:57  PAGE 96


  C:4954H         LINE#         651
  C:4956H         LINE#         652
  C:4958H         LINE#         653
  C:495AH         LINE#         654
  C:495CH         LINE#         655
  C:495DH         LINE#         659
  C:495FH         LINE#         660
  C:4961H         LINE#         661
  C:4963H         LINE#         663
  C:4966H         LINE#         664
  C:4968H         LINE#         666
  C:4969H         LINE#         667
  C:496AH         LINE#         668
  C:496CH         LINE#         689
  C:496EH         LINE#         691
  C:4970H         LINE#         692
  C:4972H         LINE#         693
  C:4974H         LINE#         694
  C:4976H         LINE#         695
  -------         ENDMOD        OS_CPU_A_ASM

  -------         MODULE        ?C?COPY
  C:1165H         PUBLIC        ?C?COPY
  -------         ENDMOD        ?C?COPY

  -------         MODULE        ?C?CLDPTR
  C:118BH         PUBLIC        ?C?CLDPTR
  -------         ENDMOD        ?C?CLDPTR

  -------         MODULE        ?C?CLDOPTR
  C:11A4H         PUBLIC        ?C?CLDOPTR
  -------         ENDMOD        ?C?CLDOPTR

  -------         MODULE        ?C?CSTPTR
  C:11D1H         PUBLIC        ?C?CSTPTR
  -------         ENDMOD        ?C?CSTPTR

  -------         MODULE        ?C?CSTOPTR
  C:11E3H         PUBLIC        ?C?CSTOPTR
  -------         ENDMOD        ?C?CSTOPTR

  -------         MODULE        ?C?IMUL
  C:1205H         PUBLIC        ?C?IMUL
  -------         ENDMOD        ?C?IMUL

  -------         MODULE        ?C?UIDIV
  C:1217H         PUBLIC        ?C?UIDIV
  -------         ENDMOD        ?C?UIDIV

  -------         MODULE        ?C?IILDX
  C:126CH         PUBLIC        ?C?IILDX
  -------         ENDMOD        ?C?IILDX

  -------         MODULE        ?C?ILDIX
  C:1282H         PUBLIC        ?C?ILDIX
  -------         ENDMOD        ?C?ILDIX

BL51 BANKED LINKER/LOCATER V6.05                                                      12/21/2011  16:08:57  PAGE 97


  -------         MODULE        ?C?ILDOPTR
  C:1298H         PUBLIC        ?C?ILDOPTR
  -------         ENDMOD        ?C?ILDOPTR

  -------         MODULE        ?C?LMUL
  C:12D0H         PUBLIC        ?C?LMUL
  -------         ENDMOD        ?C?LMUL

  -------         MODULE        ?C?ULDIV
  C:135BH         PUBLIC        ?C?ULDIV
  -------         ENDMOD        ?C?ULDIV

  -------         MODULE        ?C?ULCMP
  C:13EDH         PUBLIC        ?C?ULCMP
  -------         ENDMOD        ?C?ULCMP

  -------         MODULE        ?C?ULSHR
  C:13FEH         PUBLIC        ?C?ULSHR
  -------         ENDMOD        ?C?ULSHR

  -------         MODULE        ?C?LSHL
  C:1411H         PUBLIC        ?C?LSHL
  -------         ENDMOD        ?C?LSHL

  -------         MODULE        ?C?LSTXDATA
  C:1424H         PUBLIC        ?C?LSTXDATA
  -------         ENDMOD        ?C?LSTXDATA

  -------         MODULE        ?C?LSTKXDATA
  C:1430H         PUBLIC        ?C?LSTKXDATA
  -------         ENDMOD        ?C?LSTKXDATA

  -------         MODULE        ?C?CCASE
  C:1461H         PUBLIC        ?C?CCASE
  -------         ENDMOD        ?C?CCASE

  -------         MODULE        ?C?MEMSET
  C:1487H         PUBLIC        ?C?MEMSET
  -------         ENDMOD        ?C?MEMSET

*** WARNING L16: UNCALLED SEGMENT, IGNORED FOR OVERLAY PROCESS
    SEGMENT: ?PR?_LCD_FILL?LCD

*** WARNING L16: UNCALLED SEGMENT, IGNORED FOR OVERLAY PROCESS
    SEGMENT: ?PR?_DISPLAY_DOT?LCD

*** WARNING L16: UNCALLED SEGMENT, IGNORED FOR OVERLAY PROCESS
    SEGMENT: ?PR?_DISPLAY_HLINE?LCD

*** WARNING L16: UNCALLED SEGMENT, IGNORED FOR OVERLAY PROCESS
    SEGMENT: ?PR?_DISPLAY_VLINE?LCD

*** WARNING L16: UNCALLED SEGMENT, IGNORED FOR OVERLAY PROCESS
    SEGMENT: ?PR?_DISPLAYDIGIT?LCD

*** WARNING L16: UNCALLED SEGMENT, IGNORED FOR OVERLAY PROCESS
    SEGMENT: ?PR?_DISPLAYASCII?LCD
BL51 BANKED LINKER/LOCATER V6.05                                                      12/21/2011  16:08:57  PAGE 98



*** WARNING L16: UNCALLED SEGMENT, IGNORED FOR OVERLAY PROCESS
    SEGMENT: ?PR?_LCD_FANGDA_DIS_TEXT?LCD

*** WARNING L16: UNCALLED SEGMENT, IGNORED FOR OVERLAY PROCESS
    SEGMENT: ?PR?SHOWMAINMENUFACE?LCD

*** WARNING L16: UNCALLED SEGMENT, IGNORED FOR OVERLAY PROCESS
    SEGMENT: ?PR?SHOWDIETFACE?LCD

*** WARNING L16: UNCALLED SEGMENT, IGNORED FOR OVERLAY PROCESS
    SEGMENT: ?PR?SHOWPRESCRIPTIONFACE?LCD

*** WARNING L16: UNCALLED SEGMENT, IGNORED FOR OVERLAY PROCESS
    SEGMENT: ?PR?SHOWPROMPTFACE?LCD

*** WARNING L16: UNCALLED SEGMENT, IGNORED FOR OVERLAY PROCESS
    SEGMENT: ?PR?LED0FLASH?SINGLEBUS

*** WARNING L16: UNCALLED SEGMENT, IGNORED FOR OVERLAY PROCESS
    SEGMENT: ?PR?SYSRESET?SINGLEBUS

*** WARNING L16: UNCALLED SEGMENT, IGNORED FOR OVERLAY PROCESS
    SEGMENT: ?PR?_GETPSKCRC?USART

*** WARNING L16: UNCALLED SEGMENT, IGNORED FOR OVERLAY PROCESS
    SEGMENT: ?PR?HOLD_LOW?PCT25VF

*** WARNING L16: UNCALLED SEGMENT, IGNORED FOR OVERLAY PROCESS
    SEGMENT: ?PR?UNHOLD?PCT25VF

*** WARNING L16: UNCALLED SEGMENT, IGNORED FOR OVERLAY PROCESS
    SEGMENT: ?PR?WP_LOW?PCT25VF

*** WARNING L16: UNCALLED SEGMENT, IGNORED FOR OVERLAY PROCESS
    SEGMENT: ?PR?UNWP?PCT25VF

*** WARNING L16: UNCALLED SEGMENT, IGNORED FOR OVERLAY PROCESS
    SEGMENT: ?PR?_READ_ID?PCT25VF

*** WARNING L16: UNCALLED SEGMENT, IGNORED FOR OVERLAY PROCESS
    SEGMENT: ?PR?JEDEC_ID_READ?PCT25VF

*** WARNING L16: UNCALLED SEGMENT, IGNORED FOR OVERLAY PROCESS
    SEGMENT: ?PR?_HIGHSPEED_READ?PCT25VF

*** WARNING L16: UNCALLED SEGMENT, IGNORED FOR OVERLAY PROCESS
    SEGMENT: ?PR?_HIGHSPEED_READ_CONT?PCT25VF

*** WARNING L16: UNCALLED SEGMENT, IGNORED FOR OVERLAY PROCESS
    SEGMENT: ?PR?_AUTO_ADD_INCA?PCT25VF

*** WARNING L16: UNCALLED SEGMENT, IGNORED FOR OVERLAY PROCESS
    SEGMENT: ?PR?_AUTO_ADD_INCB?PCT25VF

*** WARNING L16: UNCALLED SEGMENT, IGNORED FOR OVERLAY PROCESS
    SEGMENT: ?PR?_AUTO_ADD_INCA_EBSY?PCT25VF
BL51 BANKED LINKER/LOCATER V6.05                                                      12/21/2011  16:08:57  PAGE 99



*** WARNING L16: UNCALLED SEGMENT, IGNORED FOR OVERLAY PROCESS
    SEGMENT: ?PR?_AUTO_ADD_INCB_EBSY?PCT25VF

*** WARNING L16: UNCALLED SEGMENT, IGNORED FOR OVERLAY PROCESS
    SEGMENT: ?PR?CHIP_ERASE?PCT25VF

*** WARNING L16: UNCALLED SEGMENT, IGNORED FOR OVERLAY PROCESS
    SEGMENT: ?PR?_BLOCK_ERASE_32K?PCT25VF

*** WARNING L16: UNCALLED SEGMENT, IGNORED FOR OVERLAY PROCESS
    SEGMENT: ?PR?_BLOCK_ERASE_64K?PCT25VF

*** WARNING L16: UNCALLED SEGMENT, IGNORED FOR OVERLAY PROCESS
    SEGMENT: ?PR?WAIT_BUSY_AAI?PCT25VF

*** WARNING L16: UNCALLED SEGMENT, IGNORED FOR OVERLAY PROCESS
    SEGMENT: ?PR?WREN_CHECK?PCT25VF

*** WARNING L16: UNCALLED SEGMENT, IGNORED FOR OVERLAY PROCESS
    SEGMENT: ?PR?WREN_AAI_CHECK?PCT25VF

*** WARNING L16: UNCALLED SEGMENT, IGNORED FOR OVERLAY PROCESS
    SEGMENT: ?PR?FRAM_TEST?PCT25VF

*** WARNING L16: UNCALLED SEGMENT, IGNORED FOR OVERLAY PROCESS
    SEGMENT: ?PR?_OSTASKSTKDEL?OS_CPU_C

Program Size: data=113.5 xdata=845 code=20394
LINK/LOCATE RUN COMPLETE.  34 WARNING(S),  0 ERROR(S)
