BL51 BANKED LINKER/LOCATER V6.05                                                        07/07/2015  16:43:23  PAGE 1


BL51 BANKED LINKER/LOCATER V6.05, INVOKED BY:
C:\KEIL\C51\BIN\BL51.EXE GT23.obj, IAP.obj, Key.obj, lcd.obj, main.obj, SingleBus.obj, SPI.obj, Usart.obj, PCT25VF.obj, 
>> .\OS_CORE.obj, .\OS_MEM.obj, .\OS_Q.obj, .\OS_SEM.obj, .\OS_CPU_C.obj, .\OS_CPU_A.obj TO CTFJ-SB-TM018 RAMSIZE (256)


MEMORY MODEL: LARGE


INPUT MODULES INCLUDED:
  GT23.obj (GT23)
  IAP.obj (IAP)
  Key.obj (KEY)
  lcd.obj (LCD)
  main.obj (MAIN)
  SingleBus.obj (SINGLEBUS)
  SPI.obj (SPI)
  Usart.obj (USART)
  PCT25VF.obj (PCT25VF)
  .\OS_CORE.obj (OS_CORE)
  .\OS_MEM.obj (OS_MEM)
  .\OS_Q.obj (OS_Q)
  .\OS_SEM.obj (OS_SEM)
  .\OS_CPU_C.obj (OS_CPU_C)
  .\OS_CPU_A.obj (OS_CPU_A_ASM)
  C:\KEIL\C51\LIB\C51L.LIB (?C_STARTUP)
  C:\KEIL\C51\LIB\C51L.LIB (?C?COPY)
  C:\KEIL\C51\LIB\C51L.LIB (?C?CLDPTR)
  C:\KEIL\C51\LIB\C51L.LIB (?C?CLDOPTR)
  C:\KEIL\C51\LIB\C51L.LIB (?C?CSTPTR)
  C:\KEIL\C51\LIB\C51L.LIB (?C?CSTOPTR)
  C:\KEIL\C51\LIB\C51L.LIB (?C?IMUL)
  C:\KEIL\C51\LIB\C51L.LIB (?C?UIDIV)
  C:\KEIL\C51\LIB\C51L.LIB (?C?IILDX)
  C:\KEIL\C51\LIB\C51L.LIB (?C?ILDIX)
  C:\KEIL\C51\LIB\C51L.LIB (?C?ILDOPTR)
  C:\KEIL\C51\LIB\C51L.LIB (?C?LMUL)
  C:\KEIL\C51\LIB\C51L.LIB (?C?SLDIV)
  C:\KEIL\C51\LIB\C51L.LIB (?C?ULCMP)
  C:\KEIL\C51\LIB\C51L.LIB (?C?ULSHR)
  C:\KEIL\C51\LIB\C51L.LIB (?C?LSHL)
  C:\KEIL\C51\LIB\C51L.LIB (?C?LSTXDATA)
  C:\KEIL\C51\LIB\C51L.LIB (?C?LSTKXDATA)
  C:\KEIL\C51\LIB\C51L.LIB (?C?CCASE)
  C:\KEIL\C51\LIB\C51L.LIB (?C?MEMSET)
  C:\KEIL\C51\LIB\C51L.LIB (?C_INIT)
  C:\KEIL\C51\LIB\C51L.LIB (?C?ULDIV)


LINK MAP OF MODULE:  CTFJ-SB-TM018 (GT23)


            TYPE    BASE      LENGTH    RELOCATION   SEGMENT NAME
            -----------------------------------------------------

            * * * * * * *   D A T A   M E M O R Y   * * * * * * *
            REG     0000H     0008H     ABSOLUTE     "REG BANK 0"
            DATA    0008H     000BH     UNIT         ?DT?OS_CORE
            DATA    0013H     0008H     UNIT         ?DT?OS_CPU_C
BL51 BANKED LINKER/LOCATER V6.05                                                      07/07/2015  16:43:23  PAGE 2


            DATA    001BH     0001H     UNIT         ?DT?MAIN
                    001CH     0004H                  *** GAP ***
            DATA    0020H     0007H     BIT_ADDR     ?BA?SINGLEBUS
            BIT     0027H.0   0000H.2   UNIT         ?BI?USART
            BIT     0027H.2   0000H.1   UNIT         ?BI?LCD
            BIT     0027H.3   0000H.1   UNIT         ?BI?MAIN
            BIT     0027H.4   0000H.1   UNIT         ?BI?SINGLEBUS
                    0027H.5   0000H.3                *** GAP ***
            DATA    0028H     003CH     UNIT         ?DT?SINGLEBUS
            IDATA   0064H     0010H     UNIT         ?ID?MAIN
            IDATA   0074H     0002H     UNIT         ?STACK

            * * * * * * *  X D A T A   M E M O R Y  * * * * * * *
            XDATA   0000H     011BH     UNIT         ?XD?USART
            XDATA   011BH     00A6H     UNIT         ?XD?LCD
            XDATA   01C1H     0089H     UNIT         ?XD?GT23
            XDATA   024AH     0044H     UNIT         _XDATA_GROUP_
            XDATA   028EH     0039H     UNIT         ?XD?MAIN
            XDATA   02C7H     0014H     UNIT         ?XD?PCT25VF
            XDATA   02DBH     0012H     UNIT         ?XD?_LCD_FANGDA_DIS_TEXT?LCD
            XDATA   02EDH     000FH     UNIT         ?XD?_HIGHSPEED_READ_CONT?PCT25VF
            XDATA   02FCH     0008H     UNIT         ?XD?_LCD_FILL?LCD
            XDATA   0304H     0008H     UNIT         ?XD?_DISPLAYDIGIT?LCD
            XDATA   030CH     0008H     UNIT         ?XD?_DISPLAYASCII?LCD
            XDATA   0314H     0008H     UNIT         ?XD?_GETPSKCRC?USART
            XDATA   031CH     0006H     UNIT         ?XD?_AUTO_ADD_INCA?PCT25VF
            XDATA   0322H     0006H     UNIT         ?XD?_AUTO_ADD_INCA_EBSY?PCT25VF
            XDATA   0328H     0005H     UNIT         ?XD?_DISPLAY_HLINE?LCD
            XDATA   032DH     0005H     UNIT         ?XD?_DISPLAY_VLINE?LCD
            XDATA   0332H     0004H     UNIT         ?XD?_SEND_DATA?USART
            XDATA   0336H     0004H     UNIT         ?XD?JEDEC_ID_READ?PCT25VF
            XDATA   033AH     0004H     UNIT         ?XD?_READ?PCT25VF
            XDATA   033EH     0004H     UNIT         ?XD?_HIGHSPEED_READ?PCT25VF
            XDATA   0342H     0004H     UNIT         ?XD?_BLOCK_ERASE_64K?PCT25VF
            XDATA   0346H     0003H     UNIT         ?XD?KEY
            XDATA   0349H     0003H     UNIT         ?XD?POLL_SO?PCT25VF
            XDATA   034CH     0002H     UNIT         ?XD?_DISPLAY_DOT?LCD
            XDATA   034EH     0002H     UNIT         ?XD?SHOWMAINMENUFACE?LCD
            XDATA   0350H     0002H     UNIT         ?XD?SINGLEBUS
            XDATA   0352H     0002H     UNIT         ?XD?_READ_ID?PCT25VF
            XDATA   0354H     0002H     UNIT         ?XD?_AUTO_ADD_INCB?PCT25VF
            XDATA   0356H     0002H     UNIT         ?XD?_AUTO_ADD_INCB_EBSY?PCT25VF
            XDATA   0358H     0002H     UNIT         ?XD?WAIT_BUSY_AAI?PCT25VF
            XDATA   035AH     0002H     UNIT         ?XD?WREN_CHECK?PCT25VF
            XDATA   035CH     0002H     UNIT         ?XD?WREN_AAI_CHECK?PCT25VF
            XDATA   035EH     0001H     UNIT         ?XD?OS_CPU_C

            * * * * * * *   C O D E   M E M O R Y   * * * * * * *
            CODE    0000H     0003H     ABSOLUTE     
            CODE    0003H     0003H     ABSOLUTE     
            CODE    0006H     0003H     UNIT         ?PR?EX0INT?MAIN
            CODE    0009H     0001H     UNIT         ?PR?SYSRESET?SINGLEBUS
            CODE    000AH     0001H     UNIT         ?PR?HOLD_LOW?PCT25VF
            CODE    000BH     0003H     ABSOLUTE     
            CODE    000EH     0003H     UNIT         ?PR?TIMER1INT?MAIN
            CODE    0011H     0001H     UNIT         ?PR?UNHOLD?PCT25VF
            CODE    0012H     0001H     UNIT         ?PR?WP_LOW?PCT25VF
BL51 BANKED LINKER/LOCATER V6.05                                                      07/07/2015  16:43:23  PAGE 3


            CODE    0013H     0003H     ABSOLUTE     
            CODE    0016H     0003H     UNIT         ?PR?ADCINT?MAIN
            CODE    0019H     0001H     UNIT         ?PR?UNWP?PCT25VF
                    001AH     0001H                  *** GAP ***
            CODE    001BH     0003H     ABSOLUTE     
            CODE    001EH     0003H     UNIT         ?PR?LVDINT?MAIN
                    0021H     0002H                  *** GAP ***
            CODE    0023H     0003H     ABSOLUTE     
            CODE    0026H     0003H     UNIT         ?CO?MAIN
                    0029H     0002H                  *** GAP ***
            CODE    002BH     0003H     ABSOLUTE     
            CODE    002EH     0003H     UNIT         ?PR?CE_HIGH?PCT25VF
                    0031H     0002H                  *** GAP ***
            CODE    0033H     0003H     ABSOLUTE     
                    0036H     0005H                  *** GAP ***
            CODE    003BH     0003H     ABSOLUTE     
                    003EH     0005H                  *** GAP ***
            CODE    0043H     0003H     ABSOLUTE     
                    0046H     0005H                  *** GAP ***
            CODE    004BH     0003H     ABSOLUTE     
            CODE    004EH     06E6H     UNIT         ?PR?BUS0RECDEAL?SINGLEBUS
            CODE    0734H     041EH     UNIT         ?C?LIB_CODE
            CODE    0B52H     0349H     UNIT         ?PR?USART0RECDEAL?USART
            CODE    0E9BH     031AH     UNIT         ?PR?SHOWLANDINGFACE?LCD
            CODE    11B5H     02F8H     UNIT         ?PR?TIMER0INT?SINGLEBUS
            CODE    14ADH     02EDH     UNIT         ?PR?_DISPLAYSTRING?LCD
            CODE    179AH     02BDH     UNIT         ?PR?_GET_GT23_DATA1?GT23
            CODE    1A57H     02B4H     UNIT         ?PR?SHOWMAINMENUFACE?LCD
            CODE    1D0BH     0291H     UNIT         ?PR?_GET_GT23_DATA?GT23
            CODE    1F9CH     0239H     UNIT         ?PR?SHOWPOWERUPFACE?LCD
            CODE    21D5H     020EH     UNIT         ?PR?_SHOWFACE?LCD
            CODE    23E3H     017DH     UNIT         ?PR?ST7735_INIT?LCD
            CODE    2560H     0176H     UNIT         ?PR?UART0?USART
            CODE    26D6H     0142H     UNIT         ?PR?_DISPLAYDIGITSTRING?LCD
            CODE    2818H     0129H     UNIT         ?PR?_KEYDOWNDEAL?KEY
            CODE    2941H     011FH     UNIT         ?PR?_LCD_FANGDA_DIS_TEXT?LCD
            CODE    2A60H     011DH     UNIT         ?PR?TIMEROUTDEAL?SINGLEBUS
            CODE    2B7DH     0114H     UNIT         ?PR?_DISPLAYASCIISTRING?LCD
            CODE    2C91H     0103H     UNIT         ?PR?INIT?MAIN
            CODE    2D94H     00F8H     UNIT         ?PR?_DISPLAYCHINESESTRING?LCD
            CODE    2E8CH     00F7H     UNIT         ?PR?_DISPLAYBLOCK?LCD
            CODE    2F83H     00E1H     UNIT         ?PR?_DISPLAY_ASCII?LCD
            CODE    3064H     00D9H     UNIT         ?PR?_ASCIIXDIRECTIONINCREASE?LCD
            CODE    313DH     00C4H     UNIT         ?PR?_DISPLAY_CHINESE?LCD
            CODE    3201H     00C4H     UNIT         ?PR?_READ_CONT?PCT25VF
            CODE    32C5H     00BCH     UNIT         ?PR?_HIGHSPEED_READ_CONT?PCT25VF
            CODE    3381H     00B5H     UNIT         ?CO?LCD
            CODE    3436H     00A6H     UNIT         ?PR?_CHINESEXDIRECTIONINCREASE?LCD
            CODE    34DCH     00A6H     UNIT         ?PR?FRAM_TEST?PCT25VF
            CODE    3582H     0094H     UNIT         ?PR?_OSQPEND?OS_Q
            CODE    3616H     008EH     UNIT         ?PR?SHOWCALLSUCCESS?LCD
            CODE    36A4H     008CH     UNIT         ?PR?C_OSCTXSW?OS_CPU_A
            CODE    3730H     008CH     UNIT         ?C_C51STARTUP
            CODE    37BCH     0088H     UNIT         ?PR?_OSQPOST?OS_Q
            CODE    3844H     0084H     UNIT         ?PR?USARTINIT?USART
            CODE    38C8H     007DH     UNIT         ?PR?KEYMANAGER?KEY
            CODE    3945H     007CH     UNIT         ?PR?_OSTASKSTKINIT?OS_CPU_A
BL51 BANKED LINKER/LOCATER V6.05                                                      07/07/2015  16:43:23  PAGE 4


            CODE    39C1H     0079H     UNIT         ?PR?_BUS0OUTPUTDATA?SINGLEBUS
            CODE    3A3AH     0077H     UNIT         ?PR?_CHECKPSK?USART
            CODE    3AB1H     006FH     UNIT         ?PR?SAVEPARAMETER?SINGLEBUS
            CODE    3B20H     0066H     UNIT         ?PR?_DISPLAYDIGIT?LCD
            CODE    3B86H     0064H     UNIT         ?PR?_AAI_WRITE?PCT25VF
            CODE    3BEAH     0063H     UNIT         ?PR?_GETPSKCRC?USART
            CODE    3C4DH     005EH     UNIT         ?PR?_OSWAIT?OS_CORE
            CODE    3CABH     005DH     UNIT         ?PR?_LCD_FILL?LCD
            CODE    3D08H     005DH     UNIT         ?PR?_BYTE_PROGRAM?PCT25VF
            CODE    3D65H     0058H     UNIT         ?PR?_AAI_WRITE1?PCT25VF
            CODE    3DBDH     0055H     UNIT         ?PR?_DISPLAYASCII?LCD
            CODE    3E12H     0053H     UNIT         ?PR?_SET_DISPLAY_AREA?LCD
            CODE    3E65H     0053H     UNIT         ?PR?_AUTO_ADD_INCA_EBSY?PCT25VF
            CODE    3EB8H     0052H     UNIT         ?PR?_LCD_CLEAR?LCD
            CODE    3F0AH     004EH     UNIT         ?PR?MAINTASK?MAIN
            CODE    3F58H     004DH     UNIT         ?PR?_KEYUPDEAL?KEY
            CODE    3FA5H     004DH     UNIT         ?PR?_KEYALWAYSDEAL?KEY
            CODE    3FF2H     004CH     UNIT         ?PR?SHOWTALKFACE?LCD
            CODE    403EH     004CH     UNIT         ?PR?SHOWBROADFACE?LCD
            CODE    408AH     004CH     UNIT         ?PR?READPARAMETER?SINGLEBUS
            CODE    40D6H     004AH     UNIT         ?PR?_AUTO_ADD_INCA?PCT25VF
            CODE    4120H     0049H     UNIT         ?PR?OSTICKISR?OS_CPU_C
            CODE    4169H     0048H     UNIT         ?PR?JEDEC_ID_READ?PCT25VF
            CODE    41B1H     0048H     UNIT         ?PR?_HIGHSPEED_READ?PCT25VF
            CODE    41F9H     0048H     UNIT         ?PR?_SECTOR_ERASE?PCT25VF
            CODE    4241H     0044H     UNIT         ?C?LDIV
            CODE    4285H     0043H     UNIT         ?PR?_STKDELA?OS_CPU_C
            CODE    42C8H     0042H     UNIT         ?PR?_STKDELB?OS_CPU_C
            CODE    430AH     0041H     UNIT         ?PR?_DISPATCHMESSAGE?MAIN
            CODE    434BH     0041H     UNIT         ?PR?_ADDRCOMPARE?SINGLEBUS
            CODE    438CH     003FH     UNIT         ?PR?_READ?PCT25VF
            CODE    43CBH     003DH     UNIT         ?PR?_BLOCK_ERASE_32K?PCT25VF
            CODE    4408H     003DH     UNIT         ?PR?_BLOCK_ERASE_64K?PCT25VF
            CODE    4445H     003CH     UNIT         ?PR?__OSTASKCREATE?OS_CORE
            CODE    4481H     003BH     UNIT         ?PR?INITPARAMETER?SINGLEBUS
            CODE    44BCH     0039H     UNIT         ?C_INITSEG
            CODE    44F5H     0039H     UNIT         ?PR?_OSQCREATE?OS_Q
            CODE    452EH     0036H     UNIT         ?PR?_DISPLAY_HLINE?LCD
            CODE    4564H     0035H     UNIT         ?PR?SINGLEBUSINIT?SINGLEBUS
            CODE    4599H     0033H     UNIT         ?PR?LOADCTX?OS_CPU_A
            CODE    45CCH     0032H     UNIT         ?PR?_DIRADDRCOMPARE?SINGLEBUS
            CODE    45FEH     0031H     UNIT         ?PR?BUS0SENDDEAL?SINGLEBUS
            CODE    462FH     0030H     UNIT         ?PR?_DISPLAY_VLINE?LCD
            CODE    465FH     002FH     UNIT         ?PR?OSINTCTXSW?OS_CPU_A
            CODE    468EH     002CH     UNIT         ?PR?POLL_SO?PCT25VF
            CODE    46BAH     002CH     UNIT         ?PR?_AUTO_ADD_INCB_EBSY?PCT25VF
            CODE    46E6H     002BH     UNIT         ?PR?_DISPLAY_DOT?LCD
            CODE    4711H     002BH     UNIT         ?PR?_BYTE_WRITE?PCT25VF
            CODE    473CH     002AH     UNIT         ?PR?_READ_ID?PCT25VF
            CODE    4766H     002AH     UNIT         ?PR?WREN_AAI_CHECK?PCT25VF
            CODE    4790H     0029H     UNIT         ?PR?KEYSCAN?KEY
            CODE    47B9H     0029H     UNIT         ?PR?SST25VF_INIT?PCT25VF
            CODE    47E2H     0027H     UNIT         ?PR?WAIT_BUSY_AAI?PCT25VF
            CODE    4809H     0026H     UNIT         ?PR?GET_BYTE?PCT25VF
            CODE    482FH     0026H     UNIT         ?PR?_OSTASKSTKDEL?OS_CPU_C
            CODE    4855H     0024H     UNIT         ?PR?OSINTEXIT?OS_CORE
            CODE    4879H     0023H     UNIT         ?PR?_AUTO_ADD_INCB?PCT25VF
BL51 BANKED LINKER/LOCATER V6.05                                                      07/07/2015  16:43:23  PAGE 5


            CODE    489CH     0023H     UNIT         ?PR?WAIT_BUSY?PCT25VF
            CODE    48BFH     0023H     UNIT         ?PR?_OSTIMEDLY?OS_CORE
            CODE    48E2H     0022H     UNIT         ?PR?USERTICKTIMER?MAIN
            CODE    4904H     0021H     UNIT         ?PR?WREN_CHECK?PCT25VF
            CODE    4925H     001FH     UNIT         ?PR?TIMEROUTMANAGER?SINGLEBUS
            CODE    4944H     001FH     UNIT         ?PR?_BYTE_WRITE1?PCT25VF
            CODE    4963H     001FH     UNIT         ?PR?OSTIMETICK?OS_CORE
            CODE    4982H     001EH     UNIT         ?PR?_DELAY_NMS?PCT25VF
            CODE    49A0H     001DH     UNIT         ?PR?BUS0MANAGE?SINGLEBUS
            CODE    49BDH     001CH     UNIT         ?PR?_WRSR?PCT25VF
            CODE    49D9H     001BH     UNIT         ?PR?UART1?USART
            CODE    49F4H     0019H     UNIT         ?PR?_DELAYMS?LCD
            CODE    4A0DH     0019H     UNIT         ?PR?_DELAY_NUS?PCT25VF
            CODE    4A26H     0019H     UNIT         ?PR?_OSTASKRESUME?OS_CORE
            CODE    4A3FH     0018H     UNIT         ?PR?_OS_TASKSUSPEND?OS_CORE
            CODE    4A57H     0018H     UNIT         ?PR?OSFINDNEXTRUNNINGTASK?OS_CORE
            CODE    4A6FH     0018H     UNIT         ?PR?_STKDELC?OS_CPU_C
            CODE    4A87H     0016H     UNIT         ?PR?_IAPWRITEBYTE?IAP
            CODE    4A9DH     0014H     UNIT         ?PR?_IAPREADBYTE?IAP
            CODE    4AB1H     0014H     UNIT         ?PR?OSSCHED?OS_CORE
            CODE    4AC5H     0013H     UNIT         ?PR?_SEND_BYTE?PCT25VF
            CODE    4AD8H     0012H     UNIT         ?PR?_IAPERASE?IAP
            CODE    4AEAH     0011H     UNIT         ?PR?_SEND_ST7735_DATA?LCD
            CODE    4AFBH     0011H     UNIT         ?PR?MAIN?MAIN
            CODE    4B0CH     0011H     UNIT         ?PR?READ_STATUS_REGISTER?PCT25VF
            CODE    4B1DH     0011H     UNIT         ?PR?OSINIT?OS_CORE
            CODE    4B2EH     0010H     UNIT         ?PR?OSCPUINIT?OS_CPU_C
            CODE    4B3EH     000FH     UNIT         ?PR?_SEND_DATA?USART
            CODE    4B4DH     000EH     UNIT         ?PR?BUS0RECINT?SINGLEBUS
            CODE    4B5BH     000EH     UNIT         ?PR?WREN?PCT25VF
            CODE    4B69H     000DH     UNIT         ?PR?_SETLEDSTATE?KEY
            CODE    4B76H     000DH     UNIT         ?PR?LED0FLASH?SINGLEBUS
            CODE    4B83H     000DH     UNIT         ?PR?_SPI_WRITEBYTE?SPI
            CODE    4B90H     000DH     UNIT         ?PR?OSCTXSW?OS_CPU_A
            CODE    4B9DH     000CH     UNIT         ?PR?_SEND_ST7735_COMMAND?LCD
            CODE    4BA9H     000CH     UNIT         ?PR?DISPMANAGER?LCD
            CODE    4BB5H     000CH     UNIT         ?PR?SPINORMALMODE?SPI
            CODE    4BC1H     000CH     UNIT         ?PR?SPILCDMODE?SPI
            CODE    4BCDH     000CH     UNIT         ?PR?_OSTASKSUSPEND?OS_CORE
            CODE    4BD9H     000BH     UNIT         ?PR?_MAKECH0TIMEROUT?SINGLEBUS
            CODE    4BE4H     000BH     UNIT         ?PR?EWSR?PCT25VF
            CODE    4BEFH     000BH     UNIT         ?PR?WRDI?PCT25VF
            CODE    4BFAH     000BH     UNIT         ?PR?EBSY?PCT25VF
            CODE    4C05H     000BH     UNIT         ?PR?DBSY?PCT25VF
            CODE    4C10H     000BH     UNIT         ?PR?CHIP_ERASE?PCT25VF
            CODE    4C1BH     0009H     UNIT         ?PR?BL_SW_INIT?MAIN
            CODE    4C24H     0009H     UNIT         ?CO?OS_CORE
            CODE    4C2DH     0008H     UNIT         ?PR?REC_GT23_DATA?GT23
            CODE    4C35H     0008H     UNIT         ?PR?DISABLEIAP?IAP
            CODE    4C3DH     0007H     UNIT         ?PR?SHOWDIETFACE?LCD
            CODE    4C44H     0007H     UNIT         ?PR?SHOWPRESCRIPTIONFACE?LCD
            CODE    4C4BH     0007H     UNIT         ?PR?SHOWPROMPTFACE?LCD
            CODE    4C52H     0007H     UNIT         ?PR?_GETMESSAGE?MAIN
            CODE    4C59H     0007H     UNIT         ?PR?SPIINT?SPI
            CODE    4C60H     0006H     UNIT         ?PR?_ENABLEIAP?IAP
            CODE    4C66H     0006H     UNIT         ?PR?_SEND_DATA_BYTE?USART
            CODE    4C6CH     0006H     UNIT         ?PR?CE_LOW?PCT25VF
BL51 BANKED LINKER/LOCATER V6.05                                                      07/07/2015  16:43:23  PAGE 6





OVERLAY MAP OF MODULE:   CTFJ-SB-TM018 (GT23)


SEGMENT                                      XDATA_GROUP
  +--> CALLED SEGMENT                      START    LENGTH
----------------------------------------------------------
?PR?OSTICKISR?OS_CPU_C                     -----    -----
  +--> ?PR?USERTICKTIMER?MAIN
  +--> ?PR?OSTIMETICK?OS_CORE
  +--> ?PR?OSINTEXIT?OS_CORE

?PR?OSTIMETICK?OS_CORE                     -----    -----
  +--> ?CO?OS_CORE
  +--> ?PR?OSSCHED?OS_CORE

?PR?OSSCHED?OS_CORE                        -----    -----
  +--> ?PR?OSFINDNEXTRUNNINGTASK?OS_CORE
  +--> ?PR?OSCTXSW?OS_CPU_A

?PR?OSCTXSW?OS_CPU_A                       -----    -----
  +--> ?CO?OS_CORE
  +--> ?PR?C_OSCTXSW?OS_CPU_A

?PR?C_OSCTXSW?OS_CPU_A                     -----    -----
  +--> ?PR?LOADCTX?OS_CPU_A

?PR?LOADCTX?OS_CPU_A                       -----    -----
  +--> ?CO?OS_CORE

?PR?OSINTEXIT?OS_CORE                      -----    -----
  +--> ?PR?OSFINDNEXTRUNNINGTASK?OS_CORE
  +--> ?PR?OSINTCTXSW?OS_CPU_A

?PR?OSINTCTXSW?OS_CPU_A                    -----    -----
  +--> ?PR?OSCTXSW?OS_CPU_A
  +--> ?CO?OS_CORE
  +--> ?PR?C_OSCTXSW?OS_CPU_A

*** NEW ROOT ***************************************************

?C_C51STARTUP                              -----    -----
  +--> ?PR?MAIN?MAIN
  +--> ?C_INITSEG

?PR?MAIN?MAIN                              -----    -----
  +--> ?PR?OSINIT?OS_CORE
  +--> ?PR?MAINTASK?MAIN
  +--> ?PR?__OSTASKCREATE?OS_CORE

?PR?OSINIT?OS_CORE                         -----    -----
  +--> ?PR?OSCPUINIT?OS_CPU_C

?PR?MAINTASK?MAIN                          -----    -----
  +--> ?PR?INIT?MAIN
BL51 BANKED LINKER/LOCATER V6.05                                                      07/07/2015  16:43:23  PAGE 7


  +--> ?PR?_OSQCREATE?OS_Q
  +--> ?PR?BUS0MANAGE?SINGLEBUS
  +--> ?PR?__OSTASKCREATE?OS_CORE
  +--> ?PR?KEYMANAGER?KEY
  +--> ?PR?DISPMANAGER?LCD
  +--> ?PR?TIMEROUTMANAGER?SINGLEBUS
  +--> ?PR?_GETMESSAGE?MAIN
  +--> ?PR?_DISPATCHMESSAGE?MAIN
  +--> ?PR?USART0RECDEAL?USART

?PR?INIT?MAIN                              -----    -----
  +--> ?PR?_DELAYMS?LCD
  +--> ?PR?INITPARAMETER?SINGLEBUS
  +--> ?PR?SINGLEBUSINIT?SINGLEBUS
  +--> ?PR?USARTINIT?USART
  +--> ?PR?_SEND_DATA_BYTE?USART
  +--> ?PR?SPILCDMODE?SPI
  +--> ?PR?ST7735_INIT?LCD
  +--> ?PR?BL_SW_INIT?MAIN
  +--> ?PR?SST25VF_INIT?PCT25VF
  +--> ?PR?_SETLEDSTATE?KEY
  +--> ?PR?_MAKECH0TIMEROUT?SINGLEBUS
  +--> ?PR?_READ_CONT?PCT25VF
  +--> ?PR?SHOWPOWERUPFACE?LCD

?PR?INITPARAMETER?SINGLEBUS                -----    -----
  +--> ?PR?_ENABLEIAP?IAP
  +--> ?PR?_IAPREADBYTE?IAP
  +--> ?PR?READPARAMETER?SINGLEBUS
  +--> ?PR?SAVEPARAMETER?SINGLEBUS

?PR?READPARAMETER?SINGLEBUS                -----    -----
  +--> ?PR?_ENABLEIAP?IAP
  +--> ?PR?_IAPREADBYTE?IAP
  +--> ?PR?DISABLEIAP?IAP

?PR?SAVEPARAMETER?SINGLEBUS                -----    -----
  +--> ?PR?_ENABLEIAP?IAP
  +--> ?PR?_IAPERASE?IAP
  +--> ?PR?_IAPWRITEBYTE?IAP
  +--> ?PR?DISABLEIAP?IAP

?PR?_SEND_DATA_BYTE?USART                  024AH    0001H

?PR?ST7735_INIT?LCD                        -----    -----
  +--> ?PR?_DELAYMS?LCD
  +--> ?PR?_SEND_ST7735_COMMAND?LCD
  +--> ?PR?_SEND_ST7735_DATA?LCD

?PR?_SEND_ST7735_COMMAND?LCD               -----    -----
  +--> ?PR?_SPI_WRITEBYTE?SPI

?PR?_SEND_ST7735_DATA?LCD                  -----    -----
  +--> ?PR?_SPI_WRITEBYTE?SPI

?PR?SST25VF_INIT?PCT25VF                   -----    -----
  +--> ?PR?SPINORMALMODE?SPI
BL51 BANKED LINKER/LOCATER V6.05                                                      07/07/2015  16:43:23  PAGE 8


  +--> ?PR?READ_STATUS_REGISTER?PCT25VF
  +--> ?PR?_SEND_DATA_BYTE?USART
  +--> ?PR?EWSR?PCT25VF
  +--> ?PR?_DELAYMS?LCD
  +--> ?PR?_WRSR?PCT25VF
  +--> ?PR?SPILCDMODE?SPI

?PR?READ_STATUS_REGISTER?PCT25VF           -----    -----
  +--> ?PR?CE_LOW?PCT25VF
  +--> ?PR?_SEND_BYTE?PCT25VF
  +--> ?PR?GET_BYTE?PCT25VF
  +--> ?PR?CE_HIGH?PCT25VF

?PR?_SEND_BYTE?PCT25VF                     -----    -----
  +--> ?PR?_SPI_WRITEBYTE?SPI

?PR?GET_BYTE?PCT25VF                       -----    -----
  +--> ?PR?_SPI_WRITEBYTE?SPI

?PR?EWSR?PCT25VF                           -----    -----
  +--> ?PR?CE_LOW?PCT25VF
  +--> ?PR?_SEND_BYTE?PCT25VF
  +--> ?PR?CE_HIGH?PCT25VF

?PR?_WRSR?PCT25VF                          024AH    0002H
  +--> ?PR?CE_LOW?PCT25VF
  +--> ?PR?_SEND_BYTE?PCT25VF
  +--> ?PR?CE_HIGH?PCT25VF

?PR?_READ_CONT?PCT25VF                     027FH    000FH
  +--> ?PR?SPINORMALMODE?SPI
  +--> ?PR?CE_LOW?PCT25VF
  +--> ?PR?_SEND_BYTE?PCT25VF
  +--> ?PR?GET_BYTE?PCT25VF
  +--> ?PR?CE_HIGH?PCT25VF
  +--> ?PR?SPILCDMODE?SPI

?PR?SHOWPOWERUPFACE?LCD                    024AH    0002H
  +--> ?PR?_LCD_CLEAR?LCD
  +--> ?CO?LCD
  +--> ?PR?_DISPLAYCHINESESTRING?LCD
  +--> ?PR?_DISPLAYASCIISTRING?LCD
  +--> ?PR?_DISPLAYDIGITSTRING?LCD

?PR?_LCD_CLEAR?LCD                         0258H    0004H
  +--> ?PR?_SET_DISPLAY_AREA?LCD
  +--> ?PR?_SEND_ST7735_COMMAND?LCD
  +--> ?PR?_SEND_ST7735_DATA?LCD

?PR?_SET_DISPLAY_AREA?LCD                  0275H    0004H
  +--> ?PR?_SEND_ST7735_COMMAND?LCD
  +--> ?PR?_SEND_ST7735_DATA?LCD

?PR?_DISPLAYCHINESESTRING?LCD              0258H    0011H
  +--> ?PR?_GET_GT23_DATA1?GT23
  +--> ?PR?_DISPLAY_CHINESE?LCD
  +--> ?PR?_CHINESEXDIRECTIONINCREASE?LCD
BL51 BANKED LINKER/LOCATER V6.05                                                      07/07/2015  16:43:23  PAGE 9



?PR?_GET_GT23_DATA1?GT23                   0269H    0016H
  +--> ?PR?SPINORMALMODE?SPI
  +--> ?PR?_READ_CONT?PCT25VF
  +--> ?PR?SPILCDMODE?SPI

?PR?_DISPLAY_CHINESE?LCD                   0269H    000CH
  +--> ?PR?_SET_DISPLAY_AREA?LCD
  +--> ?PR?_SEND_ST7735_COMMAND?LCD
  +--> ?PR?_SEND_ST7735_DATA?LCD

?PR?_CHINESEXDIRECTIONINCREASE?LCD         0269H    0007H

?PR?_DISPLAYASCIISTRING?LCD                0253H    0011H
  +--> ?CO?LCD
  +--> ?PR?_GET_GT23_DATA?GT23
  +--> ?PR?_DISPLAY_ASCII?LCD
  +--> ?PR?_ASCIIXDIRECTIONINCREASE?LCD

?PR?_GET_GT23_DATA?GT23                    0269H    0013H
  +--> ?PR?SPINORMALMODE?SPI
  +--> ?PR?_READ_CONT?PCT25VF
  +--> ?PR?SPILCDMODE?SPI

?PR?_DISPLAY_ASCII?LCD                     0269H    000CH
  +--> ?PR?_SET_DISPLAY_AREA?LCD
  +--> ?PR?_SEND_ST7735_COMMAND?LCD
  +--> ?PR?_SEND_ST7735_DATA?LCD

?PR?_ASCIIXDIRECTIONINCREASE?LCD           0269H    0007H

?PR?_DISPLAYDIGITSTRING?LCD                0253H    0011H
  +--> ?PR?_GET_GT23_DATA?GT23
  +--> ?PR?_DISPLAY_ASCII?LCD
  +--> ?PR?_ASCIIXDIRECTIONINCREASE?LCD

?PR?BUS0MANAGE?SINGLEBUS                   -----    -----
  +--> ?PR?_OSQPOST?OS_Q
  +--> ?PR?_OSWAIT?OS_CORE

?PR?_OSQPOST?OS_Q                          -----    -----
  +--> ?CO?OS_CORE
  +--> ?PR?_OSTASKRESUME?OS_CORE

?PR?_OSTASKRESUME?OS_CORE                  -----    -----
  +--> ?CO?OS_CORE
  +--> ?PR?OSSCHED?OS_CORE

?PR?_OSWAIT?OS_CORE                        -----    -----
  +--> ?PR?_OSTASKSUSPEND?OS_CORE
  +--> ?PR?_OSTIMEDLY?OS_CORE
  +--> ?PR?_OS_TASKSUSPEND?OS_CORE
  +--> ?PR?OSSCHED?OS_CORE

?PR?_OSTASKSUSPEND?OS_CORE                 -----    -----
  +--> ?PR?_OS_TASKSUSPEND?OS_CORE
  +--> ?PR?OSSCHED?OS_CORE
BL51 BANKED LINKER/LOCATER V6.05                                                      07/07/2015  16:43:23  PAGE 10



?PR?_OS_TASKSUSPEND?OS_CORE                -----    -----
  +--> ?CO?OS_CORE

?PR?_OSTIMEDLY?OS_CORE                     -----    -----
  +--> ?PR?_OS_TASKSUSPEND?OS_CORE
  +--> ?PR?OSSCHED?OS_CORE

?PR?__OSTASKCREATE?OS_CORE                 -----    -----
  +--> ?CO?OS_CORE
  +--> ?PR?_OSTASKSTKINIT?OS_CPU_A
  +--> ?PR?OSSCHED?OS_CORE

?PR?_OSTASKSTKINIT?OS_CPU_A                -----    -----
  +--> ?CO?OS_CORE

?PR?KEYMANAGER?KEY                         -----    -----
  +--> ?PR?_OSWAIT?OS_CORE
  +--> ?PR?KEYSCAN?KEY
  +--> ?PR?_OSQPOST?OS_Q

?PR?DISPMANAGER?LCD                        -----    -----
  +--> ?PR?SHOWLANDINGFACE?LCD
  +--> ?PR?_OSWAIT?OS_CORE

?PR?SHOWLANDINGFACE?LCD                    024FH    0004H
  +--> ?PR?_DISPLAYDIGITSTRING?LCD
  +--> ?CO?LCD
  +--> ?PR?_DISPLAYCHINESESTRING?LCD
  +--> ?PR?_DISPLAYASCIISTRING?LCD
  +--> ?PR?_DISPLAYBLOCK?LCD

?PR?_DISPLAYBLOCK?LCD                      0253H    000BH
  +--> ?PR?_SET_DISPLAY_AREA?LCD
  +--> ?PR?_SEND_ST7735_COMMAND?LCD
  +--> ?PR?_SEND_ST7735_DATA?LCD

?PR?TIMEROUTMANAGER?SINGLEBUS              -----    -----
  +--> ?PR?_OSWAIT?OS_CORE
  +--> ?PR?_OSQPOST?OS_Q

?PR?_GETMESSAGE?MAIN                       -----    -----
  +--> ?PR?_OSQPEND?OS_Q

?PR?_OSQPEND?OS_Q                          -----    -----
  +--> ?CO?OS_CORE
  +--> ?PR?_OS_TASKSUSPEND?OS_CORE
  +--> ?PR?OSSCHED?OS_CORE

?PR?_DISPATCHMESSAGE?MAIN                  024AH    0001H
  +--> ?PR?BUS0RECDEAL?SINGLEBUS
  +--> ?PR?BUS0SENDDEAL?SINGLEBUS
  +--> ?PR?_KEYDOWNDEAL?KEY
  +--> ?PR?_KEYALWAYSDEAL?KEY
  +--> ?PR?_KEYUPDEAL?KEY
  +--> ?PR?TIMEROUTDEAL?SINGLEBUS

BL51 BANKED LINKER/LOCATER V6.05                                                      07/07/2015  16:43:23  PAGE 11


?PR?BUS0RECDEAL?SINGLEBUS                  024BH    0004H
  +--> ?PR?_MAKECH0TIMEROUT?SINGLEBUS
  +--> ?PR?_BYTE_WRITE?PCT25VF
  +--> ?PR?_BYTE_WRITE1?PCT25VF
  +--> ?PR?SAVEPARAMETER?SINGLEBUS
  +--> ?PR?_SETLEDSTATE?KEY
  +--> ?PR?SHOWCALLSUCCESS?LCD
  +--> ?PR?SHOWTALKFACE?LCD
  +--> ?PR?_DISPLAYDIGITSTRING?LCD
  +--> ?PR?SHOWBROADFACE?LCD
  +--> ?PR?_DIRADDRCOMPARE?SINGLEBUS
  +--> ?PR?_ADDRCOMPARE?SINGLEBUS
  +--> ?PR?SHOWLANDINGFACE?LCD
  +--> ?PR?_BUS0OUTPUTDATA?SINGLEBUS
  +--> ?PR?USARTINIT?USART

?PR?_BYTE_WRITE?PCT25VF                    024FH    0005H
  +--> ?PR?WREN?PCT25VF
  +--> ?PR?_SECTOR_ERASE?PCT25VF
  +--> ?PR?WAIT_BUSY?PCT25VF
  +--> ?PR?_BYTE_PROGRAM?PCT25VF

?PR?WREN?PCT25VF                           -----    -----
  +--> ?PR?CE_LOW?PCT25VF
  +--> ?PR?_SEND_BYTE?PCT25VF
  +--> ?PR?CE_HIGH?PCT25VF
  +--> ?PR?WAIT_BUSY?PCT25VF

?PR?WAIT_BUSY?PCT25VF                      0254H    0002H
  +--> ?PR?READ_STATUS_REGISTER?PCT25VF
  +--> ?PR?_DELAY_NUS?PCT25VF

?PR?_SECTOR_ERASE?PCT25VF                  0254H    0004H
  +--> ?PR?CE_LOW?PCT25VF
  +--> ?PR?_SEND_BYTE?PCT25VF
  +--> ?PR?CE_HIGH?PCT25VF

?PR?_BYTE_PROGRAM?PCT25VF                  0254H    0005H
  +--> ?PR?CE_LOW?PCT25VF
  +--> ?PR?_SEND_BYTE?PCT25VF
  +--> ?PR?CE_HIGH?PCT25VF

?PR?_BYTE_WRITE1?PCT25VF                   024FH    0005H
  +--> ?PR?WREN?PCT25VF
  +--> ?PR?_BYTE_PROGRAM?PCT25VF
  +--> ?PR?WAIT_BUSY?PCT25VF

?PR?SHOWCALLSUCCESS?LCD                    024FH    0002H
  +--> ?PR?_LCD_CLEAR?LCD
  +--> ?CO?LCD
  +--> ?PR?_DISPLAYCHINESESTRING?LCD

?PR?SHOWTALKFACE?LCD                       024FH    0002H
  +--> ?PR?_LCD_CLEAR?LCD
  +--> ?CO?LCD
  +--> ?PR?_DISPLAYCHINESESTRING?LCD

BL51 BANKED LINKER/LOCATER V6.05                                                      07/07/2015  16:43:23  PAGE 12


?PR?SHOWBROADFACE?LCD                      024FH    0002H
  +--> ?PR?_LCD_CLEAR?LCD
  +--> ?CO?LCD
  +--> ?PR?_DISPLAYCHINESESTRING?LCD

?PR?_BUS0OUTPUTDATA?SINGLEBUS              024FH    0004H

?PR?BUS0SENDDEAL?SINGLEBUS                 -----    -----
  +--> ?PR?_MAKECH0TIMEROUT?SINGLEBUS

?PR?_KEYDOWNDEAL?KEY                       024BH    0003H
  +--> ?PR?_SHOWFACE?LCD
  +--> ?PR?SHOWLANDINGFACE?LCD
  +--> ?PR?_BUS0OUTPUTDATA?SINGLEBUS

?PR?_SHOWFACE?LCD                          024EH    000AH
  +--> ?PR?_LCD_CLEAR?LCD
  +--> ?CO?LCD
  +--> ?PR?_DISPLAYCHINESESTRING?LCD
  +--> ?PR?_READ_CONT?PCT25VF
  +--> ?PR?_DISPLAYSTRING?LCD

?PR?_DISPLAYSTRING?LCD                     0258H    0011H
  +--> ?PR?_GET_GT23_DATA1?GT23
  +--> ?PR?_DISPLAY_CHINESE?LCD
  +--> ?PR?_CHINESEXDIRECTIONINCREASE?LCD
  +--> ?PR?_GET_GT23_DATA?GT23
  +--> ?PR?_DISPLAY_ASCII?LCD
  +--> ?PR?_ASCIIXDIRECTIONINCREASE?LCD

?PR?_KEYALWAYSDEAL?KEY                     -----    -----
  +--> ?PR?_BUS0OUTPUTDATA?SINGLEBUS

?PR?_KEYUPDEAL?KEY                         -----    -----
  +--> ?PR?_BUS0OUTPUTDATA?SINGLEBUS

?PR?TIMEROUTDEAL?SINGLEBUS                 024BH    0002H
  +--> ?PR?_BUS0OUTPUTDATA?SINGLEBUS
  +--> ?CO?LCD
  +--> ?PR?_DISPLAY_ASCII?LCD
  +--> ?PR?_DISPLAYBLOCK?LCD
  +--> ?PR?SHOWLANDINGFACE?LCD

?PR?USART0RECDEAL?USART                    024AH    0002H
  +--> ?PR?_CHECKPSK?USART
  +--> ?PR?WREN?PCT25VF
  +--> ?PR?_BLOCK_ERASE_32K?PCT25VF
  +--> ?PR?WAIT_BUSY?PCT25VF
  +--> ?PR?_AAI_WRITE1?PCT25VF
  +--> ?PR?_AAI_WRITE?PCT25VF
  +--> ?PR?_SHOWFACE?LCD
  +--> ?PR?_BUS0OUTPUTDATA?SINGLEBUS

?PR?_CHECKPSK?USART                        024CH    0008H

?PR?_BLOCK_ERASE_32K?PCT25VF               024CH    0004H
  +--> ?PR?CE_LOW?PCT25VF
BL51 BANKED LINKER/LOCATER V6.05                                                      07/07/2015  16:43:23  PAGE 13


  +--> ?PR?_SEND_BYTE?PCT25VF
  +--> ?PR?CE_HIGH?PCT25VF

?PR?_AAI_WRITE1?PCT25VF                    024CH    0008H
  +--> ?PR?WREN?PCT25VF
  +--> ?PR?_BYTE_PROGRAM?PCT25VF
  +--> ?PR?WAIT_BUSY?PCT25VF

?PR?_AAI_WRITE?PCT25VF                     024CH    0008H
  +--> ?PR?WREN?PCT25VF
  +--> ?PR?_SECTOR_ERASE?PCT25VF
  +--> ?PR?WAIT_BUSY?PCT25VF
  +--> ?PR?_BYTE_PROGRAM?PCT25VF

?C_INITSEG                                 -----    -----
  +--> ?CO?MAIN



SYMBOL TABLE OF MODULE:  CTFJ-SB-TM018 (GT23)

  VALUE           TYPE          NAME
  ----------------------------------

  -------         MODULE        GT23
  C:0000H         SYMBOL        _ICE_DUMMY_
  D:0080H         PUBLIC        P0
  D:0090H         PUBLIC        P1
  D:00A0H         PUBLIC        P2
  D:00B0H         PUBLIC        P3
  D:00C0H         PUBLIC        P4
  D:00C8H         PUBLIC        P5
  D:00A8H         PUBLIC        IE
  C:179AH         PUBLIC        _Get_GT23_Data1
  X:01C1H         PUBLIC        GT23_32Address
  D:00B8H         PUBLIC        IP
  D:00D8H         PUBLIC        CCON
  D:0098H         PUBLIC        SCON
  D:0088H         PUBLIC        TCON
  X:01C5H         PUBLIC        GT23_Rec_Length
  D:00E0H         PUBLIC        ACC
  C:4C2DH         PUBLIC        Rec_GT23_Data
  X:01C6H         PUBLIC        GT23_Rec_Data
  X:0246H         PUBLIC        GT23_16HAddress
  C:1D0BH         PUBLIC        _Get_GT23_Data
  X:0248H         PUBLIC        GT23_16LAddress
  D:00D0H         PUBLIC        PSW
  D:00CFH         PUBLIC        SPDAT
  -------         PROC          REC_GT23_DATA
  C:4C2DH         LINE#         57
  C:4C2DH         LINE#         58
  C:4C2DH         LINE#         59
  C:4C32H         LINE#         60
  C:4C34H         LINE#         61
  -------         ENDPROC       REC_GT23_DATA
  -------         PROC          _GET_GT23_DATA
  X:0269H         SYMBOL        highbyte
BL51 BANKED LINKER/LOCATER V6.05                                                      07/07/2015  16:43:23  PAGE 14


  X:026AH         SYMBOL        lowbyte
  X:026BH         SYMBOL        word_size
  -------         DO            
  X:026CH         SYMBOL        address1
  X:0270H         SYMBOL        address2
  X:0274H         SYMBOL        address3
  X:0278H         SYMBOL        address4
  -------         ENDDO         
  C:1D0BH         LINE#         94
  C:1D16H         LINE#         95
  C:1D16H         LINE#         97
  C:1D19H         LINE#         99
  C:1D36H         LINE#         100
  C:1D36H         LINE#         101
  C:1D44H         LINE#         102
  C:1D44H         LINE#         104
  C:1D44H         LINE#         105
  C:1D44H         LINE#         106
  C:1D66H         LINE#         107
  C:1D7AH         LINE#         108
  C:1D8AH         LINE#         109
  C:1D8DH         LINE#         111
  C:1D8DH         LINE#         112
  C:1DA7H         LINE#         113
  C:1DC7H         LINE#         114
  C:1DD7H         LINE#         115
  C:1DD9H         LINE#         117
  C:1DD9H         LINE#         118
  C:1DF8H         LINE#         119
  C:1E18H         LINE#         120
  C:1E2BH         LINE#         121
  C:1E2EH         LINE#         123
  C:1E2EH         LINE#         124
  C:1E2EH         LINE#         125
  C:1E58H         LINE#         126
  C:1E58H         LINE#         127
  C:1E63H         LINE#         128
  C:1E63H         LINE#         129
  C:1E63H         LINE#         130
  C:1E63H         LINE#         131
  C:1E7DH         LINE#         132
  C:1EA7H         LINE#         133
  C:1EC4H         LINE#         134
  C:1EE2H         LINE#         135
  C:1EF5H         LINE#         136
  C:1EF8H         LINE#         137
  C:1EF8H         LINE#         138
  C:1F12H         LINE#         139
  C:1F3CH         LINE#         140
  C:1F59H         LINE#         141
  C:1F78H         LINE#         142
  C:1F99H         LINE#         143
  C:1F99H         LINE#         144
  C:1F99H         LINE#         146
  C:1F99H         LINE#         148
  -------         ENDPROC       _GET_GT23_DATA
  -------         PROC          _GET_GT23_DATA1
BL51 BANKED LINKER/LOCATER V6.05                                                      07/07/2015  16:43:23  PAGE 15


  X:0269H         SYMBOL        word
  X:026CH         SYMBOL        word_size
  -------         DO            
  X:026DH         SYMBOL        address1
  X:0271H         SYMBOL        address2
  X:0275H         SYMBOL        address3
  X:0279H         SYMBOL        address4
  X:027DH         SYMBOL        highbyte
  X:027EH         SYMBOL        lowbyte
  -------         ENDDO         
  C:179AH         LINE#         163
  C:17A8H         LINE#         164
  C:17A8H         LINE#         167
  C:17ABH         LINE#         170
  C:17BEH         LINE#         171
  C:17C8H         LINE#         172
  C:17DAH         LINE#         173
  C:17F0H         LINE#         174
  C:17F0H         LINE#         175
  C:1800H         LINE#         176
  C:1800H         LINE#         178
  C:1800H         LINE#         179
  C:1800H         LINE#         180
  C:181FH         LINE#         181
  C:1833H         LINE#         182
  C:1843H         LINE#         183
  C:1846H         LINE#         185
  C:1846H         LINE#         186
  C:1860H         LINE#         187
  C:1880H         LINE#         188
  C:1890H         LINE#         189
  C:1892H         LINE#         191
  C:1892H         LINE#         192
  C:18B1H         LINE#         193
  C:18D1H         LINE#         194
  C:18E4H         LINE#         195
  C:18E7H         LINE#         197
  C:18E7H         LINE#         198
  C:18E7H         LINE#         199
  C:1911H         LINE#         200
  C:1911H         LINE#         201
  C:191EH         LINE#         202
  C:191EH         LINE#         203
  C:191EH         LINE#         204
  C:191EH         LINE#         205
  C:1938H         LINE#         206
  C:1962H         LINE#         207
  C:197FH         LINE#         208
  C:199DH         LINE#         209
  C:19B0H         LINE#         210
  C:19B3H         LINE#         211
  C:19B3H         LINE#         212
  C:19CDH         LINE#         213
  C:19F7H         LINE#         214
  C:1A14H         LINE#         215
  C:1A33H         LINE#         216
  C:1A54H         LINE#         217
BL51 BANKED LINKER/LOCATER V6.05                                                      07/07/2015  16:43:23  PAGE 16


  C:1A54H         LINE#         218
  C:1A54H         LINE#         220
  C:1A54H         LINE#         223
  -------         ENDPROC       _GET_GT23_DATA1
  -------         ENDMOD        GT23

  -------         MODULE        IAP
  C:0000H         SYMBOL        _ICE_DUMMY_
  D:0080H         PUBLIC        P0
  D:0090H         PUBLIC        P1
  D:00A0H         PUBLIC        P2
  D:00B0H         PUBLIC        P3
  D:00C0H         PUBLIC        P4
  D:00C8H         PUBLIC        P5
  D:00A8H         PUBLIC        IE
  C:4AD8H         PUBLIC        _IapErase
  D:00C5H         PUBLIC        IAP_CMD
  C:4C35H         PUBLIC        DisableIAP
  D:00B8H         PUBLIC        IP
  D:00C3H         PUBLIC        IAP_ADDRH
  D:00D8H         PUBLIC        CCON
  D:00C4H         PUBLIC        IAP_ADDRL
  C:4C60H         PUBLIC        _EnableIAP
  C:4A9DH         PUBLIC        _IapReadByte
  D:0098H         PUBLIC        SCON
  D:0088H         PUBLIC        TCON
  C:4A87H         PUBLIC        _IapWriteByte
  D:00C7H         PUBLIC        IAP_CONTR
  D:00E0H         PUBLIC        ACC
  D:00C2H         PUBLIC        IAP_DATA
  D:00C6H         PUBLIC        IAP_TRIG
  D:00D0H         PUBLIC        PSW
  -------         PROC          _ENABLEIAP
  D:0007H         SYMBOL        byCmd
  C:4C60H         LINE#         42
  C:4C60H         LINE#         43
  C:4C60H         LINE#         44
  C:4C63H         LINE#         45
  C:4C65H         LINE#         46
  -------         ENDPROC       _ENABLEIAP
  -------         PROC          DISABLEIAP
  C:4C35H         LINE#         62
  C:4C35H         LINE#         63
  C:4C35H         LINE#         64
  C:4C38H         LINE#         65
  C:4C3AH         LINE#         66
  C:4C3CH         LINE#         67
  -------         ENDPROC       DISABLEIAP
  -------         PROC          _IAPWRITEBYTE
  D:0002H         SYMBOL        uiAddr
  D:0005H         SYMBOL        byData
  C:4A87H         LINE#         83
  C:4A8BH         LINE#         84
  C:4A8BH         LINE#         85
  C:4A8FH         LINE#         86
  C:4A92H         LINE#         87
  C:4A96H         LINE#         88
BL51 BANKED LINKER/LOCATER V6.05                                                      07/07/2015  16:43:23  PAGE 17


  C:4A99H         LINE#         89
  C:4A9CH         LINE#         90
  -------         ENDPROC       _IAPWRITEBYTE
  -------         PROC          _IAPREADBYTE
  D:0004H         SYMBOL        uiAddr
  C:4A9DH         LINE#         106
  C:4AA1H         LINE#         107
  C:4AA1H         LINE#         108
  C:4AA4H         LINE#         109
  C:4AA8H         LINE#         110
  C:4AABH         LINE#         111
  C:4AAEH         LINE#         112
  C:4AB0H         LINE#         113
  -------         ENDPROC       _IAPREADBYTE
  -------         PROC          _IAPERASE
  D:0004H         SYMBOL        uiAddr
  C:4AD8H         LINE#         130
  C:4ADCH         LINE#         131
  C:4ADCH         LINE#         132
  C:4ADFH         LINE#         133
  C:4AE3H         LINE#         134
  C:4AE6H         LINE#         135
  C:4AE9H         LINE#         136
  -------         ENDPROC       _IAPERASE
  -------         ENDMOD        IAP

  -------         MODULE        KEY
  C:0000H         SYMBOL        _ICE_DUMMY_
  D:0080H         PUBLIC        P0
  D:0090H         PUBLIC        P1
  D:00A0H         PUBLIC        P2
  D:00B0H         PUBLIC        P3
  X:0348H         PUBLIC        MainMenuSelect
  B:00A0H.3       PUBLIC        DOWN_KEY
  D:00C0H         PUBLIC        P4
  D:00C8H         PUBLIC        P5
  D:00A8H         PUBLIC        IE
  C:3FA5H         PUBLIC        _KeyAlwaysDeal
  B:00C8H.1       PUBLIC        BL_SW
  D:00B8H         PUBLIC        IP
  D:00D8H         PUBLIC        CCON
  B:00A0H.0       PUBLIC        ESC_KEY
  C:4790H         PUBLIC        KeyScan
  D:0098H         PUBLIC        SCON
  D:0088H         PUBLIC        TCON
  C:2818H         PUBLIC        _KeyDownDeal
  D:00E0H         PUBLIC        ACC
  C:4B69H         PUBLIC        _SetLedState
  B:00A0H.2       PUBLIC        ENTER_KEY
  B:00C8H.0       PUBLIC        LED
  B:00A0H.4       PUBLIC        CALL_KEY
  C:3F58H         PUBLIC        _KeyUpDeal
  C:38C8H         PUBLIC        KeyManager
  B:00A0H.1       PUBLIC        UP_KEY
  D:00D0H         PUBLIC        PSW
  -------         PROC          _SETLEDSTATE
  D:0007H         SYMBOL        byState
BL51 BANKED LINKER/LOCATER V6.05                                                      07/07/2015  16:43:23  PAGE 18


  C:4B69H         LINE#         44
  C:4B69H         LINE#         45
  C:4B69H         LINE#         46
  C:4B6EH         LINE#         47
  C:4B70H         LINE#         48
  C:4B75H         LINE#         49
  -------         ENDPROC       _SETLEDSTATE
  -------         PROC          KEYSCAN
  C:4790H         LINE#         68
  C:4790H         LINE#         69
  C:4790H         LINE#         70
  C:4793H         LINE#         71
  C:4793H         LINE#         72
  C:4796H         LINE#         73
  C:4796H         LINE#         76
  C:4797H         LINE#         77
  C:4798H         LINE#         78
  C:479BH         LINE#         79
  C:479BH         LINE#         81
  C:479EH         LINE#         82
  C:479EH         LINE#         84
  C:479FH         LINE#         85
  C:47A0H         LINE#         86
  C:47A3H         LINE#         87
  C:47A3H         LINE#         88
  C:47A6H         LINE#         89
  C:47A6H         LINE#         91
  C:47A7H         LINE#         92
  C:47A8H         LINE#         93
  C:47ABH         LINE#         94
  C:47ABH         LINE#         95
  C:47AEH         LINE#         96
  C:47AEH         LINE#         98
  C:47AFH         LINE#         99
  C:47B0H         LINE#         100
  C:47B3H         LINE#         101
  C:47B3H         LINE#         102
  C:47B6H         LINE#         103
  C:47B6H         LINE#         105
  C:47B8H         LINE#         106
  -------         ENDPROC       KEYSCAN
  -------         PROC          KEYMANAGER
  -------         DO            
  X:0346H         SYMBOL        byKeyValue
  X:0347H         SYMBOL        byKeyDelay
  C:3937H         SYMBOL        KeyUp
  -------         ENDDO         
  C:38C8H         LINE#         122
  C:38C8H         LINE#         123
  C:38C8H         LINE#         127
  C:38C8H         LINE#         128
  C:38C8H         LINE#         129
  C:38CFH         LINE#         130
  C:38D7H         LINE#         131
  C:38DAH         LINE#         132
  C:38DAH         LINE#         133
  C:38DAH         LINE#         134
BL51 BANKED LINKER/LOCATER V6.05                                                      07/07/2015  16:43:23  PAGE 19


  C:38DAH         LINE#         135
  C:38E1H         LINE#         136
  C:38ECH         LINE#         137
  C:38ECH         LINE#         138
  C:38ECH         LINE#         139
  C:38ECH         LINE#         140
  C:38F5H         LINE#         142
  C:38FBH         LINE#         143
  C:3905H         LINE#         144
  C:3905H         LINE#         145
  C:390FH         LINE#         146
  C:390FH         LINE#         147
  C:3916H         LINE#         148
  C:3918H         LINE#         150
  C:3918H         LINE#         151
  C:3918H         LINE#         152
  C:3918H         LINE#         153
  C:3918H         LINE#         154
  C:3924H         LINE#         155
  C:392EH         LINE#         156
  C:392EH         LINE#         157
  C:3935H         LINE#         158
  C:3937H         LINE#         159
  C:3937H         LINE#         160
  C:3943H         LINE#         161
  -------         ENDPROC       KEYMANAGER
  -------         PROC          _KEYDOWNDEAL
  X:024BH         SYMBOL        byKey
  -------         DO            
  X:024CH         SYMBOL        x
  X:024DH         SYMBOL        y
  -------         ENDDO         
  C:2818H         LINE#         178
  C:281DH         LINE#         179
  C:281DH         LINE#         181
  C:2820H         LINE#         184
  C:2829H         LINE#         185
  C:282BH         LINE#         187
  C:2831H         LINE#         188
  C:2831H         LINE#         190
  C:2831H         LINE#         193
  C:284EH         LINE#         194
  C:284EH         LINE#         195
  C:284EH         LINE#         197
  C:285BH         LINE#         198
  C:2877H         LINE#         199
  C:2879H         LINE#         200
  C:2879H         LINE#         201
  C:2879H         LINE#         202
  C:287BH         LINE#         204
  C:287BH         LINE#         205
  C:2888H         LINE#         206
  C:28A4H         LINE#         207
  C:28A6H         LINE#         208
  C:28A6H         LINE#         209
  C:28A6H         LINE#         210
  C:28A8H         LINE#         212
BL51 BANKED LINKER/LOCATER V6.05                                                      07/07/2015  16:43:23  PAGE 20


  C:28A8H         LINE#         213
  C:28B5H         LINE#         214
  C:28D1H         LINE#         215
  C:28D6H         LINE#         216
  C:28DCH         LINE#         217
  C:28E6H         LINE#         218
  C:28E7H         LINE#         220
  C:28E7H         LINE#         221
  C:28EFH         LINE#         222
  C:28EFH         LINE#         223
  C:28F4H         LINE#         224
  C:28FAH         LINE#         225
  C:28FDH         LINE#         226
  C:28FDH         LINE#         227
  C:28FDH         LINE#         229
  C:28FDH         LINE#         230
  C:2905H         LINE#         231
  C:290DH         LINE#         232
  C:2915H         LINE#         233
  C:291DH         LINE#         234
  C:2925H         LINE#         235
  C:292DH         LINE#         236
  C:2937H         LINE#         237
  C:2940H         LINE#         238
  C:2940H         LINE#         240
  C:2940H         LINE#         241
  -------         ENDPROC       _KEYDOWNDEAL
  -------         PROC          _KEYUPDEAL
  D:0007H         SYMBOL        byKey
  C:3F58H         LINE#         257
  C:3F58H         LINE#         258
  C:3F58H         LINE#         259
  C:3F5CH         LINE#         261
  C:3F5FH         LINE#         262
  C:3F5FH         LINE#         264
  C:3F5FH         LINE#         266
  C:3F64H         LINE#         267
  C:3F64H         LINE#         268
  C:3F64H         LINE#         269
  C:3F64H         LINE#         270
  C:3F64H         LINE#         271
  C:3F64H         LINE#         272
  C:3F64H         LINE#         273
  C:3F64H         LINE#         274
  C:3F6CH         LINE#         275
  C:3F74H         LINE#         276
  C:3F7CH         LINE#         277
  C:3F84H         LINE#         278
  C:3F8CH         LINE#         279
  C:3F94H         LINE#         280
  C:3F9BH         LINE#         281
  C:3FA4H         LINE#         282
  C:3FA4H         LINE#         283
  C:3FA4H         LINE#         285
  -------         ENDPROC       _KEYUPDEAL
  -------         PROC          _KEYALWAYSDEAL
  D:0007H         SYMBOL        byKey
BL51 BANKED LINKER/LOCATER V6.05                                                      07/07/2015  16:43:23  PAGE 21


  C:3FA5H         LINE#         301
  C:3FA5H         LINE#         302
  C:3FA5H         LINE#         303
  C:3FA9H         LINE#         306
  C:3FACH         LINE#         307
  C:3FACH         LINE#         309
  C:3FACH         LINE#         311
  C:3FB1H         LINE#         312
  C:3FB1H         LINE#         313
  C:3FB1H         LINE#         314
  C:3FB1H         LINE#         315
  C:3FB1H         LINE#         316
  C:3FB1H         LINE#         317
  C:3FB1H         LINE#         318
  C:3FB1H         LINE#         319
  C:3FB9H         LINE#         320
  C:3FC1H         LINE#         321
  C:3FC9H         LINE#         322
  C:3FD1H         LINE#         323
  C:3FD9H         LINE#         324
  C:3FE1H         LINE#         325
  C:3FE8H         LINE#         326
  C:3FF1H         LINE#         327
  C:3FF1H         LINE#         328
  C:3FF1H         LINE#         330
  -------         ENDPROC       _KEYALWAYSDEAL
  -------         ENDMOD        KEY

  -------         MODULE        LCD
  C:0000H         SYMBOL        _ICE_DUMMY_
  C:313DH         PUBLIC        _Display_Chinese
  D:0080H         PUBLIC        P0
  C:3616H         PUBLIC        ShowCallSuccess
  C:403EH         PUBLIC        ShowBroadFace
  D:0090H         PUBLIC        P1
  B:0090H.1       PUBLIC        LCD_CS7
  D:00A0H         PUBLIC        P2
  D:00B0H         PUBLIC        P3
  D:00C0H         PUBLIC        P4
  D:00C8H         PUBLIC        P5
  C:452EH         PUBLIC        _Display_HLine
  D:00A8H         PUBLIC        IE
  C:4B9DH         PUBLIC        _Send_ST7735_Command
  C:21D5H         PUBLIC        _ShowFace
  X:011BH         PUBLIC        DispDataBuff
  X:01BBH         PUBLIC        ASCII_BCD
  D:00DAH         PUBLIC        CCAPM0
  B:00C8H.1       PUBLIC        BL_SW
  D:00B8H         PUBLIC        IP
  C:2DB3H         PUBLIC        _DisplayChineseString
  C:4C4BH         PUBLIC        ShowPromptFace
  C:3064H         PUBLIC        _ASCIIXDirectionIncrease
  C:462FH         PUBLIC        _Display_VLine
  C:4C3DH         PUBLIC        ShowDietFace
  C:4C44H         PUBLIC        ShowPrescriptionFace
  C:3FF2H         PUBLIC        ShowTalkFace
  D:00D8H         PUBLIC        CCON
BL51 BANKED LINKER/LOCATER V6.05                                                      07/07/2015  16:43:23  PAGE 22


  C:2F83H         PUBLIC        _Display_ASCII
  X:01BEH         PUBLIC        fontbuf1
  X:01BFH         PUBLIC        fontbuf2
  B:00C0H.4       PUBLIC        LCD_RST
  D:0098H         PUBLIC        SCON
  C:1A57H         PUBLIC        ShowMainMenuFace
  D:0088H         PUBLIC        TCON
  C:2BB2H         PUBLIC        _DisplayASCIIString
  C:33F6H         PUBLIC        ColonCode16x32
  C:2941H         PUBLIC        _lcd_fangda_dis_text
  C:3E1CH         PUBLIC        _Set_Display_Area
  C:3DBDH         PUBLIC        _DisplayASCII
  D:00E0H         PUBLIC        ACC
  C:4AEFH         PUBLIC        _Send_ST7735_Data
  C:2E8CH         PUBLIC        _DisplayBlock
  C:271EH         PUBLIC        _DisplayDigitString
  C:3B20H         PUBLIC        _DisplayDigit
  C:4BA9H         PUBLIC        DispManager
  C:49F4H         PUBLIC        _Delayms
  C:14ADH         PUBLIC        _DisplayString
  C:0E9BH         PUBLIC        ShowLandingFace
  B:0090H.0       PUBLIC        LCD_RS
  C:3EBCH         PUBLIC        _Lcd_Clear
  C:46E6H         PUBLIC        _Display_Dot
  X:01C0H         PUBLIC        CurrentPage
  B:0027H.2       PUBLIC        bSecondDisState
  C:1F9CH         PUBLIC        ShowPowerUpFace
  C:3436H         PUBLIC        _ChineseXDirectionIncrease
  C:23E3H         PUBLIC        ST7735_Init
  D:00D0H         PUBLIC        PSW
  C:3CABH         PUBLIC        _Lcd_Fill
  -------         PROC          _DELAYMS
  D:0006H         SYMBOL        ms
  -------         DO            
  D:0004H         SYMBOL        i
  -------         ENDDO         
  C:49F4H         LINE#         41
  C:49F4H         LINE#         42
  C:49F4H         LINE#         44
  C:49F8H         LINE#         45
  C:4A0CH         LINE#         46
  -------         ENDPROC       _DELAYMS
  -------         PROC          _SEND_ST7735_COMMAND
  D:0007H         SYMBOL        st7735_command
  C:4B9DH         LINE#         49
  C:4B9DH         LINE#         50
  C:4B9DH         LINE#         52
  C:4B9FH         LINE#         53
  C:4BA1H         LINE#         62
  C:4BA4H         LINE#         64
  C:4BA6H         LINE#         65
  C:4BA8H         LINE#         67
  -------         ENDPROC       _SEND_ST7735_COMMAND
  C:4AEAH         SYMBOL        L?0295
  -------         PROC          L?0294
  -------         ENDPROC       L?0294
  C:4AEAH         SYMBOL        L?0295
BL51 BANKED LINKER/LOCATER V6.05                                                      07/07/2015  16:43:23  PAGE 23


  -------         PROC          _SEND_ST7735_DATA
  D:0007H         SYMBOL        st7735_data
  C:4AEFH         LINE#         71
  C:4AEFH         LINE#         72
  C:4AEFH         LINE#         74
  C:4AF1H         LINE#         75
  C:4AF3H         LINE#         83
  C:4AF6H         LINE#         85
  C:4AF8H         LINE#         86
  C:4AFAH         LINE#         88
  -------         ENDPROC       _SEND_ST7735_DATA
  -------         PROC          ST7735_INIT
  C:23E3H         LINE#         95
  C:23E3H         LINE#         96
  C:23E3H         LINE#         97
  C:23E5H         LINE#         98
  C:23ECH         LINE#         99
  C:23EEH         LINE#         100
  C:23F5H         LINE#         101
  C:23F7H         LINE#         102
  C:23FEH         LINE#         105
  C:2403H         LINE#         106
  C:240AH         LINE#         107
  C:240FH         LINE#         108
  C:2414H         LINE#         109
  C:2419H         LINE#         110
  C:241EH         LINE#         111
  C:2423H         LINE#         112
  C:2428H         LINE#         113
  C:242DH         LINE#         114
  C:2432H         LINE#         115
  C:2437H         LINE#         116
  C:243CH         LINE#         117
  C:2441H         LINE#         118
  C:2446H         LINE#         119
  C:244BH         LINE#         120
  C:2450H         LINE#         121
  C:2455H         LINE#         122
  C:245AH         LINE#         123
  C:245FH         LINE#         125
  C:2464H         LINE#         126
  C:2469H         LINE#         127
  C:246EH         LINE#         128
  C:2473H         LINE#         129
  C:2478H         LINE#         130
  C:247DH         LINE#         131
  C:2482H         LINE#         132
  C:2487H         LINE#         133
  C:248CH         LINE#         134
  C:2491H         LINE#         135
  C:2496H         LINE#         136
  C:249BH         LINE#         137
  C:24A0H         LINE#         138
  C:24A5H         LINE#         140
  C:24AAH         LINE#         141
  C:24AFH         LINE#         142
  C:24B4H         LINE#         143
BL51 BANKED LINKER/LOCATER V6.05                                                      07/07/2015  16:43:23  PAGE 24


  C:24B9H         LINE#         144
  C:24BEH         LINE#         145
  C:24C3H         LINE#         146
  C:24C8H         LINE#         147
  C:24CDH         LINE#         148
  C:24D2H         LINE#         149
  C:24D7H         LINE#         150
  C:24DCH         LINE#         151
  C:24E1H         LINE#         152
  C:24E6H         LINE#         153
  C:24EBH         LINE#         155
  C:24F0H         LINE#         156
  C:24F5H         LINE#         157
  C:24FAH         LINE#         158
  C:24FFH         LINE#         159
  C:2504H         LINE#         160
  C:2509H         LINE#         161
  C:250EH         LINE#         162
  C:2513H         LINE#         163
  C:2518H         LINE#         164
  C:251DH         LINE#         165
  C:2522H         LINE#         166
  C:2527H         LINE#         167
  C:252CH         LINE#         168
  C:2531H         LINE#         169
  C:2536H         LINE#         170
  C:253BH         LINE#         171
  C:2540H         LINE#         172
  C:2545H         LINE#         173
  C:254AH         LINE#         174
  C:254FH         LINE#         175
  C:2554H         LINE#         176
  C:2559H         LINE#         177
  -------         ENDPROC       ST7735_INIT
  C:3E18H         SYMBOL        L?0291
  -------         PROC          L?0290
  -------         ENDPROC       L?0290
  C:3E18H         SYMBOL        L?0291
  -------         PROC          _SET_DISPLAY_AREA
  X:0275H         SYMBOL        start_x
  X:0276H         SYMBOL        end_x
  X:0277H         SYMBOL        start_y
  X:0278H         SYMBOL        end_y
  C:3E1CH         LINE#         206
  C:3E27H         LINE#         207
  C:3E27H         LINE#         208
  C:3E2CH         LINE#         209
  C:3E31H         LINE#         210
  C:3E39H         LINE#         211
  C:3E3EH         LINE#         212
  C:3E46H         LINE#         213
  C:3E4BH         LINE#         214
  C:3E50H         LINE#         215
  C:3E58H         LINE#         216
  C:3E5DH         LINE#         217
  -------         ENDPROC       _SET_DISPLAY_AREA
  C:3EB8H         SYMBOL        L?0293
BL51 BANKED LINKER/LOCATER V6.05                                                      07/07/2015  16:43:23  PAGE 25


  -------         PROC          L?0292
  -------         ENDPROC       L?0292
  C:3EB8H         SYMBOL        L?0293
  -------         PROC          _LCD_CLEAR
  X:0258H         SYMBOL        color
  -------         DO            
  X:025AH         SYMBOL        i
  X:025BH         SYMBOL        j
  -------         ENDDO         
  C:3EBCH         LINE#         225
  C:3EC4H         LINE#         226
  C:3EC4H         LINE#         228
  C:3ED2H         LINE#         229
  C:3ED7H         LINE#         230
  C:3EDCH         LINE#         231
  C:3EDCH         LINE#         232
  C:3EE1H         LINE#         233
  C:3EE1H         LINE#         234
  C:3EE9H         LINE#         235
  C:3EF1H         LINE#         236
  C:3EFDH         LINE#         237
  C:3F09H         LINE#         238
  -------         ENDPROC       _LCD_CLEAR
  -------         PROC          _LCD_FILL
  D:0005H         SYMBOL        start_x
  D:0006H         SYMBOL        start_y
  X:02FEH         SYMBOL        width
  X:02FFH         SYMBOL        height
  X:0300H         SYMBOL        color
  -------         DO            
  X:0302H         SYMBOL        i
  X:0303H         SYMBOL        j
  -------         ENDDO         
  C:3CABH         LINE#         249
  C:3CB4H         LINE#         250
  C:3CB4H         LINE#         252
  C:3CC0H         LINE#         253
  C:3CC5H         LINE#         254
  C:3CD7H         LINE#         255
  C:3CD7H         LINE#         256
  C:3CE7H         LINE#         257
  C:3CE7H         LINE#         258
  C:3CEFH         LINE#         259
  C:3CF7H         LINE#         260
  C:3CFFH         LINE#         261
  C:3D07H         LINE#         262
  -------         ENDPROC       _LCD_FILL
  -------         PROC          _DISPLAYBLOCK
  X:0253H         SYMBOL        start_x
  X:0254H         SYMBOL        start_y
  X:0255H         SYMBOL        end_x
  X:0256H         SYMBOL        end_y
  X:0257H         SYMBOL        srgb
  -------         DO            
  X:0258H         SYMBOL        color
  X:025AH         SYMBOL        width
  X:025BH         SYMBOL        height
BL51 BANKED LINKER/LOCATER V6.05                                                      07/07/2015  16:43:23  PAGE 26


  X:025CH         SYMBOL        i
  X:025DH         SYMBOL        j
  -------         ENDDO         
  C:2E8CH         LINE#         264
  C:2E97H         LINE#         265
  C:2E97H         LINE#         269
  C:2EBCH         LINE#         270
  C:2EBCH         LINE#         271
  C:2EBCH         LINE#         272
  C:2EBDH         LINE#         273
  C:2EBFH         LINE#         274
  C:2EBFH         LINE#         275
  C:2EC3H         LINE#         276
  C:2EC5H         LINE#         277
  C:2EC5H         LINE#         278
  C:2ECAH         LINE#         279
  C:2ECCH         LINE#         280
  C:2ECCH         LINE#         281
  C:2ED6H         LINE#         282
  C:2ED8H         LINE#         283
  C:2ED8H         LINE#         284
  C:2EE1H         LINE#         285
  C:2EE3H         LINE#         286
  C:2EE3H         LINE#         287
  C:2EEDH         LINE#         288
  C:2EEFH         LINE#         289
  C:2EEFH         LINE#         290
  C:2EF9H         LINE#         291
  C:2EFBH         LINE#         292
  C:2EFBH         LINE#         293
  C:2EFBH         LINE#         294
  C:2F03H         LINE#         295
  C:2F03H         LINE#         296
  C:2F03H         LINE#         298
  C:2F19H         LINE#         299
  C:2F1EH         LINE#         300
  C:2F2EH         LINE#         301
  C:2F3EH         LINE#         302
  C:2F50H         LINE#         303
  C:2F50H         LINE#         304
  C:2F62H         LINE#         305
  C:2F62H         LINE#         306
  C:2F6AH         LINE#         307
  C:2F72H         LINE#         308
  C:2F7AH         LINE#         309
  C:2F82H         LINE#         311
  -------         ENDPROC       _DISPLAYBLOCK
  -------         PROC          _DISPLAY_DOT
  D:0005H         SYMBOL        x
  D:0006H         SYMBOL        y
  X:034CH         SYMBOL        color
  C:46E6H         LINE#         319
  C:46F2H         LINE#         320
  C:46F2H         LINE#         321
  C:46FCH         LINE#         322
  C:4701H         LINE#         323
  C:4709H         LINE#         324
BL51 BANKED LINKER/LOCATER V6.05                                                      07/07/2015  16:43:23  PAGE 27


  -------         ENDPROC       _DISPLAY_DOT
  -------         PROC          _DISPLAY_HLINE
  D:0005H         SYMBOL        x
  D:0006H         SYMBOL        y
  X:032AH         SYMBOL        width
  X:032BH         SYMBOL        color
  C:452EH         LINE#         332
  C:4537H         LINE#         333
  C:4537H         LINE#         334
  C:4544H         LINE#         335
  C:4549H         LINE#         336
  C:4553H         LINE#         337
  C:4553H         LINE#         338
  C:4559H         LINE#         339
  C:4561H         LINE#         340
  C:4563H         LINE#         341
  -------         ENDPROC       _DISPLAY_HLINE
  -------         PROC          _DISPLAY_VLINE
  D:0005H         SYMBOL        x
  D:0006H         SYMBOL        y
  X:032FH         SYMBOL        height
  X:0330H         SYMBOL        color
  C:462FH         LINE#         348
  C:4638H         LINE#         349
  C:4638H         LINE#         350
  C:463FH         LINE#         351
  C:4644H         LINE#         352
  C:464EH         LINE#         353
  C:464EH         LINE#         354
  C:4654H         LINE#         355
  C:465CH         LINE#         356
  C:465EH         LINE#         357
  -------         ENDPROC       _DISPLAY_VLINE
  -------         PROC          _DISPLAY_ASCII
  X:0269H         SYMBOL        x
  X:026AH         SYMBOL        y
  X:026BH         SYMBOL        p
  X:026EH         SYMBOL        fcolor
  X:0270H         SYMBOL        bcolor
  X:0272H         SYMBOL        size
  -------         DO            
  X:0273H         SYMBOL        i
  X:0274H         SYMBOL        j
  -------         ENDDO         
  C:2F83H         LINE#         365
  C:2F94H         LINE#         366
  C:2F94H         LINE#         369
  C:2FA1H         LINE#         370
  C:2FA1H         LINE#         371
  C:2FA1H         LINE#         372
  C:2FA1H         LINE#         373
  C:2FA1H         LINE#         374
  C:2FA3H         LINE#         375
  C:2FA3H         LINE#         376
  C:2FB3H         LINE#         377
  C:2FB9H         LINE#         378
  C:2FBBH         LINE#         379
BL51 BANKED LINKER/LOCATER V6.05                                                      07/07/2015  16:43:23  PAGE 28


  C:2FBBH         LINE#         380
  C:2FC5H         LINE#         381
  C:2FCBH         LINE#         382
  C:2FCDH         LINE#         383
  C:2FDDH         LINE#         385
  C:2FE3H         LINE#         386
  C:2FE3H         LINE#         387
  C:2FE3H         LINE#         389
  C:2FE8H         LINE#         391
  C:2FF1H         LINE#         392
  C:2FF1H         LINE#         393
  C:2FFEH         LINE#         394
  C:2FFEH         LINE#         395
  C:3029H         LINE#         396
  C:3029H         LINE#         397
  C:302CH         LINE#         398
  C:302CH         LINE#         399
  C:302EH         LINE#         401
  C:302EH         LINE#         402
  C:303BH         LINE#         403
  C:303EH         LINE#         404
  C:303EH         LINE#         405
  C:3041H         LINE#         406
  C:3049H         LINE#         407
  C:3051H         LINE#         408
  C:305BH         LINE#         409
  C:3063H         LINE#         410
  -------         ENDPROC       _DISPLAY_ASCII
  -------         PROC          _DISPLAY_CHINESE
  X:0269H         SYMBOL        x
  X:026AH         SYMBOL        y
  X:026BH         SYMBOL        p
  X:026EH         SYMBOL        fcolor
  X:0270H         SYMBOL        bcolor
  X:0272H         SYMBOL        size
  -------         DO            
  X:0273H         SYMBOL        i
  X:0274H         SYMBOL        j
  -------         ENDDO         
  C:313DH         LINE#         416
  C:314EH         LINE#         417
  C:314EH         LINE#         419
  C:3158H         LINE#         420
  C:3158H         LINE#         421
  C:3158H         LINE#         422
  C:3158H         LINE#         423
  C:3168H         LINE#         424
  C:316EH         LINE#         425
  C:3170H         LINE#         427
  C:3170H         LINE#         428
  C:317AH         LINE#         429
  C:3180H         LINE#         430
  C:3180H         LINE#         432
  C:3180H         LINE#         434
  C:3185H         LINE#         435
  C:318EH         LINE#         436
  C:318EH         LINE#         437
BL51 BANKED LINKER/LOCATER V6.05                                                      07/07/2015  16:43:23  PAGE 29


  C:319BH         LINE#         438
  C:319BH         LINE#         439
  C:31C6H         LINE#         440
  C:31C6H         LINE#         441
  C:31C9H         LINE#         442
  C:31C9H         LINE#         443
  C:31CBH         LINE#         445
  C:31CBH         LINE#         446
  C:31D8H         LINE#         447
  C:31DBH         LINE#         449
  C:31DBH         LINE#         450
  C:31DEH         LINE#         451
  C:31E6H         LINE#         452
  C:31EEH         LINE#         453
  C:31F8H         LINE#         454
  C:3200H         LINE#         455
  -------         ENDPROC       _DISPLAY_CHINESE
  -------         PROC          _ASCIIXDIRECTIONINCREASE
  D:0007H         SYMBOL        size
  X:026AH         SYMBOL        px
  X:026DH         SYMBOL        py
  -------         DO            
  D:0006H         SYMBOL        x
  D:0005H         SYMBOL        y
  -------         ENDDO         
  C:3064H         LINE#         458
  C:306FH         LINE#         459
  C:306FH         LINE#         461
  C:3073H         LINE#         462
  C:3082H         LINE#         463
  C:308CH         LINE#         464
  C:308CH         LINE#         465
  C:308CH         LINE#         466
  C:308CH         LINE#         467
  C:30A4H         LINE#         469
  C:30A4H         LINE#         470
  C:30BAH         LINE#         474
  C:30BAH         LINE#         475
  C:30D2H         LINE#         477
  C:30D2H         LINE#         478
  C:30E8H         LINE#         479
  C:30E8H         LINE#         480
  C:30E8H         LINE#         481
  C:30EAH         LINE#         482
  C:30EAH         LINE#         483
  C:3102H         LINE#         485
  C:3102H         LINE#         486
  C:311CH         LINE#         487
  C:311FH         LINE#         488
  C:311FH         LINE#         489
  C:311FH         LINE#         490
  C:311FH         LINE#         491
  C:312EH         LINE#         492
  -------         ENDPROC       _ASCIIXDIRECTIONINCREASE
  -------         PROC          _CHINESEXDIRECTIONINCREASE
  D:0007H         SYMBOL        size
  X:026AH         SYMBOL        px
BL51 BANKED LINKER/LOCATER V6.05                                                      07/07/2015  16:43:23  PAGE 30


  X:026DH         SYMBOL        py
  -------         DO            
  D:0006H         SYMBOL        x
  D:0005H         SYMBOL        y
  -------         ENDDO         
  C:3436H         LINE#         496
  C:3441H         LINE#         497
  C:3441H         LINE#         499
  C:3445H         LINE#         500
  C:3454H         LINE#         501
  C:345BH         LINE#         502
  C:345BH         LINE#         503
  C:345BH         LINE#         504
  C:345BH         LINE#         505
  C:3473H         LINE#         507
  C:3473H         LINE#         508
  C:3489H         LINE#         513
  C:3489H         LINE#         514
  C:34A1H         LINE#         516
  C:34A1H         LINE#         517
  C:34BBH         LINE#         518
  C:34BEH         LINE#         519
  C:34BEH         LINE#         520
  C:34BEH         LINE#         522
  C:34BEH         LINE#         523
  C:34CDH         LINE#         524
  -------         ENDPROC       _CHINESEXDIRECTIONINCREASE
  C:26D6H         SYMBOL        L?0278
  C:2701H         SYMBOL        L?0279
  C:2702H         SYMBOL        L?0280
  C:2712H         SYMBOL        L?0281
  C:2713H         SYMBOL        L?0282
  C:271AH         SYMBOL        L?0283
  -------         PROC          L?0277
  -------         ENDPROC       L?0277
  C:26D6H         SYMBOL        L?0278
  C:2701H         SYMBOL        L?0279
  C:2702H         SYMBOL        L?0280
  C:2712H         SYMBOL        L?0281
  C:2713H         SYMBOL        L?0282
  C:271AH         SYMBOL        L?0283
  -------         PROC          _DISPLAYDIGITSTRING
  X:0253H         SYMBOL        px
  X:0256H         SYMBOL        py
  X:0259H         SYMBOL        pDigit
  X:025CH         SYMBOL        Length
  X:025DH         SYMBOL        fcolor
  X:025FH         SYMBOL        bcolor
  X:0261H         SYMBOL        size
  -------         DO            
  X:0262H         SYMBOL        x
  X:0263H         SYMBOL        y
  -------         ENDDO         
  C:271EH         LINE#         529
  C:2729H         LINE#         530
  C:2729H         LINE#         532
  C:2730H         LINE#         533
BL51 BANKED LINKER/LOCATER V6.05                                                      07/07/2015  16:43:23  PAGE 31


  C:2742H         LINE#         534
  C:274EH         LINE#         535
  C:274EH         LINE#         536
  C:2751H         LINE#         537
  C:276AH         LINE#         538
  C:2785H         LINE#         539
  C:2788H         LINE#         540
  C:27C1H         LINE#         542
  C:27DDH         LINE#         543
  C:27E7H         LINE#         544
  C:27F0H         LINE#         545
  C:2804H         LINE#         546
  -------         ENDPROC       _DISPLAYDIGITSTRING
  -------         PROC          _DISPLAYDIGIT
  X:0304H         SYMBOL        x
  X:0305H         SYMBOL        y
  X:0306H         SYMBOL        Digit
  X:0307H         SYMBOL        fcolor
  X:0309H         SYMBOL        bcolor
  X:030BH         SYMBOL        size
  C:3B20H         LINE#         550
  C:3B2BH         LINE#         551
  C:3B2BH         LINE#         552
  C:3B2EH         LINE#         553
  C:3B39H         LINE#         554
  C:3B4AH         LINE#         555
  C:3B4DH         LINE#         556
  -------         ENDPROC       _DISPLAYDIGIT
  C:2B95H         SYMBOL        L?0285
  C:2BA6H         SYMBOL        L?0286
  -------         PROC          L?0284
  -------         ENDPROC       L?0284
  C:2B95H         SYMBOL        L?0285
  C:2BA6H         SYMBOL        L?0286
  -------         PROC          _DISPLAYASCIISTRING
  X:0253H         SYMBOL        px
  X:0256H         SYMBOL        py
  X:0259H         SYMBOL        pASCII
  X:025CH         SYMBOL        Length
  X:025DH         SYMBOL        fcolor
  X:025FH         SYMBOL        bcolor
  X:0261H         SYMBOL        size
  -------         DO            
  X:0262H         SYMBOL        x
  X:0263H         SYMBOL        y
  -------         ENDDO         
  C:2BB2H         LINE#         560
  C:2BBDH         LINE#         561
  C:2BBDH         LINE#         563
  C:2BC4H         LINE#         564
  C:2BD6H         LINE#         565
  C:2BE2H         LINE#         566
  C:2BE2H         LINE#         567
  C:2BE5H         LINE#         568
  C:2BFEH         LINE#         569
  C:2C01H         LINE#         570
  C:2C3AH         LINE#         572
BL51 BANKED LINKER/LOCATER V6.05                                                      07/07/2015  16:43:23  PAGE 32


  C:2C56H         LINE#         573
  C:2C60H         LINE#         574
  C:2C69H         LINE#         575
  C:2C7DH         LINE#         576
  -------         ENDPROC       _DISPLAYASCIISTRING
  -------         PROC          _DISPLAYASCII
  X:030CH         SYMBOL        x
  X:030DH         SYMBOL        y
  D:0003H         SYMBOL        ASCII
  X:030FH         SYMBOL        fcolor
  X:0311H         SYMBOL        bcolor
  X:0313H         SYMBOL        size
  C:3DBDH         LINE#         579
  C:3DC5H         LINE#         580
  C:3DC5H         LINE#         581
  C:3DC8H         LINE#         582
  C:3DD6H         LINE#         583
  C:3DD9H         LINE#         584
  -------         ENDPROC       _DISPLAYASCII
  C:2DA7H         SYMBOL        L?0288
  C:2DA8H         SYMBOL        L?0289
  -------         PROC          L?0287
  -------         ENDPROC       L?0287
  C:2DA7H         SYMBOL        L?0288
  C:2DA8H         SYMBOL        L?0289
  -------         PROC          _DISPLAYCHINESESTRING
  X:0258H         SYMBOL        px
  X:025BH         SYMBOL        py
  X:025EH         SYMBOL        pChinese
  X:0261H         SYMBOL        Length
  X:0262H         SYMBOL        fcolor
  X:0264H         SYMBOL        bcolor
  X:0266H         SYMBOL        size
  -------         DO            
  X:0267H         SYMBOL        x
  X:0268H         SYMBOL        y
  -------         ENDDO         
  C:2DB3H         LINE#         588
  C:2DBEH         LINE#         589
  C:2DBEH         LINE#         591
  C:2DC5H         LINE#         592
  C:2DD7H         LINE#         593
  C:2DE3H         LINE#         594
  C:2DE3H         LINE#         595
  C:2DE6H         LINE#         596
  C:2DF9H         LINE#         597
  C:2DFCH         LINE#         598
  C:2E35H         LINE#         600
  C:2E51H         LINE#         601
  C:2E5BH         LINE#         602
  C:2E64H         LINE#         603
  C:2E78H         LINE#         604
  -------         ENDPROC       _DISPLAYCHINESESTRING
  -------         PROC          _DISPLAYSTRING
  X:0258H         SYMBOL        px
  X:025BH         SYMBOL        py
  X:025EH         SYMBOL        pDispData
BL51 BANKED LINKER/LOCATER V6.05                                                      07/07/2015  16:43:23  PAGE 33


  X:0261H         SYMBOL        Length
  X:0262H         SYMBOL        fcolor
  X:0264H         SYMBOL        bcolor
  X:0266H         SYMBOL        size
  -------         DO            
  X:0267H         SYMBOL        x
  X:0268H         SYMBOL        y
  -------         ENDDO         
  C:14ADH         LINE#         608
  C:14B8H         LINE#         609
  C:14B8H         LINE#         611
  C:14BFH         LINE#         612
  C:14D1H         LINE#         615
  C:14DEH         LINE#         616
  C:14DEH         LINE#         617
  C:14FEH         LINE#         618
  C:14FEH         LINE#         619
  C:1508H         LINE#         620
  C:151EH         LINE#         621
  C:151EH         LINE#         622
  C:1526H         LINE#         623
  C:1526H         LINE#         624
  C:1530H         LINE#         625
  C:1543H         LINE#         628
  C:154EH         LINE#         629
  C:154EH         LINE#         630
  C:154EH         LINE#         631
  C:154EH         LINE#         632
  C:1563H         LINE#         633
  C:1563H         LINE#         634
  C:1565H         LINE#         635
  C:157CH         LINE#         636
  C:1583H         LINE#         637
  C:1583H         LINE#         638
  C:1585H         LINE#         639
  C:1585H         LINE#         640
  C:159AH         LINE#         641
  C:159AH         LINE#         642
  C:159CH         LINE#         643
  C:15B3H         LINE#         644
  C:15BAH         LINE#         645
  C:15BAH         LINE#         646
  C:15BAH         LINE#         647
  C:15BAH         LINE#         648
  C:15EEH         LINE#         650
  C:160AH         LINE#         651
  C:1614H         LINE#         652
  C:161BH         LINE#         653
  C:161EH         LINE#         660
  C:161EH         LINE#         661
  C:161EH         LINE#         662
  C:161EH         LINE#         663
  C:1621H         LINE#         664
  C:1641H         LINE#         665
  C:1641H         LINE#         666
  C:164FH         LINE#         668
  C:165DH         LINE#         669
BL51 BANKED LINKER/LOCATER V6.05                                                      07/07/2015  16:43:23  PAGE 34


  C:165DH         LINE#         670
  C:165DH         LINE#         671
  C:165DH         LINE#         672
  C:1675H         LINE#         673
  C:1675H         LINE#         674
  C:1677H         LINE#         675
  C:168EH         LINE#         676
  C:1695H         LINE#         677
  C:1695H         LINE#         678
  C:1697H         LINE#         679
  C:1697H         LINE#         680
  C:16ACH         LINE#         681
  C:16ACH         LINE#         682
  C:16AEH         LINE#         683
  C:16C5H         LINE#         684
  C:16CCH         LINE#         685
  C:16CCH         LINE#         686
  C:16CEH         LINE#         687
  C:16CEH         LINE#         688
  C:16E3H         LINE#         689
  C:16E3H         LINE#         690
  C:16E5H         LINE#         691
  C:16FCH         LINE#         692
  C:1703H         LINE#         693
  C:1703H         LINE#         694
  C:1703H         LINE#         695
  C:1703H         LINE#         696
  C:1737H         LINE#         698
  C:1753H         LINE#         699
  C:175DH         LINE#         700
  C:175DH         LINE#         701
  C:175FH         LINE#         703
  C:175FH         LINE#         704
  C:1769H         LINE#         705
  C:176FH         LINE#         706
  C:176FH         LINE#         707
  C:1772H         LINE#         709
  C:1786H         LINE#         710
  -------         ENDPROC       _DISPLAYSTRING
  -------         PROC          _LCD_FANGDA_DIS_TEXT
  D:0005H         SYMBOL        x
  D:0006H         SYMBOL        y
  X:02DDH         SYMBOL        type_x_wide
  X:02DEH         SYMBOL        type_y_height
  X:02DFH         SYMBOL        mul_row
  X:02E0H         SYMBOL        mul_col
  X:02E1H         SYMBOL        fcolor
  X:02E3H         SYMBOL        bcolor
  X:02E5H         SYMBOL        p
  -------         DO            
  X:02E8H         SYMBOL        i
  X:02E9H         SYMBOL        j
  X:02EAH         SYMBOL        k
  X:02EBH         SYMBOL        m
  X:02ECH         SYMBOL        n
  -------         ENDDO         
  C:2941H         LINE#         721
BL51 BANKED LINKER/LOCATER V6.05                                                      07/07/2015  16:43:23  PAGE 35


  C:294AH         LINE#         723
  C:294AH         LINE#         728
  C:2969H         LINE#         729
  C:296EH         LINE#         730
  C:2983H         LINE#         731
  C:2983H         LINE#         733
  C:2998H         LINE#         734
  C:2998H         LINE#         736
  C:29B2H         LINE#         737
  C:29B2H         LINE#         739
  C:29B5H         LINE#         740
  C:29B5H         LINE#         742
  C:29C7H         LINE#         743
  C:29C7H         LINE#         746
  C:2A0FH         LINE#         747
  C:2A0FH         LINE#         748
  C:2A12H         LINE#         749
  C:2A12H         LINE#         750
  C:2A14H         LINE#         753
  C:2A14H         LINE#         754
  C:2A1FH         LINE#         755
  C:2A22H         LINE#         756
  C:2A22H         LINE#         758
  C:2A25H         LINE#         759
  C:2A2DH         LINE#         761
  C:2A35H         LINE#         762
  C:2A44H         LINE#         763
  C:2A4DH         LINE#         764
  C:2A56H         LINE#         765
  C:2A5FH         LINE#         766
  -------         ENDPROC       _LCD_FANGDA_DIS_TEXT
  -------         PROC          SHOWPOWERUPFACE
  -------         DO            
  X:024AH         SYMBOL        x
  X:024BH         SYMBOL        y
  -------         ENDDO         
  C:1F9CH         LINE#         770
  C:1F9CH         LINE#         771
  C:1F9CH         LINE#         774
  C:1F9FH         LINE#         775
  C:1FA5H         LINE#         776
  C:1FA9H         LINE#         777
  C:1FE0H         LINE#         781
  C:1FE6H         LINE#         782
  C:1FEBH         LINE#         783
  C:2022H         LINE#         784
  C:2059H         LINE#         785
  C:2066H         LINE#         786
  C:2074H         LINE#         787
  C:207DH         LINE#         788
  C:2083H         LINE#         789
  C:2083H         LINE#         790
  C:20A0H         LINE#         791
  C:20A2H         LINE#         793
  C:20A2H         LINE#         794
  C:20ABH         LINE#         795
  C:20ABH         LINE#         796
BL51 BANKED LINKER/LOCATER V6.05                                                      07/07/2015  16:43:23  PAGE 36


  C:20C5H         LINE#         797
  C:20C7H         LINE#         798
  C:20FBH         LINE#         799
  C:20FBH         LINE#         800
  C:2132H         LINE#         802
  C:213FH         LINE#         803
  C:214DH         LINE#         804
  C:2156H         LINE#         805
  C:215CH         LINE#         806
  C:215CH         LINE#         807
  C:2179H         LINE#         808
  C:217BH         LINE#         810
  C:217BH         LINE#         811
  C:2184H         LINE#         812
  C:2184H         LINE#         813
  C:219EH         LINE#         814
  C:21A0H         LINE#         815
  C:21D4H         LINE#         816
  C:21D4H         LINE#         818
  -------         ENDPROC       SHOWPOWERUPFACE
  -------         PROC          SHOWLANDINGFACE
  -------         DO            
  X:024FH         SYMBOL        temp1
  X:0250H         SYMBOL        temp2
  X:0251H         SYMBOL        x
  X:0252H         SYMBOL        y
  -------         ENDDO         
  C:0E9BH         LINE#         836
  C:0E9BH         LINE#         837
  C:0E9BH         LINE#         842
  C:0EA9H         LINE#         843
  C:0EB3H         LINE#         844
  C:0EBCH         LINE#         846
  C:0EC3H         LINE#         847
  C:0EF5H         LINE#         848
  C:0F21H         LINE#         849
  C:0F4DH         LINE#         851
  C:0F5BH         LINE#         852
  C:0F65H         LINE#         853
  C:0F6EH         LINE#         854
  C:0F9BH         LINE#         855
  C:0FC8H         LINE#         856
  C:0FF5H         LINE#         858
  C:0FFEH         LINE#         859
  C:1001H         LINE#         860
  C:1001H         LINE#         861
  C:1001H         LINE#         862
  C:1004H         LINE#         863
  C:101FH         LINE#         864
  C:1022H         LINE#         866
  C:1025H         LINE#         867
  C:1025H         LINE#         868
  C:1025H         LINE#         869
  C:1028H         LINE#         870
  C:1044H         LINE#         871
  C:1047H         LINE#         873
  C:104AH         LINE#         874
BL51 BANKED LINKER/LOCATER V6.05                                                      07/07/2015  16:43:23  PAGE 37


  C:104AH         LINE#         875
  C:104AH         LINE#         876
  C:104DH         LINE#         877
  C:1069H         LINE#         879
  C:107CH         LINE#         880
  C:1086H         LINE#         881
  C:1089H         LINE#         882
  C:1089H         LINE#         883
  C:1089H         LINE#         884
  C:108CH         LINE#         885
  C:10A8H         LINE#         886
  C:10C3H         LINE#         888
  C:10C6H         LINE#         889
  C:10C6H         LINE#         890
  C:10C6H         LINE#         891
  C:10C9H         LINE#         892
  C:10E5H         LINE#         893
  C:10FCH         LINE#         895
  C:110FH         LINE#         896
  C:1119H         LINE#         897
  C:1134H         LINE#         902
  C:113DH         LINE#         903
  C:1158H         LINE#         904
  C:1186H         LINE#         905
  C:119DH         LINE#         907
  C:11A3H         LINE#         908
  C:11A9H         LINE#         909
  C:11A9H         LINE#         910
  C:11ACH         LINE#         911
  C:11AFH         LINE#         912
  C:11B1H         LINE#         913
  C:11B2H         LINE#         915
  C:11B2H         LINE#         916
  C:11B4H         LINE#         917
  C:11B4H         LINE#         918
  -------         ENDPROC       SHOWLANDINGFACE
  -------         PROC          SHOWMAINMENUFACE
  -------         DO            
  X:034EH         SYMBOL        x
  X:034FH         SYMBOL        y
  -------         ENDDO         
  C:1A57H         LINE#         922
  C:1A57H         LINE#         923
  C:1A57H         LINE#         925
  C:1A5AH         LINE#         926
  C:1A61H         LINE#         927
  C:1A69H         LINE#         928
  C:1A69H         LINE#         929
  C:1AA0H         LINE#         930
  C:1ACAH         LINE#         931
  C:1ACCH         LINE#         933
  C:1ACCH         LINE#         934
  C:1B04H         LINE#         935
  C:1B3CH         LINE#         936
  C:1B3CH         LINE#         941
  C:1B45H         LINE#         942
  C:1B4DH         LINE#         943
BL51 BANKED LINKER/LOCATER V6.05                                                      07/07/2015  16:43:23  PAGE 38


  C:1B4DH         LINE#         944
  C:1B84H         LINE#         945
  C:1BAEH         LINE#         946
  C:1BB0H         LINE#         948
  C:1BB0H         LINE#         949
  C:1BE8H         LINE#         950
  C:1C20H         LINE#         951
  C:1C20H         LINE#         954
  C:1C29H         LINE#         955
  C:1C31H         LINE#         956
  C:1C31H         LINE#         957
  C:1C68H         LINE#         958
  C:1C92H         LINE#         959
  C:1C94H         LINE#         961
  C:1C94H         LINE#         962
  C:1CCCH         LINE#         963
  C:1D04H         LINE#         964
  C:1D04H         LINE#         966
  C:1D0AH         LINE#         968
  -------         ENDPROC       SHOWMAINMENUFACE
  -------         PROC          SHOWTALKFACE
  -------         DO            
  X:024FH         SYMBOL        x
  X:0250H         SYMBOL        y
  -------         ENDDO         
  C:3FF2H         LINE#         984
  C:3FF2H         LINE#         985
  C:3FF2H         LINE#         987
  C:3FF5H         LINE#         988
  C:3FFBH         LINE#         989
  C:3FFFH         LINE#         991
  C:4037H         LINE#         992
  C:403DH         LINE#         993
  -------         ENDPROC       SHOWTALKFACE
  -------         PROC          SHOWBROADFACE
  -------         DO            
  X:024FH         SYMBOL        x
  X:0250H         SYMBOL        y
  -------         ENDDO         
  C:403EH         LINE#         996
  C:403EH         LINE#         997
  C:403EH         LINE#         999
  C:4041H         LINE#         1000
  C:4047H         LINE#         1001
  C:404BH         LINE#         1003
  C:4083H         LINE#         1004
  C:4089H         LINE#         1005
  -------         ENDPROC       SHOWBROADFACE
  -------         PROC          SHOWCALLSUCCESS
  -------         DO            
  X:024FH         SYMBOL        x
  X:0250H         SYMBOL        y
  -------         ENDDO         
  C:3616H         LINE#         1008
  C:3616H         LINE#         1009
  C:3616H         LINE#         1011
  C:3619H         LINE#         1012
BL51 BANKED LINKER/LOCATER V6.05                                                      07/07/2015  16:43:23  PAGE 39


  C:361EH         LINE#         1013
  C:3622H         LINE#         1015
  C:365AH         LINE#         1017
  C:3660H         LINE#         1018
  C:3665H         LINE#         1019
  C:369DH         LINE#         1021
  C:36A3H         LINE#         1022
  -------         ENDPROC       SHOWCALLSUCCESS
  -------         PROC          _SHOWFACE
  X:024EH         SYMBOL        DispFaceType
  -------         DO            
  X:024FH         SYMBOL        TotalDataLen
  X:0251H         SYMBOL        DispDataLen
  X:0252H         SYMBOL        x
  X:0253H         SYMBOL        y
  X:0254H         SYMBOL        MRReadAddr
  C:23BFH         SYMBOL        SHOW_FACE_RETURN
  -------         ENDDO         
  C:21D5H         LINE#         1026
  C:21DAH         LINE#         1027
  C:21DAH         LINE#         1037
  C:21E5H         LINE#         1038
  C:21E5H         LINE#         1039
  C:21E5H         LINE#         1040
  C:21E8H         LINE#         1041
  C:21EAH         LINE#         1042
  C:21EAH         LINE#         1043
  C:21EDH         LINE#         1044
  C:21EFH         LINE#         1045
  C:21EFH         LINE#         1046
  C:21FEH         LINE#         1047
  C:2200H         LINE#         1048
  C:2200H         LINE#         1049
  C:2207H         LINE#         1050
  C:2207H         LINE#         1051
  C:2207H         LINE#         1053
  C:2211H         LINE#         1054
  C:2211H         LINE#         1055
  C:2217H         LINE#         1056
  C:2220H         LINE#         1057
  C:2258H         LINE#         1059
  C:225BH         LINE#         1060
  C:225BH         LINE#         1064
  C:2274H         LINE#         1065
  C:2274H         LINE#         1066
  C:227AH         LINE#         1068
  C:227DH         LINE#         1069
  C:227DH         LINE#         1073
  C:228CH         LINE#         1074
  C:228CH         LINE#         1075
  C:228CH         LINE#         1076
  C:2291H         LINE#         1077
  C:2293H         LINE#         1078
  C:2293H         LINE#         1079
  C:22A4H         LINE#         1080
  C:22A6H         LINE#         1081
  C:22A6H         LINE#         1082
BL51 BANKED LINKER/LOCATER V6.05                                                      07/07/2015  16:43:23  PAGE 40


  C:22C3H         LINE#         1083
  C:22C5H         LINE#         1084
  C:22C5H         LINE#         1085
  C:22CFH         LINE#         1086
  C:22CFH         LINE#         1087
  C:22CFH         LINE#         1092
  C:22F1H         LINE#         1093
  C:22F1H         LINE#         1094
  C:22F5H         LINE#         1095
  C:22F7H         LINE#         1097
  C:22F7H         LINE#         1098
  C:2304H         LINE#         1099
  C:2304H         LINE#         1103
  C:2307H         LINE#         1105
  C:2310H         LINE#         1106
  C:2310H         LINE#         1107
  C:2332H         LINE#         1108
  C:2339H         LINE#         1109
  C:2342H         LINE#         1110
  C:2342H         LINE#         1111
  C:234DH         LINE#         1112
  C:234DH         LINE#         1113
  C:2367H         LINE#         1114
  C:2369H         LINE#         1116
  C:2369H         LINE#         1117
  C:2382H         LINE#         1118
  C:2382H         LINE#         1119
  C:2384H         LINE#         1120
  C:23BFH         LINE#         1121
  C:23BFH         LINE#         1124
  C:23BFH         LINE#         1126
  C:23CEH         LINE#         1127
  C:23CEH         LINE#         1128
  C:23CEH         LINE#         1129
  C:23D4H         LINE#         1130
  C:23D5H         LINE#         1132
  C:23D5H         LINE#         1133
  C:23DBH         LINE#         1134
  C:23DCH         LINE#         1135
  C:23DCH         LINE#         1136
  C:23E2H         LINE#         1137
  C:23E2H         LINE#         1138
  C:23E2H         LINE#         1139
  C:23E2H         LINE#         1140
  C:23E2H         LINE#         1142
  -------         ENDPROC       _SHOWFACE
  -------         PROC          SHOWDIETFACE
  C:4C3DH         LINE#         1147
  C:4C3DH         LINE#         1148
  C:4C3DH         LINE#         1149
  C:4C43H         LINE#         1151
  -------         ENDPROC       SHOWDIETFACE
  -------         PROC          SHOWPRESCRIPTIONFACE
  C:4C44H         LINE#         1153
  C:4C44H         LINE#         1154
  C:4C44H         LINE#         1155
  C:4C4AH         LINE#         1156
BL51 BANKED LINKER/LOCATER V6.05                                                      07/07/2015  16:43:23  PAGE 41


  -------         ENDPROC       SHOWPRESCRIPTIONFACE
  -------         PROC          SHOWPROMPTFACE
  C:4C4BH         LINE#         1159
  C:4C4BH         LINE#         1160
  C:4C4BH         LINE#         1161
  C:4C51H         LINE#         1163
  -------         ENDPROC       SHOWPROMPTFACE
  -------         PROC          DISPMANAGER
  C:4BA9H         LINE#         1179
  C:4BA9H         LINE#         1180
  C:4BA9H         LINE#         1188
  C:4BACH         LINE#         1189
  C:4BACH         LINE#         1190
  C:4BACH         LINE#         1192
  C:4BB3H         LINE#         1193
  -------         ENDPROC       DISPMANAGER
  -------         ENDMOD        LCD

  -------         MODULE        MAIN
  C:0000H         SYMBOL        _ICE_DUMMY_
  D:0093H         PUBLIC        P0M1
  D:0092H         PUBLIC        P1M0
  C:430AH         PUBLIC        _DispatchMessage
  D:0096H         PUBLIC        P2M0
  D:0091H         PUBLIC        P1M1
  D:0080H         PUBLIC        P0
  D:00B2H         PUBLIC        P3M0
  D:0095H         PUBLIC        P2M1
  D:0090H         PUBLIC        P1
  B:0090H.1       PUBLIC        LCD_CS7
  D:00B4H         PUBLIC        P4M0
  D:00B1H         PUBLIC        P3M1
  D:00A0H         PUBLIC        P2
  D:00CAH         PUBLIC        P5M0
  D:00B3H         PUBLIC        P4M1
  D:00B0H         PUBLIC        P3
  D:00C9H         PUBLIC        P5M1
  D:00C0H         PUBLIC        P4
  D:00C8H         PUBLIC        P5
  D:00F9H         PUBLIC        CH
  B:00A8H.5       PUBLIC        EADC
  D:00A8H         PUBLIC        IE
  X:028EH         PUBLIC        DispData
  D:00E9H         PUBLIC        CL
  C:4C1BH         PUBLIC        BL_SW_Init
  D:00FAH         PUBLIC        CCAP0H
  D:00EAH         PUBLIC        CCAP0L
  B:00D8H.6       PUBLIC        CR
  C:2C91H         PUBLIC        Init
  D:00DAH         PUBLIC        CCAPM0
  B:00C8H.1       PUBLIC        BL_SW
  D:00B8H         PUBLIC        IP
  C:0006H         PUBLIC        Ex0Int
  C:3F0AH         PUBLIC        MainTask
  X:0290H         PUBLIC        uiIsrTimerCount
  D:00D9H         PUBLIC        CMOD
  D:00D8H         PUBLIC        CCON
BL51 BANKED LINKER/LOCATER V6.05                                                      07/07/2015  16:43:23  PAGE 42


  C:4AFBH         PUBLIC        main
  B:00A8H.6       PUBLIC        ELVD
  D:00BBH         PUBLIC        P4SW
  C:48E2H         PUBLIC        UserTickTimer
  D:0098H         PUBLIC        SCON
  D:0088H         PUBLIC        TCON
  C:0016H         PUBLIC        AdcInt
  X:0292H         PUBLIC        MicCtrlState
  X:0293H         PUBLIC        stLocalControl
  B:0090H.3       PUBLIC        GT23L_CS
  D:00E0H         PUBLIC        ACC
  B:00A8H.3       PUBLIC        ET1
  I:0064H         PUBLIC        byMainCmdQ
  B:00A8H.0       PUBLIC        EX0
  C:001EH         PUBLIC        LvdInt
  B:0027H.3       PUBLIC        bBL_SW_State
  C:000EH         PUBLIC        TIMER1Int
  C:4C52H         PUBLIC        _GetMessage
  B:00B0H.2       PUBLIC        MIC_CTRL
  B:0090H.4       PUBLIC        SST25VF_CS
  D:00D0H         PUBLIC        PSW
  B:00D8H.0       PUBLIC        CCF0
  D:0094H         PUBLIC        P0M0
  -------         PROC          EX0INT
  C:0006H         LINE#         38
  C:0006H         LINE#         40
  C:0008H         LINE#         41
  -------         ENDPROC       EX0INT
  -------         PROC          TIMER1INT
  C:000EH         LINE#         43
  C:000EH         LINE#         45
  C:0010H         LINE#         46
  -------         ENDPROC       TIMER1INT
  -------         PROC          ADCINT
  C:0016H         LINE#         49
  C:0016H         LINE#         51
  C:0018H         LINE#         52
  -------         ENDPROC       ADCINT
  -------         PROC          LVDINT
  C:001EH         LINE#         54
  C:001EH         LINE#         56
  C:0020H         LINE#         57
  -------         ENDPROC       LVDINT
  -------         PROC          USERTICKTIMER
  C:48E2H         LINE#         68
  C:48E2H         LINE#         69
  C:48E2H         LINE#         72
  C:48F0H         LINE#         73
  C:48F6H         LINE#         74
  C:48F9H         LINE#         75
  C:48FBH         LINE#         79
  C:4903H         LINE#         80
  -------         ENDPROC       USERTICKTIMER
  -------         PROC          BL_SW_INIT
  C:4C1BH         LINE#         82
  C:4C1BH         LINE#         83
  C:4C1BH         LINE#         85
BL51 BANKED LINKER/LOCATER V6.05                                                      07/07/2015  16:43:23  PAGE 43


  C:4C1EH         LINE#         86
  C:4C21H         LINE#         87
  C:4C23H         LINE#         88
  -------         ENDPROC       BL_SW_INIT
  -------         PROC          INIT
  C:2C91H         LINE#         105
  C:2C91H         LINE#         106
  C:2C91H         LINE#         107
  C:2CA0H         LINE#         109
  C:2CA3H         LINE#         110
  C:2CA6H         LINE#         111
  C:2CA8H         LINE#         112
  C:2CAAH         LINE#         113
  C:2CB3H         LINE#         114
  C:2CB6H         LINE#         116
  C:2CB9H         LINE#         119
  C:2CBBH         LINE#         127
  C:2CBEH         LINE#         128
  C:2CC0H         LINE#         133
  C:2CC3H         LINE#         134
  C:2CC5H         LINE#         139
  C:2CC7H         LINE#         140
  C:2CC9H         LINE#         151
  C:2CCCH         LINE#         152
  C:2CCEH         LINE#         158
  C:2CD1H         LINE#         159
  C:2CD3H         LINE#         160
  C:2CD6H         LINE#         165
  C:2CD9H         LINE#         166
  C:2CDBH         LINE#         170
  C:2CDDH         LINE#         171
  C:2CDFH         LINE#         172
  C:2CE1H         LINE#         175
  C:2CE5H         LINE#         177
  C:2CECH         LINE#         181
  C:2CEFH         LINE#         184
  C:2CF2H         LINE#         187
  C:2CF5H         LINE#         188
  C:2CFAH         LINE#         191
  C:2CFDH         LINE#         192
  C:2D00H         LINE#         194
  C:2D03H         LINE#         197
  C:2D06H         LINE#         206
  C:2D0BH         LINE#         209
  C:2D11H         LINE#         210
  C:2D17H         LINE#         211
  C:2D1DH         LINE#         212
  C:2D23H         LINE#         213
  C:2D29H         LINE#         216
  C:2D2BH         LINE#         217
  C:2D32H         LINE#         220
  C:2D38H         LINE#         221
  C:2D3CH         LINE#         223
  C:2D40H         LINE#         227
  C:2D5BH         LINE#         228
  C:2D76H         LINE#         229
  C:2D91H         LINE#         232
BL51 BANKED LINKER/LOCATER V6.05                                                      07/07/2015  16:43:23  PAGE 44


  -------         ENDPROC       INIT
  -------         PROC          _GETMESSAGE
  D:0007H         SYMBOL        Msg
  C:4C52H         LINE#         249
  C:4C52H         LINE#         250
  C:4C52H         LINE#         251
  -------         ENDPROC       _GETMESSAGE
  -------         PROC          _DISPATCHMESSAGE
  X:024AH         SYMBOL        Msg
  C:430AH         LINE#         268
  C:430FH         LINE#         269
  C:430FH         LINE#         270
  C:4329H         LINE#         271
  C:4329H         LINE#         272
  C:4329H         LINE#         273
  C:432CH         LINE#         274
  C:432CH         LINE#         275
  C:432CH         LINE#         276
  C:432FH         LINE#         277
  C:432FH         LINE#         278
  C:432FH         LINE#         279
  C:4337H         LINE#         280
  C:4337H         LINE#         281
  C:4337H         LINE#         282
  C:433FH         LINE#         283
  C:433FH         LINE#         284
  C:433FH         LINE#         285
  C:4347H         LINE#         286
  C:4347H         LINE#         287
  C:4347H         LINE#         288
  C:434AH         LINE#         289
  C:434AH         LINE#         290
  C:434AH         LINE#         291
  -------         ENDPROC       _DISPATCHMESSAGE
  -------         PROC          MAINTASK
  -------         DO            
  D:001BH         SYMBOL        Msg
  -------         ENDDO         
  C:3F0AH         LINE#         307
  C:3F0AH         LINE#         308
  C:3F0AH         LINE#         312
  C:3F0DH         LINE#         314
  C:3F14H         LINE#         316
  C:3F20H         LINE#         317
  C:3F2CH         LINE#         318
  C:3F38H         LINE#         319
  C:3F44H         LINE#         323
  C:3F44H         LINE#         324
  C:3F44H         LINE#         325
  C:3F49H         LINE#         326
  C:3F4EH         LINE#         327
  C:3F51H         LINE#         328
  C:3F51H         LINE#         329
  C:3F53H         LINE#         330
  C:3F56H         LINE#         331
  C:3F56H         LINE#         332
  -------         ENDPROC       MAINTASK
BL51 BANKED LINKER/LOCATER V6.05                                                      07/07/2015  16:43:23  PAGE 45


  -------         PROC          MAIN
  C:4AFBH         LINE#         349
  C:4AFBH         LINE#         350
  C:4AFBH         LINE#         352
  C:4AFEH         LINE#         356
  C:4B09H         LINE#         358
  C:4B09H         LINE#         359
  C:4B09H         LINE#         360
  C:4B0AH         LINE#         362
  -------         ENDPROC       MAIN
  -------         ENDMOD        MAIN

  -------         MODULE        SINGLEBUS
  C:0000H         SYMBOL        _ICE_DUMMY_
  C:4925H         PUBLIC        TimerOutManager
  D:0028H         PUBLIC        byBus0DisableCount
  D:0080H         PUBLIC        P0
  D:00B2H         PUBLIC        P3M0
  D:0090H         PUBLIC        P1
  D:00B1H         PUBLIC        P3M1
  D:00A0H         PUBLIC        P2
  D:00B0H         PUBLIC        P3
  D:00C0H         PUBLIC        P4
  D:00C8H         PUBLIC        P5
  B:00A8H.7       PUBLIC        EA
  B:0020H.7       PUBLIC        bBusy
  B:0021H.2       PUBLIC        bBus0Enable
  B:0022H.7       PUBLIC        bWaitAck
  B:0023H.4       PUBLIC        bEnCallDeal
  D:00A8H         PUBLIC        IE
  B:0024H.0       PUBLIC        bPWState
  B:0024H.4       PUBLIC        bConfusionNoting
  B:00B0H.4       PUBLIC        Bus0SendPin
  D:0029H         PUBLIC        byBus0TxTail
  D:00DAH         PUBLIC        CCAPM0
  B:0021H.1       PUBLIC        bBus0OnRec
  B:00C8H.1       PUBLIC        BL_SW
  D:00B8H         PUBLIC        IP
  X:0350H         PUBLIC        uitTimer0TimerCount
  B:0021H.5       PUBLIC        bBus0OnSendFreq
  B:0023H.2       PUBLIC        bEnHelpDeal
  B:0027H.4       PUBLIC        FLED
  B:0025H.2       PUBLIC        bEnAllBroad
  B:0022H.2       PUBLIC        bOfficeBroad
  B:00B0H.3       PUBLIC        Bus0RecPin
  D:002AH         PUBLIC        byBus0RecTimeOut
  B:0020H.5       PUBLIC        bDealKeyDown
  B:0020H.0       PUBLIC        bLanding
  D:00D8H         PUBLIC        CCON
  C:4B4DH         PUBLIC        Bus0RecInt
  C:408AH         PUBLIC        ReadParameter
  B:0025H.5       PUBLIC        bEnAutoListen
  C:49A0H         PUBLIC        Bus0Manage
  C:4564H         PUBLIC        SingleBusInit
  B:0025H.6       PUBLIC        bEnVoiceNote
  B:0022H.5       PUBLIC        bChannel0Talked
  B:0021H.4       PUBLIC        bBus0OnSendBit
BL51 BANKED LINKER/LOCATER V6.05                                                      07/07/2015  16:43:23  PAGE 46


  B:0020H.3       PUBLIC        bChannel1Talked
  B:0020H.4       PUBLIC        bNurseIn
  B:0024H.3       PUBLIC        bServiceNoting
  B:0023H.6       PUBLIC        bEnHandDown
  B:0025H.0       PUBLIC        bEnSickRoomBroad
  B:0026H.2       PUBLIC        bBus0SendFinish
  D:0020H         PUBLIC        byDevState1
  D:0022H         PUBLIC        byDevState2
  D:0098H         PUBLIC        SCON
  B:0026H.1       PUBLIC        bBus0RecBit9
  B:0023H.3       PUBLIC        bEnEmergencyDeal
  D:0024H         PUBLIC        byDevState3
  D:0089H         PUBLIC        TMOD
  D:0088H         PUBLIC        TCON
  C:2A60H         PUBLIC        TimerOutDeal
  C:3AC9H         PUBLIC        SaveParameter
  B:0025H.3       PUBLIC        bEnSoundNote
  C:4481H         PUBLIC        InitParameter
  B:0024H.7       PUBLIC        bCalledRing
  B:0088H.3       PUBLIC        IE1
  B:0026H.0       PUBLIC        bBus0RecFinish
  B:0024H.5       PUBLIC        bMusicPlaying
  D:008EH         PUBLIC        AUXR
  D:002BH         PUBLIC        byBus0SendData
  D:00C7H         PUBLIC        IAP_CONTR
  C:0009H         PUBLIC        SysReset
  D:00E0H         PUBLIC        ACC
  C:4351H         PUBLIC        _AddrCompare
  B:00A8H.1       PUBLIC        ET0
  B:0088H.5       PUBLIC        TF0
  B:0021H.7       PUBLIC        bBus0Error
  D:008CH         PUBLIC        TH0
  B:0088H.2       PUBLIC        IT1
  B:00A8H.2       PUBLIC        EX1
  B:0024H.6       PUBLIC        bVoiceNoting
  D:008AH         PUBLIC        TL0
  D:0032H         PUBLIC        byBus0RecData
  D:0039H         PUBLIC        byBus0SendCount
  B:0025H.1       PUBLIC        bEnOfficeBroad
  B:0023H.5       PUBLIC        bEnMusicplay
  B:00C8H.0       PUBLIC        LED
  B:0020H.6       PUBLIC        bSetKeyDown
  B:0088H.4       PUBLIC        TR0
  D:003AH         PUBLIC        byBus0TxQ
  D:0025H         PUBLIC        byEnable1
  B:0021H.6       PUBLIC        bBus0SendError
  D:0023H         PUBLIC        byEnable2
  B:0022H.0       PUBLIC        bSelfBroad
  B:0025H.7       PUBLIC        bEnHandleDeal
  B:0022H.4       PUBLIC        bChannel0Talk
  B:0023H.0       PUBLIC        bEnInfusionDeal
  B:0020H.2       PUBLIC        bChannel1Talk
  C:45FEH         PUBLIC        Bus0SendDeal
  C:11B5H         PUBLIC        Timer0Int
  D:005EH         PUBLIC        byBus0RecCount
  B:0024H.2       PUBLIC        bHelpNoting
  B:0025H.4       PUBLIC        bEnOutRing
BL51 BANKED LINKER/LOCATER V6.05                                                      07/07/2015  16:43:23  PAGE 47


  D:005FH         PUBLIC        byBus0SendBuf
  B:0023H.1       PUBLIC        bEnServiceDeal
  B:0022H.1       PUBLIC        bAllBroad
  B:0020H.1       PUBLIC        bIndicatingOther
  C:45CCH         PUBLIC        _DirAddrCompare
  B:0026H.4       PUBLIC        bBus0SendBit
  B:0021H.0       PUBLIC        bBus0StartRec
  D:0021H         PUBLIC        byBus0State0
  B:0022H.6       PUBLIC        bWaitListen
  C:39C1H         PUBLIC        _Bus0OutputData
  D:0060H         PUBLIC        byBus0RecSendCount
  D:0026H         PUBLIC        byBus0State1
  C:004EH         PUBLIC        Bus0RecDeal
  B:00B0H.2       PUBLIC        MIC_CTRL
  D:0061H         PUBLIC        byBus0RecBuf
  B:0021H.3       PUBLIC        bBus0ReqSend
  B:0026H.3       PUBLIC        bBus0Disable
  C:4B76H         PUBLIC        led0flash
  D:0062H         PUBLIC        byBus0TxHead
  B:0022H.3       PUBLIC        bSickRoomBroad
  D:00D0H         PUBLIC        PSW
  C:4BD9H         PUBLIC        _MakeCH0TimerOut
  D:0063H         PUBLIC        byBus0SendStopCount
  B:0026H.5       PUBLIC        bBus0RecBit
  B:0024H.1       PUBLIC        bEmergencyNoting
  -------         PROC          LED0FLASH
  C:4B76H         LINE#         66
  C:4B76H         LINE#         67
  C:4B76H         LINE#         68
  C:4B79H         LINE#         69
  C:4B79H         LINE#         70
  C:4B7BH         LINE#         71
  C:4B7DH         LINE#         72
  C:4B7EH         LINE#         74
  C:4B7EH         LINE#         75
  C:4B80H         LINE#         76
  C:4B82H         LINE#         77
  C:4B82H         LINE#         78
  -------         ENDPROC       LED0FLASH
  -------         PROC          SINGLEBUSINIT
  C:4564H         LINE#         94
  C:4564H         LINE#         95
  C:4564H         LINE#         105
  C:4567H         LINE#         106
  C:456AH         LINE#         109
  C:456DH         LINE#         110
  C:4570H         LINE#         113
  C:4572H         LINE#         114
  C:4574H         LINE#         118
  C:4577H         LINE#         119
  C:457AH         LINE#         121
  C:457DH         LINE#         122
  C:4580H         LINE#         126
  C:4582H         LINE#         127
  C:4585H         LINE#         128
  C:4587H         LINE#         129
  C:4589H         LINE#         131
BL51 BANKED LINKER/LOCATER V6.05                                                      07/07/2015  16:43:23  PAGE 48


  C:458CH         LINE#         132
  C:458EH         LINE#         133
  C:4590H         LINE#         134
  C:4593H         LINE#         135
  C:4593H         LINE#         136
  C:4595H         LINE#         137
  C:4596H         LINE#         139
  C:4596H         LINE#         140
  C:4598H         LINE#         141
  C:4598H         LINE#         142
  -------         ENDPROC       SINGLEBUSINIT
  -------         PROC          BUS0RECINT
  C:4B4DH         LINE#         159
  C:4B4FH         LINE#         161
  C:4B51H         LINE#         162
  C:4B53H         LINE#         163
  C:4B55H         LINE#         164
  C:4B58H         LINE#         165
  -------         ENDPROC       BUS0RECINT
  -------         PROC          TIMER0INT
  C:11B5H         LINE#         183
  C:11CEH         LINE#         185
  C:11D0H         LINE#         186
  C:11D3H         LINE#         187
  C:11D6H         LINE#         188
  C:11D8H         LINE#         189
  C:11DCH         LINE#         191
  C:11DFH         LINE#         192
  C:11DFH         LINE#         193
  C:11E5H         LINE#         194
  C:11EEH         LINE#         195
  C:11EEH         LINE#         196
  C:11F0H         LINE#         197
  C:11F2H         LINE#         198
  C:11F5H         LINE#         199
  C:11F5H         LINE#         200
  C:11FBH         LINE#         201
  C:11FBH         LINE#         202
  C:11FEH         LINE#         203
  C:1200H         LINE#         204
  C:1202H         LINE#         205
  C:1202H         LINE#         206
  C:1205H         LINE#         207
  C:1208H         LINE#         208
  C:1208H         LINE#         209
  C:120AH         LINE#         211
  C:120AH         LINE#         212
  C:120CH         LINE#         213
  C:120CH         LINE#         214
  C:120CH         LINE#         215
  C:120FH         LINE#         216
  C:1215H         LINE#         217
  C:1215H         LINE#         218
  C:121BH         LINE#         219
  C:1224H         LINE#         220
  C:1224H         LINE#         221
  C:1227H         LINE#         222
BL51 BANKED LINKER/LOCATER V6.05                                                      07/07/2015  16:43:23  PAGE 49


  C:1229H         LINE#         223
  C:1232H         LINE#         224
  C:1232H         LINE#         225
  C:1234H         LINE#         226
  C:1237H         LINE#         227
  C:1237H         LINE#         228
  C:1243H         LINE#         229
  C:1243H         LINE#         230
  C:1246H         LINE#         231
  C:1249H         LINE#         232
  C:124BH         LINE#         234
  C:124BH         LINE#         235
  C:124EH         LINE#         236
  C:1258H         LINE#         237
  C:125EH         LINE#         238
  C:1265H         LINE#         239
  C:1265H         LINE#         240
  C:1268H         LINE#         241
  C:126EH         LINE#         242
  C:126EH         LINE#         243
  C:1270H         LINE#         244
  C:1270H         LINE#         245
  C:1273H         LINE#         246
  C:1276H         LINE#         247
  C:1278H         LINE#         248
  C:1278H         LINE#         249
  C:1278H         LINE#         250
  C:127BH         LINE#         251
  C:127FH         LINE#         252
  C:1281H         LINE#         254
  C:1281H         LINE#         255
  C:1283H         LINE#         256
  C:1289H         LINE#         257
  C:1289H         LINE#         258
  C:128CH         LINE#         259
  C:128EH         LINE#         260
  C:1290H         LINE#         261
  C:1290H         LINE#         262
  C:1293H         LINE#         263
  C:1293H         LINE#         264
  C:1295H         LINE#         265
  C:1298H         LINE#         266
  C:1298H         LINE#         267
  C:129CH         LINE#         268
  C:129EH         LINE#         270
  C:129EH         LINE#         271
  C:12A4H         LINE#         272
  C:12A7H         LINE#         273
  C:12A7H         LINE#         274
  C:12AAH         LINE#         275
  C:12AAH         LINE#         276
  C:12AAH         LINE#         277
  C:12AAH         LINE#         278
  C:12AAH         LINE#         280
  C:12B2H         LINE#         281
  C:12B2H         LINE#         282
  C:12B5H         LINE#         283
BL51 BANKED LINKER/LOCATER V6.05                                                      07/07/2015  16:43:23  PAGE 50


  C:12B5H         LINE#         284
  C:12B7H         LINE#         285
  C:12B9H         LINE#         286
  C:12BBH         LINE#         287
  C:12BEH         LINE#         288
  C:12C8H         LINE#         289
  C:12CAH         LINE#         290
  C:12CDH         LINE#         292
  C:12CDH         LINE#         293
  C:12D0H         LINE#         294
  C:12D2H         LINE#         295
  C:12D5H         LINE#         296
  C:12D5H         LINE#         297
  C:12D5H         LINE#         298
  C:12D5H         LINE#         299
  C:12D8H         LINE#         300
  C:12DEH         LINE#         301
  C:12DEH         LINE#         302
  C:12E6H         LINE#         303
  C:12E6H         LINE#         304
  C:12ECH         LINE#         305
  C:12F2H         LINE#         306
  C:12F2H         LINE#         307
  C:12F5H         LINE#         308
  C:12F7H         LINE#         309
  C:12FFH         LINE#         310
  C:12FFH         LINE#         311
  C:1308H         LINE#         312
  C:130CH         LINE#         313
  C:130EH         LINE#         314
  C:1311H         LINE#         315
  C:1311H         LINE#         316
  C:1313H         LINE#         317
  C:1315H         LINE#         318
  C:1317H         LINE#         319
  C:131FH         LINE#         320
  C:131FH         LINE#         321
  C:1321H         LINE#         322
  C:1323H         LINE#         323
  C:132CH         LINE#         324
  C:132CH         LINE#         325
  C:132FH         LINE#         326
  C:1332H         LINE#         327
  C:1335H         LINE#         328
  C:1338H         LINE#         329
  C:133BH         LINE#         330
  C:133DH         LINE#         332
  C:133DH         LINE#         333
  C:1340H         LINE#         334
  C:1342H         LINE#         335
  C:1342H         LINE#         336
  C:1346H         LINE#         337
  C:1348H         LINE#         339
  C:1348H         LINE#         340
  C:134DH         LINE#         341
  C:134DH         LINE#         342
  C:134FH         LINE#         343
BL51 BANKED LINKER/LOCATER V6.05                                                      07/07/2015  16:43:23  PAGE 51


  C:1351H         LINE#         344
  C:1353H         LINE#         346
  C:1353H         LINE#         347
  C:1355H         LINE#         348
  C:1357H         LINE#         349
  C:1357H         LINE#         350
  C:135DH         LINE#         351
  C:135DH         LINE#         352
  C:135DH         LINE#         353
  C:135FH         LINE#         355
  C:135FH         LINE#         356
  C:1362H         LINE#         357
  C:1365H         LINE#         358
  C:1367H         LINE#         359
  C:1369H         LINE#         360
  C:136CH         LINE#         361
  C:136CH         LINE#         362
  C:136CH         LINE#         364
  C:1372H         LINE#         365
  C:1372H         LINE#         366
  C:1376H         LINE#         367
  C:1376H         LINE#         368
  C:1379H         LINE#         369
  C:1379H         LINE#         370
  C:137BH         LINE#         371
  C:137BH         LINE#         372
  C:137BH         LINE#         373
  C:137EH         LINE#         374
  C:137EH         LINE#         375
  C:1380H         LINE#         376
  C:1383H         LINE#         377
  C:1383H         LINE#         378
  C:1385H         LINE#         379
  C:1389H         LINE#         380
  C:138CH         LINE#         381
  C:138CH         LINE#         382
  C:138CH         LINE#         383
  C:138CH         LINE#         385
  C:1390H         LINE#         386
  C:1390H         LINE#         387
  C:1393H         LINE#         388
  C:1393H         LINE#         389
  C:1396H         LINE#         390
  C:1396H         LINE#         391
  C:1396H         LINE#         392
  C:139AH         LINE#         393
  C:139AH         LINE#         394
  C:139DH         LINE#         395
  C:139DH         LINE#         396
  C:139FH         LINE#         397
  C:139FH         LINE#         398
  C:139FH         LINE#         400
  C:13A8H         LINE#         401
  C:13A8H         LINE#         402
  C:13ABH         LINE#         403
  C:13ABH         LINE#         404
  C:13ADH         LINE#         405
BL51 BANKED LINKER/LOCATER V6.05                                                      07/07/2015  16:43:23  PAGE 52


  C:13ADH         LINE#         406
  C:13B0H         LINE#         408
  C:13B0H         LINE#         409
  C:13B9H         LINE#         410
  C:13B9H         LINE#         411
  C:13DDH         LINE#         412
  C:13DDH         LINE#         413
  C:13E5H         LINE#         414
  C:13F5H         LINE#         415
  C:13FDH         LINE#         416
  C:140EH         LINE#         417
  C:1416H         LINE#         418
  C:1427H         LINE#         419
  C:142FH         LINE#         420
  C:1440H         LINE#         421
  C:1448H         LINE#         422
  C:1459H         LINE#         423
  C:1461H         LINE#         424
  C:1472H         LINE#         425
  C:147AH         LINE#         426
  C:148BH         LINE#         427
  C:148EH         LINE#         428
  C:1490H         LINE#         430
  C:1490H         LINE#         431
  C:1496H         LINE#         432
  C:1496H         LINE#         433
  C:1496H         LINE#         434
  C:1496H         LINE#         435
  C:1496H         LINE#         436
  -------         ENDPROC       TIMER0INT
  -------         PROC          _BUS0OUTPUTDATA
  X:024FH         SYMBOL        pbyData
  -------         DO            
  X:0252H         SYMBOL        byTemp
  -------         ENDDO         
  C:39C1H         LINE#         453
  C:39CCH         LINE#         454
  C:39CCH         LINE#         455
  C:39D0H         LINE#         457
  C:39D4H         LINE#         458
  C:39F2H         LINE#         459
  C:39F2H         LINE#         460
  C:39F7H         LINE#         461
  C:39FAH         LINE#         462
  C:39FAH         LINE#         463
  C:3A04H         LINE#         464
  C:3A04H         LINE#         465
  C:3A1FH         LINE#         466
  C:3A30H         LINE#         467
  C:3A32H         LINE#         468
  C:3A37H         LINE#         469
  C:3A39H         LINE#         470
  -------         ENDPROC       _BUS0OUTPUTDATA
  -------         PROC          L?0221
  -------         ENDPROC       L?0221
  -------         PROC          _ADDRCOMPARE
  D:0001H         SYMBOL        pstBusFreq
BL51 BANKED LINKER/LOCATER V6.05                                                      07/07/2015  16:43:23  PAGE 53


  C:4351H         LINE#         486
  C:4351H         LINE#         487
  C:4351H         LINE#         488
  C:4362H         LINE#         489
  C:4362H         LINE#         490
  C:4364H         LINE#         491
  C:4364H         LINE#         492
  C:4375H         LINE#         493
  C:4375H         LINE#         494
  C:4377H         LINE#         495
  C:4377H         LINE#         496
  C:4388H         LINE#         497
  C:4388H         LINE#         498
  C:438AH         LINE#         499
  C:438AH         LINE#         500
  C:438BH         LINE#         501
  -------         ENDPROC       _ADDRCOMPARE
  -------         PROC          _DIRADDRCOMPARE
  D:0001H         SYMBOL        pstBusFreq
  C:45CCH         LINE#         517
  C:45CCH         LINE#         518
  C:45CCH         LINE#         519
  C:45DAH         LINE#         520
  C:45DAH         LINE#         521
  C:45DCH         LINE#         522
  C:45DCH         LINE#         523
  C:45EAH         LINE#         524
  C:45EAH         LINE#         525
  C:45ECH         LINE#         526
  C:45ECH         LINE#         527
  C:45FAH         LINE#         528
  C:45FAH         LINE#         529
  C:45FCH         LINE#         530
  C:45FCH         LINE#         531
  C:45FDH         LINE#         532
  -------         ENDPROC       _DIRADDRCOMPARE
  -------         PROC          _MAKECH0TIMEROUT
  D:0007H         SYMBOL        byTimerOut
  D:0005H         SYMBOL        byTimerOutCount
  C:4BD9H         LINE#         548
  C:4BD9H         LINE#         549
  C:4BD9H         LINE#         550
  C:4BDEH         LINE#         551
  C:4BE0H         LINE#         552
  C:4BE3H         LINE#         553
  -------         ENDPROC       _MAKECH0TIMEROUT
  -------         PROC          SYSRESET
  C:0009H         LINE#         571
  C:0009H         LINE#         572
  C:0009H         LINE#         574
  -------         ENDPROC       SYSRESET
  -------         PROC          L?0220
  -------         ENDPROC       L?0220
  -------         PROC          SAVEPARAMETER
  C:3AC9H         LINE#         591
  C:3AC9H         LINE#         592
  C:3AC9H         LINE#         593
BL51 BANKED LINKER/LOCATER V6.05                                                      07/07/2015  16:43:23  PAGE 54


  C:3AD0H         LINE#         594
  C:3ADAH         LINE#         595
  C:3AE0H         LINE#         596
  C:3AE5H         LINE#         597
  C:3AEBH         LINE#         598
  C:3AF0H         LINE#         599
  C:3AFAH         LINE#         600
  C:3AFAH         LINE#         601
  C:3B1BH         LINE#         602
  C:3B1DH         LINE#         603
  -------         ENDPROC       SAVEPARAMETER
  -------         PROC          READPARAMETER
  C:408AH         LINE#         622
  C:408AH         LINE#         623
  C:408AH         LINE#         625
  C:4091H         LINE#         626
  C:409BH         LINE#         627
  C:40A1H         LINE#         629
  C:40A6H         LINE#         630
  C:40B0H         LINE#         631
  C:40B0H         LINE#         632
  C:40D1H         LINE#         633
  C:40D3H         LINE#         634
  -------         ENDPROC       READPARAMETER
  -------         PROC          INITPARAMETER
  C:4481H         LINE#         651
  C:4481H         LINE#         652
  C:4481H         LINE#         653
  C:4486H         LINE#         654
  C:448FH         LINE#         655
  C:448FH         LINE#         656
  C:4492H         LINE#         657
  C:4492H         LINE#         659
  C:4492H         LINE#         660
  C:4498H         LINE#         661
  C:449CH         LINE#         662
  C:449FH         LINE#         663
  C:44A2H         LINE#         665
  C:44A6H         LINE#         666
  C:44A8H         LINE#         667
  C:44AAH         LINE#         668
  C:44AEH         LINE#         669
  C:44B1H         LINE#         670
  C:44B8H         LINE#         671
  C:44BBH         LINE#         672
  C:44BBH         LINE#         673
  -------         ENDPROC       INITPARAMETER
  -------         PROC          BUS0RECDEAL
  -------         DO            
  X:024BH         SYMBOL        x
  X:024CH         SYMBOL        y
  X:024DH         SYMBOL        temp1
  X:024EH         SYMBOL        temp2
  -------         ENDDO         
  C:004EH         LINE#         691
  C:004EH         LINE#         692
  C:004EH         LINE#         695
BL51 BANKED LINKER/LOCATER V6.05                                                      07/07/2015  16:43:23  PAGE 55


  C:0052H         LINE#         696
  C:0065H         LINE#         697
  C:0067H         LINE#         698
  C:006CH         LINE#         701
  C:007AH         LINE#         702
  C:007AH         LINE#         704
  C:007AH         LINE#         706
  C:00EBH         LINE#         707
  C:00EBH         LINE#         708
  C:00EBH         LINE#         709
  C:00F1H         LINE#         710
  C:00F1H         LINE#         711
  C:00F3H         LINE#         712
  C:00F9H         LINE#         713
  C:011DH         LINE#         716
  C:011DH         LINE#         717
  C:012BH         LINE#         718
  C:013AH         LINE#         719
  C:0141H         LINE#         721
  C:014EH         LINE#         722
  C:015DH         LINE#         723
  C:0164H         LINE#         725
  C:0171H         LINE#         726
  C:0180H         LINE#         727
  C:0187H         LINE#         729
  C:0187H         LINE#         730
  C:0187H         LINE#         731
  C:0187H         LINE#         732
  C:018AH         LINE#         733
  C:018AH         LINE#         735
  C:0191H         LINE#         736
  C:0191H         LINE#         737
  C:0197H         LINE#         738
  C:0199H         LINE#         739
  C:019BH         LINE#         741
  C:019BH         LINE#         742
  C:01A0H         LINE#         743
  C:01A0H         LINE#         746
  C:01A7H         LINE#         747
  C:01A7H         LINE#         748
  C:01A9H         LINE#         749
  C:01AFH         LINE#         750
  C:01AFH         LINE#         751
  C:01B1H         LINE#         752
  C:01B4H         LINE#         753
  C:01B6H         LINE#         754
  C:01B9H         LINE#         756
  C:01B9H         LINE#         757
  C:01BDH         LINE#         758
  C:01BDH         LINE#         759
  C:01BDH         LINE#         760
  C:01BDH         LINE#         761
  C:01C0H         LINE#         762
  C:01C0H         LINE#         763
  C:01C0H         LINE#         764
  C:01C0H         LINE#         765
  C:01C0H         LINE#         766
BL51 BANKED LINKER/LOCATER V6.05                                                      07/07/2015  16:43:23  PAGE 56


  C:01C5H         LINE#         767
  C:01C8H         LINE#         768
  C:01D1H         LINE#         769
  C:01D3H         LINE#         770
  C:01D4H         LINE#         771
  C:01D4H         LINE#         772
  C:01D4H         LINE#         773
  C:01D4H         LINE#         774
  C:01D4H         LINE#         775
  C:01D9H         LINE#         776
  C:01D9H         LINE#         777
  C:01DCH         LINE#         778
  C:01DCH         LINE#         783
  C:01DCH         LINE#         784
  C:01DCH         LINE#         785
  C:01E1H         LINE#         786
  C:01E9H         LINE#         787
  C:01ECH         LINE#         788
  C:01ECH         LINE#         789
  C:01ECH         LINE#         790
  C:01ECH         LINE#         791
  C:01ECH         LINE#         792
  C:01F3H         LINE#         793
  C:01F8H         LINE#         794
  C:01F8H         LINE#         795
  C:01FBH         LINE#         796
  C:01FBH         LINE#         797
  C:0203H         LINE#         798
  C:020BH         LINE#         799
  C:0213H         LINE#         800
  C:021BH         LINE#         801
  C:0223H         LINE#         802
  C:022BH         LINE#         803
  C:0236H         LINE#         804
  C:0236H         LINE#         805
  C:023EH         LINE#         806
  C:0246H         LINE#         807
  C:024CH         LINE#         808
  C:0254H         LINE#         809
  C:028CH         LINE#         810
  C:02C4H         LINE#         813
  C:02CBH         LINE#         814
  C:02D3H         LINE#         815
  C:02D9H         LINE#         816
  C:02E1H         LINE#         817
  C:0319H         LINE#         818
  C:0351H         LINE#         821
  C:0358H         LINE#         822
  C:0360H         LINE#         823
  C:0366H         LINE#         824
  C:036EH         LINE#         825
  C:03A6H         LINE#         826
  C:03DEH         LINE#         829
  C:03E8H         LINE#         830
  C:03F0H         LINE#         831
  C:03F6H         LINE#         832
  C:03FEH         LINE#         833
BL51 BANKED LINKER/LOCATER V6.05                                                      07/07/2015  16:43:23  PAGE 57


  C:0436H         LINE#         834
  C:046EH         LINE#         837
  C:0475H         LINE#         838
  C:047DH         LINE#         839
  C:0483H         LINE#         840
  C:048BH         LINE#         841
  C:04C3H         LINE#         842
  C:04FBH         LINE#         844
  C:04FBH         LINE#         845
  C:04FBH         LINE#         847
  C:04FBH         LINE#         849
  C:050CH         LINE#         852
  C:050CH         LINE#         853
  C:050EH         LINE#         854
  C:050EH         LINE#         856
  C:050FH         LINE#         857
  C:050FH         LINE#         858
  C:050FH         LINE#         859
  C:0511H         LINE#         861
  C:0511H         LINE#         862
  C:051CH         LINE#         863
  C:051CH         LINE#         864
  C:0520H         LINE#         865
  C:0522H         LINE#         866
  C:0529H         LINE#         867
  C:0529H         LINE#         868
  C:052AH         LINE#         870
  C:052AH         LINE#         871
  C:0535H         LINE#         872
  C:0535H         LINE#         873
  C:053DH         LINE#         874
  C:053DH         LINE#         875
  C:053EH         LINE#         876
  C:053EH         LINE#         877
  C:053EH         LINE#         878
  C:053EH         LINE#         879
  C:056BH         LINE#         882
  C:056BH         LINE#         883
  C:0572H         LINE#         884
  C:0575H         LINE#         885
  C:0575H         LINE#         886
  C:0575H         LINE#         887
  C:0575H         LINE#         888
  C:0580H         LINE#         889
  C:0580H         LINE#         890
  C:0584H         LINE#         891
  C:0585H         LINE#         892
  C:058DH         LINE#         893
  C:058DH         LINE#         894
  C:058FH         LINE#         895
  C:0598H         LINE#         896
  C:0598H         LINE#         897
  C:059AH         LINE#         898
  C:059AH         LINE#         899
  C:059AH         LINE#         900
  C:059BH         LINE#         902
  C:059BH         LINE#         903
BL51 BANKED LINKER/LOCATER V6.05                                                      07/07/2015  16:43:23  PAGE 58


  C:059FH         LINE#         904
  C:05A0H         LINE#         906
  C:05A0H         LINE#         907
  C:05A6H         LINE#         908
  C:05A8H         LINE#         910
  C:05A8H         LINE#         911
  C:05A8H         LINE#         913
  C:05A8H         LINE#         914
  C:05A8H         LINE#         916
  C:05A8H         LINE#         917
  C:05A8H         LINE#         919
  C:05A8H         LINE#         920
  C:05A8H         LINE#         921
  C:05A8H         LINE#         922
  C:05AAH         LINE#         924
  C:05AAH         LINE#         925
  C:05B8H         LINE#         926
  C:05C7H         LINE#         928
  C:05D5H         LINE#         929
  C:05E4H         LINE#         931
  C:05F2H         LINE#         932
  C:0601H         LINE#         934
  C:0608H         LINE#         935
  C:060CH         LINE#         936
  C:0610H         LINE#         937
  C:0611H         LINE#         939
  C:0611H         LINE#         940
  C:061FH         LINE#         941
  C:061FH         LINE#         942
  C:0621H         LINE#         943
  C:0621H         LINE#         944
  C:0622H         LINE#         945
  C:0622H         LINE#         946
  C:0630H         LINE#         947
  C:0630H         LINE#         948
  C:0632H         LINE#         949
  C:0632H         LINE#         950
  C:0633H         LINE#         951
  C:0633H         LINE#         952
  C:063EH         LINE#         953
  C:063EH         LINE#         954
  C:063EH         LINE#         955
  C:063EH         LINE#         956
  C:063EH         LINE#         957
  C:0641H         LINE#         958
  C:0644H         LINE#         959
  C:0644H         LINE#         960
  C:0644H         LINE#         961
  C:0644H         LINE#         962
  C:064CH         LINE#         963
  C:064CH         LINE#         964
  C:064FH         LINE#         966
  C:064FH         LINE#         967
  C:0654H         LINE#         968
  C:0654H         LINE#         969
  C:0656H         LINE#         971
  C:0656H         LINE#         972
BL51 BANKED LINKER/LOCATER V6.05                                                      07/07/2015  16:43:23  PAGE 59


  C:065EH         LINE#         973
  C:065EH         LINE#         974
  C:0662H         LINE#         976
  C:0665H         LINE#         977
  C:0667H         LINE#         978
  C:0669H         LINE#         979
  C:066BH         LINE#         980
  C:066EH         LINE#         981
  C:066EH         LINE#         982
  C:066FH         LINE#         984
  C:066FH         LINE#         985
  C:0677H         LINE#         986
  C:067FH         LINE#         987
  C:0687H         LINE#         988
  C:068BH         LINE#         989
  C:068FH         LINE#         990
  C:0692H         LINE#         991
  C:0694H         LINE#         992
  C:069DH         LINE#         993
  C:069DH         LINE#         994
  C:069DH         LINE#         995
  C:06D3H         LINE#         996
  C:06D3H         LINE#         997
  C:06D3H         LINE#         998
  C:06DDH         LINE#         999
  C:06DFH         LINE#         1000
  C:06DFH         LINE#         1001
  C:06E9H         LINE#         1002
  C:06EBH         LINE#         1003
  C:06EBH         LINE#         1004
  C:06F5H         LINE#         1005
  C:06F7H         LINE#         1006
  C:06F7H         LINE#         1007
  C:06FCH         LINE#         1008
  C:06FEH         LINE#         1009
  C:06FEH         LINE#         1010
  C:0708H         LINE#         1011
  C:070AH         LINE#         1012
  C:070AH         LINE#         1013
  C:070FH         LINE#         1014
  C:0711H         LINE#         1015
  C:0711H         LINE#         1016
  C:071BH         LINE#         1017
  C:071DH         LINE#         1018
  C:071DH         LINE#         1019
  C:0722H         LINE#         1020
  C:0724H         LINE#         1021
  C:0724H         LINE#         1022
  C:072DH         LINE#         1023
  C:072DH         LINE#         1024
  C:072DH         LINE#         1027
  C:072DH         LINE#         1028
  C:0730H         LINE#         1029
  C:0733H         LINE#         1030
  C:0733H         LINE#         1031
  C:0733H         LINE#         1032
  C:0733H         LINE#         1034
BL51 BANKED LINKER/LOCATER V6.05                                                      07/07/2015  16:43:23  PAGE 60


  -------         ENDPROC       BUS0RECDEAL
  -------         PROC          BUS0SENDDEAL
  C:45FEH         LINE#         1052
  C:45FEH         LINE#         1053
  C:45FEH         LINE#         1055
  C:4602H         LINE#         1056
  C:4615H         LINE#         1057
  C:4617H         LINE#         1058
  C:461CH         LINE#         1065
  C:4624H         LINE#         1066
  C:4624H         LINE#         1067
  C:4624H         LINE#         1068
  C:4627H         LINE#         1069
  C:4627H         LINE#         1070
  C:462EH         LINE#         1071
  C:462EH         LINE#         1072
  C:462EH         LINE#         1073
  C:462EH         LINE#         1074
  C:462EH         LINE#         1076
  C:462EH         LINE#         1077
  -------         ENDPROC       BUS0SENDDEAL
  -------         PROC          BUS0MANAGE
  C:49A0H         LINE#         1093
  C:49A0H         LINE#         1094
  C:49A0H         LINE#         1095
  C:49A0H         LINE#         1096
  C:49A0H         LINE#         1097
  C:49A3H         LINE#         1098
  C:49A3H         LINE#         1099
  C:49AAH         LINE#         1100
  C:49AAH         LINE#         1101
  C:49ADH         LINE#         1102
  C:49ADH         LINE#         1103
  C:49B4H         LINE#         1104
  C:49B4H         LINE#         1105
  C:49BBH         LINE#         1106
  -------         ENDPROC       BUS0MANAGE
  -------         PROC          TIMEROUTDEAL
  -------         DO            
  X:024BH         SYMBOL        x
  X:024CH         SYMBOL        y
  C:2A78H         SYMBOL        TIMER0OUTDEAL
  -------         ENDDO         
  C:2A60H         LINE#         1124
  C:2A60H         LINE#         1125
  C:2A60H         LINE#         1128
  C:2A66H         LINE#         1129
  C:2A66H         LINE#         1130
  C:2A68H         LINE#         1131
  C:2A6BH         LINE#         1132
  C:2A6BH         LINE#         1133
  C:2A6FH         LINE#         1134
  C:2A6FH         LINE#         1135
  C:2A6FH         LINE#         1136
  C:2A6FH         LINE#         1138
  C:2A6FH         LINE#         1139
  C:2A75H         LINE#         1140
BL51 BANKED LINKER/LOCATER V6.05                                                      07/07/2015  16:43:23  PAGE 61


  C:2A78H         LINE#         1141
  C:2A78H         LINE#         1142
  C:2A78H         LINE#         1143
  C:2A7BH         LINE#         1144
  C:2A7BH         LINE#         1145
  C:2A83H         LINE#         1146
  C:2A8BH         LINE#         1147
  C:2A93H         LINE#         1148
  C:2A97H         LINE#         1149
  C:2A9FH         LINE#         1150
  C:2AA7H         LINE#         1151
  C:2AAFH         LINE#         1152
  C:2AB8H         LINE#         1153
  C:2AB8H         LINE#         1155
  C:2ABAH         LINE#         1157
  C:2ABAH         LINE#         1158
  C:2AC0H         LINE#         1159
  C:2AC0H         LINE#         1160
  C:2AC0H         LINE#         1161
  C:2AC0H         LINE#         1162
  C:2AC0H         LINE#         1164
  C:2AC8H         LINE#         1165
  C:2AC8H         LINE#         1166
  C:2ACEH         LINE#         1167
  C:2AD8H         LINE#         1168
  C:2AD8H         LINE#         1169
  C:2ADAH         LINE#         1170
  C:2ADEH         LINE#         1171
  C:2ADEH         LINE#         1172
  C:2ADEH         LINE#         1174
  C:2AE6H         LINE#         1175
  C:2AE6H         LINE#         1176
  C:2AE9H         LINE#         1177
  C:2AEFH         LINE#         1178
  C:2AEFH         LINE#         1179
  C:2AF9H         LINE#         1180
  C:2AFBH         LINE#         1181
  C:2AFEH         LINE#         1182
  C:2AFEH         LINE#         1183
  C:2B1EH         LINE#         1184
  C:2B20H         LINE#         1186
  C:2B20H         LINE#         1187
  C:2B33H         LINE#         1188
  C:2B33H         LINE#         1190
  C:2B33H         LINE#         1191
  C:2B33H         LINE#         1192
  C:2B3DH         LINE#         1193
  C:2B3DH         LINE#         1194
  C:2B4BH         LINE#         1195
  C:2B4BH         LINE#         1196
  C:2B55H         LINE#         1197
  C:2B55H         LINE#         1198
  C:2B57H         LINE#         1199
  C:2B57H         LINE#         1200
  C:2B57H         LINE#         1201
  C:2B57H         LINE#         1203
  C:2B61H         LINE#         1204
BL51 BANKED LINKER/LOCATER V6.05                                                      07/07/2015  16:43:23  PAGE 62


  C:2B61H         LINE#         1205
  C:2B6FH         LINE#         1206
  C:2B6FH         LINE#         1207
  C:2B73H         LINE#         1208
  C:2B79H         LINE#         1209
  C:2B7CH         LINE#         1210
  C:2B7CH         LINE#         1211
  C:2B7CH         LINE#         1212
  -------         ENDPROC       TIMEROUTDEAL
  -------         PROC          TIMEROUTMANAGER
  C:4925H         LINE#         1228
  C:4925H         LINE#         1229
  C:4925H         LINE#         1230
  C:4925H         LINE#         1231
  C:4925H         LINE#         1232
  C:492CH         LINE#         1233
  C:4932H         LINE#         1234
  C:4932H         LINE#         1235
  C:4939H         LINE#         1236
  C:493BH         LINE#         1238
  C:493BH         LINE#         1239
  C:4942H         LINE#         1240
  C:4942H         LINE#         1241
  -------         ENDPROC       TIMEROUTMANAGER
  -------         ENDMOD        SINGLEBUS

  -------         MODULE        SPI
  C:0000H         SYMBOL        _ICE_DUMMY_
  D:0080H         PUBLIC        P0
  D:0090H         PUBLIC        P1
  D:00A0H         PUBLIC        P2
  D:00B0H         PUBLIC        P3
  D:00C0H         PUBLIC        P4
  D:00C8H         PUBLIC        P5
  D:00CEH         PUBLIC        SPCTL
  D:00A8H         PUBLIC        IE
  D:00B8H         PUBLIC        IP
  C:4BB5H         PUBLIC        SpiNormalMode
  D:00D8H         PUBLIC        CCON
  D:0098H         PUBLIC        SCON
  D:0088H         PUBLIC        TCON
  B:0090H.6       PUBLIC        MISO
  D:00AFH         PUBLIC        IE2
  D:00E0H         PUBLIC        ACC
  C:4BC1H         PUBLIC        SpiLcdMode
  C:4C59H         PUBLIC        SpiInt
  D:00CDH         PUBLIC        SPSTAT
  C:4B83H         PUBLIC        _SPI_WriteByte
  D:00D0H         PUBLIC        PSW
  D:00CFH         PUBLIC        SPDAT
  -------         PROC          SPINORMALMODE
  C:4BB5H         LINE#         41
  C:4BB5H         LINE#         42
  C:4BB5H         LINE#         46
  C:4BB8H         LINE#         47
  C:4BBBH         LINE#         48
  C:4BBEH         LINE#         49
BL51 BANKED LINKER/LOCATER V6.05                                                      07/07/2015  16:43:23  PAGE 63


  C:4BC0H         LINE#         50
  -------         ENDPROC       SPINORMALMODE
  -------         PROC          SPILCDMODE
  C:4BC1H         LINE#         54
  C:4BC1H         LINE#         55
  C:4BC1H         LINE#         57
  C:4BC4H         LINE#         58
  C:4BC7H         LINE#         59
  C:4BCAH         LINE#         60
  C:4BCCH         LINE#         62
  -------         ENDPROC       SPILCDMODE
  -------         PROC          SPIINT
  C:4C59H         LINE#         82
  C:4C59H         LINE#         84
  C:4C5CH         LINE#         85
  C:4C5FH         LINE#         86
  -------         ENDPROC       SPIINT
  -------         PROC          _SPI_WRITEBYTE
  D:0007H         SYMBOL        dat
  C:4B83H         LINE#         104
  C:4B83H         LINE#         105
  C:4B83H         LINE#         107
  C:4B85H         LINE#         108
  C:4B8AH         LINE#         109
  C:4B8DH         LINE#         110
  C:4B8FH         LINE#         111
  -------         ENDPROC       _SPI_WRITEBYTE
  -------         ENDMOD        SPI

  -------         MODULE        USART
  C:0000H         SYMBOL        _ICE_DUMMY_
  D:0080H         PUBLIC        P0
  D:00B2H         PUBLIC        P3M0
  D:0090H         PUBLIC        P1
  D:00B1H         PUBLIC        P3M1
  D:00A0H         PUBLIC        P2
  D:00B0H         PUBLIC        P3
  D:00C0H         PUBLIC        P4
  D:00C8H         PUBLIC        P5
  X:0000H         PUBLIC        stUsartCfg
  D:00A8H         PUBLIC        IE
  C:3A3AH         PUBLIC        _CheckPsk
  B:00A8H.4       PUBLIC        ES
  D:00B8H         PUBLIC        IP
  B:0098H.0       PUBLIC        RI
  B:0098H.1       PUBLIC        TI
  D:00D8H         PUBLIC        CCON
  B:0027H.0       PUBLIC        bUsart0RecFinish
  C:3844H         PUBLIC        UsartInit
  D:0099H         PUBLIC        SBUF
  D:0087H         PUBLIC        PCON
  D:0098H         PUBLIC        SCON
  B:0027H.1       PUBLIC        bRS485DataError
  D:0088H         PUBLIC        TCON
  D:008EH         PUBLIC        AUXR
  D:00E0H         PUBLIC        ACC
  C:0B52H         PUBLIC        Usart0RecDeal
BL51 BANKED LINKER/LOCATER V6.05                                                      07/07/2015  16:43:23  PAGE 64


  X:000FH         PUBLIC        byUsart0RecBuf
  C:4C66H         PUBLIC        _Send_Data_Byte
  B:0098H.4       PUBLIC        REN
  D:009AH         PUBLIC        S2CON
  C:4B3EH         PUBLIC        _Send_Data
  D:009CH         PUBLIC        BRT
  C:3BEAH         PUBLIC        _GetPskCrc
  C:2560H         PUBLIC        UART0
  C:49D9H         PUBLIC        UART1
  B:00B0H.2       PUBLIC        MIC_CTRL
  D:00D0H         PUBLIC        PSW
  -------         PROC          USARTINIT
  C:3844H         LINE#         54
  C:3844H         LINE#         55
  C:3844H         LINE#         56
  C:3847H         LINE#         59
  C:384AH         LINE#         60
  C:384DH         LINE#         63
  C:3857H         LINE#         64
  C:385CH         LINE#         65
  C:385EH         LINE#         66
  C:3862H         LINE#         67
  C:3866H         LINE#         68
  C:3868H         LINE#         69
  C:3874H         LINE#         71
  C:3877H         LINE#         81
  C:387AH         LINE#         82
  C:387DH         LINE#         84
  C:388DH         LINE#         85
  C:388DH         LINE#         86
  C:3890H         LINE#         88
  C:389CH         LINE#         91
  C:389EH         LINE#         93
  C:389EH         LINE#         94
  C:38A1H         LINE#         96
  C:38BCH         LINE#         97
  C:38BCH         LINE#         99
  C:38BFH         LINE#         101
  C:38C1H         LINE#         102
  C:38C3H         LINE#         103
  C:38C5H         LINE#         104
  C:38C7H         LINE#         105
  -------         ENDPROC       USARTINIT
  -------         PROC          UART0
  -------         DO            
  D:0007H         SYMBOL        byTemp
  -------         ENDDO         
  C:2560H         LINE#         122
  C:2579H         LINE#         125
  C:257FH         LINE#         126
  C:257FH         LINE#         127
  C:2581H         LINE#         128
  C:2583H         LINE#         129
  C:258DH         LINE#         130
  C:258DH         LINE#         131
  C:2593H         LINE#         132
  C:2593H         LINE#         133
BL51 BANKED LINKER/LOCATER V6.05                                                      07/07/2015  16:43:23  PAGE 65


  C:2596H         LINE#         134
  C:2599H         LINE#         136
  C:2599H         LINE#         137
  C:2599H         LINE#         138
  C:259FH         LINE#         139
  C:25B7H         LINE#         140
  C:25CEH         LINE#         141
  C:25CEH         LINE#         142
  C:25CEH         LINE#         143
  C:25D2H         LINE#         144
  C:25D2H         LINE#         145
  C:25D8H         LINE#         147
  C:25DEH         LINE#         148
  C:25E1H         LINE#         150
  C:25E1H         LINE#         151
  C:25E5H         LINE#         152
  C:25E5H         LINE#         153
  C:25E8H         LINE#         154
  C:25E8H         LINE#         155
  C:25F3H         LINE#         156
  C:25F3H         LINE#         157
  C:25F9H         LINE#         158
  C:25FEH         LINE#         159
  C:25FEH         LINE#         160
  C:2601H         LINE#         161
  C:2601H         LINE#         162
  C:2607H         LINE#         163
  C:260CH         LINE#         164
  C:260CH         LINE#         165
  C:2614H         LINE#         166
  C:2617H         LINE#         167
  C:261DH         LINE#         168
  C:261DH         LINE#         170
  C:262CH         LINE#         171
  C:263CH         LINE#         172
  C:263CH         LINE#         173
  C:263FH         LINE#         174
  C:264DH         LINE#         175
  C:264FH         LINE#         177
  C:264FH         LINE#         178
  C:2651H         LINE#         179
  C:2652H         LINE#         180
  C:2652H         LINE#         181
  C:2652H         LINE#         182
  C:2654H         LINE#         183
  C:2654H         LINE#         184
  C:2662H         LINE#         185
  C:2662H         LINE#         186
  C:2666H         LINE#         187
  C:2666H         LINE#         188
  C:2668H         LINE#         189
  C:2668H         LINE#         190
  C:266DH         LINE#         191
  C:266EH         LINE#         192
  C:266EH         LINE#         193
  C:2670H         LINE#         194
  C:2670H         LINE#         195
BL51 BANKED LINKER/LOCATER V6.05                                                      07/07/2015  16:43:23  PAGE 66


  C:2675H         LINE#         196
  C:2679H         LINE#         197
  C:267BH         LINE#         198
  C:267BH         LINE#         199
  C:267BH         LINE#         200
  C:267EH         LINE#         201
  C:267EH         LINE#         202
  C:2680H         LINE#         203
  C:268EH         LINE#         204
  C:269CH         LINE#         205
  C:26A6H         LINE#         206
  C:26A6H         LINE#         207
  C:26BFH         LINE#         209
  C:26BFH         LINE#         210
  C:26BFH         LINE#         211
  -------         ENDPROC       UART0
  -------         PROC          UART1
  C:49D9H         LINE#         230
  C:49DDH         LINE#         232
  C:49E2H         LINE#         233
  C:49E2H         LINE#         234
  C:49E5H         LINE#         235
  C:49E7H         LINE#         236
  C:49ECH         LINE#         237
  C:49ECH         LINE#         238
  C:49EFH         LINE#         239
  C:49EFH         LINE#         240
  -------         ENDPROC       UART1
  -------         PROC          _GETPSKCRC
  X:0314H         SYMBOL        pstDataFreq
  -------         DO            
  X:0317H         SYMBOL        pbyData
  X:031AH         SYMBOL        uiLen
  D:0005H         SYMBOL        byCrc
  -------         ENDDO         
  C:3BEAH         LINE#         257
  C:3BF5H         LINE#         258
  C:3BF5H         LINE#         261
  C:3BF7H         LINE#         263
  C:3C07H         LINE#         264
  C:3C25H         LINE#         265
  C:3C33H         LINE#         266
  C:3C33H         LINE#         267
  C:3C48H         LINE#         268
  C:3C4AH         LINE#         269
  C:3C4CH         LINE#         270
  -------         ENDPROC       _GETPSKCRC
  -------         PROC          _CHECKPSK
  X:024CH         SYMBOL        pstDataFreq
  -------         DO            
  X:024FH         SYMBOL        pbyData
  X:0252H         SYMBOL        uiLen
  D:0005H         SYMBOL        byCrc
  -------         ENDDO         
  C:3A3AH         LINE#         286
  C:3A45H         LINE#         287
  C:3A45H         LINE#         290
BL51 BANKED LINKER/LOCATER V6.05                                                      07/07/2015  16:43:23  PAGE 67


  C:3A47H         LINE#         292
  C:3A57H         LINE#         293
  C:3A75H         LINE#         294
  C:3A83H         LINE#         295
  C:3A83H         LINE#         296
  C:3A98H         LINE#         297
  C:3A9AH         LINE#         298
  C:3AABH         LINE#         299
  C:3AABH         LINE#         300
  C:3AAEH         LINE#         301
  C:3AAEH         LINE#         302
  C:3AB0H         LINE#         303
  -------         ENDPROC       _CHECKPSK
  -------         PROC          USART0RECDEAL
  -------         DO            
  D:0001H         SYMBOL        pstDataFreq
  X:024AH         SYMBOL        uiDataLen
  -------         ENDDO         
  C:0B52H         LINE#         489
  C:0B52H         LINE#         490
  C:0B52H         LINE#         494
  C:0B67H         LINE#         496
  C:0B6FH         LINE#         497
  C:0B77H         LINE#         498
  C:0B7FH         LINE#         499
  C:0B85H         LINE#         503
  C:0BC5H         LINE#         507
  C:0BC5H         LINE#         509
  C:0BD7H         LINE#         510
  C:0BD7H         LINE#         511
  C:0BDDH         LINE#         512
  C:0BDDH         LINE#         513
  C:0BDDH         LINE#         514
  C:0BDDH         LINE#         515
  C:0BDDH         LINE#         516
  C:0BE0H         LINE#         518
  C:0BE0H         LINE#         519
  C:0BE7H         LINE#         520
  C:0BE7H         LINE#         521
  C:0BEFH         LINE#         522
  C:0BEFH         LINE#         524
  C:0C07H         LINE#         525
  C:0C07H         LINE#         526
  C:0C07H         LINE#         527
  C:0C0FH         LINE#         528
  C:0C0FH         LINE#         529
  C:0C12H         LINE#         530
  C:0C1DH         LINE#         531
  C:0C20H         LINE#         532
  C:0C3CH         LINE#         533
  C:0C50H         LINE#         536
  C:0C52H         LINE#         538
  C:0C52H         LINE#         539
  C:0C7FH         LINE#         540
  C:0C99H         LINE#         543
  C:0C99H         LINE#         545
  C:0CA4H         LINE#         546
BL51 BANKED LINKER/LOCATER V6.05                                                      07/07/2015  16:43:23  PAGE 68


  C:0CA4H         LINE#         547
  C:0CBBH         LINE#         548
  C:0CC6H         LINE#         549
  C:0CC6H         LINE#         550
  C:0CCBH         LINE#         551
  C:0CCDH         LINE#         552
  C:0CCDH         LINE#         553
  C:0CCDH         LINE#         554
  C:0CCDH         LINE#         555
  C:0CCDH         LINE#         556
  C:0CD0H         LINE#         558
  C:0CD0H         LINE#         559
  C:0CD8H         LINE#         560
  C:0CD8H         LINE#         561
  C:0CDBH         LINE#         562
  C:0CE6H         LINE#         563
  C:0CE9H         LINE#         564
  C:0D05H         LINE#         565
  C:0D19H         LINE#         568
  C:0D1BH         LINE#         570
  C:0D1BH         LINE#         571
  C:0D49H         LINE#         572
  C:0D63H         LINE#         575
  C:0D63H         LINE#         577
  C:0D6EH         LINE#         578
  C:0D6EH         LINE#         579
  C:0D85H         LINE#         580
  C:0D90H         LINE#         581
  C:0D90H         LINE#         582
  C:0D95H         LINE#         583
  C:0D97H         LINE#         584
  C:0D97H         LINE#         585
  C:0D97H         LINE#         586
  C:0D97H         LINE#         587
  C:0D97H         LINE#         588
  C:0D9AH         LINE#         589
  C:0D9AH         LINE#         590
  C:0DA2H         LINE#         591
  C:0DA2H         LINE#         592
  C:0DA5H         LINE#         593
  C:0DB0H         LINE#         594
  C:0DB3H         LINE#         595
  C:0DCFH         LINE#         596
  C:0DE3H         LINE#         599
  C:0DE5H         LINE#         601
  C:0DE5H         LINE#         602
  C:0E12H         LINE#         603
  C:0E2CH         LINE#         606
  C:0E2CH         LINE#         608
  C:0E33H         LINE#         609
  C:0E33H         LINE#         610
  C:0E4AH         LINE#         611
  C:0E52H         LINE#         612
  C:0E52H         LINE#         613
  C:0E57H         LINE#         614
  C:0E5CH         LINE#         615
  C:0E62H         LINE#         616
BL51 BANKED LINKER/LOCATER V6.05                                                      07/07/2015  16:43:23  PAGE 69


  C:0E6CH         LINE#         617
  C:0E6CH         LINE#         618
  C:0E6CH         LINE#         619
  C:0E6CH         LINE#         621
  C:0E6CH         LINE#         622
  C:0E7BH         LINE#         624
  C:0E81H         LINE#         625
  C:0E85H         LINE#         626
  C:0E86H         LINE#         628
  C:0E86H         LINE#         629
  C:0E88H         LINE#         631
  C:0E88H         LINE#         632
  C:0E8EH         LINE#         633
  C:0E91H         LINE#         634
  C:0E9AH         LINE#         635
  C:0E9AH         LINE#         636
  C:0E9AH         LINE#         637
  -------         ENDPROC       USART0RECDEAL
  -------         PROC          _SEND_DATA
  X:0332H         SYMBOL        Databuf
  X:0335H         SYMBOL        l
  C:4B3EH         LINE#         639
  C:4B4CH         LINE#         640
  C:4B4CH         LINE#         662
  -------         ENDPROC       _SEND_DATA
  -------         PROC          _SEND_DATA_BYTE
  X:024AH         SYMBOL        SendData
  C:4C66H         LINE#         665
  C:4C6BH         LINE#         666
  C:4C6BH         LINE#         683
  -------         ENDPROC       _SEND_DATA_BYTE
  -------         ENDMOD        USART

  -------         MODULE        PCT25VF
  C:0000H         SYMBOL        _ICE_DUMMY_
  C:4904H         PUBLIC        WREN_Check
  D:0080H         PUBLIC        P0
  D:0090H         PUBLIC        P1
  D:00A0H         PUBLIC        P2
  C:4AD5H         PUBLIC        _Send_Byte
  D:00B0H         PUBLIC        P3
  D:00C0H         PUBLIC        P4
  C:4711H         PUBLIC        _Byte_Write
  D:00C8H         PUBLIC        P5
  D:00A8H         PUBLIC        IE
  C:4B0CH         PUBLIC        Read_Status_Register
  C:4829H         PUBLIC        Get_Byte
  D:00B8H         PUBLIC        IP
  C:4C6FH         PUBLIC        CE_Low
  C:468EH         PUBLIC        Poll_SO
  C:489CH         PUBLIC        Wait_Busy
  C:000AH         PUBLIC        Hold_Low
  D:00D8H         PUBLIC        CCON
  C:4169H         PUBLIC        Jedec_ID_Read
  C:4766H         PUBLIC        WREN_AAI_Check
  X:02C7H         PUBLIC        FRAM_BUFF
  C:4C05H         PUBLIC        DBSY
BL51 BANKED LINKER/LOCATER V6.05                                                      07/07/2015  16:43:23  PAGE 70


  C:4BFAH         PUBLIC        EBSY
  D:0098H         PUBLIC        SCON
  D:0088H         PUBLIC        TCON
  C:4944H         PUBLIC        _Byte_Write1
  C:4BEFH         PUBLIC        WRDI
  B:0090H.6       PUBLIC        MISO
  C:3B86H         PUBLIC        _AAI_Write
  C:0012H         PUBLIC        WP_Low
  C:4B5BH         PUBLIC        WREN
  C:4982H         PUBLIC        _delay_nms
  C:4BE4H         PUBLIC        EWSR
  C:40D6H         PUBLIC        _Auto_Add_IncA
  C:4879H         PUBLIC        _Auto_Add_IncB
  C:4204H         PUBLIC        _Sector_Erase
  D:00E0H         PUBLIC        ACC
  C:34DCH         PUBLIC        FRAM_TEST
  C:47E2H         PUBLIC        Wait_Busy_AAI
  C:4A11H         PUBLIC        _delay_nus
  C:32C5H         PUBLIC        _HighSpeed_Read_Cont
  C:49BDH         PUBLIC        _WRSR
  C:43CBH         PUBLIC        _Block_Erase_32K
  C:3D23H         PUBLIC        _Byte_Program
  C:41B1H         PUBLIC        _HighSpeed_Read
  C:4408H         PUBLIC        _Block_Erase_64K
  C:3E65H         PUBLIC        _Auto_Add_IncA_EBSY
  C:4C10H         PUBLIC        Chip_Erase
  C:46BAH         PUBLIC        _Auto_Add_IncB_EBSY
  C:002EH         PUBLIC        CE_High
  C:3D65H         PUBLIC        _AAI_Write1
  C:473CH         PUBLIC        _Read_ID
  C:0019H         PUBLIC        UnWP
  C:0011H         PUBLIC        Unhold
  C:3201H         PUBLIC        _Read_Cont
  C:47B9H         PUBLIC        SST25VF_Init
  B:0090H.4       PUBLIC        SST25VF_CS
  D:00D0H         PUBLIC        PSW
  C:438CH         PUBLIC        _Read
  -------         PROC          SST25VF_INIT
  C:47B9H         LINE#         162
  C:47B9H         LINE#         163
  C:47B9H         LINE#         165
  C:47BCH         LINE#         166
  C:47C2H         LINE#         168
  C:47C5H         LINE#         169
  C:47CCH         LINE#         170
  C:47D2H         LINE#         171
  C:47D9H         LINE#         173
  C:47DFH         LINE#         174
  -------         ENDPROC       SST25VF_INIT
  C:4AC5H         SYMBOL        L?0091
  C:4AD1H         SYMBOL        L?0092
  -------         PROC          L?0090
  -------         ENDPROC       L?0090
  C:4AC5H         SYMBOL        L?0091
  C:4AD1H         SYMBOL        L?0092
  -------         PROC          _SEND_BYTE
  D:0007H         SYMBOL        out
BL51 BANKED LINKER/LOCATER V6.05                                                      07/07/2015  16:43:23  PAGE 71


  C:4AD5H         LINE#         189
  C:4AD5H         LINE#         190
  C:4AD5H         LINE#         204
  -------         ENDPROC       _SEND_BYTE
  -------         PROC          L?0095
  -------         ENDPROC       L?0095
  -------         PROC          GET_BYTE
  -------         DO            
  D:0007H         SYMBOL        in
  -------         ENDDO         
  C:4829H         LINE#         219
  C:4829H         LINE#         220
  C:4829H         LINE#         236
  C:482EH         LINE#         237
  C:482EH         LINE#         238
  -------         ENDPROC       GET_BYTE
  -------         PROC          POLL_SO
  -------         DO            
  X:0349H         SYMBOL        i
  X:034BH         SYMBOL        temp
  -------         ENDDO         
  C:468EH         LINE#         253
  C:468EH         LINE#         254
  C:468EH         LINE#         255
  C:4696H         LINE#         257
  C:4699H         LINE#         258
  C:469CH         LINE#         259
  C:46A2H         LINE#         260
  C:46A2H         LINE#         261
  C:46A6H         LINE#         262
  C:46A9H         LINE#         263
  C:46B7H         LINE#         264
  C:46B7H         LINE#         265
  -------         ENDPROC       POLL_SO
  -------         PROC          CE_HIGH
  C:002EH         LINE#         280
  C:002EH         LINE#         281
  C:002EH         LINE#         282
  C:0030H         LINE#         283
  -------         ENDPROC       CE_HIGH
  -------         PROC          L?0096
  -------         ENDPROC       L?0096
  -------         PROC          CE_LOW
  C:4C6FH         LINE#         297
  C:4C6FH         LINE#         298
  C:4C6FH         LINE#         299
  C:4C71H         LINE#         300
  -------         ENDPROC       CE_LOW
  -------         PROC          HOLD_LOW
  C:000AH         LINE#         313
  C:000AH         LINE#         314
  C:000AH         LINE#         318
  -------         ENDPROC       HOLD_LOW
  -------         PROC          UNHOLD
  C:0011H         LINE#         331
  C:0011H         LINE#         332
  C:0011H         LINE#         336
BL51 BANKED LINKER/LOCATER V6.05                                                      07/07/2015  16:43:23  PAGE 72


  -------         ENDPROC       UNHOLD
  -------         PROC          WP_LOW
  C:0012H         LINE#         349
  C:0012H         LINE#         350
  C:0012H         LINE#         354
  -------         ENDPROC       WP_LOW
  -------         PROC          UNWP
  C:0019H         LINE#         367
  C:0019H         LINE#         368
  C:0019H         LINE#         372
  -------         ENDPROC       UNWP
  -------         PROC          READ_STATUS_REGISTER
  -------         DO            
  D:0007H         SYMBOL        byte
  -------         ENDDO         
  C:4B0CH         LINE#         385
  C:4B0CH         LINE#         386
  C:4B0CH         LINE#         387
  C:4B0EH         LINE#         388
  C:4B11H         LINE#         389
  C:4B16H         LINE#         390
  C:4B19H         LINE#         391
  C:4B1CH         LINE#         392
  C:4B1CH         LINE#         393
  -------         ENDPROC       READ_STATUS_REGISTER
  -------         PROC          EWSR
  C:4BE4H         LINE#         406
  C:4BE4H         LINE#         407
  C:4BE4H         LINE#         408
  C:4BE7H         LINE#         409
  C:4BECH         LINE#         410
  -------         ENDPROC       EWSR
  -------         PROC          _WRSR
  X:024AH         SYMBOL        byte
  C:49BDH         LINE#         424
  C:49C5H         LINE#         425
  C:49C5H         LINE#         426
  C:49C8H         LINE#         427
  C:49CDH         LINE#         428
  C:49D6H         LINE#         430
  -------         ENDPROC       _WRSR
  -------         PROC          WREN
  C:4B5BH         LINE#         445
  C:4B5BH         LINE#         446
  C:4B5BH         LINE#         447
  C:4B5EH         LINE#         448
  C:4B63H         LINE#         449
  C:4B66H         LINE#         450
  -------         ENDPROC       WREN
  -------         PROC          WRDI
  C:4BEFH         LINE#         464
  C:4BEFH         LINE#         465
  C:4BEFH         LINE#         466
  C:4BF2H         LINE#         467
  C:4BF7H         LINE#         468
  -------         ENDPROC       WRDI
  -------         PROC          EBSY
BL51 BANKED LINKER/LOCATER V6.05                                                      07/07/2015  16:43:23  PAGE 73


  C:4BFAH         LINE#         483
  C:4BFAH         LINE#         484
  C:4BFAH         LINE#         485
  C:4BFDH         LINE#         486
  C:4C02H         LINE#         487
  -------         ENDPROC       EBSY
  -------         PROC          DBSY
  C:4C05H         LINE#         502
  C:4C05H         LINE#         503
  C:4C05H         LINE#         504
  C:4C08H         LINE#         505
  C:4C0DH         LINE#         506
  -------         ENDPROC       DBSY
  -------         PROC          _READ_ID
  X:0352H         SYMBOL        ID_addr
  -------         DO            
  D:0007H         SYMBOL        byte
  -------         ENDDO         
  C:473CH         LINE#         526
  C:4744H         LINE#         527
  C:4744H         LINE#         529
  C:4747H         LINE#         530
  C:474CH         LINE#         531
  C:4751H         LINE#         532
  C:4756H         LINE#         533
  C:475FH         LINE#         534
  C:4762H         LINE#         535
  C:4765H         LINE#         536
  C:4765H         LINE#         537
  -------         ENDPROC       _READ_ID
  -------         PROC          JEDEC_ID_READ
  -------         DO            
  X:0336H         SYMBOL        temp
  -------         ENDDO         
  C:4169H         LINE#         554
  C:4169H         LINE#         555
  C:4169H         LINE#         558
  C:4173H         LINE#         560
  C:4176H         LINE#         561
  C:417BH         LINE#         562
  C:417EH         LINE#         563
  C:4181H         LINE#         564
  C:419FH         LINE#         565
  C:41A2H         LINE#         567
  C:41B0H         LINE#         568
  -------         ENDPROC       JEDEC_ID_READ
  -------         PROC          _READ
  X:033AH         SYMBOL        Dst
  -------         DO            
  D:0007H         SYMBOL        byte
  -------         ENDDO         
  C:438CH         LINE#         587
  C:4392H         LINE#         588
  C:4392H         LINE#         589
  C:4394H         LINE#         591
  C:4397H         LINE#         592
  C:439CH         LINE#         593
BL51 BANKED LINKER/LOCATER V6.05                                                      07/07/2015  16:43:23  PAGE 74


  C:43A2H         LINE#         594
  C:43B3H         LINE#         595
  C:43C4H         LINE#         596
  C:43C7H         LINE#         597
  C:43CAH         LINE#         598
  C:43CAH         LINE#         599
  -------         ENDPROC       _READ
  -------         PROC          _READ_CONT
  X:027FH         SYMBOL        pBuffer
  X:0282H         SYMBOL        Dst
  X:0286H         SYMBOL        no_bytes
  -------         DO            
  X:028AH         SYMBOL        i
  -------         ENDDO         
  C:3201H         LINE#         616
  C:3210H         LINE#         617
  C:3210H         LINE#         618
  C:321AH         LINE#         619
  C:321DH         LINE#         620
  C:3220H         LINE#         621
  C:3225H         LINE#         622
  C:322BH         LINE#         623
  C:3240H         LINE#         624
  C:3251H         LINE#         625
  C:327BH         LINE#         626
  C:327BH         LINE#         627
  C:329EH         LINE#         628
  C:32BFH         LINE#         629
  C:32C2H         LINE#         630
  -------         ENDPROC       _READ_CONT
  -------         PROC          _HIGHSPEED_READ
  X:033EH         SYMBOL        Dst
  -------         DO            
  D:0007H         SYMBOL        byte
  -------         ENDDO         
  C:41B1H         LINE#         650
  C:41B7H         LINE#         651
  C:41B7H         LINE#         652
  C:41B9H         LINE#         654
  C:41BCH         LINE#         655
  C:41C1H         LINE#         656
  C:41C7H         LINE#         657
  C:41DCH         LINE#         658
  C:41EDH         LINE#         659
  C:41F2H         LINE#         660
  C:41F5H         LINE#         661
  C:41F8H         LINE#         662
  C:41F8H         LINE#         663
  -------         ENDPROC       _HIGHSPEED_READ
  -------         PROC          _HIGHSPEED_READ_CONT
  X:02EDH         SYMBOL        Dst
  X:02F1H         SYMBOL        no_bytes
  X:02F5H         SYMBOL        pBuffer
  -------         DO            
  X:02F8H         SYMBOL        i
  -------         ENDDO         
  C:32C5H         LINE#         679
BL51 BANKED LINKER/LOCATER V6.05                                                      07/07/2015  16:43:23  PAGE 75


  C:32CBH         LINE#         680
  C:32CBH         LINE#         681
  C:32D5H         LINE#         682
  C:32D8H         LINE#         683
  C:32DDH         LINE#         684
  C:32E3H         LINE#         685
  C:32F8H         LINE#         686
  C:3309H         LINE#         687
  C:330EH         LINE#         688
  C:333AH         LINE#         689
  C:333AH         LINE#         690
  C:335DH         LINE#         691
  C:337EH         LINE#         692
  -------         ENDPROC       _HIGHSPEED_READ_CONT
  C:3D1FH         SYMBOL        L?0094
  -------         PROC          L?0093
  -------         ENDPROC       L?0093
  C:3D1FH         SYMBOL        L?0094
  -------         PROC          _BYTE_PROGRAM
  X:0254H         SYMBOL        Dst
  X:0258H         SYMBOL        byte
  C:3D23H         LINE#         713
  C:3D26H         LINE#         714
  C:3D26H         LINE#         715
  C:3D29H         LINE#         716
  C:3D2EH         LINE#         717
  C:3D34H         LINE#         718
  C:3D49H         LINE#         719
  C:3D5AH         LINE#         720
  C:3D62H         LINE#         721
  -------         ENDPROC       _BYTE_PROGRAM
  -------         PROC          _AUTO_ADD_INCA
  X:031CH         SYMBOL        Dst
  X:0320H         SYMBOL        byte1
  X:0321H         SYMBOL        byte2
  C:40D6H         LINE#         752
  C:40D9H         LINE#         753
  C:40D9H         LINE#         754
  C:40DCH         LINE#         755
  C:40E1H         LINE#         756
  C:40E7H         LINE#         757
  C:40FCH         LINE#         758
  C:410DH         LINE#         759
  C:4115H         LINE#         760
  C:411DH         LINE#         761
  -------         ENDPROC       _AUTO_ADD_INCA
  -------         PROC          _AUTO_ADD_INCB
  X:0354H         SYMBOL        byte1
  X:0355H         SYMBOL        byte2
  C:4879H         LINE#         792
  C:4881H         LINE#         793
  C:4881H         LINE#         794
  C:4884H         LINE#         795
  C:4889H         LINE#         796
  C:4891H         LINE#         797
  C:4899H         LINE#         798
  -------         ENDPROC       _AUTO_ADD_INCB
BL51 BANKED LINKER/LOCATER V6.05                                                      07/07/2015  16:43:23  PAGE 76


  -------         PROC          _AUTO_ADD_INCA_EBSY
  X:0322H         SYMBOL        Dst
  X:0326H         SYMBOL        byte1
  X:0327H         SYMBOL        byte2
  C:3E65H         LINE#         831
  C:3E6BH         LINE#         832
  C:3E6BH         LINE#         833
  C:3E6EH         LINE#         835
  C:3E71H         LINE#         836
  C:3E76H         LINE#         837
  C:3E7CH         LINE#         838
  C:3E91H         LINE#         839
  C:3EA2H         LINE#         840
  C:3EAAH         LINE#         841
  C:3EB2H         LINE#         842
  C:3EB5H         LINE#         844
  -------         ENDPROC       _AUTO_ADD_INCA_EBSY
  -------         PROC          _AUTO_ADD_INCB_EBSY
  X:0356H         SYMBOL        byte1
  X:0357H         SYMBOL        byte2
  C:46BAH         LINE#         878
  C:46C2H         LINE#         879
  C:46C2H         LINE#         880
  C:46C5H         LINE#         881
  C:46CAH         LINE#         882
  C:46D2H         LINE#         883
  C:46DAH         LINE#         884
  C:46DDH         LINE#         886
  C:46E0H         LINE#         888
  C:46E3H         LINE#         889
  -------         ENDPROC       _AUTO_ADD_INCB_EBSY
  -------         PROC          CHIP_ERASE
  C:4C10H         LINE#         903
  C:4C10H         LINE#         904
  C:4C10H         LINE#         905
  C:4C13H         LINE#         906
  C:4C18H         LINE#         907
  -------         ENDPROC       CHIP_ERASE
  -------         PROC          L?0097
  -------         ENDPROC       L?0097
  -------         PROC          _SECTOR_ERASE
  X:0254H         SYMBOL        Dst
  C:4204H         LINE#         921
  C:420AH         LINE#         922
  C:420AH         LINE#         925
  C:420DH         LINE#         926
  C:4212H         LINE#         927
  C:4218H         LINE#         928
  C:422DH         LINE#         929
  C:423EH         LINE#         930
  -------         ENDPROC       _SECTOR_ERASE
  -------         PROC          _BLOCK_ERASE_32K
  X:024CH         SYMBOL        Dst
  C:43CBH         LINE#         944
  C:43D1H         LINE#         945
  C:43D1H         LINE#         946
  C:43D4H         LINE#         947
BL51 BANKED LINKER/LOCATER V6.05                                                      07/07/2015  16:43:23  PAGE 77


  C:43D9H         LINE#         948
  C:43DFH         LINE#         949
  C:43F4H         LINE#         950
  C:4405H         LINE#         951
  -------         ENDPROC       _BLOCK_ERASE_32K
  -------         PROC          _BLOCK_ERASE_64K
  X:0342H         SYMBOL        Dst
  C:4408H         LINE#         965
  C:440EH         LINE#         966
  C:440EH         LINE#         967
  C:4411H         LINE#         968
  C:4416H         LINE#         969
  C:441CH         LINE#         970
  C:4431H         LINE#         971
  C:4442H         LINE#         972
  -------         ENDPROC       _BLOCK_ERASE_64K
  -------         PROC          WAIT_BUSY
  -------         DO            
  X:0254H         SYMBOL        i
  -------         ENDDO         
  C:489CH         LINE#         987
  C:489CH         LINE#         988
  C:489CH         LINE#         990
  C:48A6H         LINE#         992
  C:48ADH         LINE#         993
  C:48ADH         LINE#         995
  C:48B0H         LINE#         996
  C:48BEH         LINE#         997
  C:48BEH         LINE#         999
  -------         ENDPROC       WAIT_BUSY
  -------         PROC          WAIT_BUSY_AAI
  -------         DO            
  X:0358H         SYMBOL        i
  -------         ENDDO         
  C:47E2H         LINE#         1012
  C:47E2H         LINE#         1013
  C:47E2H         LINE#         1015
  C:47ECH         LINE#         1017
  C:47F3H         LINE#         1018
  C:47F3H         LINE#         1019
  C:47FAH         LINE#         1020
  C:4808H         LINE#         1022
  C:4808H         LINE#         1023
  -------         ENDPROC       WAIT_BUSY_AAI
  -------         PROC          WREN_CHECK
  -------         DO            
  X:035AH         SYMBOL        i
  -------         ENDDO         
  C:4904H         LINE#         1036
  C:4904H         LINE#         1037
  C:4904H         LINE#         1039
  C:490CH         LINE#         1041
  C:4913H         LINE#         1042
  C:4913H         LINE#         1043
  C:4916H         LINE#         1044
  C:4924H         LINE#         1046
  C:4924H         LINE#         1047
BL51 BANKED LINKER/LOCATER V6.05                                                      07/07/2015  16:43:23  PAGE 78


  -------         ENDPROC       WREN_CHECK
  -------         PROC          WREN_AAI_CHECK
  -------         DO            
  X:035CH         SYMBOL        i
  -------         ENDDO         
  C:4766H         LINE#         1060
  C:4766H         LINE#         1061
  C:4766H         LINE#         1063
  C:4770H         LINE#         1065
  C:477AH         LINE#         1066
  C:477AH         LINE#         1067
  C:4781H         LINE#         1068
  C:478FH         LINE#         1070
  C:478FH         LINE#         1071
  -------         ENDPROC       WREN_AAI_CHECK
  -------         PROC          _BYTE_WRITE
  X:024FH         SYMBOL        Dst
  X:0253H         SYMBOL        byte
  C:4711H         LINE#         1076
  C:4717H         LINE#         1077
  C:4717H         LINE#         1078
  C:471AH         LINE#         1079
  C:4720H         LINE#         1080
  C:4723H         LINE#         1083
  C:4726H         LINE#         1084
  C:4739H         LINE#         1085
  -------         ENDPROC       _BYTE_WRITE
  -------         PROC          _AAI_WRITE
  X:024CH         SYMBOL        Dst
  X:0250H         SYMBOL        p
  X:0253H         SYMBOL        no_bytes
  C:3B86H         LINE#         1124
  C:3B97H         LINE#         1125
  C:3B97H         LINE#         1127
  C:3B9AH         LINE#         1128
  C:3BA0H         LINE#         1130
  C:3BA3H         LINE#         1157
  C:3BACH         LINE#         1158
  C:3BACH         LINE#         1159
  C:3BAFH         LINE#         1160
  C:3BB5H         LINE#         1161
  C:3BB8H         LINE#         1162
  C:3BD7H         LINE#         1163
  C:3BE1H         LINE#         1164
  C:3BE9H         LINE#         1166
  -------         ENDPROC       _AAI_WRITE
  -------         PROC          _BYTE_WRITE1
  X:024FH         SYMBOL        Dst
  X:0253H         SYMBOL        byte
  C:4944H         LINE#         1170
  C:494AH         LINE#         1171
  C:494AH         LINE#         1172
  C:494DH         LINE#         1173
  C:4960H         LINE#         1174
  -------         ENDPROC       _BYTE_WRITE1
  -------         PROC          _AAI_WRITE1
  X:024CH         SYMBOL        Dst
BL51 BANKED LINKER/LOCATER V6.05                                                      07/07/2015  16:43:23  PAGE 79


  X:0250H         SYMBOL        p
  X:0253H         SYMBOL        no_bytes
  C:3D65H         LINE#         1208
  C:3D76H         LINE#         1209
  C:3D76H         LINE#         1233
  C:3D7FH         LINE#         1234
  C:3D7FH         LINE#         1235
  C:3D82H         LINE#         1236
  C:3D88H         LINE#         1237
  C:3D8BH         LINE#         1238
  C:3DAAH         LINE#         1239
  C:3DB4H         LINE#         1240
  C:3DBCH         LINE#         1242
  -------         ENDPROC       _AAI_WRITE1
  -------         PROC          FRAM_TEST
  -------         DO            
  D:0007H         SYMBOL        i
  -------         ENDDO         
  C:34DCH         LINE#         1259
  C:34DCH         LINE#         1260
  C:34DCH         LINE#         1263
  C:34E2H         LINE#         1264
  C:34E6H         LINE#         1265
  C:34EAH         LINE#         1266
  C:34EEH         LINE#         1267
  C:34F2H         LINE#         1268
  C:34F6H         LINE#         1270
  C:34FAH         LINE#         1271
  C:34FEH         LINE#         1272
  C:3502H         LINE#         1273
  C:3506H         LINE#         1274
  C:350AH         LINE#         1277
  C:351DH         LINE#         1278
  C:3534H         LINE#         1280
  C:353EH         LINE#         1281
  C:3545H         LINE#         1283
  C:3555H         LINE#         1284
  C:3570H         LINE#         1285
  C:3577H         LINE#         1287
  -------         ENDPROC       FRAM_TEST
  -------         PROC          _DELAY_NMS
  D:0006H         SYMBOL        i
  -------         DO            
  D:0004H         SYMBOL        j
  -------         ENDDO         
  C:4982H         LINE#         1306
  C:4982H         LINE#         1307
  C:4982H         LINE#         1310
  C:498BH         LINE#         1311
  C:498BH         LINE#         1312
  C:4998H         LINE#         1313
  C:499FH         LINE#         1315
  -------         ENDPROC       _DELAY_NMS
  C:4A0DH         SYMBOL        L?0099
  -------         PROC          L?0098
  -------         ENDPROC       L?0098
  C:4A0DH         SYMBOL        L?0099
BL51 BANKED LINKER/LOCATER V6.05                                                      07/07/2015  16:43:23  PAGE 80


  -------         PROC          _DELAY_NUS
  D:0006H         SYMBOL        i
  -------         DO            
  D:0005H         SYMBOL        j
  -------         ENDDO         
  C:4A11H         LINE#         1333
  C:4A11H         LINE#         1334
  C:4A11H         LINE#         1337
  C:4A1AH         LINE#         1338
  C:4A1AH         LINE#         1339
  C:4A1EH         LINE#         1340
  C:4A25H         LINE#         1342
  -------         ENDPROC       _DELAY_NUS
  -------         ENDMOD        PCT25VF

  -------         MODULE        OS_CORE
  C:0000H         SYMBOL        _ICE_DUMMY_
  C:4A3FH         PUBLIC        _OS_TaskSuspend
  D:0080H         PUBLIC        P0
  D:0090H         PUBLIC        P1
  D:00A0H         PUBLIC        P2
  D:00B0H         PUBLIC        P3
  D:00C0H         PUBLIC        P4
  D:00C8H         PUBLIC        P5
  B:00A8H.7       PUBLIC        EA
  C:4AB1H         PUBLIC        OSSched
  D:00A8H         PUBLIC        IE
  D:00B8H         PUBLIC        IP
  C:4BCDH         PUBLIC        _OSTaskSuspend
  D:00D8H         PUBLIC        CCON
  D:0008H         PUBLIC        OSIntNesting
  C:4A26H         PUBLIC        _OSTaskResume
  D:0009H         PUBLIC        OSTaskRuning
  D:0098H         PUBLIC        SCON
  D:0088H         PUBLIC        TCON
  C:4B1DH         PUBLIC        OSInit
  C:3C4DH         PUBLIC        _OSWait
  D:000AH         PUBLIC        Os_Enter_Sum
  C:4963H         PUBLIC        OSTimeTick
  C:4A57H         PUBLIC        OSFindNextRunningTask
  D:000BH         PUBLIC        OSTaskID
  D:00E0H         PUBLIC        ACC
  D:000CH         PUBLIC        OSWaitTick
  C:48BFH         PUBLIC        _OSTimeDly
  C:4C24H         PUBLIC        OSMapTbl
  D:0011H         PUBLIC        OSNextTaskID
  C:4855H         PUBLIC        OSIntExit
  C:4445H         PUBLIC        __OSTaskCreate
  D:0012H         PUBLIC        OSTaskCreated
  D:00D0H         PUBLIC        PSW
  -------         PROC          OSINIT
  C:4B1DH         LINE#         87
  C:4B1DH         LINE#         89
  C:4B20H         LINE#         90
  C:4B22H         LINE#         95
  C:4B24H         LINE#         96
  C:4B27H         LINE#         97
BL51 BANKED LINKER/LOCATER V6.05                                                      07/07/2015  16:43:23  PAGE 81


  C:4B29H         LINE#         98
  C:4B2BH         LINE#         99
  -------         ENDPROC       OSINIT
  -------         PROC          __OSTASKCREATE
  D:0001H         SYMBOL        TaskID
  D:0006H         SYMBOL        task
  D:0002H         SYMBOL        ptos
  C:4445H         LINE#         119
  C:444BH         LINE#         121
  C:4451H         LINE#         122
  C:4451H         LINE#         123
  C:4455H         LINE#         125
  C:445EH         LINE#         126
  C:445EH         LINE#         127
  C:4461H         LINE#         128
  C:4461H         LINE#         129
  C:4468H         LINE#         130
  C:446AH         LINE#         151
  C:4473H         LINE#         152
  C:4476H         LINE#         153
  C:447BH         LINE#         154
  C:447EH         LINE#         155
  C:447EH         LINE#         156
  C:4480H         LINE#         157
  -------         ENDPROC       __OSTASKCREATE
  -------         PROC          _OSTASKRESUME
  D:0007H         SYMBOL        TaskID
  C:4A26H         LINE#         217
  C:4A26H         LINE#         219
  C:4A2CH         LINE#         220
  C:4A2CH         LINE#         221
  C:4A30H         LINE#         223
  C:4A37H         LINE#         234
  C:4A3CH         LINE#         235
  C:4A3CH         LINE#         236
  -------         ENDPROC       _OSTASKRESUME
  -------         PROC          _OS_TASKSUSPEND
  D:0007H         SYMBOL        TaskID
  C:4A3FH         LINE#         254
  C:4A3FH         LINE#         256
  C:4A45H         LINE#         257
  C:4A45H         LINE#         258
  C:4A49H         LINE#         260
  C:4A51H         LINE#         271
  C:4A56H         LINE#         272
  C:4A56H         LINE#         273
  -------         ENDPROC       _OS_TASKSUSPEND
  -------         PROC          _OSTASKSUSPEND
  D:0007H         SYMBOL        TaskID
  C:4BCDH         LINE#         291
  C:4BCDH         LINE#         293
  C:4BD3H         LINE#         295
  C:4BD6H         LINE#         296
  -------         ENDPROC       _OSTASKSUSPEND
  -------         PROC          OSFINDNEXTRUNNINGTASK
  -------         DO            
  D:0007H         SYMBOL        temp
BL51 BANKED LINKER/LOCATER V6.05                                                      07/07/2015  16:43:23  PAGE 82


  -------         ENDDO         
  C:4A57H         LINE#         314
  C:4A57H         LINE#         318
  C:4A5CH         LINE#         321
  C:4A5FH         LINE#         322
  C:4A5FH         LINE#         323
  C:4A63H         LINE#         324
  C:4A63H         LINE#         325
  C:4A63H         LINE#         326
  C:4A63H         LINE#         327
  C:4A67H         LINE#         328
  C:4A6EH         LINE#         351
  -------         ENDPROC       OSFINDNEXTRUNNINGTASK
  -------         PROC          OSINTEXIT
  C:4855H         LINE#         368
  C:4855H         LINE#         371
  C:4859H         LINE#         373
  C:4860H         LINE#         374
  C:4860H         LINE#         375
  C:4862H         LINE#         376
  C:4862H         LINE#         377
  C:4866H         LINE#         378
  C:4866H         LINE#         379
  C:4868H         LINE#         380
  C:486BH         LINE#         381
  C:486EH         LINE#         382
  C:4871H         LINE#         383
  C:4871H         LINE#         384
  C:4876H         LINE#         385
  C:4878H         LINE#         386
  -------         ENDPROC       OSINTEXIT
  -------         PROC          OSSCHED
  C:4AB1H         LINE#         403
  C:4AB1H         LINE#         406
  C:4AB5H         LINE#         407
  C:4AB9H         LINE#         408
  C:4AB9H         LINE#         409
  C:4ABCH         LINE#         410
  C:4ABFH         LINE#         411
  C:4ABFH         LINE#         412
  C:4AC4H         LINE#         413
  -------         ENDPROC       OSSCHED
  -------         PROC          OSTIMETICK
  -------         DO            
  D:0007H         SYMBOL        i
  -------         ENDDO         
  C:4963H         LINE#         430
  C:4963H         LINE#         434
  C:4965H         LINE#         435
  C:4965H         LINE#         436
  C:496CH         LINE#         437
  C:496CH         LINE#         438
  C:496DH         LINE#         439
  C:4974H         LINE#         440
  C:4974H         LINE#         442
  C:497BH         LINE#         453
  C:497BH         LINE#         454
BL51 BANKED LINKER/LOCATER V6.05                                                      07/07/2015  16:43:23  PAGE 83


  C:497BH         LINE#         455
  C:497FH         LINE#         456
  -------         ENDPROC       OSTIMETICK
  -------         PROC          _OSTIMEDLY
  D:0007H         SYMBOL        ticks
  C:48BFH         LINE#         475
  C:48BFH         LINE#         477
  C:48C6H         LINE#         478
  C:48CAH         LINE#         479
  C:48D2H         LINE#         480
  C:48D2H         LINE#         481
  C:48D7H         LINE#         482
  C:48DAH         LINE#         483
  C:48DCH         LINE#         484
  C:48E1H         LINE#         485
  -------         ENDPROC       _OSTIMEDLY
  -------         PROC          _OSWAIT
  D:0007H         SYMBOL        typ
  D:0005H         SYMBOL        ticks
  C:3C4DH         LINE#         534
  C:3C4DH         LINE#         536
  C:3C54H         LINE#         538
  C:3C60H         LINE#         539
  C:3C60H         LINE#         540
  C:3C60H         LINE#         541
  C:3C65H         LINE#         542
  C:3C68H         LINE#         543
  C:3C68H         LINE#         544
  C:3C72H         LINE#         545
  C:3C75H         LINE#         546
  C:3C75H         LINE#         548
  C:3C79H         LINE#         549
  C:3C81H         LINE#         550
  C:3C81H         LINE#         551
  C:3C84H         LINE#         552
  C:3C84H         LINE#         553
  C:3C89H         LINE#         554
  C:3C8CH         LINE#         555
  C:3C91H         LINE#         556
  C:3C99H         LINE#         557
  C:3C99H         LINE#         558
  C:3C9BH         LINE#         559
  C:3C9EH         LINE#         560
  C:3C9EH         LINE#         561
  C:3CA1H         LINE#         562
  C:3CA1H         LINE#         563
  C:3CA8H         LINE#         564
  C:3CAAH         LINE#         565
  C:3CAAH         LINE#         566
  -------         ENDPROC       _OSWAIT
  -------         ENDMOD        OS_CORE

  -------         MODULE        OS_MEM
  C:0000H         SYMBOL        _ICE_DUMMY_
  D:0080H         PUBLIC        P0
  D:0090H         PUBLIC        P1
  D:00A0H         PUBLIC        P2
BL51 BANKED LINKER/LOCATER V6.05                                                      07/07/2015  16:43:23  PAGE 84


  D:00B0H         PUBLIC        P3
  D:00C0H         PUBLIC        P4
  D:00C8H         PUBLIC        P5
  D:00A8H         PUBLIC        IE
  D:00B8H         PUBLIC        IP
  D:00D8H         PUBLIC        CCON
  D:0098H         PUBLIC        SCON
  D:0088H         PUBLIC        TCON
  D:00E0H         PUBLIC        ACC
  D:00D0H         PUBLIC        PSW
  -------         ENDMOD        OS_MEM

  -------         MODULE        OS_Q
  C:0000H         SYMBOL        _ICE_DUMMY_
  D:0080H         PUBLIC        P0
  D:0090H         PUBLIC        P1
  D:00A0H         PUBLIC        P2
  D:00B0H         PUBLIC        P3
  D:00C0H         PUBLIC        P4
  D:00C8H         PUBLIC        P5
  B:00A8H.7       PUBLIC        EA
  D:00A8H         PUBLIC        IE
  D:00B8H         PUBLIC        IP
  C:37BCH         PUBLIC        _OSQPost
  D:0081H         PUBLIC        SP
  D:00D8H         PUBLIC        CCON
  D:0098H         PUBLIC        SCON
  D:0088H         PUBLIC        TCON
  D:00E0H         PUBLIC        ACC
  C:44F5H         PUBLIC        _OSQCreate
  D:00D0H         PUBLIC        PSW
  C:3582H         PUBLIC        _OSQPend
  -------         PROC          _OSQCREATE
  D:0007H         SYMBOL        Buf
  D:0005H         SYMBOL        SizeOfBuf
  C:44F5H         LINE#         62
  C:44F5H         LINE#         64
  C:44F5H         LINE#         65
  C:44F9H         LINE#         67
  C:4502H         LINE#         68
  C:4502H         LINE#         69
  C:4505H         LINE#         70
  C:450CH         LINE#         72
  C:4512H         LINE#         76
  C:4518H         LINE#         77
  C:451EH         LINE#         80
  C:4523H         LINE#         81
  C:4526H         LINE#         82
  C:4526H         LINE#         84
  C:4526H         LINE#         85
  C:452BH         LINE#         86
  C:452DH         LINE#         87
  C:452DH         LINE#         89
  -------         ENDPROC       _OSQCREATE
  -------         PROC          _OSQPEND
  D:0007H         SYMBOL        Ret
  D:0005H         SYMBOL        Buf
BL51 BANKED LINKER/LOCATER V6.05                                                      07/07/2015  16:43:23  PAGE 85


  D:0003H         SYMBOL        Tick
  -------         DO            
  D:0007H         SYMBOL        cp
  -------         ENDDO         
  C:3582H         LINE#         119
  C:3582H         LINE#         120
  C:3582H         LINE#         132
  C:3586H         LINE#         134
  C:358FH         LINE#         139
  C:3591H         LINE#         140
  C:3597H         LINE#         145
  C:35A3H         LINE#         157
  C:35A8H         LINE#         158
  C:35A8H         LINE#         161
  C:35AAH         LINE#         162
  C:35B0H         LINE#         165
  C:35B5H         LINE#         166
  C:35B8H         LINE#         169
  C:35BEH         LINE#         170
  C:35C0H         LINE#         173
  C:35C8H         LINE#         174
  C:35C8H         LINE#         175
  C:35C8H         LINE#         176
  C:35C8H         LINE#         177
  C:35C8H         LINE#         181
  C:35D5H         LINE#         193
  C:35DDH         LINE#         194
  C:35DDH         LINE#         196
  C:35DEH         LINE#         198
  C:35E3H         LINE#         199
  C:35EFH         LINE#         200
  C:35EFH         LINE#         202
  C:35F1H         LINE#         206
  C:35F1H         LINE#         208
  C:35F7H         LINE#         209
  C:35F9H         LINE#         210
  C:3604H         LINE#         214
  C:3609H         LINE#         215
  C:360CH         LINE#         216
  C:360CH         LINE#         218
  C:360CH         LINE#         221
  C:360EH         LINE#         224
  C:3613H         LINE#         225
  C:3615H         LINE#         226
  C:3615H         LINE#         227
  -------         ENDPROC       _OSQPEND
  -------         PROC          _OSQPOST
  D:0007H         SYMBOL        Buf
  D:0005H         SYMBOL        Data
  -------         DO            
  D:0006H         SYMBOL        temp
  D:0005H         SYMBOL        i
  -------         ENDDO         
  C:37BCH         LINE#         307
  C:37BCH         LINE#         308
  C:37BCH         LINE#         318
  C:37C0H         LINE#         322
BL51 BANKED LINKER/LOCATER V6.05                                                      07/07/2015  16:43:23  PAGE 86


  C:37CEH         LINE#         326
  C:37CEH         LINE#         329
  C:37D0H         LINE#         330
  C:37D8H         LINE#         333
  C:37E4H         LINE#         334
  C:37EEH         LINE#         335
  C:37EEH         LINE#         337
  C:37F3H         LINE#         341
  C:37F3H         LINE#         344
  C:37FEH         LINE#         345
  C:3800H         LINE#         350
  C:3803H         LINE#         352
  C:3808H         LINE#         353
  C:3808H         LINE#         355
  C:380EH         LINE#         357
  C:3810H         LINE#         358
  C:3810H         LINE#         359
  C:3814H         LINE#         360
  C:3814H         LINE#         361
  C:3814H         LINE#         362
  C:3814H         LINE#         363
  C:3818H         LINE#         364
  C:381DH         LINE#         365
  C:3823H         LINE#         366
  C:3823H         LINE#         368
  C:382FH         LINE#         369
  C:3834H         LINE#         370
  C:3834H         LINE#         406
  C:3834H         LINE#         407
  C:3839H         LINE#         408
  C:383CH         LINE#         409
  C:383CH         LINE#         411
  C:383CH         LINE#         412
  C:3841H         LINE#         413
  C:3843H         LINE#         414
  C:3843H         LINE#         415
  -------         ENDPROC       _OSQPOST
  -------         ENDMOD        OS_Q

  -------         MODULE        OS_SEM
  C:0000H         SYMBOL        _ICE_DUMMY_
  D:0080H         PUBLIC        P0
  D:0090H         PUBLIC        P1
  D:00A0H         PUBLIC        P2
  D:00B0H         PUBLIC        P3
  D:00C0H         PUBLIC        P4
  D:00C8H         PUBLIC        P5
  D:00A8H         PUBLIC        IE
  D:00B8H         PUBLIC        IP
  D:00D8H         PUBLIC        CCON
  D:0098H         PUBLIC        SCON
  D:0088H         PUBLIC        TCON
  D:00E0H         PUBLIC        ACC
  D:00D0H         PUBLIC        PSW
  -------         ENDMOD        OS_SEM

  -------         MODULE        OS_CPU_C
BL51 BANKED LINKER/LOCATER V6.05                                                      07/07/2015  16:43:23  PAGE 87


  C:0000H         SYMBOL        _ICE_DUMMY_
  D:0080H         PUBLIC        P0
  D:0090H         PUBLIC        P1
  D:00A0H         PUBLIC        P2
  D:00B0H         PUBLIC        P3
  C:482FH         PUBLIC        _OSTaskStkDel
  D:00C0H         PUBLIC        P4
  D:00C8H         PUBLIC        P5
  B:00A8H.7       PUBLIC        EA
  C:4285H         PUBLIC        _StkDelA
  C:42C8H         PUBLIC        _StkDelB
  C:4A6FH         PUBLIC        _StkDelC
  D:00A8H         PUBLIC        IE
  D:00B8H         PUBLIC        IP
  C:4120H         PUBLIC        OSTickISR
  C:4B2EH         PUBLIC        OSCPUInit
  D:0081H         PUBLIC        SP
  D:00D8H         PUBLIC        CCON
  D:0013H         PUBLIC        OSTsakStackBotton
  D:0098H         PUBLIC        SCON
  D:0088H         PUBLIC        TCON
  D:00E0H         PUBLIC        ACC
  D:001AH         PUBLIC        OSFastSwap
  X:035EH         PUBLIC        timer_i
  D:00D0H         PUBLIC        PSW
  -------         PROC          OSCPUINIT
  -------         DO            
  D:0007H         SYMBOL        i
  -------         ENDDO         
  C:4B2EH         LINE#         81
  C:4B2EH         LINE#         85
  C:4B30H         LINE#         86
  C:4B30H         LINE#         87
  C:4B36H         LINE#         88
  C:4B3AH         LINE#         89
  C:4B3DH         LINE#         91
  -------         ENDPROC       OSCPUINIT
  -------         PROC          _STKDELA
  D:0007H         SYMBOL        TaskID
  -------         DO            
  D:0006H         SYMBOL        cp
  D:0005H         SYMBOL        cp1
  D:0004H         SYMBOL        temp
  D:0007H         SYMBOL        i
  -------         ENDDO         
  C:4285H         LINE#         203
  C:4285H         LINE#         204
  C:4285H         LINE#         209
  C:428BH         LINE#         210
  C:4291H         LINE#         211
  C:4296H         LINE#         212
  C:429FH         LINE#         213
  C:429FH         LINE#         214
  C:42AAH         LINE#         215
  C:42ADH         LINE#         216
  C:42B3H         LINE#         218
  C:42B3H         LINE#         219
BL51 BANKED LINKER/LOCATER V6.05                                                      07/07/2015  16:43:23  PAGE 88


  C:42BFH         LINE#         220
  C:42C1H         LINE#         221
  C:42C7H         LINE#         222
  -------         ENDPROC       _STKDELA
  -------         PROC          _STKDELB
  D:0007H         SYMBOL        TaskID
  -------         DO            
  D:0005H         SYMBOL        cp
  D:0004H         SYMBOL        cp1
  D:0005H         SYMBOL        temp
  D:0006H         SYMBOL        i
  -------         ENDDO         
  C:42C8H         LINE#         225
  C:42C8H         LINE#         226
  C:42C8H         LINE#         231
  C:42CFH         LINE#         232
  C:42D5H         LINE#         233
  C:42E0H         LINE#         234
  C:42E2H         LINE#         235
  C:42E2H         LINE#         237
  C:42E2H         LINE#         238
  C:42EEH         LINE#         239
  C:42F0H         LINE#         240
  C:42F0H         LINE#         241
  C:42F6H         LINE#         242
  C:42FFH         LINE#         243
  C:42FFH         LINE#         244
  C:4306H         LINE#         245
  C:4309H         LINE#         246
  -------         ENDPROC       _STKDELB
  -------         PROC          _STKDELC
  D:0007H         SYMBOL        TaskID
  -------         DO            
  D:0005H         SYMBOL        cp
  -------         ENDDO         
  C:4A6FH         LINE#         248
  C:4A6FH         LINE#         249
  C:4A6FH         LINE#         254
  C:4A75H         LINE#         255
  C:4A7BH         LINE#         256
  C:4A80H         LINE#         257
  C:4A84H         LINE#         258
  -------         ENDPROC       _STKDELC
  -------         PROC          _OSTASKSTKDEL
  D:0007H         SYMBOL        TaskID
  -------         DO            
  D:0006H         SYMBOL        temp
  -------         ENDDO         
  C:482FH         LINE#         261
  C:482FH         LINE#         265
  C:4831H         LINE#         266
  C:4835H         LINE#         267
  C:4835H         LINE#         268
  C:4836H         LINE#         269
  C:4838H         LINE#         270
  C:483EH         LINE#         271
  C:483EH         LINE#         272
BL51 BANKED LINKER/LOCATER V6.05                                                      07/07/2015  16:43:23  PAGE 89


  C:4840H         LINE#         273
  C:4840H         LINE#         274
  C:484BH         LINE#         275
  C:484BH         LINE#         276
  C:484BH         LINE#         277
  C:484EH         LINE#         278
  C:484EH         LINE#         279
  C:484EH         LINE#         280
  C:4851H         LINE#         281
  C:4851H         LINE#         282
  C:4851H         LINE#         283
  C:4854H         LINE#         284
  C:4854H         LINE#         285
  C:4854H         LINE#         286
  C:4854H         LINE#         287
  C:4854H         LINE#         288
  -------         ENDPROC       _OSTASKSTKDEL
  -------         PROC          OSTICKISR
  C:4120H         LINE#         311
  C:413FH         LINE#         319
  C:4142H         LINE#         329
  C:4146H         LINE#         332
  C:4149H         LINE#         337
  C:414CH         LINE#         338
  -------         ENDPROC       OSTICKISR
  -------         ENDMOD        OS_CPU_C

  -------         MODULE        OS_CPU_A_ASM
  C:4B90H         SEGMENT       ?PR?OSCTXSW?OS_CPU_A
  C:465FH         SEGMENT       ?PR?OSINTCTXSW?OS_CPU_A
  C:4599H         SEGMENT       ?PR?LOADCTX?OS_CPU_A
  C:36A4H         SEGMENT       ?PR?C_OSCTXSW?OS_CPU_A
  C:3945H         SEGMENT       ?PR?_OSTASKSTKINIT?OS_CPU_A
  I:0074H         SEGMENT       ?STACK
  C:36A4H         PUBLIC        C_OSCTXSW
  C:4599H         PUBLIC        LOADCTX
  C:4B90H         PUBLIC        OSCTXSW
  C:465FH         PUBLIC        OSINTCTXSW
  I:0074H         PUBLIC        STACK
  C:3945H         PUBLIC        _OSTASKSTKINIT
  C:36F1H         SYMBOL        ?C0001
  C:36C2H         SYMBOL        ?C0002
  C:36C8H         SYMBOL        ?C0003
  C:36E5H         SYMBOL        ?C0004
  C:36EBH         SYMBOL        ?C0005
  C:372AH         SYMBOL        ?C0007
  C:36FBH         SYMBOL        ?C0008
  C:3701H         SYMBOL        ?C0009
  C:372DH         SYMBOL        ?C000R
  C:371FH         SYMBOL        ?C0010
  C:3725H         SYMBOL        ?C0011
  D:00E0H         SYMBOL        ACC
  D:00F0H         SYMBOL        B
  D:0083H         SYMBOL        DPH
  D:0082H         SYMBOL        DPL
  B:00A8H.7       SYMBOL        EA
  C:45A2H         SYMBOL        LOADCTX_0
BL51 BANKED LINKER/LOCATER V6.05                                                      07/07/2015  16:43:23  PAGE 90


  C:45C4H         SYMBOL        LOADCTX_2
  C:45CBH         SYMBOL        LOADCTX_3
  C:4674H         SYMBOL        OSINTCTXSW_0
  N:0000H         SYMBOL        OS_CPU_A_ASM
  D:00D0H         SYMBOL        PSW
  D:0081H         SYMBOL        SP
  C:397CH         SYMBOL        STKINIT11
  C:39B0H         SYMBOL        STKINIT12
  C:398EH         SYMBOL        STKINIT15
  C:39AAH         SYMBOL        STKINIT18
  C:3984H         SYMBOL        STKINIT5
  C:395FH         SYMBOL        STKINIT8
  C:3945H         LINE#         137
  C:3947H         LINE#         138
  C:3949H         LINE#         142
  C:394AH         LINE#         143
  C:394DH         LINE#         144
  C:394EH         LINE#         145
  C:3950H         LINE#         173
  C:3951H         LINE#         174
  C:3952H         LINE#         175
  C:3954H         LINE#         176
  C:3956H         LINE#         179
  C:3957H         LINE#         180
  C:3959H         LINE#         181
  C:395AH         LINE#         182
  C:395BH         LINE#         184
  C:395DH         LINE#         185
  C:395EH         LINE#         186
  C:395FH         LINE#         191
  C:3961H         LINE#         192
  C:3962H         LINE#         193
  C:3963H         LINE#         195
  C:3964H         LINE#         197
  C:3966H         LINE#         200
  C:3968H         LINE#         203
  C:396AH         LINE#         204
  C:396CH         LINE#         205
  C:396EH         LINE#         207
  C:3970H         LINE#         208
  C:3971H         LINE#         209
  C:3972H         LINE#         210
  C:3974H         LINE#         211
  C:3975H         LINE#         212
  C:3977H         LINE#         213
  C:3978H         LINE#         214
  C:3979H         LINE#         215
  C:397AH         LINE#         217
  C:397CH         LINE#         222
  C:397DH         LINE#         223
  C:397EH         LINE#         224
  C:397FH         LINE#         225
  C:3980H         LINE#         227
  C:3982H         LINE#         229
  C:3984H         LINE#         234
  C:3986H         LINE#         235
  C:3988H         LINE#         236
BL51 BANKED LINKER/LOCATER V6.05                                                      07/07/2015  16:43:23  PAGE 91


  C:3989H         LINE#         238
  C:398AH         LINE#         239
  C:398BH         LINE#         240
  C:398DH         LINE#         241
  C:398EH         LINE#         246
  C:3990H         LINE#         247
  C:3991H         LINE#         248
  C:3992H         LINE#         250
  C:3993H         LINE#         252
  C:3995H         LINE#         255
  C:3997H         LINE#         256
  C:3999H         LINE#         257
  C:399AH         LINE#         258
  C:399BH         LINE#         259
  C:399CH         LINE#         261
  C:399DH         LINE#         262
  C:399FH         LINE#         263
  C:39A0H         LINE#         265
  C:39A2H         LINE#         266
  C:39A3H         LINE#         267
  C:39A4H         LINE#         268
  C:39A5H         LINE#         269
  C:39A6H         LINE#         270
  C:39A7H         LINE#         271
  C:39A8H         LINE#         273
  C:39AAH         LINE#         278
  C:39ABH         LINE#         279
  C:39ACH         LINE#         280
  C:39ADH         LINE#         281
  C:39AEH         LINE#         283
  C:39B0H         LINE#         287
  C:39B2H         LINE#         288
  C:39B3H         LINE#         289
  C:39B4H         LINE#         290
  C:39B5H         LINE#         291
  C:39B6H         LINE#         293
  C:39B8H         LINE#         294
  C:39B9H         LINE#         295
  C:39BAH         LINE#         297
  C:39BCH         LINE#         298
  C:39BDH         LINE#         299
  C:39BEH         LINE#         309
  C:39BFH         LINE#         310
  C:39C0H         LINE#         312
  C:4599H         LINE#         340
  C:459BH         LINE#         348
  C:459DH         LINE#         349
  C:45A0H         LINE#         350
  C:45A2H         LINE#         352
  C:45A5H         LINE#         354
  C:45A6H         LINE#         355
  C:45A8H         LINE#         367
  C:45AAH         LINE#         369
  C:45ACH         LINE#         370
  C:45AEH         LINE#         371
  C:45B0H         LINE#         372
  C:45B2H         LINE#         373
BL51 BANKED LINKER/LOCATER V6.05                                                      07/07/2015  16:43:23  PAGE 92


  C:45B4H         LINE#         374
  C:45B6H         LINE#         375
  C:45B8H         LINE#         376
  C:45BAH         LINE#         377
  C:45BCH         LINE#         378
  C:45BEH         LINE#         379
  C:45C0H         LINE#         380
  C:45C2H         LINE#         381
  C:45C4H         LINE#         384
  C:45C6H         LINE#         385
  C:45C9H         LINE#         386
  C:45CBH         LINE#         388
  C:4B90H         LINE#         415
  C:4B92H         LINE#         417
  C:4B95H         LINE#         418
  C:4B97H         LINE#         420
  C:4B98H         LINE#         421
  C:4B9AH         LINE#         434
  C:36A4H         LINE#         457
  C:36A6H         LINE#         460
  C:36A8H         LINE#         466
  C:36A9H         LINE#         468
  C:36ABH         LINE#         469
  C:36ADH         LINE#         470
  C:36AEH         LINE#         471
  C:36AFH         LINE#         472
  C:36B0H         LINE#         474
  C:36B2H         LINE#         475
  C:36B4H         LINE#         476
  C:36B5H         LINE#         477
  C:36B6H         LINE#         478
  C:36B7H         LINE#         480
  C:36B9H         LINE#         481
  C:36BAH         LINE#         482
  C:36BCH         LINE#         483
  C:36BEH         LINE#         489
  C:36BFH         LINE#         490
  C:36C0H         LINE#         491
  C:36C1H         LINE#         492
  C:36C2H         LINE#         494
  C:36C3H         LINE#         495
  C:36C4H         LINE#         496
  C:36C5H         LINE#         497
  C:36C6H         LINE#         498
  C:36C8H         LINE#         501
  C:36CAH         LINE#         502
  C:36CCH         LINE#         503
  C:36CDH         LINE#         504
  C:36CEH         LINE#         505
  C:36CFH         LINE#         507
  C:36D0H         LINE#         508
  C:36D1H         LINE#         510
  C:36D2H         LINE#         511
  C:36D4H         LINE#         516
  C:36D6H         LINE#         517
  C:36D7H         LINE#         518
  C:36D9H         LINE#         519
BL51 BANKED LINKER/LOCATER V6.05                                                      07/07/2015  16:43:23  PAGE 93


  C:36DAH         LINE#         520
  C:36DCH         LINE#         522
  C:36DEH         LINE#         523
  C:36E0H         LINE#         524
  C:36E1H         LINE#         525
  C:36E2H         LINE#         526
  C:36E3H         LINE#         527
  C:36E4H         LINE#         528
  C:36E5H         LINE#         530
  C:36E6H         LINE#         531
  C:36E7H         LINE#         532
  C:36E8H         LINE#         533
  C:36E9H         LINE#         534
  C:36EBH         LINE#         537
  C:36EEH         LINE#         539
  C:36F1H         LINE#         544
  C:36F3H         LINE#         545
  C:36F5H         LINE#         546
  C:36F7H         LINE#         558
  C:36F8H         LINE#         559
  C:36F9H         LINE#         560
  C:36FAH         LINE#         561
  C:36FBH         LINE#         563
  C:36FCH         LINE#         564
  C:36FDH         LINE#         565
  C:36FEH         LINE#         566
  C:36FFH         LINE#         567
  C:3701H         LINE#         570
  C:3703H         LINE#         571
  C:3705H         LINE#         572
  C:3706H         LINE#         573
  C:3707H         LINE#         574
  C:3708H         LINE#         576
  C:3709H         LINE#         577
  C:370AH         LINE#         579
  C:370CH         LINE#         580
  C:370EH         LINE#         581
  C:370FH         LINE#         582
  C:3710H         LINE#         583
  C:3712H         LINE#         589
  C:3714H         LINE#         590
  C:3715H         LINE#         591
  C:3717H         LINE#         592
  C:3719H         LINE#         594
  C:371AH         LINE#         595
  C:371CH         LINE#         596
  C:371EH         LINE#         597
  C:371FH         LINE#         599
  C:3720H         LINE#         600
  C:3721H         LINE#         601
  C:3722H         LINE#         602
  C:3723H         LINE#         603
  C:3725H         LINE#         607
  C:3728H         LINE#         609
  C:372AH         LINE#         613
  C:372DH         LINE#         618
  C:465FH         LINE#         642
BL51 BANKED LINKER/LOCATER V6.05                                                      07/07/2015  16:43:23  PAGE 94


  C:4661H         LINE#         643
  C:4663H         LINE#         644
  C:4665H         LINE#         647
  C:4667H         LINE#         648
  C:4669H         LINE#         649
  C:466BH         LINE#         651
  C:466DH         LINE#         652
  C:466FH         LINE#         653
  C:4671H         LINE#         654
  C:4673H         LINE#         655
  C:4674H         LINE#         659
  C:4676H         LINE#         660
  C:4678H         LINE#         661
  C:467AH         LINE#         663
  C:467DH         LINE#         664
  C:467FH         LINE#         666
  C:4680H         LINE#         667
  C:4681H         LINE#         668
  C:4683H         LINE#         689
  C:4685H         LINE#         691
  C:4687H         LINE#         692
  C:4689H         LINE#         693
  C:468BH         LINE#         694
  C:468DH         LINE#         695
  -------         ENDMOD        OS_CPU_A_ASM

  -------         MODULE        ?C?COPY
  C:0804H         PUBLIC        ?C?COPY
  -------         ENDMOD        ?C?COPY

  -------         MODULE        ?C?CLDPTR
  C:082AH         PUBLIC        ?C?CLDPTR
  -------         ENDMOD        ?C?CLDPTR

  -------         MODULE        ?C?CLDOPTR
  C:0843H         PUBLIC        ?C?CLDOPTR
  -------         ENDMOD        ?C?CLDOPTR

  -------         MODULE        ?C?CSTPTR
  C:0870H         PUBLIC        ?C?CSTPTR
  -------         ENDMOD        ?C?CSTPTR

  -------         MODULE        ?C?CSTOPTR
  C:0882H         PUBLIC        ?C?CSTOPTR
  -------         ENDMOD        ?C?CSTOPTR

  -------         MODULE        ?C?IMUL
  C:08A4H         PUBLIC        ?C?IMUL
  -------         ENDMOD        ?C?IMUL

  -------         MODULE        ?C?UIDIV
  C:08B6H         PUBLIC        ?C?UIDIV
  -------         ENDMOD        ?C?UIDIV

  -------         MODULE        ?C?IILDX
  C:090BH         PUBLIC        ?C?IILDX
  -------         ENDMOD        ?C?IILDX
BL51 BANKED LINKER/LOCATER V6.05                                                      07/07/2015  16:43:23  PAGE 95



  -------         MODULE        ?C?ILDIX
  C:0921H         PUBLIC        ?C?ILDIX
  -------         ENDMOD        ?C?ILDIX

  -------         MODULE        ?C?ILDOPTR
  C:0937H         PUBLIC        ?C?ILDOPTR
  -------         ENDMOD        ?C?ILDOPTR

  -------         MODULE        ?C?LMUL
  C:096FH         PUBLIC        ?C?LMUL
  -------         ENDMOD        ?C?LMUL

  -------         MODULE        ?C?SLDIV
  C:4241H         PUBLIC        ?C?SLDIV
  -------         ENDMOD        ?C?SLDIV

  -------         MODULE        ?C?ULCMP
  C:09BEH         PUBLIC        ?C?ULCMP
  -------         ENDMOD        ?C?ULCMP

  -------         MODULE        ?C?ULSHR
  C:09CFH         PUBLIC        ?C?ULSHR
  -------         ENDMOD        ?C?ULSHR

  -------         MODULE        ?C?LSHL
  C:09E2H         PUBLIC        ?C?LSHL
  -------         ENDMOD        ?C?LSHL

  -------         MODULE        ?C?LSTXDATA
  C:09F5H         PUBLIC        ?C?LSTXDATA
  -------         ENDMOD        ?C?LSTXDATA

  -------         MODULE        ?C?LSTKXDATA
  C:0A01H         PUBLIC        ?C?LSTKXDATA
  -------         ENDMOD        ?C?LSTKXDATA

  -------         MODULE        ?C?CCASE
  C:0A32H         PUBLIC        ?C?CCASE
  -------         ENDMOD        ?C?CCASE

  -------         MODULE        ?C?MEMSET
  C:0A58H         PUBLIC        ?C?MEMSET
  -------         ENDMOD        ?C?MEMSET

  -------         MODULE        ?C?ULDIV
  C:0AC0H         PUBLIC        ?C?ULDIV
  -------         ENDMOD        ?C?ULDIV

*** WARNING L16: UNCALLED SEGMENT, IGNORED FOR OVERLAY PROCESS
    SEGMENT: ?PR?REC_GT23_DATA?GT23

*** WARNING L16: UNCALLED SEGMENT, IGNORED FOR OVERLAY PROCESS
    SEGMENT: ?PR?_LCD_FILL?LCD

*** WARNING L16: UNCALLED SEGMENT, IGNORED FOR OVERLAY PROCESS
    SEGMENT: ?PR?_DISPLAY_DOT?LCD
BL51 BANKED LINKER/LOCATER V6.05                                                      07/07/2015  16:43:23  PAGE 96



*** WARNING L16: UNCALLED SEGMENT, IGNORED FOR OVERLAY PROCESS
    SEGMENT: ?PR?_DISPLAY_HLINE?LCD

*** WARNING L16: UNCALLED SEGMENT, IGNORED FOR OVERLAY PROCESS
    SEGMENT: ?PR?_DISPLAY_VLINE?LCD

*** WARNING L16: UNCALLED SEGMENT, IGNORED FOR OVERLAY PROCESS
    SEGMENT: ?PR?_DISPLAYDIGIT?LCD

*** WARNING L16: UNCALLED SEGMENT, IGNORED FOR OVERLAY PROCESS
    SEGMENT: ?PR?_DISPLAYASCII?LCD

*** WARNING L16: UNCALLED SEGMENT, IGNORED FOR OVERLAY PROCESS
    SEGMENT: ?PR?_LCD_FANGDA_DIS_TEXT?LCD

*** WARNING L16: UNCALLED SEGMENT, IGNORED FOR OVERLAY PROCESS
    SEGMENT: ?PR?SHOWMAINMENUFACE?LCD

*** WARNING L16: UNCALLED SEGMENT, IGNORED FOR OVERLAY PROCESS
    SEGMENT: ?PR?SHOWDIETFACE?LCD

*** WARNING L16: UNCALLED SEGMENT, IGNORED FOR OVERLAY PROCESS
    SEGMENT: ?PR?SHOWPRESCRIPTIONFACE?LCD

*** WARNING L16: UNCALLED SEGMENT, IGNORED FOR OVERLAY PROCESS
    SEGMENT: ?PR?SHOWPROMPTFACE?LCD

*** WARNING L16: UNCALLED SEGMENT, IGNORED FOR OVERLAY PROCESS
    SEGMENT: ?PR?LED0FLASH?SINGLEBUS

*** WARNING L16: UNCALLED SEGMENT, IGNORED FOR OVERLAY PROCESS
    SEGMENT: ?PR?SYSRESET?SINGLEBUS

*** WARNING L16: UNCALLED SEGMENT, IGNORED FOR OVERLAY PROCESS
    SEGMENT: ?PR?_GETPSKCRC?USART

*** WARNING L16: UNCALLED SEGMENT, IGNORED FOR OVERLAY PROCESS
    SEGMENT: ?PR?HOLD_LOW?PCT25VF

*** WARNING L16: UNCALLED SEGMENT, IGNORED FOR OVERLAY PROCESS
    SEGMENT: ?PR?UNHOLD?PCT25VF

*** WARNING L16: UNCALLED SEGMENT, IGNORED FOR OVERLAY PROCESS
    SEGMENT: ?PR?WP_LOW?PCT25VF

*** WARNING L16: UNCALLED SEGMENT, IGNORED FOR OVERLAY PROCESS
    SEGMENT: ?PR?UNWP?PCT25VF

*** WARNING L16: UNCALLED SEGMENT, IGNORED FOR OVERLAY PROCESS
    SEGMENT: ?PR?_READ_ID?PCT25VF

*** WARNING L16: UNCALLED SEGMENT, IGNORED FOR OVERLAY PROCESS
    SEGMENT: ?PR?JEDEC_ID_READ?PCT25VF

*** WARNING L16: UNCALLED SEGMENT, IGNORED FOR OVERLAY PROCESS
    SEGMENT: ?PR?_HIGHSPEED_READ?PCT25VF
BL51 BANKED LINKER/LOCATER V6.05                                                      07/07/2015  16:43:23  PAGE 97



*** WARNING L16: UNCALLED SEGMENT, IGNORED FOR OVERLAY PROCESS
    SEGMENT: ?PR?_HIGHSPEED_READ_CONT?PCT25VF

*** WARNING L16: UNCALLED SEGMENT, IGNORED FOR OVERLAY PROCESS
    SEGMENT: ?PR?_AUTO_ADD_INCA?PCT25VF

*** WARNING L16: UNCALLED SEGMENT, IGNORED FOR OVERLAY PROCESS
    SEGMENT: ?PR?_AUTO_ADD_INCB?PCT25VF

*** WARNING L16: UNCALLED SEGMENT, IGNORED FOR OVERLAY PROCESS
    SEGMENT: ?PR?_AUTO_ADD_INCA_EBSY?PCT25VF

*** WARNING L16: UNCALLED SEGMENT, IGNORED FOR OVERLAY PROCESS
    SEGMENT: ?PR?_AUTO_ADD_INCB_EBSY?PCT25VF

*** WARNING L16: UNCALLED SEGMENT, IGNORED FOR OVERLAY PROCESS
    SEGMENT: ?PR?CHIP_ERASE?PCT25VF

*** WARNING L16: UNCALLED SEGMENT, IGNORED FOR OVERLAY PROCESS
    SEGMENT: ?PR?_BLOCK_ERASE_64K?PCT25VF

*** WARNING L16: UNCALLED SEGMENT, IGNORED FOR OVERLAY PROCESS
    SEGMENT: ?PR?WAIT_BUSY_AAI?PCT25VF

*** WARNING L16: UNCALLED SEGMENT, IGNORED FOR OVERLAY PROCESS
    SEGMENT: ?PR?WREN_CHECK?PCT25VF

*** WARNING L16: UNCALLED SEGMENT, IGNORED FOR OVERLAY PROCESS
    SEGMENT: ?PR?WREN_AAI_CHECK?PCT25VF

*** WARNING L16: UNCALLED SEGMENT, IGNORED FOR OVERLAY PROCESS
    SEGMENT: ?PR?FRAM_TEST?PCT25VF

*** WARNING L16: UNCALLED SEGMENT, IGNORED FOR OVERLAY PROCESS
    SEGMENT: ?PR?_OSTASKSTKDEL?OS_CPU_C

Program Size: data=113.5 xdata=863 code=19548
LINK/LOCATE RUN COMPLETE.  34 WARNING(S),  0 ERROR(S)
