BL51 BANKED LINKER/LOCATER V6.22                                                        02/18/2019  11:57:09  PAGE 1


BL51 BANKED LINKER/LOCATER V6.22, INVOKED BY:
C:\KEIL\C51\BIN\BL51.EXE GT23.obj, IAP.obj, Key.obj, lcd.obj, main.obj, SingleBus.obj, SPI.obj, Usart.obj, PCT25VF.obj, 
>> .\OS_CORE.obj, .\OS_MEM.obj, .\OS_Q.obj, .\OS_SEM.obj, .\OS_CPU_C.obj, .\OS_CPU_A.obj TO CTFJ-SB-TM018-V31 RAMSIZE (2
>> 56)


MEMORY MODEL: LARGE


INPUT MODULES INCLUDED:
  GT23.obj (GT23)
  IAP.obj (IAP)
  Key.obj (KEY)
  lcd.obj (LCD)
  main.obj (MAIN)
  SingleBus.obj (SINGLEBUS)
  SPI.obj (SPI)
  Usart.obj (USART)
  PCT25VF.obj (PCT25VF)
  .\OS_CORE.obj (OS_CORE)
  .\OS_MEM.obj (OS_MEM)
  .\OS_Q.obj (OS_Q)
  .\OS_SEM.obj (OS_SEM)
  .\OS_CPU_C.obj (OS_CPU_C)
  .\OS_CPU_A.obj (OS_CPU_A_ASM)
  C:\KEIL\C51\LIB\C51L.LIB (?C_STARTUP)
  C:\KEIL\C51\LIB\C51L.LIB (?C?COPY)
  C:\KEIL\C51\LIB\C51L.LIB (?C?CLDPTR)
  C:\KEIL\C51\LIB\C51L.LIB (?C?CLDOPTR)
  C:\KEIL\C51\LIB\C51L.LIB (?C?CSTPTR)
  C:\KEIL\C51\LIB\C51L.LIB (?C?CSTOPTR)
  C:\KEIL\C51\LIB\C51L.LIB (?C?IMUL)
  C:\KEIL\C51\LIB\C51L.LIB (?C?UIDIV)
  C:\KEIL\C51\LIB\C51L.LIB (?C?IILDX)
  C:\KEIL\C51\LIB\C51L.LIB (?C?ILDIX)
  C:\KEIL\C51\LIB\C51L.LIB (?C?ILDOPTR)
  C:\KEIL\C51\LIB\C51L.LIB (?C?LMUL)
  C:\KEIL\C51\LIB\C51L.LIB (?C?SLDIV)
  C:\KEIL\C51\LIB\C51L.LIB (?C?SLCMP)
  C:\KEIL\C51\LIB\C51L.LIB (?C?ULCMP)
  C:\KEIL\C51\LIB\C51L.LIB (?C?ULSHR)
  C:\KEIL\C51\LIB\C51L.LIB (?C?LSHL)
  C:\KEIL\C51\LIB\C51L.LIB (?C?LSTXDATA)
  C:\KEIL\C51\LIB\C51L.LIB (?C?LSTKXDATA)
  C:\KEIL\C51\LIB\C51L.LIB (?C?CCASE)
  C:\KEIL\C51\LIB\C51L.LIB (?C?MEMSET)
  C:\KEIL\C51\LIB\C51L.LIB (?C_INIT)
  C:\KEIL\C51\LIB\C51L.LIB (?C?ULDIV)


LINK MAP OF MODULE:  CTFJ-SB-TM018-V31 (GT23)


            TYPE    BASE      LENGTH    RELOCATION   SEGMENT NAME
            -----------------------------------------------------

            * * * * * * *   D A T A   M E M O R Y   * * * * * * *
            REG     0000H     0008H     ABSOLUTE     "REG BANK 0"
BL51 BANKED LINKER/LOCATER V6.22                                                      02/18/2019  11:57:09  PAGE 2


            DATA    0008H     000BH     UNIT         ?DT?OS_CORE
            DATA    0013H     0008H     UNIT         ?DT?OS_CPU_C
            DATA    001BH     0001H     UNIT         ?DT?MAIN
                    001CH     0004H                  *** GAP ***
            DATA    0020H     0007H     BIT_ADDR     ?BA?SINGLEBUS
            BIT     0027H.0   0000H.2   UNIT         ?BI?USART
            BIT     0027H.2   0000H.1   UNIT         ?BI?LCD
            BIT     0027H.3   0000H.1   UNIT         ?BI?MAIN
            BIT     0027H.4   0000H.1   UNIT         ?BI?SINGLEBUS
                    0027H.5   0000H.3                *** GAP ***
            DATA    0028H     003CH     UNIT         ?DT?SINGLEBUS
            IDATA   0064H     0010H     UNIT         ?ID?MAIN
            IDATA   0074H     0002H     UNIT         ?STACK

            * * * * * * *  X D A T A   M E M O R Y  * * * * * * *
            XDATA   0000H     011BH     UNIT         ?XD?USART
            XDATA   011BH     00A8H     UNIT         ?XD?LCD
            XDATA   01C3H     0089H     UNIT         ?XD?GT23
            XDATA   024CH     0043H     UNIT         _XDATA_GROUP_
            XDATA   028FH     0038H     UNIT         ?XD?MAIN
            XDATA   02C7H     0014H     UNIT         ?XD?PCT25VF
            XDATA   02DBH     0012H     UNIT         ?XD?_LCD_FANGDA_DIS_TEXT?LCD
            XDATA   02EDH     0011H     UNIT         ?XD?_DISPLAYSTRING?LCD
            XDATA   02FEH     000FH     UNIT         ?XD?_HIGHSPEED_READ_CONT?PCT25VF
            XDATA   030DH     0008H     UNIT         ?XD?_LCD_FILL?LCD
            XDATA   0315H     0008H     UNIT         ?XD?_DISPLAYDIGIT?LCD
            XDATA   031DH     0008H     UNIT         ?XD?_DISPLAYASCII?LCD
            XDATA   0325H     0008H     UNIT         ?XD?_GETPSKCRC?USART
            XDATA   032DH     0006H     UNIT         ?XD?_AUTO_ADD_INCA?PCT25VF
            XDATA   0333H     0006H     UNIT         ?XD?_AUTO_ADD_INCA_EBSY?PCT25VF
            XDATA   0339H     0005H     UNIT         ?XD?_DISPLAY_HLINE?LCD
            XDATA   033EH     0005H     UNIT         ?XD?_DISPLAY_VLINE?LCD
            XDATA   0343H     0004H     UNIT         ?XD?JEDEC_ID_READ?PCT25VF
            XDATA   0347H     0004H     UNIT         ?XD?_READ?PCT25VF
            XDATA   034BH     0004H     UNIT         ?XD?_HIGHSPEED_READ?PCT25VF
            XDATA   034FH     0004H     UNIT         ?XD?_BLOCK_ERASE_64K?PCT25VF
            XDATA   0353H     0003H     UNIT         ?XD?KEY
            XDATA   0356H     0003H     UNIT         ?XD?POLL_SO?PCT25VF
            XDATA   0359H     0002H     UNIT         ?XD?_DISPLAY_DOT?LCD
            XDATA   035BH     0002H     UNIT         ?XD?SHOWMAINMENUFACE?LCD
            XDATA   035DH     0002H     UNIT         ?XD?SINGLEBUS
            XDATA   035FH     0002H     UNIT         ?XD?_READ_ID?PCT25VF
            XDATA   0361H     0002H     UNIT         ?XD?_AUTO_ADD_INCB?PCT25VF
            XDATA   0363H     0002H     UNIT         ?XD?_AUTO_ADD_INCB_EBSY?PCT25VF
            XDATA   0365H     0002H     UNIT         ?XD?WAIT_BUSY_AAI?PCT25VF
            XDATA   0367H     0002H     UNIT         ?XD?WREN_CHECK?PCT25VF
            XDATA   0369H     0002H     UNIT         ?XD?WREN_AAI_CHECK?PCT25VF
            XDATA   036BH     0001H     UNIT         ?XD?OS_CPU_C

            * * * * * * *   C O D E   M E M O R Y   * * * * * * *
            CODE    0000H     0003H     ABSOLUTE     
            CODE    0003H     0003H     ABSOLUTE     
            CODE    0006H     0003H     UNIT         ?PR?EX0INT?MAIN
            CODE    0009H     0001H     UNIT         ?PR?SYSRESET?SINGLEBUS
            CODE    000AH     0001H     UNIT         ?PR?HOLD_LOW?PCT25VF
            CODE    000BH     0003H     ABSOLUTE     
            CODE    000EH     0003H     UNIT         ?PR?TIMER1INT?MAIN
BL51 BANKED LINKER/LOCATER V6.22                                                      02/18/2019  11:57:09  PAGE 3


            CODE    0011H     0001H     UNIT         ?PR?UNHOLD?PCT25VF
            CODE    0012H     0001H     UNIT         ?PR?WP_LOW?PCT25VF
            CODE    0013H     0003H     ABSOLUTE     
            CODE    0016H     0003H     UNIT         ?PR?ADCINT?MAIN
            CODE    0019H     0001H     UNIT         ?PR?UNWP?PCT25VF
                    001AH     0001H                  *** GAP ***
            CODE    001BH     0003H     ABSOLUTE     
            CODE    001EH     0003H     UNIT         ?PR?LVDINT?MAIN
                    0021H     0002H                  *** GAP ***
            CODE    0023H     0003H     ABSOLUTE     
            CODE    0026H     0003H     UNIT         ?CO?MAIN
                    0029H     0002H                  *** GAP ***
            CODE    002BH     0003H     ABSOLUTE     
            CODE    002EH     0003H     UNIT         ?PR?CE_HIGH?PCT25VF
                    0031H     0002H                  *** GAP ***
            CODE    0033H     0003H     ABSOLUTE     
                    0036H     0005H                  *** GAP ***
            CODE    003BH     0003H     ABSOLUTE     
                    003EH     0005H                  *** GAP ***
            CODE    0043H     0003H     ABSOLUTE     
                    0046H     0005H                  *** GAP ***
            CODE    004BH     0003H     ABSOLUTE     
            CODE    004EH     06E9H     UNIT         ?PR?BUS0RECDEAL?SINGLEBUS
            CODE    0737H     0434H     UNIT         ?C?LIB_CODE
            CODE    0B6BH     0357H     UNIT         ?PR?USART0RECDEAL?USART
            CODE    0EC2H     034DH     UNIT         ?PR?_DISPLAYONESCREEN?LCD
            CODE    120FH     031AH     UNIT         ?PR?SHOWLANDINGFACE?LCD
            CODE    1529H     02F8H     UNIT         ?PR?TIMER0INT?SINGLEBUS
            CODE    1821H     02EDH     UNIT         ?PR?_DISPLAYSTRING?LCD
            CODE    1B0EH     02BDH     UNIT         ?PR?_GET_GT23_DATA1?GT23
            CODE    1DCBH     02B4H     UNIT         ?PR?SHOWMAINMENUFACE?LCD
            CODE    207FH     0291H     UNIT         ?PR?_GET_GT23_DATA?GT23
            CODE    2310H     0206H     UNIT         ?PR?SHOWPOWERUPFACE?LCD
            CODE    2516H     01C7H     UNIT         ?PR?_SHOWFACE?LCD
            CODE    26DDH     01AFH     UNIT         ?PR?_SAVEPARAMETER?SINGLEBUS
            CODE    288CH     017DH     UNIT         ?PR?ST7735_INIT?LCD
            CODE    2A09H     0176H     UNIT         ?PR?UART0?USART
            CODE    2B7FH     0142H     UNIT         ?PR?_DISPLAYDIGITSTRING?LCD
            CODE    2CC1H     011FH     UNIT         ?PR?_LCD_FANGDA_DIS_TEXT?LCD
            CODE    2DE0H     011FH     UNIT         ?PR?TIMEROUTDEAL?SINGLEBUS
            CODE    2EFFH     0114H     UNIT         ?PR?_DISPLAYASCIISTRING?LCD
            CODE    3013H     0106H     UNIT         ?PR?INIT?MAIN
            CODE    3119H     00F8H     UNIT         ?PR?_DISPLAYCHINESESTRING?LCD
            CODE    3211H     00F7H     UNIT         ?PR?_DISPLAYBLOCK?LCD
            CODE    3308H     00E1H     UNIT         ?PR?_DISPLAY_ASCII?LCD
            CODE    33E9H     00D9H     UNIT         ?PR?_ASCIIXDIRECTIONINCREASE?LCD
            CODE    34C2H     00CFH     UNIT         ?PR?_KEYDOWNDEAL?KEY
            CODE    3591H     00C4H     UNIT         ?PR?_DISPLAY_CHINESE?LCD
            CODE    3655H     00C4H     UNIT         ?PR?_READ_CONT?PCT25VF
            CODE    3719H     00BCH     UNIT         ?PR?_HIGHSPEED_READ_CONT?PCT25VF
            CODE    37D5H     00B5H     UNIT         ?CO?LCD
            CODE    388AH     00B2H     UNIT         ?PR?INITPARAMETER?SINGLEBUS
            CODE    393CH     00A6H     UNIT         ?PR?_CHINESEXDIRECTIONINCREASE?LCD
            CODE    39E2H     0094H     UNIT         ?PR?_OSQPEND?OS_Q
            CODE    3A76H     008EH     UNIT         ?PR?SHOWCALLSUCCESS?LCD
            CODE    3B04H     008CH     UNIT         ?PR?C_OSCTXSW?OS_CPU_A
            CODE    3B90H     008CH     UNIT         ?C_C51STARTUP
BL51 BANKED LINKER/LOCATER V6.22                                                      02/18/2019  11:57:09  PAGE 4


            CODE    3C1CH     0088H     UNIT         ?PR?_OSQPOST?OS_Q
            CODE    3CA4H     0087H     UNIT         ?PR?KEYMANAGER?KEY
            CODE    3D2BH     0084H     UNIT         ?PR?USARTINIT?USART
            CODE    3DAFH     007EH     UNIT         ?PR?_AAI_WRITE?PCT25VF
            CODE    3E2DH     007CH     UNIT         ?PR?_OSTASKSTKINIT?OS_CPU_A
            CODE    3EA9H     0079H     UNIT         ?PR?_BUS0OUTPUTDATA?SINGLEBUS
            CODE    3F22H     0077H     UNIT         ?PR?_CHECKPSK?USART
            CODE    3F99H     006CH     UNIT         ?PR?FRAM_TEST?PCT25VF
            CODE    4005H     0069H     UNIT         ?PR?_AAI_WRITE1?PCT25VF
            CODE    406EH     0066H     UNIT         ?PR?_DISPLAYDIGIT?LCD
            CODE    40D4H     0065H     UNIT         ?PR?_PARACRCCHECK?SINGLEBUS
            CODE    4139H     0063H     UNIT         ?PR?_READPARAMETER?SINGLEBUS
            CODE    419CH     0063H     UNIT         ?PR?_GETPSKCRC?USART
            CODE    41FFH     005EH     UNIT         ?PR?_OSWAIT?OS_CORE
            CODE    425DH     005DH     UNIT         ?PR?_LCD_FILL?LCD
            CODE    42BAH     005DH     UNIT         ?PR?_BYTE_PROGRAM?PCT25VF
            CODE    4317H     0055H     UNIT         ?PR?_DISPLAYASCII?LCD
            CODE    436CH     0053H     UNIT         ?PR?_SET_DISPLAY_AREA?LCD
            CODE    43BFH     0053H     UNIT         ?PR?_AUTO_ADD_INCA_EBSY?PCT25VF
            CODE    4412H     0052H     UNIT         ?PR?_LCD_CLEAR?LCD
            CODE    4464H     0051H     UNIT         ?PR?MAINTASK?MAIN
            CODE    44B5H     004DH     UNIT         ?PR?_KEYUPDEAL?KEY
            CODE    4502H     004DH     UNIT         ?PR?_KEYALWAYSDEAL?KEY
            CODE    454FH     004CH     UNIT         ?PR?SHOWTALKFACE?LCD
            CODE    459BH     004CH     UNIT         ?PR?SHOWBROADFACE?LCD
            CODE    45E7H     004AH     UNIT         ?PR?_AUTO_ADD_INCA?PCT25VF
            CODE    4631H     0049H     UNIT         ?PR?OSTICKISR?OS_CPU_C
            CODE    467AH     0048H     UNIT         ?PR?JEDEC_ID_READ?PCT25VF
            CODE    46C2H     0048H     UNIT         ?PR?_HIGHSPEED_READ?PCT25VF
            CODE    470AH     0048H     UNIT         ?PR?_SECTOR_ERASE?PCT25VF
            CODE    4752H     0046H     UNIT         ?PR?CALCPARACRC?SINGLEBUS
            CODE    4798H     0044H     UNIT         ?C?LDIV
            CODE    47DCH     0043H     UNIT         ?PR?_STKDELA?OS_CPU_C
            CODE    481FH     0042H     UNIT         ?PR?_STKDELB?OS_CPU_C
            CODE    4861H     0041H     UNIT         ?PR?_DISPATCHMESSAGE?MAIN
            CODE    48A2H     0041H     UNIT         ?PR?_ADDRCOMPARE?SINGLEBUS
            CODE    48E3H     003FH     UNIT         ?PR?_READ?PCT25VF
            CODE    4922H     003EH     UNIT         ?C_INITSEG
            CODE    4960H     003DH     UNIT         ?PR?_BLOCK_ERASE_32K?PCT25VF
            CODE    499DH     003DH     UNIT         ?PR?_BLOCK_ERASE_64K?PCT25VF
            CODE    49DAH     003CH     UNIT         ?PR?__OSTASKCREATE?OS_CORE
            CODE    4A16H     0039H     UNIT         ?PR?_DISPLAY_HLINE?LCD
            CODE    4A4FH     0039H     UNIT         ?PR?_OSQCREATE?OS_Q
            CODE    4A88H     0035H     UNIT         ?PR?SINGLEBUSINIT?SINGLEBUS
            CODE    4ABDH     0033H     UNIT         ?PR?_DISPLAY_VLINE?LCD
            CODE    4AF0H     0033H     UNIT         ?PR?LOADCTX?OS_CPU_A
            CODE    4B23H     0032H     UNIT         ?PR?_DIRADDRCOMPARE?SINGLEBUS
            CODE    4B55H     0031H     UNIT         ?PR?BUS0SENDDEAL?SINGLEBUS
            CODE    4B86H     002FH     UNIT         ?PR?POLL_SO?PCT25VF
            CODE    4BB5H     002FH     UNIT         ?PR?OSINTCTXSW?OS_CPU_A
            CODE    4BE4H     002EH     UNIT         ?PR?WREN_AAI_CHECK?PCT25VF
            CODE    4C12H     002CH     UNIT         ?PR?_AUTO_ADD_INCB_EBSY?PCT25VF
            CODE    4C3EH     002BH     UNIT         ?PR?_DISPLAY_DOT?LCD
            CODE    4C69H     002BH     UNIT         ?PR?WAIT_BUSY_AAI?PCT25VF
            CODE    4C94H     002BH     UNIT         ?PR?_BYTE_WRITE?PCT25VF
            CODE    4CBFH     002AH     UNIT         ?PR?_READ_ID?PCT25VF
            CODE    4CE9H     0029H     UNIT         ?PR?KEYSCAN?KEY
BL51 BANKED LINKER/LOCATER V6.22                                                      02/18/2019  11:57:09  PAGE 5


            CODE    4D12H     0029H     UNIT         ?PR?SST25VF_INIT?PCT25VF
            CODE    4D3BH     0026H     UNIT         ?PR?GET_BYTE?PCT25VF
            CODE    4D61H     0026H     UNIT         ?PR?_BYTE_WRITE1?PCT25VF
            CODE    4D87H     0026H     UNIT         ?PR?_OSTASKSTKDEL?OS_CPU_C
            CODE    4DADH     0024H     UNIT         ?PR?WAIT_BUSY?PCT25VF
            CODE    4DD1H     0024H     UNIT         ?PR?OSINTEXIT?OS_CORE
            CODE    4DF5H     0023H     UNIT         ?PR?_AUTO_ADD_INCB?PCT25VF
            CODE    4E18H     0023H     UNIT         ?PR?_OSTIMEDLY?OS_CORE
            CODE    4E3BH     0022H     UNIT         ?PR?USERTICKTIMER?MAIN
            CODE    4E5DH     0022H     UNIT         ?PR?TIMEROUTMANAGER?SINGLEBUS
            CODE    4E7FH     0022H     UNIT         ?PR?WREN_CHECK?PCT25VF
            CODE    4EA1H     0020H     UNIT         ?PR?BUS0MANAGE?SINGLEBUS
            CODE    4EC1H     001FH     UNIT         ?PR?OSTIMETICK?OS_CORE
            CODE    4EE0H     001EH     UNIT         ?PR?_DELAY_NMS?PCT25VF
            CODE    4EFEH     001CH     UNIT         ?PR?_DELAYMS?LCD
            CODE    4F1AH     001CH     UNIT         ?PR?_WRSR?PCT25VF
            CODE    4F36H     001CH     UNIT         ?PR?_DELAY_NUS?PCT25VF
            CODE    4F52H     001BH     UNIT         ?PR?UART1?USART
            CODE    4F6DH     0019H     UNIT         ?PR?_OSTASKRESUME?OS_CORE
            CODE    4F86H     0018H     UNIT         ?PR?_OS_TASKSUSPEND?OS_CORE
            CODE    4F9EH     0018H     UNIT         ?PR?OSFINDNEXTRUNNINGTASK?OS_CORE
            CODE    4FB6H     0018H     UNIT         ?PR?_STKDELC?OS_CPU_C
            CODE    4FCEH     0016H     UNIT         ?PR?_IAPWRITEBYTE?IAP
            CODE    4FE4H     0014H     UNIT         ?PR?_IAPREADBYTE?IAP
            CODE    4FF8H     0014H     UNIT         ?PR?OSSCHED?OS_CORE
            CODE    500CH     0013H     UNIT         ?PR?_SEND_BYTE?PCT25VF
            CODE    501FH     0012H     UNIT         ?PR?_IAPERASE?IAP
            CODE    5031H     0011H     UNIT         ?PR?_SEND_ST7735_DATA?LCD
            CODE    5042H     0011H     UNIT         ?PR?MAIN?MAIN
            CODE    5053H     0011H     UNIT         ?PR?READ_STATUS_REGISTER?PCT25VF
            CODE    5064H     0011H     UNIT         ?PR?OSINIT?OS_CORE
            CODE    5075H     0010H     UNIT         ?PR?_SPI_WRITEBYTE?SPI
            CODE    5085H     0010H     UNIT         ?PR?OSCPUINIT?OS_CPU_C
            CODE    5095H     000FH     UNIT         ?PR?DISPMANAGER?LCD
            CODE    50A4H     000FH     UNIT         ?PR?_SEND_DATA?USART
            CODE    50B3H     000EH     UNIT         ?PR?BUS0RECINT?SINGLEBUS
            CODE    50C1H     000EH     UNIT         ?PR?WREN?PCT25VF
            CODE    50CFH     000DH     UNIT         ?PR?_SETLEDSTATE?KEY
            CODE    50DCH     000DH     UNIT         ?PR?LED0FLASH?SINGLEBUS
            CODE    50E9H     000DH     UNIT         ?PR?OSCTXSW?OS_CPU_A
            CODE    50F6H     000CH     UNIT         ?PR?_SEND_ST7735_COMMAND?LCD
            CODE    5102H     000CH     UNIT         ?PR?SPINORMALMODE?SPI
            CODE    510EH     000CH     UNIT         ?PR?SPILCDMODE?SPI
            CODE    511AH     000CH     UNIT         ?PR?_OSTASKSUSPEND?OS_CORE
            CODE    5126H     000BH     UNIT         ?PR?_MAKECH0TIMEROUT?SINGLEBUS
            CODE    5131H     000BH     UNIT         ?PR?EWSR?PCT25VF
            CODE    513CH     000BH     UNIT         ?PR?WRDI?PCT25VF
            CODE    5147H     000BH     UNIT         ?PR?EBSY?PCT25VF
            CODE    5152H     000BH     UNIT         ?PR?DBSY?PCT25VF
            CODE    515DH     000BH     UNIT         ?PR?CHIP_ERASE?PCT25VF
            CODE    5168H     0009H     UNIT         ?PR?BL_SW_INIT?MAIN
            CODE    5171H     0009H     UNIT         ?CO?OS_CORE
            CODE    517AH     0008H     UNIT         ?PR?REC_GT23_DATA?GT23
            CODE    5182H     0008H     UNIT         ?PR?DISABLEIAP?IAP
            CODE    518AH     0007H     UNIT         ?PR?SHOWDIETFACE?LCD
            CODE    5191H     0007H     UNIT         ?PR?SHOWPRESCRIPTIONFACE?LCD
            CODE    5198H     0007H     UNIT         ?PR?SHOWPROMPTFACE?LCD
BL51 BANKED LINKER/LOCATER V6.22                                                      02/18/2019  11:57:09  PAGE 6


            CODE    519FH     0007H     UNIT         ?PR?_GETMESSAGE?MAIN
            CODE    51A6H     0007H     UNIT         ?PR?SPIINT?SPI
            CODE    51ADH     0006H     UNIT         ?PR?_ENABLEIAP?IAP
            CODE    51B3H     0006H     UNIT         ?PR?_SEND_DATA_BYTE?USART
            CODE    51B9H     0006H     UNIT         ?PR?CE_LOW?PCT25VF



OVERLAY MAP OF MODULE:   CTFJ-SB-TM018-V31 (GT23)


SEGMENT                                      XDATA_GROUP
  +--> CALLED SEGMENT                      START    LENGTH
----------------------------------------------------------
?PR?OSTICKISR?OS_CPU_C                     -----    -----
  +--> ?PR?USERTICKTIMER?MAIN
  +--> ?PR?OSTIMETICK?OS_CORE
  +--> ?PR?OSINTEXIT?OS_CORE

?PR?OSTIMETICK?OS_CORE                     -----    -----
  +--> ?CO?OS_CORE
  +--> ?PR?OSSCHED?OS_CORE

?PR?OSSCHED?OS_CORE                        -----    -----
  +--> ?PR?OSFINDNEXTRUNNINGTASK?OS_CORE
  +--> ?PR?OSCTXSW?OS_CPU_A

?PR?OSCTXSW?OS_CPU_A                       -----    -----
  +--> ?CO?OS_CORE
  +--> ?PR?C_OSCTXSW?OS_CPU_A

?PR?C_OSCTXSW?OS_CPU_A                     -----    -----
  +--> ?PR?LOADCTX?OS_CPU_A

?PR?LOADCTX?OS_CPU_A                       -----    -----
  +--> ?CO?OS_CORE

?PR?OSINTEXIT?OS_CORE                      -----    -----
  +--> ?PR?OSFINDNEXTRUNNINGTASK?OS_CORE
  +--> ?PR?OSINTCTXSW?OS_CPU_A

?PR?OSINTCTXSW?OS_CPU_A                    -----    -----
  +--> ?PR?OSCTXSW?OS_CPU_A
  +--> ?CO?OS_CORE
  +--> ?PR?C_OSCTXSW?OS_CPU_A

*** NEW ROOT ***************************************************

?C_C51STARTUP                              -----    -----
  +--> ?PR?MAIN?MAIN
  +--> ?C_INITSEG

?PR?MAIN?MAIN                              -----    -----
  +--> ?PR?OSINIT?OS_CORE
  +--> ?PR?MAINTASK?MAIN
  +--> ?PR?__OSTASKCREATE?OS_CORE

BL51 BANKED LINKER/LOCATER V6.22                                                      02/18/2019  11:57:09  PAGE 7


?PR?OSINIT?OS_CORE                         -----    -----
  +--> ?PR?OSCPUINIT?OS_CPU_C

?PR?MAINTASK?MAIN                          -----    -----
  +--> ?PR?INIT?MAIN
  +--> ?PR?_OSQCREATE?OS_Q
  +--> ?PR?BUS0MANAGE?SINGLEBUS
  +--> ?PR?__OSTASKCREATE?OS_CORE
  +--> ?PR?KEYMANAGER?KEY
  +--> ?PR?DISPMANAGER?LCD
  +--> ?PR?TIMEROUTMANAGER?SINGLEBUS
  +--> ?PR?_GETMESSAGE?MAIN
  +--> ?PR?_DISPATCHMESSAGE?MAIN
  +--> ?PR?USART0RECDEAL?USART

?PR?INIT?MAIN                              -----    -----
  +--> ?PR?_DELAYMS?LCD
  +--> ?PR?INITPARAMETER?SINGLEBUS
  +--> ?PR?SINGLEBUSINIT?SINGLEBUS
  +--> ?PR?USARTINIT?USART
  +--> ?PR?_SEND_DATA_BYTE?USART
  +--> ?PR?SPILCDMODE?SPI
  +--> ?PR?ST7735_INIT?LCD
  +--> ?PR?BL_SW_INIT?MAIN
  +--> ?PR?SST25VF_INIT?PCT25VF
  +--> ?PR?_SETLEDSTATE?KEY
  +--> ?PR?_MAKECH0TIMEROUT?SINGLEBUS
  +--> ?PR?_READ_CONT?PCT25VF
  +--> ?PR?SHOWPOWERUPFACE?LCD

?PR?INITPARAMETER?SINGLEBUS                024CH    0002H
  +--> ?PR?_PARACRCCHECK?SINGLEBUS
  +--> ?PR?_ENABLEIAP?IAP
  +--> ?PR?_IAPREADBYTE?IAP
  +--> ?PR?DISABLEIAP?IAP
  +--> ?PR?_READPARAMETER?SINGLEBUS
  +--> ?PR?_SAVEPARAMETER?SINGLEBUS
  +--> ?PR?CALCPARACRC?SINGLEBUS

?PR?_PARACRCCHECK?SINGLEBUS                024EH    0005H
  +--> ?PR?_ENABLEIAP?IAP
  +--> ?PR?_IAPREADBYTE?IAP
  +--> ?PR?DISABLEIAP?IAP

?PR?_READPARAMETER?SINGLEBUS               024EH    0006H
  +--> ?PR?_ENABLEIAP?IAP
  +--> ?PR?_IAPREADBYTE?IAP
  +--> ?PR?DISABLEIAP?IAP

?PR?_SAVEPARAMETER?SINGLEBUS               0251H    000BH
  +--> ?PR?CALCPARACRC?SINGLEBUS
  +--> ?PR?_ENABLEIAP?IAP
  +--> ?PR?_IAPERASE?IAP
  +--> ?PR?_IAPWRITEBYTE?IAP
  +--> ?PR?_IAPREADBYTE?IAP
  +--> ?PR?DISABLEIAP?IAP

BL51 BANKED LINKER/LOCATER V6.22                                                      02/18/2019  11:57:09  PAGE 8


?PR?CALCPARACRC?SINGLEBUS                  025CH    0004H
  +--> ?PR?_ENABLEIAP?IAP
  +--> ?PR?DISABLEIAP?IAP

?PR?_SEND_DATA_BYTE?USART                  024CH    0001H

?PR?ST7735_INIT?LCD                        -----    -----
  +--> ?PR?_DELAYMS?LCD
  +--> ?PR?_SEND_ST7735_COMMAND?LCD
  +--> ?PR?_SEND_ST7735_DATA?LCD

?PR?_SEND_ST7735_COMMAND?LCD               -----    -----
  +--> ?PR?_SPI_WRITEBYTE?SPI

?PR?_SEND_ST7735_DATA?LCD                  -----    -----
  +--> ?PR?_SPI_WRITEBYTE?SPI

?PR?SST25VF_INIT?PCT25VF                   -----    -----
  +--> ?PR?SPINORMALMODE?SPI
  +--> ?PR?READ_STATUS_REGISTER?PCT25VF
  +--> ?PR?_SEND_DATA_BYTE?USART
  +--> ?PR?EWSR?PCT25VF
  +--> ?PR?_DELAYMS?LCD
  +--> ?PR?_WRSR?PCT25VF
  +--> ?PR?SPILCDMODE?SPI

?PR?READ_STATUS_REGISTER?PCT25VF           -----    -----
  +--> ?PR?CE_LOW?PCT25VF
  +--> ?PR?_SEND_BYTE?PCT25VF
  +--> ?PR?GET_BYTE?PCT25VF
  +--> ?PR?CE_HIGH?PCT25VF

?PR?_SEND_BYTE?PCT25VF                     -----    -----
  +--> ?PR?_SPI_WRITEBYTE?SPI

?PR?GET_BYTE?PCT25VF                       -----    -----
  +--> ?PR?_SPI_WRITEBYTE?SPI

?PR?EWSR?PCT25VF                           -----    -----
  +--> ?PR?CE_LOW?PCT25VF
  +--> ?PR?_SEND_BYTE?PCT25VF
  +--> ?PR?CE_HIGH?PCT25VF

?PR?_WRSR?PCT25VF                          024CH    0002H
  +--> ?PR?CE_LOW?PCT25VF
  +--> ?PR?_SEND_BYTE?PCT25VF
  +--> ?PR?CE_HIGH?PCT25VF

?PR?_READ_CONT?PCT25VF                     0280H    000FH
  +--> ?PR?SPINORMALMODE?SPI
  +--> ?PR?CE_LOW?PCT25VF
  +--> ?PR?_SEND_BYTE?PCT25VF
  +--> ?PR?GET_BYTE?PCT25VF
  +--> ?PR?CE_HIGH?PCT25VF
  +--> ?PR?SPILCDMODE?SPI

?PR?SHOWPOWERUPFACE?LCD                    024CH    0002H
BL51 BANKED LINKER/LOCATER V6.22                                                      02/18/2019  11:57:09  PAGE 9


  +--> ?PR?_LCD_CLEAR?LCD
  +--> ?CO?LCD
  +--> ?PR?_DISPLAYCHINESESTRING?LCD
  +--> ?PR?_DISPLAYASCIISTRING?LCD
  +--> ?PR?_DISPLAYDIGITSTRING?LCD

?PR?_LCD_CLEAR?LCD                         0259H    0004H
  +--> ?PR?_SET_DISPLAY_AREA?LCD
  +--> ?PR?_SEND_ST7735_COMMAND?LCD
  +--> ?PR?_SEND_ST7735_DATA?LCD

?PR?_SET_DISPLAY_AREA?LCD                  0276H    0004H
  +--> ?PR?_SEND_ST7735_COMMAND?LCD
  +--> ?PR?_SEND_ST7735_DATA?LCD

?PR?_DISPLAYCHINESESTRING?LCD              0259H    0011H
  +--> ?PR?_GET_GT23_DATA1?GT23
  +--> ?PR?_DISPLAY_CHINESE?LCD
  +--> ?PR?_CHINESEXDIRECTIONINCREASE?LCD

?PR?_GET_GT23_DATA1?GT23                   026AH    0016H
  +--> ?PR?SPINORMALMODE?SPI
  +--> ?PR?_READ_CONT?PCT25VF
  +--> ?PR?SPILCDMODE?SPI

?PR?_DISPLAY_CHINESE?LCD                   026AH    000CH
  +--> ?PR?_SET_DISPLAY_AREA?LCD
  +--> ?PR?_SEND_ST7735_COMMAND?LCD
  +--> ?PR?_SEND_ST7735_DATA?LCD

?PR?_CHINESEXDIRECTIONINCREASE?LCD         026AH    0007H

?PR?_DISPLAYASCIISTRING?LCD                0255H    0011H
  +--> ?CO?LCD
  +--> ?PR?_GET_GT23_DATA?GT23
  +--> ?PR?_DISPLAY_ASCII?LCD
  +--> ?PR?_ASCIIXDIRECTIONINCREASE?LCD

?PR?_GET_GT23_DATA?GT23                    0266H    0013H
  +--> ?PR?SPINORMALMODE?SPI
  +--> ?PR?_READ_CONT?PCT25VF
  +--> ?PR?SPILCDMODE?SPI

?PR?_DISPLAY_ASCII?LCD                     0266H    000CH
  +--> ?PR?_SET_DISPLAY_AREA?LCD
  +--> ?PR?_SEND_ST7735_COMMAND?LCD
  +--> ?PR?_SEND_ST7735_DATA?LCD

?PR?_ASCIIXDIRECTIONINCREASE?LCD           0266H    0007H

?PR?_DISPLAYDIGITSTRING?LCD                0255H    0011H
  +--> ?PR?_GET_GT23_DATA?GT23
  +--> ?PR?_DISPLAY_ASCII?LCD
  +--> ?PR?_ASCIIXDIRECTIONINCREASE?LCD

?PR?BUS0MANAGE?SINGLEBUS                   -----    -----
  +--> ?PR?_OSQPOST?OS_Q
BL51 BANKED LINKER/LOCATER V6.22                                                      02/18/2019  11:57:09  PAGE 10


  +--> ?PR?_OSWAIT?OS_CORE

?PR?_OSQPOST?OS_Q                          -----    -----
  +--> ?CO?OS_CORE
  +--> ?PR?_OSTASKRESUME?OS_CORE

?PR?_OSTASKRESUME?OS_CORE                  -----    -----
  +--> ?CO?OS_CORE
  +--> ?PR?OSSCHED?OS_CORE

?PR?_OSWAIT?OS_CORE                        -----    -----
  +--> ?PR?_OSTASKSUSPEND?OS_CORE
  +--> ?PR?_OSTIMEDLY?OS_CORE
  +--> ?PR?_OS_TASKSUSPEND?OS_CORE
  +--> ?PR?OSSCHED?OS_CORE

?PR?_OSTASKSUSPEND?OS_CORE                 -----    -----
  +--> ?PR?_OS_TASKSUSPEND?OS_CORE
  +--> ?PR?OSSCHED?OS_CORE

?PR?_OS_TASKSUSPEND?OS_CORE                -----    -----
  +--> ?CO?OS_CORE

?PR?_OSTIMEDLY?OS_CORE                     -----    -----
  +--> ?PR?_OS_TASKSUSPEND?OS_CORE
  +--> ?PR?OSSCHED?OS_CORE

?PR?__OSTASKCREATE?OS_CORE                 -----    -----
  +--> ?CO?OS_CORE
  +--> ?PR?_OSTASKSTKINIT?OS_CPU_A
  +--> ?PR?OSSCHED?OS_CORE

?PR?_OSTASKSTKINIT?OS_CPU_A                -----    -----
  +--> ?CO?OS_CORE

?PR?KEYMANAGER?KEY                         -----    -----
  +--> ?PR?_OSWAIT?OS_CORE
  +--> ?PR?KEYSCAN?KEY
  +--> ?PR?_OSQPOST?OS_Q

?PR?DISPMANAGER?LCD                        -----    -----
  +--> ?PR?SHOWLANDINGFACE?LCD
  +--> ?PR?_OSWAIT?OS_CORE

?PR?SHOWLANDINGFACE?LCD                    0251H    0004H
  +--> ?PR?_DISPLAYDIGITSTRING?LCD
  +--> ?CO?LCD
  +--> ?PR?_DISPLAYCHINESESTRING?LCD
  +--> ?PR?_DISPLAYASCIISTRING?LCD
  +--> ?PR?_DISPLAYBLOCK?LCD

?PR?_DISPLAYBLOCK?LCD                      0255H    000BH
  +--> ?PR?_SET_DISPLAY_AREA?LCD
  +--> ?PR?_SEND_ST7735_COMMAND?LCD
  +--> ?PR?_SEND_ST7735_DATA?LCD

?PR?TIMEROUTMANAGER?SINGLEBUS              -----    -----
BL51 BANKED LINKER/LOCATER V6.22                                                      02/18/2019  11:57:09  PAGE 11


  +--> ?PR?_OSWAIT?OS_CORE
  +--> ?PR?_OSQPOST?OS_Q

?PR?_GETMESSAGE?MAIN                       -----    -----
  +--> ?PR?_OSQPEND?OS_Q

?PR?_OSQPEND?OS_Q                          -----    -----
  +--> ?CO?OS_CORE
  +--> ?PR?_OS_TASKSUSPEND?OS_CORE
  +--> ?PR?OSSCHED?OS_CORE

?PR?_DISPATCHMESSAGE?MAIN                  024CH    0001H
  +--> ?PR?BUS0RECDEAL?SINGLEBUS
  +--> ?PR?BUS0SENDDEAL?SINGLEBUS
  +--> ?PR?_KEYDOWNDEAL?KEY
  +--> ?PR?_KEYALWAYSDEAL?KEY
  +--> ?PR?_KEYUPDEAL?KEY
  +--> ?PR?TIMEROUTDEAL?SINGLEBUS

?PR?BUS0RECDEAL?SINGLEBUS                  024DH    0004H
  +--> ?PR?_MAKECH0TIMEROUT?SINGLEBUS
  +--> ?PR?_BYTE_WRITE?PCT25VF
  +--> ?PR?_BYTE_WRITE1?PCT25VF
  +--> ?PR?_SAVEPARAMETER?SINGLEBUS
  +--> ?PR?_SETLEDSTATE?KEY
  +--> ?PR?SHOWCALLSUCCESS?LCD
  +--> ?PR?SHOWTALKFACE?LCD
  +--> ?PR?_DISPLAYDIGITSTRING?LCD
  +--> ?PR?SHOWBROADFACE?LCD
  +--> ?PR?_DIRADDRCOMPARE?SINGLEBUS
  +--> ?PR?_ADDRCOMPARE?SINGLEBUS
  +--> ?PR?SHOWLANDINGFACE?LCD
  +--> ?PR?_BUS0OUTPUTDATA?SINGLEBUS
  +--> ?PR?USARTINIT?USART

?PR?_BYTE_WRITE?PCT25VF                    0251H    0005H
  +--> ?PR?WREN?PCT25VF
  +--> ?PR?_SECTOR_ERASE?PCT25VF
  +--> ?PR?WAIT_BUSY?PCT25VF
  +--> ?PR?_BYTE_PROGRAM?PCT25VF

?PR?WREN?PCT25VF                           -----    -----
  +--> ?PR?CE_LOW?PCT25VF
  +--> ?PR?_SEND_BYTE?PCT25VF
  +--> ?PR?CE_HIGH?PCT25VF
  +--> ?PR?WAIT_BUSY?PCT25VF

?PR?WAIT_BUSY?PCT25VF                      025CH    0002H
  +--> ?PR?READ_STATUS_REGISTER?PCT25VF
  +--> ?PR?_DELAY_NUS?PCT25VF

?PR?_SECTOR_ERASE?PCT25VF                  0257H    0004H
  +--> ?PR?CE_LOW?PCT25VF
  +--> ?PR?_SEND_BYTE?PCT25VF
  +--> ?PR?CE_HIGH?PCT25VF

?PR?_BYTE_PROGRAM?PCT25VF                  025CH    0005H
BL51 BANKED LINKER/LOCATER V6.22                                                      02/18/2019  11:57:09  PAGE 12


  +--> ?PR?CE_LOW?PCT25VF
  +--> ?PR?_SEND_BYTE?PCT25VF
  +--> ?PR?CE_HIGH?PCT25VF

?PR?_BYTE_WRITE1?PCT25VF                   0257H    0005H
  +--> ?PR?WREN?PCT25VF
  +--> ?PR?_BYTE_PROGRAM?PCT25VF
  +--> ?PR?WAIT_BUSY?PCT25VF

?PR?SHOWCALLSUCCESS?LCD                    0251H    0002H
  +--> ?PR?_LCD_CLEAR?LCD
  +--> ?CO?LCD
  +--> ?PR?_DISPLAYCHINESESTRING?LCD

?PR?SHOWTALKFACE?LCD                       0251H    0002H
  +--> ?PR?_LCD_CLEAR?LCD
  +--> ?CO?LCD
  +--> ?PR?_DISPLAYCHINESESTRING?LCD

?PR?SHOWBROADFACE?LCD                      0251H    0002H
  +--> ?PR?_LCD_CLEAR?LCD
  +--> ?CO?LCD
  +--> ?PR?_DISPLAYCHINESESTRING?LCD

?PR?_BUS0OUTPUTDATA?SINGLEBUS              0251H    0004H

?PR?BUS0SENDDEAL?SINGLEBUS                 -----    -----
  +--> ?PR?_MAKECH0TIMEROUT?SINGLEBUS

?PR?_KEYDOWNDEAL?KEY                       024DH    0001H
  +--> ?PR?_SHOWFACE?LCD
  +--> ?PR?SHOWLANDINGFACE?LCD
  +--> ?PR?_BUS0OUTPUTDATA?SINGLEBUS

?PR?_SHOWFACE?LCD                          024FH    000AH
  +--> ?PR?_LCD_CLEAR?LCD
  +--> ?CO?LCD
  +--> ?PR?_DISPLAYCHINESESTRING?LCD
  +--> ?PR?_READ_CONT?PCT25VF
  +--> ?PR?_SEND_DATA?USART
  +--> ?PR?_DISPLAYONESCREEN?LCD

?PR?_SEND_DATA?USART                       0259H    0004H

?PR?_DISPLAYONESCREEN?LCD                  0259H    000CH
  +--> ?PR?_GET_GT23_DATA1?GT23
  +--> ?PR?_DISPLAY_CHINESE?LCD
  +--> ?PR?_GET_GT23_DATA?GT23
  +--> ?PR?_DISPLAY_ASCII?LCD

?PR?_KEYALWAYSDEAL?KEY                     -----    -----
  +--> ?PR?_BUS0OUTPUTDATA?SINGLEBUS

?PR?_KEYUPDEAL?KEY                         -----    -----
  +--> ?PR?_BUS0OUTPUTDATA?SINGLEBUS

?PR?TIMEROUTDEAL?SINGLEBUS                 024DH    0002H
BL51 BANKED LINKER/LOCATER V6.22                                                      02/18/2019  11:57:09  PAGE 13


  +--> ?PR?_BUS0OUTPUTDATA?SINGLEBUS
  +--> ?CO?LCD
  +--> ?PR?_DISPLAY_ASCII?LCD
  +--> ?PR?_DISPLAYBLOCK?LCD
  +--> ?PR?SHOWLANDINGFACE?LCD

?PR?USART0RECDEAL?USART                    024CH    0003H
  +--> ?PR?_CHECKPSK?USART
  +--> ?PR?SPINORMALMODE?SPI
  +--> ?PR?WREN?PCT25VF
  +--> ?PR?_BLOCK_ERASE_32K?PCT25VF
  +--> ?PR?WAIT_BUSY?PCT25VF
  +--> ?PR?_AAI_WRITE1?PCT25VF
  +--> ?PR?SPILCDMODE?SPI
  +--> ?PR?_AAI_WRITE?PCT25VF
  +--> ?PR?_SHOWFACE?LCD
  +--> ?PR?_BUS0OUTPUTDATA?SINGLEBUS

?PR?_CHECKPSK?USART                        024FH    0008H

?PR?_BLOCK_ERASE_32K?PCT25VF               024FH    0004H
  +--> ?PR?CE_LOW?PCT25VF
  +--> ?PR?_SEND_BYTE?PCT25VF
  +--> ?PR?CE_HIGH?PCT25VF

?PR?_AAI_WRITE1?PCT25VF                    024FH    0008H
  +--> ?PR?_BYTE_WRITE1?PCT25VF
  +--> ?PR?WREN?PCT25VF
  +--> ?PR?_BYTE_PROGRAM?PCT25VF
  +--> ?PR?WAIT_BUSY?PCT25VF

?PR?_AAI_WRITE?PCT25VF                     024FH    0008H
  +--> ?PR?WREN?PCT25VF
  +--> ?PR?_SECTOR_ERASE?PCT25VF
  +--> ?PR?WAIT_BUSY?PCT25VF
  +--> ?PR?_BYTE_WRITE1?PCT25VF
  +--> ?PR?_BYTE_PROGRAM?PCT25VF

?C_INITSEG                                 -----    -----
  +--> ?CO?MAIN



SYMBOL TABLE OF MODULE:  CTFJ-SB-TM018-V31 (GT23)

  VALUE           TYPE          NAME
  ----------------------------------

  -------         MODULE        GT23
  C:0000H         SYMBOL        _ICE_DUMMY_
  D:0080H         PUBLIC        P0
  D:0090H         PUBLIC        P1
  D:00A0H         PUBLIC        P2
  D:00B0H         PUBLIC        P3
  D:00C0H         PUBLIC        P4
  D:00C8H         PUBLIC        P5
  D:00A8H         PUBLIC        IE
BL51 BANKED LINKER/LOCATER V6.22                                                      02/18/2019  11:57:09  PAGE 14


  C:1B0EH         PUBLIC        _Get_GT23_Data1
  X:01C3H         PUBLIC        GT23_32Address
  D:00B8H         PUBLIC        IP
  D:00D8H         PUBLIC        CCON
  D:0098H         PUBLIC        SCON
  D:0088H         PUBLIC        TCON
  X:01C7H         PUBLIC        GT23_Rec_Length
  D:00E0H         PUBLIC        ACC
  C:517AH         PUBLIC        Rec_GT23_Data
  X:01C8H         PUBLIC        GT23_Rec_Data
  X:0248H         PUBLIC        GT23_16HAddress
  C:207FH         PUBLIC        _Get_GT23_Data
  X:024AH         PUBLIC        GT23_16LAddress
  D:00D0H         PUBLIC        PSW
  D:00CFH         PUBLIC        SPDAT
  -------         PROC          REC_GT23_DATA
  C:517AH         LINE#         57
  C:517AH         LINE#         58
  C:517AH         LINE#         59
  C:517FH         LINE#         60
  C:5181H         LINE#         61
  -------         ENDPROC       REC_GT23_DATA
  -------         PROC          _GET_GT23_DATA
  X:0266H         SYMBOL        highbyte
  X:0267H         SYMBOL        lowbyte
  X:0268H         SYMBOL        word_size
  -------         DO            
  X:0269H         SYMBOL        address1
  X:026DH         SYMBOL        address2
  X:0271H         SYMBOL        address3
  X:0275H         SYMBOL        address4
  -------         ENDDO         
  C:207FH         LINE#         94
  C:208AH         LINE#         95
  C:208AH         LINE#         97
  C:208DH         LINE#         99
  C:20AAH         LINE#         100
  C:20AAH         LINE#         101
  C:20B8H         LINE#         102
  C:20B8H         LINE#         104
  C:20B8H         LINE#         105
  C:20B8H         LINE#         106
  C:20DAH         LINE#         107
  C:20EEH         LINE#         108
  C:20FEH         LINE#         109
  C:2101H         LINE#         111
  C:2101H         LINE#         112
  C:211BH         LINE#         113
  C:213BH         LINE#         114
  C:214BH         LINE#         115
  C:214DH         LINE#         117
  C:214DH         LINE#         118
  C:216CH         LINE#         119
  C:218CH         LINE#         120
  C:219FH         LINE#         121
  C:21A2H         LINE#         123
  C:21A2H         LINE#         124
BL51 BANKED LINKER/LOCATER V6.22                                                      02/18/2019  11:57:09  PAGE 15


  C:21A2H         LINE#         125
  C:21CCH         LINE#         126
  C:21CCH         LINE#         127
  C:21D7H         LINE#         128
  C:21D7H         LINE#         129
  C:21D7H         LINE#         130
  C:21D7H         LINE#         131
  C:21F1H         LINE#         132
  C:221BH         LINE#         133
  C:2238H         LINE#         134
  C:2256H         LINE#         135
  C:2269H         LINE#         136
  C:226CH         LINE#         137
  C:226CH         LINE#         138
  C:2286H         LINE#         139
  C:22B0H         LINE#         140
  C:22CDH         LINE#         141
  C:22ECH         LINE#         142
  C:230DH         LINE#         143
  C:230DH         LINE#         144
  C:230DH         LINE#         146
  C:230DH         LINE#         148
  -------         ENDPROC       _GET_GT23_DATA
  -------         PROC          _GET_GT23_DATA1
  X:026AH         SYMBOL        word
  X:026DH         SYMBOL        word_size
  -------         DO            
  X:026EH         SYMBOL        address1
  X:0272H         SYMBOL        address2
  X:0276H         SYMBOL        address3
  X:027AH         SYMBOL        address4
  X:027EH         SYMBOL        highbyte
  X:027FH         SYMBOL        lowbyte
  -------         ENDDO         
  C:1B0EH         LINE#         163
  C:1B1CH         LINE#         164
  C:1B1CH         LINE#         167
  C:1B1FH         LINE#         170
  C:1B32H         LINE#         171
  C:1B3CH         LINE#         172
  C:1B4EH         LINE#         173
  C:1B64H         LINE#         174
  C:1B64H         LINE#         175
  C:1B74H         LINE#         176
  C:1B74H         LINE#         178
  C:1B74H         LINE#         179
  C:1B74H         LINE#         180
  C:1B93H         LINE#         181
  C:1BA7H         LINE#         182
  C:1BB7H         LINE#         183
  C:1BBAH         LINE#         185
  C:1BBAH         LINE#         186
  C:1BD4H         LINE#         187
  C:1BF4H         LINE#         188
  C:1C04H         LINE#         189
  C:1C06H         LINE#         191
  C:1C06H         LINE#         192
BL51 BANKED LINKER/LOCATER V6.22                                                      02/18/2019  11:57:09  PAGE 16


  C:1C25H         LINE#         193
  C:1C45H         LINE#         194
  C:1C58H         LINE#         195
  C:1C5BH         LINE#         197
  C:1C5BH         LINE#         198
  C:1C5BH         LINE#         199
  C:1C85H         LINE#         200
  C:1C85H         LINE#         201
  C:1C92H         LINE#         202
  C:1C92H         LINE#         203
  C:1C92H         LINE#         204
  C:1C92H         LINE#         205
  C:1CACH         LINE#         206
  C:1CD6H         LINE#         207
  C:1CF3H         LINE#         208
  C:1D11H         LINE#         209
  C:1D24H         LINE#         210
  C:1D27H         LINE#         211
  C:1D27H         LINE#         212
  C:1D41H         LINE#         213
  C:1D6BH         LINE#         214
  C:1D88H         LINE#         215
  C:1DA7H         LINE#         216
  C:1DC8H         LINE#         217
  C:1DC8H         LINE#         218
  C:1DC8H         LINE#         220
  C:1DC8H         LINE#         223
  -------         ENDPROC       _GET_GT23_DATA1
  -------         ENDMOD        GT23

  -------         MODULE        IAP
  C:0000H         SYMBOL        _ICE_DUMMY_
  D:0080H         PUBLIC        P0
  D:0090H         PUBLIC        P1
  D:00A0H         PUBLIC        P2
  D:00B0H         PUBLIC        P3
  D:00C0H         PUBLIC        P4
  D:00C8H         PUBLIC        P5
  D:00A8H         PUBLIC        IE
  C:501FH         PUBLIC        _IapErase
  D:00C5H         PUBLIC        IAP_CMD
  C:5182H         PUBLIC        DisableIAP
  D:00B8H         PUBLIC        IP
  D:00C3H         PUBLIC        IAP_ADDRH
  D:00D8H         PUBLIC        CCON
  D:00C4H         PUBLIC        IAP_ADDRL
  C:51ADH         PUBLIC        _EnableIAP
  C:4FE4H         PUBLIC        _IapReadByte
  D:0098H         PUBLIC        SCON
  D:0088H         PUBLIC        TCON
  C:4FCEH         PUBLIC        _IapWriteByte
  D:00C7H         PUBLIC        IAP_CONTR
  D:00E0H         PUBLIC        ACC
  D:00C2H         PUBLIC        IAP_DATA
  D:00C6H         PUBLIC        IAP_TRIG
  D:00D0H         PUBLIC        PSW
  -------         PROC          _ENABLEIAP
BL51 BANKED LINKER/LOCATER V6.22                                                      02/18/2019  11:57:09  PAGE 17


  D:0007H         SYMBOL        byCmd
  C:51ADH         LINE#         42
  C:51ADH         LINE#         43
  C:51ADH         LINE#         44
  C:51B0H         LINE#         45
  C:51B2H         LINE#         46
  -------         ENDPROC       _ENABLEIAP
  -------         PROC          DISABLEIAP
  C:5182H         LINE#         62
  C:5182H         LINE#         63
  C:5182H         LINE#         64
  C:5185H         LINE#         65
  C:5187H         LINE#         66
  C:5189H         LINE#         67
  -------         ENDPROC       DISABLEIAP
  -------         PROC          _IAPWRITEBYTE
  D:0002H         SYMBOL        uiAddr
  D:0005H         SYMBOL        byData
  C:4FCEH         LINE#         83
  C:4FD2H         LINE#         84
  C:4FD2H         LINE#         85
  C:4FD6H         LINE#         86
  C:4FD9H         LINE#         87
  C:4FDDH         LINE#         88
  C:4FE0H         LINE#         89
  C:4FE3H         LINE#         90
  -------         ENDPROC       _IAPWRITEBYTE
  -------         PROC          _IAPREADBYTE
  D:0004H         SYMBOL        uiAddr
  C:4FE4H         LINE#         106
  C:4FE8H         LINE#         107
  C:4FE8H         LINE#         108
  C:4FEBH         LINE#         109
  C:4FEFH         LINE#         110
  C:4FF2H         LINE#         111
  C:4FF5H         LINE#         112
  C:4FF7H         LINE#         113
  -------         ENDPROC       _IAPREADBYTE
  -------         PROC          _IAPERASE
  D:0004H         SYMBOL        uiAddr
  C:501FH         LINE#         130
  C:5023H         LINE#         131
  C:5023H         LINE#         132
  C:5026H         LINE#         133
  C:502AH         LINE#         134
  C:502DH         LINE#         135
  C:5030H         LINE#         136
  -------         ENDPROC       _IAPERASE
  -------         ENDMOD        IAP

  -------         MODULE        KEY
  C:0000H         SYMBOL        _ICE_DUMMY_
  D:0080H         PUBLIC        P0
  D:0090H         PUBLIC        P1
  D:00A0H         PUBLIC        P2
  D:00B0H         PUBLIC        P3
  X:0355H         PUBLIC        MainMenuSelect
BL51 BANKED LINKER/LOCATER V6.22                                                      02/18/2019  11:57:09  PAGE 18


  B:00A0H.3       PUBLIC        DOWN_KEY
  D:00C0H         PUBLIC        P4
  D:00C8H         PUBLIC        P5
  D:00A8H         PUBLIC        IE
  C:4502H         PUBLIC        _KeyAlwaysDeal
  B:00C8H.1       PUBLIC        BL_SW
  D:00B8H         PUBLIC        IP
  D:00D8H         PUBLIC        CCON
  B:00A0H.0       PUBLIC        ESC_KEY
  C:4CE9H         PUBLIC        KeyScan
  D:0098H         PUBLIC        SCON
  D:0088H         PUBLIC        TCON
  C:34C2H         PUBLIC        _KeyDownDeal
  D:00E0H         PUBLIC        ACC
  C:50CFH         PUBLIC        _SetLedState
  B:00A0H.2       PUBLIC        ENTER_KEY
  B:00C8H.0       PUBLIC        LED
  D:00C1H         PUBLIC        WDT_CONTR
  B:00A0H.4       PUBLIC        CALL_KEY
  C:44B5H         PUBLIC        _KeyUpDeal
  C:3CA4H         PUBLIC        KeyManager
  B:00A0H.1       PUBLIC        UP_KEY
  D:00D0H         PUBLIC        PSW
  -------         PROC          _SETLEDSTATE
  D:0007H         SYMBOL        byState
  C:50CFH         LINE#         44
  C:50CFH         LINE#         45
  C:50CFH         LINE#         46
  C:50D4H         LINE#         47
  C:50D6H         LINE#         48
  C:50DBH         LINE#         49
  -------         ENDPROC       _SETLEDSTATE
  -------         PROC          KEYSCAN
  C:4CE9H         LINE#         68
  C:4CE9H         LINE#         69
  C:4CE9H         LINE#         70
  C:4CECH         LINE#         71
  C:4CECH         LINE#         72
  C:4CEFH         LINE#         73
  C:4CEFH         LINE#         76
  C:4CF0H         LINE#         77
  C:4CF1H         LINE#         78
  C:4CF4H         LINE#         79
  C:4CF4H         LINE#         81
  C:4CF7H         LINE#         82
  C:4CF7H         LINE#         84
  C:4CF8H         LINE#         85
  C:4CF9H         LINE#         86
  C:4CFCH         LINE#         87
  C:4CFCH         LINE#         88
  C:4CFFH         LINE#         89
  C:4CFFH         LINE#         91
  C:4D00H         LINE#         92
  C:4D01H         LINE#         93
  C:4D04H         LINE#         94
  C:4D04H         LINE#         95
  C:4D07H         LINE#         96
BL51 BANKED LINKER/LOCATER V6.22                                                      02/18/2019  11:57:09  PAGE 19


  C:4D07H         LINE#         98
  C:4D08H         LINE#         99
  C:4D09H         LINE#         100
  C:4D0CH         LINE#         101
  C:4D0CH         LINE#         102
  C:4D0FH         LINE#         103
  C:4D0FH         LINE#         105
  C:4D11H         LINE#         106
  -------         ENDPROC       KEYSCAN
  -------         PROC          KEYMANAGER
  -------         DO            
  X:0353H         SYMBOL        byKeyValue
  X:0354H         SYMBOL        byKeyDelay
  C:3D1CH         SYMBOL        KeyUp
  -------         ENDDO         
  C:3CA4H         LINE#         122
  C:3CA4H         LINE#         123
  C:3CA4H         LINE#         127
  C:3CA4H         LINE#         128
  C:3CA4H         LINE#         129
  C:3CA7H         LINE#         130
  C:3CAEH         LINE#         131
  C:3CB6H         LINE#         132
  C:3CB9H         LINE#         133
  C:3CB9H         LINE#         134
  C:3CB9H         LINE#         135
  C:3CB9H         LINE#         136
  C:3CC0H         LINE#         137
  C:3CCBH         LINE#         138
  C:3CCBH         LINE#         139
  C:3CCBH         LINE#         140
  C:3CCBH         LINE#         141
  C:3CD4H         LINE#         143
  C:3CDAH         LINE#         144
  C:3CE4H         LINE#         145
  C:3CE4H         LINE#         146
  C:3CE7H         LINE#         147
  C:3CF1H         LINE#         148
  C:3CF1H         LINE#         149
  C:3CF8H         LINE#         150
  C:3CFAH         LINE#         152
  C:3CFAH         LINE#         153
  C:3CFAH         LINE#         154
  C:3CFAH         LINE#         155
  C:3CFAH         LINE#         156
  C:3D06H         LINE#         157
  C:3D10H         LINE#         158
  C:3D10H         LINE#         159
  C:3D13H         LINE#         160
  C:3D1AH         LINE#         161
  C:3D1CH         LINE#         162
  C:3D1CH         LINE#         163
  C:3D28H         LINE#         164
  -------         ENDPROC       KEYMANAGER
  -------         PROC          _KEYDOWNDEAL
  X:024DH         SYMBOL        byKey
  C:34C2H         LINE#         181
BL51 BANKED LINKER/LOCATER V6.22                                                      02/18/2019  11:57:09  PAGE 20


  C:34C7H         LINE#         182
  C:34C7H         LINE#         183
  C:34CAH         LINE#         186
  C:34D3H         LINE#         187
  C:34D5H         LINE#         189
  C:34DBH         LINE#         190
  C:34DBH         LINE#         192
  C:34DBH         LINE#         195
  C:34F2H         LINE#         196
  C:34F2H         LINE#         197
  C:34F2H         LINE#         198
  C:3501H         LINE#         199
  C:3503H         LINE#         200
  C:3503H         LINE#         201
  C:3505H         LINE#         203
  C:3505H         LINE#         204
  C:3514H         LINE#         205
  C:3516H         LINE#         206
  C:3516H         LINE#         207
  C:3518H         LINE#         209
  C:3518H         LINE#         210
  C:3527H         LINE#         211
  C:352CH         LINE#         212
  C:3536H         LINE#         213
  C:3537H         LINE#         215
  C:3537H         LINE#         216
  C:353FH         LINE#         217
  C:353FH         LINE#         218
  C:3544H         LINE#         219
  C:354AH         LINE#         220
  C:354DH         LINE#         221
  C:354DH         LINE#         222
  C:354DH         LINE#         224
  C:354DH         LINE#         225
  C:3555H         LINE#         226
  C:355DH         LINE#         227
  C:3565H         LINE#         228
  C:356DH         LINE#         229
  C:3575H         LINE#         230
  C:357DH         LINE#         231
  C:3587H         LINE#         232
  C:3590H         LINE#         233
  C:3590H         LINE#         235
  C:3590H         LINE#         236
  -------         ENDPROC       _KEYDOWNDEAL
  -------         PROC          _KEYUPDEAL
  D:0007H         SYMBOL        byKey
  C:44B5H         LINE#         252
  C:44B5H         LINE#         253
  C:44B5H         LINE#         254
  C:44B9H         LINE#         256
  C:44BCH         LINE#         257
  C:44BCH         LINE#         259
  C:44BCH         LINE#         261
  C:44C1H         LINE#         262
  C:44C1H         LINE#         263
  C:44C1H         LINE#         264
BL51 BANKED LINKER/LOCATER V6.22                                                      02/18/2019  11:57:09  PAGE 21


  C:44C1H         LINE#         265
  C:44C1H         LINE#         266
  C:44C1H         LINE#         267
  C:44C1H         LINE#         268
  C:44C1H         LINE#         269
  C:44C9H         LINE#         270
  C:44D1H         LINE#         271
  C:44D9H         LINE#         272
  C:44E1H         LINE#         273
  C:44E9H         LINE#         274
  C:44F1H         LINE#         275
  C:44F8H         LINE#         276
  C:4501H         LINE#         277
  C:4501H         LINE#         278
  C:4501H         LINE#         280
  -------         ENDPROC       _KEYUPDEAL
  -------         PROC          _KEYALWAYSDEAL
  D:0007H         SYMBOL        byKey
  C:4502H         LINE#         296
  C:4502H         LINE#         297
  C:4502H         LINE#         298
  C:4506H         LINE#         301
  C:4509H         LINE#         302
  C:4509H         LINE#         304
  C:4509H         LINE#         306
  C:450EH         LINE#         307
  C:450EH         LINE#         308
  C:450EH         LINE#         309
  C:450EH         LINE#         310
  C:450EH         LINE#         311
  C:450EH         LINE#         312
  C:450EH         LINE#         313
  C:450EH         LINE#         314
  C:4516H         LINE#         315
  C:451EH         LINE#         316
  C:4526H         LINE#         317
  C:452EH         LINE#         318
  C:4536H         LINE#         319
  C:453EH         LINE#         320
  C:4545H         LINE#         321
  C:454EH         LINE#         322
  C:454EH         LINE#         323
  C:454EH         LINE#         325
  -------         ENDPROC       _KEYALWAYSDEAL
  -------         ENDMOD        KEY

  -------         MODULE        LCD
  C:0000H         SYMBOL        _ICE_DUMMY_
  C:3591H         PUBLIC        _Display_Chinese
  D:0080H         PUBLIC        P0
  C:3A76H         PUBLIC        ShowCallSuccess
  C:459BH         PUBLIC        ShowBroadFace
  D:0090H         PUBLIC        P1
  B:0090H.1       PUBLIC        LCD_CS7
  D:00A0H         PUBLIC        P2
  D:00B0H         PUBLIC        P3
  D:00C0H         PUBLIC        P4
BL51 BANKED LINKER/LOCATER V6.22                                                      02/18/2019  11:57:09  PAGE 22


  D:00C8H         PUBLIC        P5
  C:4A16H         PUBLIC        _Display_HLine
  D:00A8H         PUBLIC        IE
  C:50F6H         PUBLIC        _Send_ST7735_Command
  C:2516H         PUBLIC        _ShowFace
  X:011BH         PUBLIC        DispDataBuff
  X:01BBH         PUBLIC        ASCII_BCD
  D:00DAH         PUBLIC        CCAPM0
  B:00C8H.1       PUBLIC        BL_SW
  D:00B8H         PUBLIC        IP
  C:3138H         PUBLIC        _DisplayChineseString
  C:5198H         PUBLIC        ShowPromptFace
  C:33E9H         PUBLIC        _ASCIIXDirectionIncrease
  C:4ABDH         PUBLIC        _Display_VLine
  C:518AH         PUBLIC        ShowDietFace
  C:5191H         PUBLIC        ShowPrescriptionFace
  C:454FH         PUBLIC        ShowTalkFace
  D:00D8H         PUBLIC        CCON
  C:3308H         PUBLIC        _Display_ASCII
  X:01BEH         PUBLIC        fontbuf1
  X:01BFH         PUBLIC        fontbuf2
  B:00C0H.4       PUBLIC        LCD_RST
  D:0098H         PUBLIC        SCON
  C:1DCBH         PUBLIC        ShowMainMenuFace
  D:0088H         PUBLIC        TCON
  C:2F34H         PUBLIC        _DisplayASCIIString
  C:384AH         PUBLIC        ColonCode16x32
  C:2CC1H         PUBLIC        _lcd_fangda_dis_text
  C:4376H         PUBLIC        _Set_Display_Area
  C:4317H         PUBLIC        _DisplayASCII
  X:01C0H         PUBLIC        DisplayedLen
  D:00E0H         PUBLIC        ACC
  C:5036H         PUBLIC        _Send_ST7735_Data
  C:3211H         PUBLIC        _DisplayBlock
  C:2BC7H         PUBLIC        _DisplayDigitString
  C:406EH         PUBLIC        _DisplayDigit
  C:5095H         PUBLIC        DispManager
  C:4EFEH         PUBLIC        _Delayms
  C:1821H         PUBLIC        _DisplayString
  C:120FH         PUBLIC        ShowLandingFace
  D:00C1H         PUBLIC        WDT_CONTR
  B:0090H.0       PUBLIC        LCD_RS
  C:4416H         PUBLIC        _Lcd_Clear
  C:0EC2H         PUBLIC        _DisplayOneScreen
  C:4C3EH         PUBLIC        _Display_Dot
  X:01C2H         PUBLIC        CurrentPage
  B:0027H.2       PUBLIC        bSecondDisState
  C:2310H         PUBLIC        ShowPowerUpFace
  C:393CH         PUBLIC        _ChineseXDirectionIncrease
  C:288CH         PUBLIC        ST7735_Init
  D:00D0H         PUBLIC        PSW
  C:425DH         PUBLIC        _Lcd_Fill
  -------         PROC          _DELAYMS
  D:0006H         SYMBOL        ms
  -------         DO            
  D:0004H         SYMBOL        i
  -------         ENDDO         
BL51 BANKED LINKER/LOCATER V6.22                                                      02/18/2019  11:57:09  PAGE 23


  C:4EFEH         LINE#         44
  C:4EFEH         LINE#         45
  C:4EFEH         LINE#         47
  C:4F02H         LINE#         48
  C:4F02H         LINE#         49
  C:4F0FH         LINE#         50
  C:4F12H         LINE#         51
  C:4F19H         LINE#         52
  -------         ENDPROC       _DELAYMS
  -------         PROC          _SEND_ST7735_COMMAND
  D:0007H         SYMBOL        st7735_command
  C:50F6H         LINE#         55
  C:50F6H         LINE#         56
  C:50F6H         LINE#         58
  C:50F8H         LINE#         59
  C:50FAH         LINE#         68
  C:50FDH         LINE#         70
  C:50FFH         LINE#         71
  C:5101H         LINE#         73
  -------         ENDPROC       _SEND_ST7735_COMMAND
  C:5031H         SYMBOL        L?0353
  -------         PROC          L?0352
  -------         ENDPROC       L?0352
  C:5031H         SYMBOL        L?0353
  -------         PROC          _SEND_ST7735_DATA
  D:0007H         SYMBOL        st7735_data
  C:5036H         LINE#         77
  C:5036H         LINE#         78
  C:5036H         LINE#         80
  C:5038H         LINE#         81
  C:503AH         LINE#         89
  C:503DH         LINE#         91
  C:503FH         LINE#         92
  C:5041H         LINE#         94
  -------         ENDPROC       _SEND_ST7735_DATA
  -------         PROC          ST7735_INIT
  C:288CH         LINE#         101
  C:288CH         LINE#         102
  C:288CH         LINE#         103
  C:288EH         LINE#         104
  C:2895H         LINE#         105
  C:2897H         LINE#         106
  C:289EH         LINE#         107
  C:28A0H         LINE#         108
  C:28A7H         LINE#         111
  C:28ACH         LINE#         112
  C:28B3H         LINE#         113
  C:28B8H         LINE#         114
  C:28BDH         LINE#         115
  C:28C2H         LINE#         116
  C:28C7H         LINE#         117
  C:28CCH         LINE#         118
  C:28D1H         LINE#         119
  C:28D6H         LINE#         120
  C:28DBH         LINE#         121
  C:28E0H         LINE#         122
  C:28E5H         LINE#         123
BL51 BANKED LINKER/LOCATER V6.22                                                      02/18/2019  11:57:09  PAGE 24


  C:28EAH         LINE#         124
  C:28EFH         LINE#         125
  C:28F4H         LINE#         126
  C:28F9H         LINE#         127
  C:28FEH         LINE#         128
  C:2903H         LINE#         129
  C:2908H         LINE#         131
  C:290DH         LINE#         132
  C:2912H         LINE#         133
  C:2917H         LINE#         134
  C:291CH         LINE#         135
  C:2921H         LINE#         136
  C:2926H         LINE#         137
  C:292BH         LINE#         138
  C:2930H         LINE#         139
  C:2935H         LINE#         140
  C:293AH         LINE#         141
  C:293FH         LINE#         142
  C:2944H         LINE#         143
  C:2949H         LINE#         144
  C:294EH         LINE#         146
  C:2953H         LINE#         147
  C:2958H         LINE#         148
  C:295DH         LINE#         149
  C:2962H         LINE#         150
  C:2967H         LINE#         151
  C:296CH         LINE#         152
  C:2971H         LINE#         153
  C:2976H         LINE#         154
  C:297BH         LINE#         155
  C:2980H         LINE#         156
  C:2985H         LINE#         157
  C:298AH         LINE#         158
  C:298FH         LINE#         159
  C:2994H         LINE#         161
  C:2999H         LINE#         162
  C:299EH         LINE#         163
  C:29A3H         LINE#         164
  C:29A8H         LINE#         165
  C:29ADH         LINE#         166
  C:29B2H         LINE#         167
  C:29B7H         LINE#         168
  C:29BCH         LINE#         169
  C:29C1H         LINE#         170
  C:29C6H         LINE#         171
  C:29CBH         LINE#         172
  C:29D0H         LINE#         173
  C:29D5H         LINE#         174
  C:29DAH         LINE#         175
  C:29DFH         LINE#         176
  C:29E4H         LINE#         177
  C:29E9H         LINE#         178
  C:29EEH         LINE#         179
  C:29F3H         LINE#         180
  C:29F8H         LINE#         181
  C:29FDH         LINE#         182
  C:2A02H         LINE#         183
BL51 BANKED LINKER/LOCATER V6.22                                                      02/18/2019  11:57:09  PAGE 25


  -------         ENDPROC       ST7735_INIT
  C:4372H         SYMBOL        L?0349
  -------         PROC          L?0348
  -------         ENDPROC       L?0348
  C:4372H         SYMBOL        L?0349
  -------         PROC          _SET_DISPLAY_AREA
  X:0276H         SYMBOL        start_x
  X:0277H         SYMBOL        end_x
  X:0278H         SYMBOL        start_y
  X:0279H         SYMBOL        end_y
  C:4376H         LINE#         211
  C:4381H         LINE#         212
  C:4381H         LINE#         213
  C:4386H         LINE#         214
  C:438BH         LINE#         215
  C:4393H         LINE#         216
  C:4398H         LINE#         217
  C:43A0H         LINE#         218
  C:43A5H         LINE#         219
  C:43AAH         LINE#         220
  C:43B2H         LINE#         221
  C:43B7H         LINE#         222
  -------         ENDPROC       _SET_DISPLAY_AREA
  C:4412H         SYMBOL        L?0351
  -------         PROC          L?0350
  -------         ENDPROC       L?0350
  C:4412H         SYMBOL        L?0351
  -------         PROC          _LCD_CLEAR
  X:0259H         SYMBOL        color
  -------         DO            
  X:025BH         SYMBOL        i
  X:025CH         SYMBOL        j
  -------         ENDDO         
  C:4416H         LINE#         230
  C:441EH         LINE#         231
  C:441EH         LINE#         233
  C:442CH         LINE#         234
  C:4431H         LINE#         235
  C:4436H         LINE#         236
  C:4436H         LINE#         237
  C:443BH         LINE#         238
  C:443BH         LINE#         239
  C:4443H         LINE#         240
  C:444BH         LINE#         241
  C:4457H         LINE#         242
  C:4463H         LINE#         243
  -------         ENDPROC       _LCD_CLEAR
  -------         PROC          _LCD_FILL
  D:0005H         SYMBOL        start_x
  D:0006H         SYMBOL        start_y
  X:030FH         SYMBOL        width
  X:0310H         SYMBOL        height
  X:0311H         SYMBOL        color
  -------         DO            
  X:0313H         SYMBOL        i
  X:0314H         SYMBOL        j
  -------         ENDDO         
BL51 BANKED LINKER/LOCATER V6.22                                                      02/18/2019  11:57:09  PAGE 26


  C:425DH         LINE#         254
  C:4266H         LINE#         255
  C:4266H         LINE#         257
  C:4272H         LINE#         258
  C:4277H         LINE#         259
  C:4289H         LINE#         260
  C:4289H         LINE#         261
  C:4299H         LINE#         262
  C:4299H         LINE#         263
  C:42A1H         LINE#         264
  C:42A9H         LINE#         265
  C:42B1H         LINE#         266
  C:42B9H         LINE#         267
  -------         ENDPROC       _LCD_FILL
  -------         PROC          _DISPLAYBLOCK
  X:0255H         SYMBOL        start_x
  X:0256H         SYMBOL        start_y
  X:0257H         SYMBOL        end_x
  X:0258H         SYMBOL        end_y
  X:0259H         SYMBOL        srgb
  -------         DO            
  X:025AH         SYMBOL        color
  X:025CH         SYMBOL        width
  X:025DH         SYMBOL        height
  X:025EH         SYMBOL        i
  X:025FH         SYMBOL        j
  -------         ENDDO         
  C:3211H         LINE#         269
  C:321CH         LINE#         270
  C:321CH         LINE#         274
  C:3241H         LINE#         275
  C:3241H         LINE#         276
  C:3241H         LINE#         277
  C:3242H         LINE#         278
  C:3244H         LINE#         279
  C:3244H         LINE#         280
  C:3248H         LINE#         281
  C:324AH         LINE#         282
  C:324AH         LINE#         283
  C:324FH         LINE#         284
  C:3251H         LINE#         285
  C:3251H         LINE#         286
  C:325BH         LINE#         287
  C:325DH         LINE#         288
  C:325DH         LINE#         289
  C:3266H         LINE#         290
  C:3268H         LINE#         291
  C:3268H         LINE#         292
  C:3272H         LINE#         293
  C:3274H         LINE#         294
  C:3274H         LINE#         295
  C:327EH         LINE#         296
  C:3280H         LINE#         297
  C:3280H         LINE#         298
  C:3280H         LINE#         299
  C:3288H         LINE#         300
  C:3288H         LINE#         301
BL51 BANKED LINKER/LOCATER V6.22                                                      02/18/2019  11:57:09  PAGE 27


  C:3288H         LINE#         303
  C:329EH         LINE#         304
  C:32A3H         LINE#         305
  C:32B3H         LINE#         306
  C:32C3H         LINE#         307
  C:32D5H         LINE#         308
  C:32D5H         LINE#         309
  C:32E7H         LINE#         310
  C:32E7H         LINE#         311
  C:32EFH         LINE#         312
  C:32F7H         LINE#         313
  C:32FFH         LINE#         314
  C:3307H         LINE#         316
  -------         ENDPROC       _DISPLAYBLOCK
  -------         PROC          _DISPLAY_DOT
  D:0005H         SYMBOL        x
  D:0006H         SYMBOL        y
  X:0359H         SYMBOL        color
  C:4C3EH         LINE#         324
  C:4C4AH         LINE#         325
  C:4C4AH         LINE#         326
  C:4C54H         LINE#         327
  C:4C59H         LINE#         328
  C:4C61H         LINE#         329
  -------         ENDPROC       _DISPLAY_DOT
  -------         PROC          _DISPLAY_HLINE
  D:0005H         SYMBOL        x
  D:0006H         SYMBOL        y
  X:033BH         SYMBOL        width
  X:033CH         SYMBOL        color
  C:4A16H         LINE#         337
  C:4A1FH         LINE#         338
  C:4A1FH         LINE#         339
  C:4A2CH         LINE#         340
  C:4A31H         LINE#         341
  C:4A3BH         LINE#         342
  C:4A3BH         LINE#         343
  C:4A3EH         LINE#         344
  C:4A44H         LINE#         345
  C:4A4CH         LINE#         346
  C:4A4EH         LINE#         347
  -------         ENDPROC       _DISPLAY_HLINE
  -------         PROC          _DISPLAY_VLINE
  D:0005H         SYMBOL        x
  D:0006H         SYMBOL        y
  X:0340H         SYMBOL        height
  X:0341H         SYMBOL        color
  C:4ABDH         LINE#         354
  C:4AC6H         LINE#         355
  C:4AC6H         LINE#         356
  C:4ACDH         LINE#         357
  C:4AD2H         LINE#         358
  C:4ADCH         LINE#         359
  C:4ADCH         LINE#         360
  C:4ADFH         LINE#         361
  C:4AE5H         LINE#         362
  C:4AEDH         LINE#         363
BL51 BANKED LINKER/LOCATER V6.22                                                      02/18/2019  11:57:09  PAGE 28


  C:4AEFH         LINE#         364
  -------         ENDPROC       _DISPLAY_VLINE
  -------         PROC          _DISPLAY_ASCII
  X:0266H         SYMBOL        x
  X:0267H         SYMBOL        y
  X:0268H         SYMBOL        p
  X:026BH         SYMBOL        fcolor
  X:026DH         SYMBOL        bcolor
  X:026FH         SYMBOL        size
  -------         DO            
  X:0270H         SYMBOL        i
  X:0271H         SYMBOL        j
  -------         ENDDO         
  C:3308H         LINE#         372
  C:3319H         LINE#         373
  C:3319H         LINE#         376
  C:3326H         LINE#         377
  C:3326H         LINE#         378
  C:3326H         LINE#         379
  C:3326H         LINE#         380
  C:3326H         LINE#         381
  C:3328H         LINE#         382
  C:3328H         LINE#         383
  C:3338H         LINE#         384
  C:333EH         LINE#         385
  C:3340H         LINE#         386
  C:3340H         LINE#         387
  C:334AH         LINE#         388
  C:3350H         LINE#         389
  C:3352H         LINE#         390
  C:3362H         LINE#         392
  C:3368H         LINE#         393
  C:3368H         LINE#         394
  C:3368H         LINE#         396
  C:336DH         LINE#         398
  C:3376H         LINE#         399
  C:3376H         LINE#         400
  C:3383H         LINE#         401
  C:3383H         LINE#         402
  C:33AEH         LINE#         403
  C:33AEH         LINE#         404
  C:33B1H         LINE#         405
  C:33B1H         LINE#         406
  C:33B3H         LINE#         408
  C:33B3H         LINE#         409
  C:33C0H         LINE#         410
  C:33C3H         LINE#         411
  C:33C3H         LINE#         412
  C:33C6H         LINE#         413
  C:33CEH         LINE#         414
  C:33D6H         LINE#         415
  C:33E0H         LINE#         416
  C:33E8H         LINE#         417
  -------         ENDPROC       _DISPLAY_ASCII
  -------         PROC          _DISPLAY_CHINESE
  X:026AH         SYMBOL        x
  X:026BH         SYMBOL        y
BL51 BANKED LINKER/LOCATER V6.22                                                      02/18/2019  11:57:09  PAGE 29


  X:026CH         SYMBOL        p
  X:026FH         SYMBOL        fcolor
  X:0271H         SYMBOL        bcolor
  X:0273H         SYMBOL        size
  -------         DO            
  X:0274H         SYMBOL        i
  X:0275H         SYMBOL        j
  -------         ENDDO         
  C:3591H         LINE#         423
  C:35A2H         LINE#         424
  C:35A2H         LINE#         426
  C:35ACH         LINE#         427
  C:35ACH         LINE#         428
  C:35ACH         LINE#         429
  C:35ACH         LINE#         430
  C:35BCH         LINE#         431
  C:35C2H         LINE#         432
  C:35C4H         LINE#         434
  C:35C4H         LINE#         435
  C:35CEH         LINE#         436
  C:35D4H         LINE#         437
  C:35D4H         LINE#         439
  C:35D4H         LINE#         441
  C:35D9H         LINE#         442
  C:35E2H         LINE#         443
  C:35E2H         LINE#         444
  C:35EFH         LINE#         445
  C:35EFH         LINE#         446
  C:361AH         LINE#         447
  C:361AH         LINE#         448
  C:361DH         LINE#         449
  C:361DH         LINE#         450
  C:361FH         LINE#         452
  C:361FH         LINE#         453
  C:362CH         LINE#         454
  C:362FH         LINE#         456
  C:362FH         LINE#         457
  C:3632H         LINE#         458
  C:363AH         LINE#         459
  C:3642H         LINE#         460
  C:364CH         LINE#         461
  C:3654H         LINE#         462
  -------         ENDPROC       _DISPLAY_CHINESE
  -------         PROC          _ASCIIXDIRECTIONINCREASE
  D:0007H         SYMBOL        size
  X:0267H         SYMBOL        px
  X:026AH         SYMBOL        py
  -------         DO            
  D:0006H         SYMBOL        x
  D:0005H         SYMBOL        y
  -------         ENDDO         
  C:33E9H         LINE#         465
  C:33F4H         LINE#         466
  C:33F4H         LINE#         468
  C:33F8H         LINE#         469
  C:3407H         LINE#         470
  C:3411H         LINE#         471
BL51 BANKED LINKER/LOCATER V6.22                                                      02/18/2019  11:57:09  PAGE 30


  C:3411H         LINE#         472
  C:3411H         LINE#         473
  C:3411H         LINE#         474
  C:3429H         LINE#         476
  C:3429H         LINE#         477
  C:343FH         LINE#         481
  C:343FH         LINE#         482
  C:3457H         LINE#         484
  C:3457H         LINE#         485
  C:346DH         LINE#         486
  C:346DH         LINE#         487
  C:346DH         LINE#         488
  C:346FH         LINE#         489
  C:346FH         LINE#         490
  C:3487H         LINE#         492
  C:3487H         LINE#         493
  C:34A1H         LINE#         494
  C:34A4H         LINE#         495
  C:34A4H         LINE#         496
  C:34A4H         LINE#         497
  C:34A4H         LINE#         498
  C:34B3H         LINE#         499
  -------         ENDPROC       _ASCIIXDIRECTIONINCREASE
  -------         PROC          _CHINESEXDIRECTIONINCREASE
  D:0007H         SYMBOL        size
  X:026BH         SYMBOL        px
  X:026EH         SYMBOL        py
  -------         DO            
  D:0006H         SYMBOL        x
  D:0005H         SYMBOL        y
  -------         ENDDO         
  C:393CH         LINE#         503
  C:3947H         LINE#         504
  C:3947H         LINE#         506
  C:394BH         LINE#         507
  C:395AH         LINE#         508
  C:3961H         LINE#         509
  C:3961H         LINE#         510
  C:3961H         LINE#         511
  C:3961H         LINE#         512
  C:3979H         LINE#         514
  C:3979H         LINE#         515
  C:398FH         LINE#         520
  C:398FH         LINE#         521
  C:39A7H         LINE#         523
  C:39A7H         LINE#         524
  C:39C1H         LINE#         525
  C:39C4H         LINE#         526
  C:39C4H         LINE#         527
  C:39C4H         LINE#         529
  C:39C4H         LINE#         530
  C:39D3H         LINE#         531
  -------         ENDPROC       _CHINESEXDIRECTIONINCREASE
  C:2B7FH         SYMBOL        L?0336
  C:2BAAH         SYMBOL        L?0337
  C:2BABH         SYMBOL        L?0338
  C:2BBBH         SYMBOL        L?0339
BL51 BANKED LINKER/LOCATER V6.22                                                      02/18/2019  11:57:09  PAGE 31


  C:2BBCH         SYMBOL        L?0340
  C:2BC3H         SYMBOL        L?0341
  -------         PROC          L?0335
  -------         ENDPROC       L?0335
  C:2B7FH         SYMBOL        L?0336
  C:2BAAH         SYMBOL        L?0337
  C:2BABH         SYMBOL        L?0338
  C:2BBBH         SYMBOL        L?0339
  C:2BBCH         SYMBOL        L?0340
  C:2BC3H         SYMBOL        L?0341
  -------         PROC          _DISPLAYDIGITSTRING
  X:0255H         SYMBOL        px
  X:0258H         SYMBOL        py
  X:025BH         SYMBOL        pDigit
  X:025EH         SYMBOL        Length
  X:025FH         SYMBOL        fcolor
  X:0261H         SYMBOL        bcolor
  X:0263H         SYMBOL        size
  -------         DO            
  X:0264H         SYMBOL        x
  X:0265H         SYMBOL        y
  -------         ENDDO         
  C:2BC7H         LINE#         536
  C:2BD2H         LINE#         537
  C:2BD2H         LINE#         539
  C:2BD9H         LINE#         540
  C:2BEBH         LINE#         541
  C:2BF7H         LINE#         542
  C:2BF7H         LINE#         543
  C:2BFAH         LINE#         544
  C:2C13H         LINE#         545
  C:2C2EH         LINE#         546
  C:2C31H         LINE#         547
  C:2C6AH         LINE#         549
  C:2C86H         LINE#         550
  C:2C90H         LINE#         551
  C:2C99H         LINE#         552
  C:2CADH         LINE#         553
  -------         ENDPROC       _DISPLAYDIGITSTRING
  -------         PROC          _DISPLAYDIGIT
  X:0315H         SYMBOL        x
  X:0316H         SYMBOL        y
  X:0317H         SYMBOL        Digit
  X:0318H         SYMBOL        fcolor
  X:031AH         SYMBOL        bcolor
  X:031CH         SYMBOL        size
  C:406EH         LINE#         557
  C:4079H         LINE#         558
  C:4079H         LINE#         559
  C:407CH         LINE#         560
  C:4087H         LINE#         561
  C:4098H         LINE#         562
  C:409BH         LINE#         563
  -------         ENDPROC       _DISPLAYDIGIT
  C:2F17H         SYMBOL        L?0343
  C:2F28H         SYMBOL        L?0344
  -------         PROC          L?0342
BL51 BANKED LINKER/LOCATER V6.22                                                      02/18/2019  11:57:09  PAGE 32


  -------         ENDPROC       L?0342
  C:2F17H         SYMBOL        L?0343
  C:2F28H         SYMBOL        L?0344
  -------         PROC          _DISPLAYASCIISTRING
  X:0255H         SYMBOL        px
  X:0258H         SYMBOL        py
  X:025BH         SYMBOL        pASCII
  X:025EH         SYMBOL        Length
  X:025FH         SYMBOL        fcolor
  X:0261H         SYMBOL        bcolor
  X:0263H         SYMBOL        size
  -------         DO            
  X:0264H         SYMBOL        x
  X:0265H         SYMBOL        y
  -------         ENDDO         
  C:2F34H         LINE#         567
  C:2F3FH         LINE#         568
  C:2F3FH         LINE#         570
  C:2F46H         LINE#         571
  C:2F58H         LINE#         572
  C:2F64H         LINE#         573
  C:2F64H         LINE#         574
  C:2F67H         LINE#         575
  C:2F80H         LINE#         576
  C:2F83H         LINE#         577
  C:2FBCH         LINE#         579
  C:2FD8H         LINE#         580
  C:2FE2H         LINE#         581
  C:2FEBH         LINE#         582
  C:2FFFH         LINE#         583
  -------         ENDPROC       _DISPLAYASCIISTRING
  -------         PROC          _DISPLAYASCII
  X:031DH         SYMBOL        x
  X:031EH         SYMBOL        y
  D:0003H         SYMBOL        ASCII
  X:0320H         SYMBOL        fcolor
  X:0322H         SYMBOL        bcolor
  X:0324H         SYMBOL        size
  C:4317H         LINE#         586
  C:431FH         LINE#         587
  C:431FH         LINE#         588
  C:4322H         LINE#         589
  C:4330H         LINE#         590
  C:4333H         LINE#         591
  -------         ENDPROC       _DISPLAYASCII
  C:312CH         SYMBOL        L?0346
  C:312DH         SYMBOL        L?0347
  -------         PROC          L?0345
  -------         ENDPROC       L?0345
  C:312CH         SYMBOL        L?0346
  C:312DH         SYMBOL        L?0347
  -------         PROC          _DISPLAYCHINESESTRING
  X:0259H         SYMBOL        px
  X:025CH         SYMBOL        py
  X:025FH         SYMBOL        pChinese
  X:0262H         SYMBOL        Length
  X:0263H         SYMBOL        fcolor
BL51 BANKED LINKER/LOCATER V6.22                                                      02/18/2019  11:57:09  PAGE 33


  X:0265H         SYMBOL        bcolor
  X:0267H         SYMBOL        size
  -------         DO            
  X:0268H         SYMBOL        x
  X:0269H         SYMBOL        y
  -------         ENDDO         
  C:3138H         LINE#         595
  C:3143H         LINE#         596
  C:3143H         LINE#         598
  C:314AH         LINE#         599
  C:315CH         LINE#         600
  C:3168H         LINE#         601
  C:3168H         LINE#         602
  C:316BH         LINE#         603
  C:317EH         LINE#         604
  C:3181H         LINE#         605
  C:31BAH         LINE#         607
  C:31D6H         LINE#         608
  C:31E0H         LINE#         609
  C:31E9H         LINE#         610
  C:31FDH         LINE#         611
  -------         ENDPROC       _DISPLAYCHINESESTRING
  -------         PROC          _DISPLAYSTRING
  X:02EDH         SYMBOL        px
  X:02F0H         SYMBOL        py
  X:02F3H         SYMBOL        pDispData
  X:02F6H         SYMBOL        Length
  X:02F7H         SYMBOL        fcolor
  X:02F9H         SYMBOL        bcolor
  X:02FBH         SYMBOL        size
  -------         DO            
  X:02FCH         SYMBOL        x
  X:02FDH         SYMBOL        y
  -------         ENDDO         
  C:1821H         LINE#         615
  C:182CH         LINE#         616
  C:182CH         LINE#         618
  C:1833H         LINE#         619
  C:1845H         LINE#         622
  C:1852H         LINE#         623
  C:1852H         LINE#         624
  C:1872H         LINE#         625
  C:1872H         LINE#         626
  C:187CH         LINE#         627
  C:1892H         LINE#         628
  C:1892H         LINE#         629
  C:189AH         LINE#         630
  C:189AH         LINE#         631
  C:18A4H         LINE#         632
  C:18B7H         LINE#         635
  C:18C2H         LINE#         636
  C:18C2H         LINE#         637
  C:18C2H         LINE#         638
  C:18C2H         LINE#         639
  C:18D7H         LINE#         640
  C:18D7H         LINE#         641
  C:18D9H         LINE#         642
BL51 BANKED LINKER/LOCATER V6.22                                                      02/18/2019  11:57:09  PAGE 34


  C:18F0H         LINE#         643
  C:18F7H         LINE#         644
  C:18F7H         LINE#         645
  C:18F9H         LINE#         646
  C:18F9H         LINE#         647
  C:190EH         LINE#         648
  C:190EH         LINE#         649
  C:1910H         LINE#         650
  C:1927H         LINE#         651
  C:192EH         LINE#         652
  C:192EH         LINE#         653
  C:192EH         LINE#         654
  C:192EH         LINE#         655
  C:1962H         LINE#         657
  C:197EH         LINE#         658
  C:1988H         LINE#         659
  C:198FH         LINE#         660
  C:1992H         LINE#         667
  C:1992H         LINE#         668
  C:1992H         LINE#         669
  C:1992H         LINE#         670
  C:1995H         LINE#         671
  C:19B5H         LINE#         672
  C:19B5H         LINE#         673
  C:19C3H         LINE#         675
  C:19D1H         LINE#         676
  C:19D1H         LINE#         677
  C:19D1H         LINE#         678
  C:19D1H         LINE#         679
  C:19E9H         LINE#         680
  C:19E9H         LINE#         681
  C:19EBH         LINE#         682
  C:1A02H         LINE#         683
  C:1A09H         LINE#         684
  C:1A09H         LINE#         685
  C:1A0BH         LINE#         686
  C:1A0BH         LINE#         687
  C:1A20H         LINE#         688
  C:1A20H         LINE#         689
  C:1A22H         LINE#         690
  C:1A39H         LINE#         691
  C:1A40H         LINE#         692
  C:1A40H         LINE#         693
  C:1A42H         LINE#         694
  C:1A42H         LINE#         695
  C:1A57H         LINE#         696
  C:1A57H         LINE#         697
  C:1A59H         LINE#         698
  C:1A70H         LINE#         699
  C:1A77H         LINE#         700
  C:1A77H         LINE#         701
  C:1A77H         LINE#         702
  C:1A77H         LINE#         703
  C:1AABH         LINE#         705
  C:1AC7H         LINE#         706
  C:1AD1H         LINE#         707
  C:1AD1H         LINE#         708
BL51 BANKED LINKER/LOCATER V6.22                                                      02/18/2019  11:57:09  PAGE 35


  C:1AD3H         LINE#         710
  C:1AD3H         LINE#         711
  C:1ADDH         LINE#         712
  C:1AE3H         LINE#         713
  C:1AE3H         LINE#         714
  C:1AE6H         LINE#         716
  C:1AFAH         LINE#         717
  -------         ENDPROC       _DISPLAYSTRING
  -------         PROC          _DISPLAYONESCREEN
  X:0259H         SYMBOL        pDispData
  X:025CH         SYMBOL        Length
  X:025DH         SYMBOL        fcolor
  X:025FH         SYMBOL        bcolor
  X:0261H         SYMBOL        size
  -------         DO            
  X:0262H         SYMBOL        x
  X:0263H         SYMBOL        y
  X:0264H         SYMBOL        DispedLen
  -------         ENDDO         
  C:0EC2H         LINE#         723
  C:0ED0H         LINE#         724
  C:0ED0H         LINE#         725
  C:0ED5H         LINE#         726
  C:0ED7H         LINE#         728
  C:0ED9H         LINE#         730
  C:0EE6H         LINE#         731
  C:0EE6H         LINE#         732
  C:0F06H         LINE#         733
  C:0F06H         LINE#         734
  C:0F10H         LINE#         735
  C:0F26H         LINE#         736
  C:0F26H         LINE#         737
  C:0F2EH         LINE#         738
  C:0F2EH         LINE#         739
  C:0F38H         LINE#         740
  C:0F4BH         LINE#         745
  C:0F56H         LINE#         746
  C:0F56H         LINE#         747
  C:0F56H         LINE#         748
  C:0F56H         LINE#         749
  C:0F6BH         LINE#         750
  C:0F6BH         LINE#         751
  C:0F6DH         LINE#         752
  C:0F83H         LINE#         753
  C:0F8AH         LINE#         754
  C:0F8AH         LINE#         755
  C:0F8CH         LINE#         756
  C:0F8CH         LINE#         757
  C:0FA1H         LINE#         758
  C:0FA1H         LINE#         759
  C:0FA3H         LINE#         760
  C:0FB9H         LINE#         761
  C:0FC0H         LINE#         762
  C:0FC0H         LINE#         763
  C:0FC0H         LINE#         764
  C:0FC0H         LINE#         765
  C:0FF4H         LINE#         768
BL51 BANKED LINKER/LOCATER V6.22                                                      02/18/2019  11:57:09  PAGE 36


  C:1002H         LINE#         769
  C:1009H         LINE#         770
  C:1013H         LINE#         771
  C:101AH         LINE#         772
  C:1021H         LINE#         774
  C:1024H         LINE#         776
  C:1024H         LINE#         777
  C:102AH         LINE#         778
  C:102DH         LINE#         779
  C:102DH         LINE#         780
  C:102DH         LINE#         782
  C:102DH         LINE#         783
  C:1033H         LINE#         784
  C:1033H         LINE#         785
  C:1036H         LINE#         786
  C:1056H         LINE#         787
  C:1056H         LINE#         788
  C:1064H         LINE#         793
  C:1072H         LINE#         794
  C:1072H         LINE#         795
  C:1072H         LINE#         796
  C:1072H         LINE#         797
  C:108AH         LINE#         798
  C:108AH         LINE#         799
  C:108CH         LINE#         800
  C:10A2H         LINE#         801
  C:10A9H         LINE#         802
  C:10A9H         LINE#         803
  C:10ABH         LINE#         804
  C:10ABH         LINE#         805
  C:10C0H         LINE#         806
  C:10C0H         LINE#         807
  C:10C2H         LINE#         808
  C:10D8H         LINE#         809
  C:10DFH         LINE#         810
  C:10DFH         LINE#         811
  C:10E1H         LINE#         812
  C:10E1H         LINE#         813
  C:10F6H         LINE#         814
  C:10F6H         LINE#         815
  C:10F8H         LINE#         816
  C:110EH         LINE#         817
  C:1115H         LINE#         818
  C:1115H         LINE#         819
  C:1115H         LINE#         820
  C:1115H         LINE#         821
  C:1149H         LINE#         824
  C:1159H         LINE#         825
  C:1167H         LINE#         826
  C:116BH         LINE#         827
  C:116BH         LINE#         828
  C:116BH         LINE#         829
  C:116BH         LINE#         830
  C:116EH         LINE#         832
  C:116EH         LINE#         833
  C:1180H         LINE#         834
  C:1180H         LINE#         835
BL51 BANKED LINKER/LOCATER V6.22                                                      02/18/2019  11:57:09  PAGE 37


  C:118DH         LINE#         836
  C:118DH         LINE#         837
  C:118DH         LINE#         838
  C:118DH         LINE#         839
  C:11A4H         LINE#         840
  C:11AAH         LINE#         841
  C:11ACH         LINE#         843
  C:11ACH         LINE#         844
  C:11C3H         LINE#         845
  C:11C9H         LINE#         846
  C:11CBH         LINE#         848
  C:11CBH         LINE#         849
  C:11E4H         LINE#         850
  C:11F0H         LINE#         851
  C:11F0H         LINE#         852
  C:11F0H         LINE#         854
  C:11F0H         LINE#         856
  C:11FAH         LINE#         857
  C:1200H         LINE#         858
  C:1206H         LINE#         859
  C:1206H         LINE#         860
  C:1209H         LINE#         861
  C:120EH         LINE#         862
  -------         ENDPROC       _DISPLAYONESCREEN
  -------         PROC          _LCD_FANGDA_DIS_TEXT
  D:0005H         SYMBOL        x
  D:0006H         SYMBOL        y
  X:02DDH         SYMBOL        type_x_wide
  X:02DEH         SYMBOL        type_y_height
  X:02DFH         SYMBOL        mul_row
  X:02E0H         SYMBOL        mul_col
  X:02E1H         SYMBOL        fcolor
  X:02E3H         SYMBOL        bcolor
  X:02E5H         SYMBOL        p
  -------         DO            
  X:02E8H         SYMBOL        i
  X:02E9H         SYMBOL        j
  X:02EAH         SYMBOL        k
  X:02EBH         SYMBOL        m
  X:02ECH         SYMBOL        n
  -------         ENDDO         
  C:2CC1H         LINE#         873
  C:2CCAH         LINE#         875
  C:2CCAH         LINE#         880
  C:2CE9H         LINE#         881
  C:2CEEH         LINE#         882
  C:2D03H         LINE#         883
  C:2D03H         LINE#         885
  C:2D18H         LINE#         886
  C:2D18H         LINE#         888
  C:2D32H         LINE#         889
  C:2D32H         LINE#         891
  C:2D35H         LINE#         892
  C:2D35H         LINE#         894
  C:2D47H         LINE#         895
  C:2D47H         LINE#         898
  C:2D8FH         LINE#         899
BL51 BANKED LINKER/LOCATER V6.22                                                      02/18/2019  11:57:09  PAGE 38


  C:2D8FH         LINE#         900
  C:2D92H         LINE#         901
  C:2D92H         LINE#         902
  C:2D94H         LINE#         905
  C:2D94H         LINE#         906
  C:2D9FH         LINE#         907
  C:2DA2H         LINE#         908
  C:2DA2H         LINE#         910
  C:2DA5H         LINE#         911
  C:2DADH         LINE#         913
  C:2DB5H         LINE#         914
  C:2DC4H         LINE#         915
  C:2DCDH         LINE#         916
  C:2DD6H         LINE#         917
  C:2DDFH         LINE#         918
  -------         ENDPROC       _LCD_FANGDA_DIS_TEXT
  -------         PROC          SHOWPOWERUPFACE
  -------         DO            
  X:024CH         SYMBOL        x
  X:024DH         SYMBOL        y
  -------         ENDDO         
  C:2310H         LINE#         922
  C:2310H         LINE#         923
  C:2310H         LINE#         926
  C:2313H         LINE#         927
  C:2319H         LINE#         928
  C:231DH         LINE#         929
  C:2354H         LINE#         933
  C:235AH         LINE#         934
  C:235FH         LINE#         935
  C:2396H         LINE#         936
  C:23CDH         LINE#         937
  C:23D2H         LINE#         938
  C:23D4H         LINE#         939
  C:23D8H         LINE#         940
  C:23DEH         LINE#         941
  C:23DEH         LINE#         942
  C:23FBH         LINE#         943
  C:23FDH         LINE#         945
  C:23FDH         LINE#         946
  C:2406H         LINE#         947
  C:2406H         LINE#         948
  C:2420H         LINE#         949
  C:2422H         LINE#         950
  C:2456H         LINE#         951
  C:2456H         LINE#         952
  C:248DH         LINE#         954
  C:2492H         LINE#         955
  C:2494H         LINE#         956
  C:2497H         LINE#         957
  C:249DH         LINE#         958
  C:249DH         LINE#         959
  C:24BAH         LINE#         960
  C:24BCH         LINE#         962
  C:24BCH         LINE#         963
  C:24C5H         LINE#         964
  C:24C5H         LINE#         965
BL51 BANKED LINKER/LOCATER V6.22                                                      02/18/2019  11:57:09  PAGE 39


  C:24DFH         LINE#         966
  C:24E1H         LINE#         967
  C:2515H         LINE#         968
  C:2515H         LINE#         970
  -------         ENDPROC       SHOWPOWERUPFACE
  -------         PROC          SHOWLANDINGFACE
  -------         DO            
  X:0251H         SYMBOL        temp1
  X:0252H         SYMBOL        temp2
  X:0253H         SYMBOL        x
  X:0254H         SYMBOL        y
  -------         ENDDO         
  C:120FH         LINE#         988
  C:120FH         LINE#         989
  C:120FH         LINE#         994
  C:121DH         LINE#         995
  C:1227H         LINE#         996
  C:1230H         LINE#         998
  C:1237H         LINE#         999
  C:1269H         LINE#         1000
  C:1295H         LINE#         1001
  C:12C1H         LINE#         1003
  C:12CFH         LINE#         1004
  C:12D9H         LINE#         1005
  C:12E2H         LINE#         1006
  C:130FH         LINE#         1007
  C:133CH         LINE#         1008
  C:1369H         LINE#         1010
  C:1372H         LINE#         1011
  C:1375H         LINE#         1012
  C:1375H         LINE#         1013
  C:1375H         LINE#         1014
  C:1378H         LINE#         1015
  C:1393H         LINE#         1016
  C:1396H         LINE#         1018
  C:1399H         LINE#         1019
  C:1399H         LINE#         1020
  C:1399H         LINE#         1021
  C:139CH         LINE#         1022
  C:13B8H         LINE#         1023
  C:13BBH         LINE#         1025
  C:13BEH         LINE#         1026
  C:13BEH         LINE#         1027
  C:13BEH         LINE#         1028
  C:13C1H         LINE#         1029
  C:13DDH         LINE#         1031
  C:13F0H         LINE#         1032
  C:13FAH         LINE#         1033
  C:13FDH         LINE#         1034
  C:13FDH         LINE#         1035
  C:13FDH         LINE#         1036
  C:1400H         LINE#         1037
  C:141CH         LINE#         1038
  C:1437H         LINE#         1040
  C:143AH         LINE#         1041
  C:143AH         LINE#         1042
  C:143AH         LINE#         1043
BL51 BANKED LINKER/LOCATER V6.22                                                      02/18/2019  11:57:09  PAGE 40


  C:143DH         LINE#         1044
  C:1459H         LINE#         1045
  C:1470H         LINE#         1047
  C:1483H         LINE#         1048
  C:148DH         LINE#         1049
  C:14A8H         LINE#         1054
  C:14B1H         LINE#         1055
  C:14CCH         LINE#         1056
  C:14FAH         LINE#         1057
  C:1511H         LINE#         1059
  C:1517H         LINE#         1060
  C:151DH         LINE#         1061
  C:151DH         LINE#         1062
  C:1520H         LINE#         1063
  C:1523H         LINE#         1064
  C:1525H         LINE#         1065
  C:1526H         LINE#         1067
  C:1526H         LINE#         1068
  C:1528H         LINE#         1069
  C:1528H         LINE#         1070
  -------         ENDPROC       SHOWLANDINGFACE
  -------         PROC          SHOWMAINMENUFACE
  -------         DO            
  X:035BH         SYMBOL        x
  X:035CH         SYMBOL        y
  -------         ENDDO         
  C:1DCBH         LINE#         1074
  C:1DCBH         LINE#         1075
  C:1DCBH         LINE#         1077
  C:1DCEH         LINE#         1078
  C:1DD5H         LINE#         1079
  C:1DDDH         LINE#         1080
  C:1DDDH         LINE#         1081
  C:1E14H         LINE#         1082
  C:1E3EH         LINE#         1083
  C:1E40H         LINE#         1085
  C:1E40H         LINE#         1086
  C:1E78H         LINE#         1087
  C:1EB0H         LINE#         1088
  C:1EB0H         LINE#         1093
  C:1EB9H         LINE#         1094
  C:1EC1H         LINE#         1095
  C:1EC1H         LINE#         1096
  C:1EF8H         LINE#         1097
  C:1F22H         LINE#         1098
  C:1F24H         LINE#         1100
  C:1F24H         LINE#         1101
  C:1F5CH         LINE#         1102
  C:1F94H         LINE#         1103
  C:1F94H         LINE#         1106
  C:1F9DH         LINE#         1107
  C:1FA5H         LINE#         1108
  C:1FA5H         LINE#         1109
  C:1FDCH         LINE#         1110
  C:2006H         LINE#         1111
  C:2008H         LINE#         1113
  C:2008H         LINE#         1114
BL51 BANKED LINKER/LOCATER V6.22                                                      02/18/2019  11:57:09  PAGE 41


  C:2040H         LINE#         1115
  C:2078H         LINE#         1116
  C:2078H         LINE#         1118
  C:207EH         LINE#         1120
  -------         ENDPROC       SHOWMAINMENUFACE
  -------         PROC          SHOWTALKFACE
  -------         DO            
  X:0251H         SYMBOL        x
  X:0252H         SYMBOL        y
  -------         ENDDO         
  C:454FH         LINE#         1136
  C:454FH         LINE#         1137
  C:454FH         LINE#         1139
  C:4552H         LINE#         1140
  C:4558H         LINE#         1141
  C:455CH         LINE#         1143
  C:4594H         LINE#         1144
  C:459AH         LINE#         1145
  -------         ENDPROC       SHOWTALKFACE
  -------         PROC          SHOWBROADFACE
  -------         DO            
  X:0251H         SYMBOL        x
  X:0252H         SYMBOL        y
  -------         ENDDO         
  C:459BH         LINE#         1148
  C:459BH         LINE#         1149
  C:459BH         LINE#         1151
  C:459EH         LINE#         1152
  C:45A4H         LINE#         1153
  C:45A8H         LINE#         1155
  C:45E0H         LINE#         1156
  C:45E6H         LINE#         1157
  -------         ENDPROC       SHOWBROADFACE
  -------         PROC          SHOWCALLSUCCESS
  -------         DO            
  X:0251H         SYMBOL        x
  X:0252H         SYMBOL        y
  -------         ENDDO         
  C:3A76H         LINE#         1160
  C:3A76H         LINE#         1161
  C:3A76H         LINE#         1163
  C:3A79H         LINE#         1164
  C:3A7EH         LINE#         1165
  C:3A82H         LINE#         1167
  C:3ABAH         LINE#         1169
  C:3AC0H         LINE#         1170
  C:3AC5H         LINE#         1171
  C:3AFDH         LINE#         1173
  C:3B03H         LINE#         1174
  -------         ENDPROC       SHOWCALLSUCCESS
  -------         PROC          _SHOWFACE
  X:024FH         SYMBOL        DispFaceType
  -------         DO            
  X:0250H         SYMBOL        TotalDataLen
  X:0252H         SYMBOL        DispDataLen
  X:0253H         SYMBOL        x
  X:0254H         SYMBOL        y
BL51 BANKED LINKER/LOCATER V6.22                                                      02/18/2019  11:57:09  PAGE 42


  X:0255H         SYMBOL        MRReadAddr
  C:26B9H         SYMBOL        SHOW_FACE_RETURN
  -------         ENDDO         
  C:2516H         LINE#         1180
  C:251BH         LINE#         1181
  C:251BH         LINE#         1190
  C:2526H         LINE#         1191
  C:2526H         LINE#         1192
  C:2526H         LINE#         1193
  C:2529H         LINE#         1194
  C:252BH         LINE#         1195
  C:252BH         LINE#         1196
  C:252EH         LINE#         1197
  C:2530H         LINE#         1198
  C:2530H         LINE#         1199
  C:253FH         LINE#         1200
  C:2541H         LINE#         1201
  C:2541H         LINE#         1202
  C:2548H         LINE#         1203
  C:2548H         LINE#         1204
  C:2548H         LINE#         1206
  C:2552H         LINE#         1207
  C:2552H         LINE#         1208
  C:2558H         LINE#         1209
  C:2561H         LINE#         1210
  C:2599H         LINE#         1212
  C:259CH         LINE#         1213
  C:259CH         LINE#         1215
  C:25B5H         LINE#         1216
  C:25D2H         LINE#         1219
  C:25E1H         LINE#         1220
  C:25E1H         LINE#         1221
  C:25E1H         LINE#         1222
  C:25EEH         LINE#         1223
  C:25F0H         LINE#         1224
  C:25F0H         LINE#         1225
  C:2602H         LINE#         1226
  C:2604H         LINE#         1227
  C:2604H         LINE#         1228
  C:261FH         LINE#         1229
  C:2621H         LINE#         1230
  C:2621H         LINE#         1231
  C:262BH         LINE#         1232
  C:262BH         LINE#         1233
  C:262BH         LINE#         1237
  C:2647H         LINE#         1238
  C:2647H         LINE#         1239
  C:264CH         LINE#         1240
  C:264EH         LINE#         1242
  C:264EH         LINE#         1243
  C:2654H         LINE#         1244
  C:2654H         LINE#         1245
  C:267AH         LINE#         1246
  C:2688H         LINE#         1248
  C:268BH         LINE#         1249
  C:26B9H         LINE#         1252
  C:26B9H         LINE#         1254
BL51 BANKED LINKER/LOCATER V6.22                                                      02/18/2019  11:57:09  PAGE 43


  C:26C8H         LINE#         1255
  C:26C8H         LINE#         1256
  C:26C8H         LINE#         1257
  C:26CEH         LINE#         1258
  C:26CFH         LINE#         1260
  C:26CFH         LINE#         1261
  C:26D5H         LINE#         1262
  C:26D6H         LINE#         1263
  C:26D6H         LINE#         1264
  C:26DCH         LINE#         1265
  C:26DCH         LINE#         1266
  C:26DCH         LINE#         1267
  C:26DCH         LINE#         1268
  C:26DCH         LINE#         1270
  -------         ENDPROC       _SHOWFACE
  -------         PROC          SHOWDIETFACE
  C:518AH         LINE#         1274
  C:518AH         LINE#         1275
  C:518AH         LINE#         1276
  C:5190H         LINE#         1278
  -------         ENDPROC       SHOWDIETFACE
  -------         PROC          SHOWPRESCRIPTIONFACE
  C:5191H         LINE#         1280
  C:5191H         LINE#         1281
  C:5191H         LINE#         1282
  C:5197H         LINE#         1283
  -------         ENDPROC       SHOWPRESCRIPTIONFACE
  -------         PROC          SHOWPROMPTFACE
  C:5198H         LINE#         1286
  C:5198H         LINE#         1287
  C:5198H         LINE#         1288
  C:519EH         LINE#         1290
  -------         ENDPROC       SHOWPROMPTFACE
  -------         PROC          DISPMANAGER
  C:5095H         LINE#         1306
  C:5095H         LINE#         1307
  C:5095H         LINE#         1311
  C:5098H         LINE#         1312
  C:5098H         LINE#         1313
  C:5098H         LINE#         1314
  C:509BH         LINE#         1315
  C:50A2H         LINE#         1316
  -------         ENDPROC       DISPMANAGER
  -------         ENDMOD        LCD

  -------         MODULE        MAIN
  C:0000H         SYMBOL        _ICE_DUMMY_
  D:0093H         PUBLIC        P0M1
  D:0092H         PUBLIC        P1M0
  C:4861H         PUBLIC        _DispatchMessage
  D:0096H         PUBLIC        P2M0
  D:0091H         PUBLIC        P1M1
  D:0080H         PUBLIC        P0
  D:00B2H         PUBLIC        P3M0
  D:0095H         PUBLIC        P2M1
  D:0090H         PUBLIC        P1
  B:0090H.1       PUBLIC        LCD_CS7
BL51 BANKED LINKER/LOCATER V6.22                                                      02/18/2019  11:57:09  PAGE 44


  D:00B4H         PUBLIC        P4M0
  D:00B1H         PUBLIC        P3M1
  D:00A0H         PUBLIC        P2
  D:00CAH         PUBLIC        P5M0
  D:00B3H         PUBLIC        P4M1
  D:00B0H         PUBLIC        P3
  D:00C9H         PUBLIC        P5M1
  D:00C0H         PUBLIC        P4
  D:00C8H         PUBLIC        P5
  D:00F9H         PUBLIC        CH
  B:00A8H.5       PUBLIC        EADC
  D:00A8H         PUBLIC        IE
  X:028FH         PUBLIC        DispData
  D:00E9H         PUBLIC        CL
  C:5168H         PUBLIC        BL_SW_Init
  D:00FAH         PUBLIC        CCAP0H
  D:00EAH         PUBLIC        CCAP0L
  B:00D8H.6       PUBLIC        CR
  C:3013H         PUBLIC        Init
  D:00DAH         PUBLIC        CCAPM0
  B:00C8H.1       PUBLIC        BL_SW
  D:00B8H         PUBLIC        IP
  C:0006H         PUBLIC        Ex0Int
  C:4464H         PUBLIC        MainTask
  X:0291H         PUBLIC        uiIsrTimerCount
  D:00D9H         PUBLIC        CMOD
  D:00D8H         PUBLIC        CCON
  C:5042H         PUBLIC        main
  B:00A8H.6       PUBLIC        ELVD
  D:00BBH         PUBLIC        P4SW
  C:4E3BH         PUBLIC        UserTickTimer
  D:0098H         PUBLIC        SCON
  D:0088H         PUBLIC        TCON
  C:0016H         PUBLIC        AdcInt
  X:0293H         PUBLIC        MicCtrlState
  X:0294H         PUBLIC        stLocalControl
  B:0090H.4       PUBLIC        GT23L_CS
  D:00E0H         PUBLIC        ACC
  B:00A8H.3       PUBLIC        ET1
  I:0064H         PUBLIC        byMainCmdQ
  B:00A8H.0       PUBLIC        EX0
  C:001EH         PUBLIC        LvdInt
  D:00C1H         PUBLIC        WDT_CONTR
  B:0027H.3       PUBLIC        bBL_SW_State
  C:000EH         PUBLIC        TIMER1Int
  C:519FH         PUBLIC        _GetMessage
  B:00B0H.2       PUBLIC        MIC_CTRL
  B:0090H.3       PUBLIC        SST25VF_CS
  D:00D0H         PUBLIC        PSW
  B:00D8H.0       PUBLIC        CCF0
  D:0094H         PUBLIC        P0M0
  -------         PROC          EX0INT
  C:0006H         LINE#         38
  C:0006H         LINE#         40
  C:0008H         LINE#         41
  -------         ENDPROC       EX0INT
  -------         PROC          TIMER1INT
BL51 BANKED LINKER/LOCATER V6.22                                                      02/18/2019  11:57:09  PAGE 45


  C:000EH         LINE#         43
  C:000EH         LINE#         45
  C:0010H         LINE#         46
  -------         ENDPROC       TIMER1INT
  -------         PROC          ADCINT
  C:0016H         LINE#         49
  C:0016H         LINE#         51
  C:0018H         LINE#         52
  -------         ENDPROC       ADCINT
  -------         PROC          LVDINT
  C:001EH         LINE#         54
  C:001EH         LINE#         56
  C:0020H         LINE#         57
  -------         ENDPROC       LVDINT
  -------         PROC          USERTICKTIMER
  C:4E3BH         LINE#         68
  C:4E3BH         LINE#         69
  C:4E3BH         LINE#         72
  C:4E49H         LINE#         73
  C:4E4FH         LINE#         74
  C:4E52H         LINE#         75
  C:4E54H         LINE#         79
  C:4E5CH         LINE#         80
  -------         ENDPROC       USERTICKTIMER
  -------         PROC          BL_SW_INIT
  C:5168H         LINE#         82
  C:5168H         LINE#         83
  C:5168H         LINE#         85
  C:516BH         LINE#         86
  C:516EH         LINE#         87
  C:5170H         LINE#         88
  -------         ENDPROC       BL_SW_INIT
  -------         PROC          INIT
  C:3013H         LINE#         105
  C:3013H         LINE#         106
  C:3013H         LINE#         107
  C:3022H         LINE#         109
  C:3025H         LINE#         110
  C:3028H         LINE#         111
  C:302AH         LINE#         112
  C:302CH         LINE#         113
  C:3035H         LINE#         114
  C:3038H         LINE#         116
  C:303BH         LINE#         119
  C:303DH         LINE#         121
  C:3040H         LINE#         127
  C:3043H         LINE#         128
  C:3045H         LINE#         133
  C:3048H         LINE#         134
  C:304AH         LINE#         139
  C:304CH         LINE#         140
  C:304EH         LINE#         151
  C:3051H         LINE#         152
  C:3053H         LINE#         158
  C:3056H         LINE#         159
  C:3058H         LINE#         160
  C:305BH         LINE#         165
BL51 BANKED LINKER/LOCATER V6.22                                                      02/18/2019  11:57:09  PAGE 46


  C:305EH         LINE#         166
  C:3060H         LINE#         170
  C:3062H         LINE#         171
  C:3064H         LINE#         172
  C:3066H         LINE#         175
  C:306AH         LINE#         177
  C:3071H         LINE#         181
  C:3074H         LINE#         184
  C:3077H         LINE#         187
  C:307AH         LINE#         188
  C:307FH         LINE#         191
  C:3082H         LINE#         192
  C:3085H         LINE#         194
  C:3088H         LINE#         197
  C:308BH         LINE#         206
  C:3090H         LINE#         209
  C:3096H         LINE#         210
  C:309CH         LINE#         211
  C:30A2H         LINE#         212
  C:30A8H         LINE#         213
  C:30AEH         LINE#         216
  C:30B0H         LINE#         217
  C:30B7H         LINE#         220
  C:30BDH         LINE#         221
  C:30C1H         LINE#         223
  C:30C5H         LINE#         227
  C:30E0H         LINE#         228
  C:30FBH         LINE#         229
  C:3116H         LINE#         232
  -------         ENDPROC       INIT
  -------         PROC          _GETMESSAGE
  D:0007H         SYMBOL        Msg
  C:519FH         LINE#         249
  C:519FH         LINE#         250
  C:519FH         LINE#         251
  -------         ENDPROC       _GETMESSAGE
  -------         PROC          _DISPATCHMESSAGE
  X:024CH         SYMBOL        Msg
  C:4861H         LINE#         268
  C:4866H         LINE#         269
  C:4866H         LINE#         270
  C:4880H         LINE#         271
  C:4880H         LINE#         272
  C:4880H         LINE#         273
  C:4883H         LINE#         274
  C:4883H         LINE#         275
  C:4883H         LINE#         276
  C:4886H         LINE#         277
  C:4886H         LINE#         278
  C:4886H         LINE#         279
  C:488EH         LINE#         280
  C:488EH         LINE#         281
  C:488EH         LINE#         282
  C:4896H         LINE#         283
  C:4896H         LINE#         284
  C:4896H         LINE#         285
  C:489EH         LINE#         286
BL51 BANKED LINKER/LOCATER V6.22                                                      02/18/2019  11:57:09  PAGE 47


  C:489EH         LINE#         287
  C:489EH         LINE#         288
  C:48A1H         LINE#         289
  C:48A1H         LINE#         290
  C:48A1H         LINE#         291
  -------         ENDPROC       _DISPATCHMESSAGE
  -------         PROC          MAINTASK
  -------         DO            
  D:001BH         SYMBOL        Msg
  -------         ENDDO         
  C:4464H         LINE#         307
  C:4464H         LINE#         308
  C:4464H         LINE#         312
  C:4467H         LINE#         314
  C:446EH         LINE#         316
  C:447AH         LINE#         317
  C:4486H         LINE#         318
  C:4492H         LINE#         319
  C:449EH         LINE#         323
  C:449EH         LINE#         324
  C:449EH         LINE#         325
  C:44A1H         LINE#         326
  C:44A6H         LINE#         327
  C:44ABH         LINE#         328
  C:44AEH         LINE#         329
  C:44AEH         LINE#         330
  C:44B0H         LINE#         331
  C:44B3H         LINE#         332
  C:44B3H         LINE#         333
  -------         ENDPROC       MAINTASK
  -------         PROC          MAIN
  C:5042H         LINE#         350
  C:5042H         LINE#         351
  C:5042H         LINE#         353
  C:5045H         LINE#         357
  C:5050H         LINE#         359
  C:5050H         LINE#         360
  C:5050H         LINE#         361
  C:5051H         LINE#         363
  -------         ENDPROC       MAIN
  -------         ENDMOD        MAIN

  -------         MODULE        SINGLEBUS
  C:0000H         SYMBOL        _ICE_DUMMY_
  C:4E5DH         PUBLIC        TimerOutManager
  D:0028H         PUBLIC        byBus0DisableCount
  D:0080H         PUBLIC        P0
  D:00B2H         PUBLIC        P3M0
  D:0090H         PUBLIC        P1
  C:40D4H         PUBLIC        _ParaCrcCheck
  D:00B1H         PUBLIC        P3M1
  D:00A0H         PUBLIC        P2
  D:00B0H         PUBLIC        P3
  D:00C0H         PUBLIC        P4
  D:00C8H         PUBLIC        P5
  B:00A8H.7       PUBLIC        EA
  B:0020H.7       PUBLIC        bBusy
BL51 BANKED LINKER/LOCATER V6.22                                                      02/18/2019  11:57:09  PAGE 48


  B:0021H.2       PUBLIC        bBus0Enable
  B:0022H.7       PUBLIC        bWaitAck
  B:0023H.4       PUBLIC        bEnCallDeal
  D:00A8H         PUBLIC        IE
  B:0024H.0       PUBLIC        bPWState
  B:0024H.4       PUBLIC        bConfusionNoting
  B:00B0H.4       PUBLIC        Bus0SendPin
  D:0029H         PUBLIC        byBus0TxTail
  C:4752H         PUBLIC        CalcParaCrc
  D:00DAH         PUBLIC        CCAPM0
  B:0021H.1       PUBLIC        bBus0OnRec
  B:00C8H.1       PUBLIC        BL_SW
  D:00B8H         PUBLIC        IP
  X:035DH         PUBLIC        uitTimer0TimerCount
  B:0021H.5       PUBLIC        bBus0OnSendFreq
  B:0023H.2       PUBLIC        bEnHelpDeal
  B:0027H.4       PUBLIC        FLED
  B:0025H.2       PUBLIC        bEnAllBroad
  B:0022H.2       PUBLIC        bOfficeBroad
  B:00B0H.3       PUBLIC        Bus0RecPin
  D:002AH         PUBLIC        byBus0RecTimeOut
  B:0020H.5       PUBLIC        bDealKeyDown
  B:0020H.0       PUBLIC        bLanding
  D:00D8H         PUBLIC        CCON
  C:50B3H         PUBLIC        Bus0RecInt
  C:4139H         PUBLIC        _ReadParameter
  B:0025H.5       PUBLIC        bEnAutoListen
  C:4EA1H         PUBLIC        Bus0Manage
  C:4A88H         PUBLIC        SingleBusInit
  B:0025H.6       PUBLIC        bEnVoiceNote
  B:0022H.5       PUBLIC        bChannel0Talked
  B:0021H.4       PUBLIC        bBus0OnSendBit
  B:0020H.3       PUBLIC        bChannel1Talked
  B:0020H.4       PUBLIC        bNurseIn
  B:0024H.3       PUBLIC        bServiceNoting
  B:0023H.6       PUBLIC        bEnHandDown
  B:0025H.0       PUBLIC        bEnSickRoomBroad
  B:0026H.2       PUBLIC        bBus0SendFinish
  D:0020H         PUBLIC        byDevState1
  D:0022H         PUBLIC        byDevState2
  D:0098H         PUBLIC        SCON
  B:0026H.1       PUBLIC        bBus0RecBit9
  B:0023H.3       PUBLIC        bEnEmergencyDeal
  D:0024H         PUBLIC        byDevState3
  D:0089H         PUBLIC        TMOD
  D:0088H         PUBLIC        TCON
  C:2DE0H         PUBLIC        TimerOutDeal
  C:26F8H         PUBLIC        _SaveParameter
  B:0025H.3       PUBLIC        bEnSoundNote
  C:388AH         PUBLIC        InitParameter
  B:0024H.7       PUBLIC        bCalledRing
  B:0088H.3       PUBLIC        IE1
  B:0026H.0       PUBLIC        bBus0RecFinish
  B:0024H.5       PUBLIC        bMusicPlaying
  D:008EH         PUBLIC        AUXR
  D:002BH         PUBLIC        byBus0SendData
  D:00C7H         PUBLIC        IAP_CONTR
BL51 BANKED LINKER/LOCATER V6.22                                                      02/18/2019  11:57:09  PAGE 49


  C:0009H         PUBLIC        SysReset
  D:00E0H         PUBLIC        ACC
  C:48A8H         PUBLIC        _AddrCompare
  B:00A8H.1       PUBLIC        ET0
  B:0088H.5       PUBLIC        TF0
  B:0021H.7       PUBLIC        bBus0Error
  D:008CH         PUBLIC        TH0
  B:0088H.2       PUBLIC        IT1
  B:00A8H.2       PUBLIC        EX1
  B:0024H.6       PUBLIC        bVoiceNoting
  D:008AH         PUBLIC        TL0
  D:0032H         PUBLIC        byBus0RecData
  D:0039H         PUBLIC        byBus0SendCount
  B:0025H.1       PUBLIC        bEnOfficeBroad
  B:0023H.5       PUBLIC        bEnMusicplay
  B:00C8H.0       PUBLIC        LED
  B:0020H.6       PUBLIC        bSetKeyDown
  B:0088H.4       PUBLIC        TR0
  D:003AH         PUBLIC        byBus0TxQ
  D:0025H         PUBLIC        byEnable1
  D:00C1H         PUBLIC        WDT_CONTR
  B:0021H.6       PUBLIC        bBus0SendError
  D:0023H         PUBLIC        byEnable2
  B:0022H.0       PUBLIC        bSelfBroad
  B:0025H.7       PUBLIC        bEnHandleDeal
  B:0022H.4       PUBLIC        bChannel0Talk
  B:0023H.0       PUBLIC        bEnInfusionDeal
  B:0020H.2       PUBLIC        bChannel1Talk
  C:4B55H         PUBLIC        Bus0SendDeal
  C:1529H         PUBLIC        Timer0Int
  D:005EH         PUBLIC        byBus0RecCount
  B:0024H.2       PUBLIC        bHelpNoting
  B:0025H.4       PUBLIC        bEnOutRing
  D:005FH         PUBLIC        byBus0SendBuf
  B:0023H.1       PUBLIC        bEnServiceDeal
  B:0022H.1       PUBLIC        bAllBroad
  B:0020H.1       PUBLIC        bIndicatingOther
  C:4B23H         PUBLIC        _DirAddrCompare
  B:0026H.4       PUBLIC        bBus0SendBit
  B:0021H.0       PUBLIC        bBus0StartRec
  D:0021H         PUBLIC        byBus0State0
  B:0022H.6       PUBLIC        bWaitListen
  C:3EA9H         PUBLIC        _Bus0OutputData
  D:0060H         PUBLIC        byBus0RecSendCount
  D:0026H         PUBLIC        byBus0State1
  C:004EH         PUBLIC        Bus0RecDeal
  B:00B0H.2       PUBLIC        MIC_CTRL
  D:0061H         PUBLIC        byBus0RecBuf
  B:0021H.3       PUBLIC        bBus0ReqSend
  B:0026H.3       PUBLIC        bBus0Disable
  C:50DCH         PUBLIC        led0flash
  D:0062H         PUBLIC        byBus0TxHead
  B:0022H.3       PUBLIC        bSickRoomBroad
  D:00D0H         PUBLIC        PSW
  C:5126H         PUBLIC        _MakeCH0TimerOut
  D:0063H         PUBLIC        byBus0SendStopCount
  B:0026H.5       PUBLIC        bBus0RecBit
BL51 BANKED LINKER/LOCATER V6.22                                                      02/18/2019  11:57:09  PAGE 50


  B:0024H.1       PUBLIC        bEmergencyNoting
  -------         PROC          LED0FLASH
  C:50DCH         LINE#         66
  C:50DCH         LINE#         67
  C:50DCH         LINE#         68
  C:50DFH         LINE#         69
  C:50DFH         LINE#         70
  C:50E1H         LINE#         71
  C:50E3H         LINE#         72
  C:50E4H         LINE#         74
  C:50E4H         LINE#         75
  C:50E6H         LINE#         76
  C:50E8H         LINE#         77
  C:50E8H         LINE#         78
  -------         ENDPROC       LED0FLASH
  -------         PROC          SINGLEBUSINIT
  C:4A88H         LINE#         94
  C:4A88H         LINE#         95
  C:4A88H         LINE#         105
  C:4A8BH         LINE#         106
  C:4A8EH         LINE#         109
  C:4A91H         LINE#         110
  C:4A94H         LINE#         113
  C:4A96H         LINE#         114
  C:4A98H         LINE#         118
  C:4A9BH         LINE#         119
  C:4A9EH         LINE#         121
  C:4AA1H         LINE#         122
  C:4AA4H         LINE#         126
  C:4AA6H         LINE#         127
  C:4AA9H         LINE#         128
  C:4AABH         LINE#         129
  C:4AADH         LINE#         131
  C:4AB0H         LINE#         132
  C:4AB2H         LINE#         133
  C:4AB4H         LINE#         134
  C:4AB7H         LINE#         135
  C:4AB7H         LINE#         136
  C:4AB9H         LINE#         137
  C:4ABAH         LINE#         139
  C:4ABAH         LINE#         140
  C:4ABCH         LINE#         141
  C:4ABCH         LINE#         142
  -------         ENDPROC       SINGLEBUSINIT
  -------         PROC          BUS0RECINT
  C:50B3H         LINE#         159
  C:50B5H         LINE#         161
  C:50B7H         LINE#         162
  C:50B9H         LINE#         163
  C:50BBH         LINE#         164
  C:50BEH         LINE#         165
  -------         ENDPROC       BUS0RECINT
  -------         PROC          TIMER0INT
  C:1529H         LINE#         183
  C:1542H         LINE#         185
  C:1544H         LINE#         186
  C:1547H         LINE#         187
BL51 BANKED LINKER/LOCATER V6.22                                                      02/18/2019  11:57:09  PAGE 51


  C:154AH         LINE#         188
  C:154CH         LINE#         189
  C:1550H         LINE#         191
  C:1553H         LINE#         192
  C:1553H         LINE#         193
  C:1559H         LINE#         194
  C:1562H         LINE#         195
  C:1562H         LINE#         196
  C:1564H         LINE#         197
  C:1566H         LINE#         198
  C:1569H         LINE#         199
  C:1569H         LINE#         200
  C:156FH         LINE#         201
  C:156FH         LINE#         202
  C:1572H         LINE#         203
  C:1574H         LINE#         204
  C:1576H         LINE#         205
  C:1576H         LINE#         206
  C:1579H         LINE#         207
  C:157CH         LINE#         208
  C:157CH         LINE#         209
  C:157EH         LINE#         211
  C:157EH         LINE#         212
  C:1580H         LINE#         213
  C:1580H         LINE#         214
  C:1580H         LINE#         215
  C:1583H         LINE#         216
  C:1589H         LINE#         217
  C:1589H         LINE#         218
  C:158FH         LINE#         219
  C:1598H         LINE#         220
  C:1598H         LINE#         221
  C:159BH         LINE#         222
  C:159DH         LINE#         223
  C:15A6H         LINE#         224
  C:15A6H         LINE#         225
  C:15A8H         LINE#         226
  C:15ABH         LINE#         227
  C:15ABH         LINE#         228
  C:15B7H         LINE#         229
  C:15B7H         LINE#         230
  C:15BAH         LINE#         231
  C:15BDH         LINE#         232
  C:15BFH         LINE#         234
  C:15BFH         LINE#         235
  C:15C2H         LINE#         236
  C:15CCH         LINE#         237
  C:15D2H         LINE#         238
  C:15D9H         LINE#         239
  C:15D9H         LINE#         240
  C:15DCH         LINE#         241
  C:15E2H         LINE#         242
  C:15E2H         LINE#         243
  C:15E4H         LINE#         244
  C:15E4H         LINE#         245
  C:15E7H         LINE#         246
  C:15EAH         LINE#         247
BL51 BANKED LINKER/LOCATER V6.22                                                      02/18/2019  11:57:09  PAGE 52


  C:15ECH         LINE#         248
  C:15ECH         LINE#         249
  C:15ECH         LINE#         250
  C:15EFH         LINE#         251
  C:15F3H         LINE#         252
  C:15F5H         LINE#         254
  C:15F5H         LINE#         255
  C:15F7H         LINE#         256
  C:15FDH         LINE#         257
  C:15FDH         LINE#         258
  C:1600H         LINE#         259
  C:1602H         LINE#         260
  C:1604H         LINE#         261
  C:1604H         LINE#         262
  C:1607H         LINE#         263
  C:1607H         LINE#         264
  C:1609H         LINE#         265
  C:160CH         LINE#         266
  C:160CH         LINE#         267
  C:1610H         LINE#         268
  C:1612H         LINE#         270
  C:1612H         LINE#         271
  C:1618H         LINE#         272
  C:161BH         LINE#         273
  C:161BH         LINE#         274
  C:161EH         LINE#         275
  C:161EH         LINE#         276
  C:161EH         LINE#         277
  C:161EH         LINE#         278
  C:161EH         LINE#         280
  C:1626H         LINE#         281
  C:1626H         LINE#         282
  C:1629H         LINE#         283
  C:1629H         LINE#         284
  C:162BH         LINE#         285
  C:162DH         LINE#         286
  C:162FH         LINE#         287
  C:1632H         LINE#         288
  C:163CH         LINE#         289
  C:163EH         LINE#         290
  C:1641H         LINE#         292
  C:1641H         LINE#         293
  C:1644H         LINE#         294
  C:1646H         LINE#         295
  C:1649H         LINE#         296
  C:1649H         LINE#         297
  C:1649H         LINE#         298
  C:1649H         LINE#         299
  C:164CH         LINE#         300
  C:1652H         LINE#         301
  C:1652H         LINE#         302
  C:165AH         LINE#         303
  C:165AH         LINE#         304
  C:1660H         LINE#         305
  C:1666H         LINE#         306
  C:1666H         LINE#         307
  C:1669H         LINE#         308
BL51 BANKED LINKER/LOCATER V6.22                                                      02/18/2019  11:57:09  PAGE 53


  C:166BH         LINE#         309
  C:1673H         LINE#         310
  C:1673H         LINE#         311
  C:167CH         LINE#         312
  C:1680H         LINE#         313
  C:1682H         LINE#         314
  C:1685H         LINE#         315
  C:1685H         LINE#         316
  C:1687H         LINE#         317
  C:1689H         LINE#         318
  C:168BH         LINE#         319
  C:1693H         LINE#         320
  C:1693H         LINE#         321
  C:1695H         LINE#         322
  C:1697H         LINE#         323
  C:16A0H         LINE#         324
  C:16A0H         LINE#         325
  C:16A3H         LINE#         326
  C:16A6H         LINE#         327
  C:16A9H         LINE#         328
  C:16ACH         LINE#         329
  C:16AFH         LINE#         330
  C:16B1H         LINE#         332
  C:16B1H         LINE#         333
  C:16B4H         LINE#         334
  C:16B6H         LINE#         335
  C:16B6H         LINE#         336
  C:16BAH         LINE#         337
  C:16BCH         LINE#         339
  C:16BCH         LINE#         340
  C:16C1H         LINE#         341
  C:16C1H         LINE#         342
  C:16C3H         LINE#         343
  C:16C5H         LINE#         344
  C:16C7H         LINE#         346
  C:16C7H         LINE#         347
  C:16C9H         LINE#         348
  C:16CBH         LINE#         349
  C:16CBH         LINE#         350
  C:16D1H         LINE#         351
  C:16D1H         LINE#         352
  C:16D1H         LINE#         353
  C:16D3H         LINE#         355
  C:16D3H         LINE#         356
  C:16D6H         LINE#         357
  C:16D9H         LINE#         358
  C:16DBH         LINE#         359
  C:16DDH         LINE#         360
  C:16E0H         LINE#         361
  C:16E0H         LINE#         362
  C:16E0H         LINE#         364
  C:16E6H         LINE#         365
  C:16E6H         LINE#         366
  C:16EAH         LINE#         367
  C:16EAH         LINE#         368
  C:16EDH         LINE#         369
  C:16EDH         LINE#         370
BL51 BANKED LINKER/LOCATER V6.22                                                      02/18/2019  11:57:09  PAGE 54


  C:16EFH         LINE#         371
  C:16EFH         LINE#         372
  C:16EFH         LINE#         373
  C:16F2H         LINE#         374
  C:16F2H         LINE#         375
  C:16F4H         LINE#         376
  C:16F7H         LINE#         377
  C:16F7H         LINE#         378
  C:16F9H         LINE#         379
  C:16FDH         LINE#         380
  C:1700H         LINE#         381
  C:1700H         LINE#         382
  C:1700H         LINE#         383
  C:1700H         LINE#         385
  C:1704H         LINE#         386
  C:1704H         LINE#         387
  C:1707H         LINE#         388
  C:1707H         LINE#         389
  C:170AH         LINE#         390
  C:170AH         LINE#         391
  C:170AH         LINE#         392
  C:170EH         LINE#         393
  C:170EH         LINE#         394
  C:1711H         LINE#         395
  C:1711H         LINE#         396
  C:1713H         LINE#         397
  C:1713H         LINE#         398
  C:1713H         LINE#         400
  C:171CH         LINE#         401
  C:171CH         LINE#         402
  C:171FH         LINE#         403
  C:171FH         LINE#         404
  C:1721H         LINE#         405
  C:1721H         LINE#         406
  C:1724H         LINE#         408
  C:1724H         LINE#         409
  C:172DH         LINE#         410
  C:172DH         LINE#         411
  C:1751H         LINE#         412
  C:1751H         LINE#         413
  C:1759H         LINE#         414
  C:1769H         LINE#         415
  C:1771H         LINE#         416
  C:1782H         LINE#         417
  C:178AH         LINE#         418
  C:179BH         LINE#         419
  C:17A3H         LINE#         420
  C:17B4H         LINE#         421
  C:17BCH         LINE#         422
  C:17CDH         LINE#         423
  C:17D5H         LINE#         424
  C:17E6H         LINE#         425
  C:17EEH         LINE#         426
  C:17FFH         LINE#         427
  C:1802H         LINE#         428
  C:1804H         LINE#         430
  C:1804H         LINE#         431
BL51 BANKED LINKER/LOCATER V6.22                                                      02/18/2019  11:57:09  PAGE 55


  C:180AH         LINE#         432
  C:180AH         LINE#         433
  C:180AH         LINE#         434
  C:180AH         LINE#         435
  C:180AH         LINE#         436
  -------         ENDPROC       TIMER0INT
  -------         PROC          _BUS0OUTPUTDATA
  X:0251H         SYMBOL        pbyData
  -------         DO            
  X:0254H         SYMBOL        byTemp
  -------         ENDDO         
  C:3EA9H         LINE#         453
  C:3EB4H         LINE#         454
  C:3EB4H         LINE#         455
  C:3EB8H         LINE#         457
  C:3EBCH         LINE#         458
  C:3EDAH         LINE#         459
  C:3EDAH         LINE#         460
  C:3EDFH         LINE#         461
  C:3EE2H         LINE#         462
  C:3EE2H         LINE#         463
  C:3EECH         LINE#         464
  C:3EECH         LINE#         465
  C:3F07H         LINE#         466
  C:3F18H         LINE#         467
  C:3F1AH         LINE#         468
  C:3F1FH         LINE#         469
  C:3F21H         LINE#         470
  -------         ENDPROC       _BUS0OUTPUTDATA
  -------         PROC          L?0270
  -------         ENDPROC       L?0270
  -------         PROC          _ADDRCOMPARE
  D:0001H         SYMBOL        pstBusFreq
  C:48A8H         LINE#         486
  C:48A8H         LINE#         487
  C:48A8H         LINE#         488
  C:48B9H         LINE#         489
  C:48B9H         LINE#         490
  C:48BBH         LINE#         491
  C:48BBH         LINE#         492
  C:48CCH         LINE#         493
  C:48CCH         LINE#         494
  C:48CEH         LINE#         495
  C:48CEH         LINE#         496
  C:48DFH         LINE#         497
  C:48DFH         LINE#         498
  C:48E1H         LINE#         499
  C:48E1H         LINE#         500
  C:48E2H         LINE#         501
  -------         ENDPROC       _ADDRCOMPARE
  -------         PROC          _DIRADDRCOMPARE
  D:0001H         SYMBOL        pstBusFreq
  C:4B23H         LINE#         517
  C:4B23H         LINE#         518
  C:4B23H         LINE#         519
  C:4B31H         LINE#         520
  C:4B31H         LINE#         521
BL51 BANKED LINKER/LOCATER V6.22                                                      02/18/2019  11:57:09  PAGE 56


  C:4B33H         LINE#         522
  C:4B33H         LINE#         523
  C:4B41H         LINE#         524
  C:4B41H         LINE#         525
  C:4B43H         LINE#         526
  C:4B43H         LINE#         527
  C:4B51H         LINE#         528
  C:4B51H         LINE#         529
  C:4B53H         LINE#         530
  C:4B53H         LINE#         531
  C:4B54H         LINE#         532
  -------         ENDPROC       _DIRADDRCOMPARE
  -------         PROC          _MAKECH0TIMEROUT
  D:0007H         SYMBOL        byTimerOut
  D:0005H         SYMBOL        byTimerOutCount
  C:5126H         LINE#         548
  C:5126H         LINE#         549
  C:5126H         LINE#         550
  C:512BH         LINE#         551
  C:512DH         LINE#         552
  C:5130H         LINE#         553
  -------         ENDPROC       _MAKECH0TIMEROUT
  -------         PROC          SYSRESET
  C:0009H         LINE#         571
  C:0009H         LINE#         572
  C:0009H         LINE#         574
  -------         ENDPROC       SYSRESET
  -------         PROC          _PARACRCCHECK
  X:024EH         SYMBOL        addr
  -------         DO            
  X:0250H         SYMBOL        crcResult
  X:0251H         SYMBOL        crcData
  X:0252H         SYMBOL        i
  D:0007H         SYMBOL        paraData
  -------         ENDDO         
  C:40D4H         LINE#         575
  C:40DCH         LINE#         576
  C:40DCH         LINE#         577
  C:40DFH         LINE#         578
  C:40E1H         LINE#         581
  C:40E6H         LINE#         582
  C:40EBH         LINE#         583
  C:40EBH         LINE#         584
  C:40F6H         LINE#         585
  C:40FCH         LINE#         586
  C:410AH         LINE#         587
  C:4116H         LINE#         588
  C:4126H         LINE#         589
  C:4129H         LINE#         591
  C:4136H         LINE#         592
  C:4138H         LINE#         593
  -------         ENDPROC       _PARACRCCHECK
  -------         PROC          CALCPARACRC
  -------         DO            
  X:025CH         SYMBOL        crcResult
  D:0007H         SYMBOL        i
  X:025DH         SYMBOL        addr
BL51 BANKED LINKER/LOCATER V6.22                                                      02/18/2019  11:57:09  PAGE 57


  -------         ENDDO         
  C:4752H         LINE#         597
  C:4752H         LINE#         598
  C:4752H         LINE#         599
  C:4757H         LINE#         601
  C:4764H         LINE#         602
  C:4769H         LINE#         603
  C:476BH         LINE#         604
  C:476BH         LINE#         605
  C:4780H         LINE#         606
  C:478AH         LINE#         607
  C:478FH         LINE#         608
  C:4792H         LINE#         609
  C:4797H         LINE#         610
  -------         ENDPROC       CALCPARACRC
  -------         PROC          _READPARAMETER
  X:024EH         SYMBOL        addr
  -------         DO            
  X:0250H         SYMBOL        i
  X:0251H         SYMBOL        pbyData
  -------         ENDDO         
  C:4139H         LINE#         627
  C:4141H         LINE#         628
  C:4141H         LINE#         630
  C:4144H         LINE#         631
  C:4151H         LINE#         633
  C:4156H         LINE#         634
  C:415BH         LINE#         635
  C:415BH         LINE#         636
  C:4175H         LINE#         637
  C:417FH         LINE#         638
  C:418DH         LINE#         639
  C:4199H         LINE#         640
  -------         ENDPROC       _READPARAMETER
  -------         PROC          L?0269
  -------         ENDPROC       L?0269
  -------         PROC          _SAVEPARAMETER
  X:0251H         SYMBOL        addr
  -------         DO            
  X:0253H         SYMBOL        i
  X:0254H         SYMBOL        addr_temp
  X:0256H         SYMBOL        pbyData
  X:0259H         SYMBOL        readtimes
  X:025AH         SYMBOL        writetimes
  X:025BH         SYMBOL        crc_temp
  -------         ENDDO         
  C:26F8H         LINE#         660
  C:2700H         LINE#         661
  C:2700H         LINE#         663
  C:2708H         LINE#         669
  C:2710H         LINE#         670
  C:2713H         LINE#         671
  C:2719H         LINE#         673
  C:2719H         LINE#         674
  C:271EH         LINE#         675
  C:2729H         LINE#         678
  C:272EH         LINE#         679
BL51 BANKED LINKER/LOCATER V6.22                                                      02/18/2019  11:57:09  PAGE 58


  C:273DH         LINE#         680
  C:274BH         LINE#         681
  C:2750H         LINE#         682
  C:2750H         LINE#         683
  C:276AH         LINE#         684
  C:2774H         LINE#         685
  C:2782H         LINE#         686
  C:278EH         LINE#         689
  C:279CH         LINE#         690
  C:27A1H         LINE#         691
  C:27A1H         LINE#         692
  C:27BBH         LINE#         693
  C:27C5H         LINE#         694
  C:27D3H         LINE#         695
  C:27DFH         LINE#         698
  C:27E4H         LINE#         699
  C:27EAH         LINE#         701
  C:27EAH         LINE#         702
  C:27EDH         LINE#         703
  C:27FBH         LINE#         704
  C:280AH         LINE#         707
  C:2816H         LINE#         708
  C:2816H         LINE#         709
  C:2832H         LINE#         711
  C:283CH         LINE#         712
  C:284AH         LINE#         713
  C:2850H         LINE#         714
  C:2862H         LINE#         715
  C:2864H         LINE#         717
  C:286DH         LINE#         718
  C:286DH         LINE#         719
  C:286DH         LINE#         720
  C:286DH         LINE#         722
  C:2878H         LINE#         724
  C:287EH         LINE#         725
  C:287EH         LINE#         726
  C:287EH         LINE#         727
  C:287EH         LINE#         728
  C:2889H         LINE#         731
  -------         ENDPROC       _SAVEPARAMETER
  -------         PROC          INITPARAMETER
  -------         DO            
  X:024CH         SYMBOL        flagData
  X:024DH         SYMBOL        readtimes
  C:3890H         SYMBOL        CheckIapSec0
  C:38C9H         SYMBOL        CheckIapSec1
  C:3911H         SYMBOL        UseInitValue
  -------         ENDDO         
  C:388AH         LINE#         750
  C:388AH         LINE#         751
  C:388AH         LINE#         753
  C:3890H         LINE#         754
  C:3890H         LINE#         757
  C:3890H         LINE#         759
  C:389BH         LINE#         762
  C:38A3H         LINE#         765
  C:38A9H         LINE#         766
BL51 BANKED LINKER/LOCATER V6.22                                                      02/18/2019  11:57:09  PAGE 59


  C:38A9H         LINE#         768
  C:38AEH         LINE#         769
  C:38B9H         LINE#         770
  C:38BCH         LINE#         772
  C:38C3H         LINE#         773
  C:38C3H         LINE#         774
  C:38C9H         LINE#         776
  C:38C9H         LINE#         777
  C:38C9H         LINE#         778
  C:38C9H         LINE#         781
  C:38C9H         LINE#         782
  C:38C9H         LINE#         783
  C:38CFH         LINE#         785
  C:38CFH         LINE#         786
  C:38DBH         LINE#         788
  C:38E3H         LINE#         791
  C:38E9H         LINE#         792
  C:38E9H         LINE#         793
  C:38EEH         LINE#         794
  C:38FAH         LINE#         795
  C:38FDH         LINE#         797
  C:3904H         LINE#         798
  C:3904H         LINE#         799
  C:390BH         LINE#         800
  C:3911H         LINE#         802
  C:3911H         LINE#         803
  C:3911H         LINE#         804
  C:3911H         LINE#         806
  C:3911H         LINE#         807
  C:3911H         LINE#         808
  C:3917H         LINE#         809
  C:391BH         LINE#         810
  C:391EH         LINE#         811
  C:3921H         LINE#         813
  C:3925H         LINE#         814
  C:3927H         LINE#         815
  C:3929H         LINE#         816
  C:3930H         LINE#         817
  C:3938H         LINE#         819
  C:3938H         LINE#         820
  C:3938H         LINE#         821
  C:393BH         LINE#         822
  -------         ENDPROC       INITPARAMETER
  -------         PROC          BUS0RECDEAL
  -------         DO            
  X:024DH         SYMBOL        x
  X:024EH         SYMBOL        y
  X:024FH         SYMBOL        temp1
  X:0250H         SYMBOL        temp2
  -------         ENDDO         
  C:004EH         LINE#         840
  C:004EH         LINE#         841
  C:004EH         LINE#         844
  C:0052H         LINE#         845
  C:0065H         LINE#         846
  C:0067H         LINE#         847
  C:006CH         LINE#         850
BL51 BANKED LINKER/LOCATER V6.22                                                      02/18/2019  11:57:09  PAGE 60


  C:007AH         LINE#         851
  C:007AH         LINE#         853
  C:007AH         LINE#         855
  C:00EBH         LINE#         856
  C:00EBH         LINE#         857
  C:00EBH         LINE#         858
  C:00F1H         LINE#         859
  C:00F1H         LINE#         860
  C:00F3H         LINE#         861
  C:00F9H         LINE#         862
  C:011DH         LINE#         865
  C:011DH         LINE#         866
  C:012BH         LINE#         867
  C:013AH         LINE#         868
  C:0141H         LINE#         870
  C:014EH         LINE#         871
  C:015DH         LINE#         872
  C:0164H         LINE#         874
  C:0171H         LINE#         875
  C:0180H         LINE#         876
  C:0187H         LINE#         878
  C:0187H         LINE#         879
  C:0187H         LINE#         880
  C:0187H         LINE#         881
  C:018AH         LINE#         882
  C:018AH         LINE#         884
  C:0191H         LINE#         885
  C:0191H         LINE#         886
  C:0197H         LINE#         887
  C:0199H         LINE#         888
  C:019BH         LINE#         890
  C:019BH         LINE#         891
  C:01A0H         LINE#         892
  C:01A0H         LINE#         895
  C:01A7H         LINE#         896
  C:01A7H         LINE#         897
  C:01A9H         LINE#         898
  C:01AFH         LINE#         899
  C:01AFH         LINE#         900
  C:01B1H         LINE#         901
  C:01B4H         LINE#         902
  C:01B6H         LINE#         903
  C:01B9H         LINE#         905
  C:01B9H         LINE#         906
  C:01BDH         LINE#         907
  C:01BDH         LINE#         908
  C:01BDH         LINE#         909
  C:01BDH         LINE#         910
  C:01C0H         LINE#         911
  C:01C0H         LINE#         912
  C:01C0H         LINE#         913
  C:01C0H         LINE#         914
  C:01C0H         LINE#         915
  C:01C5H         LINE#         916
  C:01C8H         LINE#         917
  C:01D1H         LINE#         918
  C:01D3H         LINE#         919
BL51 BANKED LINKER/LOCATER V6.22                                                      02/18/2019  11:57:09  PAGE 61


  C:01D4H         LINE#         920
  C:01D4H         LINE#         921
  C:01D4H         LINE#         922
  C:01D4H         LINE#         923
  C:01D4H         LINE#         924
  C:01D9H         LINE#         925
  C:01D9H         LINE#         926
  C:01DCH         LINE#         927
  C:01DCH         LINE#         932
  C:01DCH         LINE#         933
  C:01DCH         LINE#         934
  C:01E1H         LINE#         935
  C:01E9H         LINE#         936
  C:01ECH         LINE#         937
  C:01ECH         LINE#         938
  C:01ECH         LINE#         939
  C:01ECH         LINE#         940
  C:01ECH         LINE#         941
  C:01F3H         LINE#         942
  C:01F8H         LINE#         943
  C:01F8H         LINE#         944
  C:01FBH         LINE#         945
  C:01FBH         LINE#         946
  C:0203H         LINE#         947
  C:020BH         LINE#         948
  C:0213H         LINE#         949
  C:021BH         LINE#         950
  C:0223H         LINE#         951
  C:022BH         LINE#         952
  C:0236H         LINE#         953
  C:0236H         LINE#         954
  C:023EH         LINE#         955
  C:0246H         LINE#         956
  C:024CH         LINE#         957
  C:0254H         LINE#         958
  C:028CH         LINE#         959
  C:02C4H         LINE#         962
  C:02CBH         LINE#         963
  C:02D3H         LINE#         964
  C:02D9H         LINE#         965
  C:02E1H         LINE#         966
  C:0319H         LINE#         967
  C:0351H         LINE#         970
  C:0358H         LINE#         971
  C:0360H         LINE#         972
  C:0366H         LINE#         973
  C:036EH         LINE#         974
  C:03A6H         LINE#         975
  C:03DEH         LINE#         978
  C:03E8H         LINE#         979
  C:03F0H         LINE#         980
  C:03F6H         LINE#         981
  C:03FEH         LINE#         982
  C:0436H         LINE#         983
  C:046EH         LINE#         986
  C:0475H         LINE#         987
  C:047DH         LINE#         988
BL51 BANKED LINKER/LOCATER V6.22                                                      02/18/2019  11:57:09  PAGE 62


  C:0483H         LINE#         989
  C:048BH         LINE#         990
  C:04C3H         LINE#         991
  C:04FBH         LINE#         993
  C:04FBH         LINE#         994
  C:04FBH         LINE#         996
  C:04FBH         LINE#         998
  C:050CH         LINE#         1001
  C:050CH         LINE#         1002
  C:050EH         LINE#         1003
  C:050EH         LINE#         1005
  C:050FH         LINE#         1006
  C:050FH         LINE#         1007
  C:050FH         LINE#         1008
  C:0511H         LINE#         1010
  C:0511H         LINE#         1011
  C:051CH         LINE#         1012
  C:051CH         LINE#         1013
  C:0520H         LINE#         1014
  C:0522H         LINE#         1015
  C:0529H         LINE#         1016
  C:0529H         LINE#         1017
  C:052AH         LINE#         1019
  C:052AH         LINE#         1020
  C:0535H         LINE#         1021
  C:0535H         LINE#         1022
  C:053DH         LINE#         1023
  C:053DH         LINE#         1024
  C:053EH         LINE#         1025
  C:053EH         LINE#         1026
  C:053EH         LINE#         1027
  C:053EH         LINE#         1028
  C:056BH         LINE#         1031
  C:056BH         LINE#         1032
  C:0572H         LINE#         1033
  C:0575H         LINE#         1034
  C:0575H         LINE#         1035
  C:0575H         LINE#         1036
  C:0575H         LINE#         1037
  C:0580H         LINE#         1038
  C:0580H         LINE#         1039
  C:0584H         LINE#         1040
  C:0585H         LINE#         1041
  C:058DH         LINE#         1042
  C:058DH         LINE#         1043
  C:058FH         LINE#         1044
  C:0598H         LINE#         1045
  C:0598H         LINE#         1046
  C:059AH         LINE#         1047
  C:059AH         LINE#         1048
  C:059AH         LINE#         1049
  C:059BH         LINE#         1051
  C:059BH         LINE#         1052
  C:059FH         LINE#         1053
  C:05A0H         LINE#         1055
  C:05A0H         LINE#         1056
  C:05A6H         LINE#         1057
BL51 BANKED LINKER/LOCATER V6.22                                                      02/18/2019  11:57:09  PAGE 63


  C:05A8H         LINE#         1059
  C:05A8H         LINE#         1060
  C:05A8H         LINE#         1062
  C:05A8H         LINE#         1063
  C:05A8H         LINE#         1065
  C:05A8H         LINE#         1066
  C:05A8H         LINE#         1068
  C:05A8H         LINE#         1069
  C:05A8H         LINE#         1070
  C:05A8H         LINE#         1071
  C:05AAH         LINE#         1073
  C:05AAH         LINE#         1074
  C:05B8H         LINE#         1075
  C:05C7H         LINE#         1077
  C:05D5H         LINE#         1078
  C:05E4H         LINE#         1080
  C:05F2H         LINE#         1081
  C:0601H         LINE#         1083
  C:0608H         LINE#         1084
  C:060CH         LINE#         1085
  C:0610H         LINE#         1086
  C:0611H         LINE#         1088
  C:0611H         LINE#         1089
  C:061FH         LINE#         1090
  C:061FH         LINE#         1091
  C:0621H         LINE#         1092
  C:0621H         LINE#         1093
  C:0622H         LINE#         1094
  C:0622H         LINE#         1095
  C:0630H         LINE#         1096
  C:0630H         LINE#         1097
  C:0632H         LINE#         1098
  C:0632H         LINE#         1099
  C:0633H         LINE#         1100
  C:0633H         LINE#         1101
  C:063EH         LINE#         1102
  C:063EH         LINE#         1103
  C:063EH         LINE#         1104
  C:063EH         LINE#         1105
  C:063EH         LINE#         1106
  C:0641H         LINE#         1107
  C:0644H         LINE#         1108
  C:0644H         LINE#         1109
  C:0644H         LINE#         1110
  C:0644H         LINE#         1111
  C:064CH         LINE#         1112
  C:064CH         LINE#         1113
  C:064FH         LINE#         1115
  C:064FH         LINE#         1116
  C:0654H         LINE#         1117
  C:0654H         LINE#         1118
  C:0656H         LINE#         1120
  C:0656H         LINE#         1121
  C:065EH         LINE#         1122
  C:065EH         LINE#         1123
  C:0662H         LINE#         1125
  C:0665H         LINE#         1126
BL51 BANKED LINKER/LOCATER V6.22                                                      02/18/2019  11:57:09  PAGE 64


  C:0667H         LINE#         1127
  C:0669H         LINE#         1128
  C:066BH         LINE#         1129
  C:066EH         LINE#         1130
  C:066EH         LINE#         1131
  C:066FH         LINE#         1133
  C:066FH         LINE#         1134
  C:0677H         LINE#         1135
  C:067FH         LINE#         1136
  C:0687H         LINE#         1137
  C:068BH         LINE#         1138
  C:068FH         LINE#         1139
  C:0692H         LINE#         1140
  C:0694H         LINE#         1141
  C:069DH         LINE#         1142
  C:069DH         LINE#         1143
  C:069DH         LINE#         1144
  C:06D3H         LINE#         1145
  C:06D3H         LINE#         1146
  C:06D3H         LINE#         1147
  C:06DDH         LINE#         1148
  C:06DFH         LINE#         1149
  C:06DFH         LINE#         1150
  C:06E9H         LINE#         1151
  C:06EBH         LINE#         1152
  C:06EBH         LINE#         1153
  C:06F5H         LINE#         1154
  C:06F7H         LINE#         1155
  C:06F7H         LINE#         1156
  C:06FCH         LINE#         1157
  C:06FEH         LINE#         1158
  C:06FEH         LINE#         1159
  C:0708H         LINE#         1160
  C:070AH         LINE#         1161
  C:070AH         LINE#         1162
  C:070FH         LINE#         1163
  C:0711H         LINE#         1164
  C:0711H         LINE#         1165
  C:071BH         LINE#         1166
  C:071DH         LINE#         1167
  C:071DH         LINE#         1168
  C:0722H         LINE#         1169
  C:0724H         LINE#         1170
  C:0724H         LINE#         1171
  C:072DH         LINE#         1172
  C:072DH         LINE#         1173
  C:072DH         LINE#         1176
  C:072DH         LINE#         1177
  C:0730H         LINE#         1178
  C:0736H         LINE#         1179
  C:0736H         LINE#         1180
  C:0736H         LINE#         1181
  C:0736H         LINE#         1183
  -------         ENDPROC       BUS0RECDEAL
  -------         PROC          BUS0SENDDEAL
  C:4B55H         LINE#         1201
  C:4B55H         LINE#         1202
BL51 BANKED LINKER/LOCATER V6.22                                                      02/18/2019  11:57:09  PAGE 65


  C:4B55H         LINE#         1204
  C:4B59H         LINE#         1205
  C:4B6CH         LINE#         1206
  C:4B6EH         LINE#         1207
  C:4B73H         LINE#         1214
  C:4B7BH         LINE#         1215
  C:4B7BH         LINE#         1216
  C:4B7BH         LINE#         1217
  C:4B7EH         LINE#         1218
  C:4B7EH         LINE#         1219
  C:4B85H         LINE#         1220
  C:4B85H         LINE#         1221
  C:4B85H         LINE#         1222
  C:4B85H         LINE#         1223
  C:4B85H         LINE#         1225
  C:4B85H         LINE#         1226
  -------         ENDPROC       BUS0SENDDEAL
  -------         PROC          BUS0MANAGE
  C:4EA1H         LINE#         1242
  C:4EA1H         LINE#         1243
  C:4EA1H         LINE#         1244
  C:4EA1H         LINE#         1245
  C:4EA1H         LINE#         1246
  C:4EA4H         LINE#         1247
  C:4EA7H         LINE#         1248
  C:4EA7H         LINE#         1249
  C:4EAEH         LINE#         1250
  C:4EAEH         LINE#         1251
  C:4EB1H         LINE#         1252
  C:4EB1H         LINE#         1253
  C:4EB8H         LINE#         1254
  C:4EB8H         LINE#         1255
  C:4EBFH         LINE#         1256
  -------         ENDPROC       BUS0MANAGE
  -------         PROC          TIMEROUTDEAL
  -------         DO            
  X:024DH         SYMBOL        x
  X:024EH         SYMBOL        y
  C:2DFAH         SYMBOL        TIMER0OUTDEAL
  -------         ENDDO         
  C:2DE0H         LINE#         1274
  C:2DE0H         LINE#         1275
  C:2DE0H         LINE#         1278
  C:2DE6H         LINE#         1279
  C:2DE6H         LINE#         1280
  C:2DE8H         LINE#         1281
  C:2DEBH         LINE#         1282
  C:2DEBH         LINE#         1283
  C:2DEFH         LINE#         1284
  C:2DEFH         LINE#         1285
  C:2DF1H         LINE#         1286
  C:2DF1H         LINE#         1288
  C:2DF1H         LINE#         1289
  C:2DF7H         LINE#         1290
  C:2DFAH         LINE#         1291
  C:2DFAH         LINE#         1292
  C:2DFAH         LINE#         1293
BL51 BANKED LINKER/LOCATER V6.22                                                      02/18/2019  11:57:09  PAGE 66


  C:2DFDH         LINE#         1294
  C:2DFDH         LINE#         1295
  C:2E05H         LINE#         1296
  C:2E0DH         LINE#         1297
  C:2E15H         LINE#         1298
  C:2E19H         LINE#         1299
  C:2E21H         LINE#         1300
  C:2E29H         LINE#         1301
  C:2E31H         LINE#         1302
  C:2E3AH         LINE#         1303
  C:2E3AH         LINE#         1305
  C:2E3CH         LINE#         1307
  C:2E3CH         LINE#         1308
  C:2E42H         LINE#         1309
  C:2E42H         LINE#         1310
  C:2E42H         LINE#         1311
  C:2E42H         LINE#         1312
  C:2E42H         LINE#         1314
  C:2E4AH         LINE#         1315
  C:2E4AH         LINE#         1316
  C:2E50H         LINE#         1317
  C:2E5AH         LINE#         1318
  C:2E5AH         LINE#         1319
  C:2E5CH         LINE#         1320
  C:2E60H         LINE#         1321
  C:2E60H         LINE#         1322
  C:2E60H         LINE#         1324
  C:2E68H         LINE#         1325
  C:2E68H         LINE#         1326
  C:2E6BH         LINE#         1327
  C:2E71H         LINE#         1328
  C:2E71H         LINE#         1329
  C:2E7BH         LINE#         1330
  C:2E7DH         LINE#         1331
  C:2E80H         LINE#         1332
  C:2E80H         LINE#         1333
  C:2EA0H         LINE#         1334
  C:2EA2H         LINE#         1336
  C:2EA2H         LINE#         1337
  C:2EB5H         LINE#         1338
  C:2EB5H         LINE#         1340
  C:2EB5H         LINE#         1341
  C:2EB5H         LINE#         1342
  C:2EBFH         LINE#         1343
  C:2EBFH         LINE#         1344
  C:2ECDH         LINE#         1345
  C:2ECDH         LINE#         1346
  C:2ED7H         LINE#         1347
  C:2ED7H         LINE#         1348
  C:2ED9H         LINE#         1349
  C:2ED9H         LINE#         1350
  C:2ED9H         LINE#         1351
  C:2ED9H         LINE#         1353
  C:2EE3H         LINE#         1354
  C:2EE3H         LINE#         1355
  C:2EF1H         LINE#         1356
  C:2EF1H         LINE#         1357
BL51 BANKED LINKER/LOCATER V6.22                                                      02/18/2019  11:57:09  PAGE 67


  C:2EF5H         LINE#         1358
  C:2EFBH         LINE#         1359
  C:2EFEH         LINE#         1360
  C:2EFEH         LINE#         1361
  C:2EFEH         LINE#         1362
  -------         ENDPROC       TIMEROUTDEAL
  -------         PROC          TIMEROUTMANAGER
  C:4E5DH         LINE#         1378
  C:4E5DH         LINE#         1379
  C:4E5DH         LINE#         1380
  C:4E5DH         LINE#         1381
  C:4E5DH         LINE#         1382
  C:4E60H         LINE#         1383
  C:4E67H         LINE#         1384
  C:4E6DH         LINE#         1385
  C:4E6DH         LINE#         1386
  C:4E74H         LINE#         1387
  C:4E76H         LINE#         1389
  C:4E76H         LINE#         1390
  C:4E7DH         LINE#         1391
  C:4E7DH         LINE#         1392
  -------         ENDPROC       TIMEROUTMANAGER
  -------         ENDMOD        SINGLEBUS

  -------         MODULE        SPI
  C:0000H         SYMBOL        _ICE_DUMMY_
  D:0080H         PUBLIC        P0
  D:0090H         PUBLIC        P1
  D:00A0H         PUBLIC        P2
  D:00B0H         PUBLIC        P3
  D:00C0H         PUBLIC        P4
  D:00C8H         PUBLIC        P5
  D:00CEH         PUBLIC        SPCTL
  D:00A8H         PUBLIC        IE
  D:00B8H         PUBLIC        IP
  C:5102H         PUBLIC        SpiNormalMode
  D:00D8H         PUBLIC        CCON
  D:0098H         PUBLIC        SCON
  D:0088H         PUBLIC        TCON
  B:0090H.6       PUBLIC        MISO
  D:00AFH         PUBLIC        IE2
  D:00E0H         PUBLIC        ACC
  C:510EH         PUBLIC        SpiLcdMode
  D:00C1H         PUBLIC        WDT_CONTR
  C:51A6H         PUBLIC        SpiInt
  D:00CDH         PUBLIC        SPSTAT
  C:5075H         PUBLIC        _SPI_WriteByte
  D:00D0H         PUBLIC        PSW
  D:00CFH         PUBLIC        SPDAT
  -------         PROC          SPINORMALMODE
  C:5102H         LINE#         41
  C:5102H         LINE#         42
  C:5102H         LINE#         46
  C:5105H         LINE#         47
  C:5108H         LINE#         48
  C:510BH         LINE#         49
  C:510DH         LINE#         50
BL51 BANKED LINKER/LOCATER V6.22                                                      02/18/2019  11:57:09  PAGE 68


  -------         ENDPROC       SPINORMALMODE
  -------         PROC          SPILCDMODE
  C:510EH         LINE#         54
  C:510EH         LINE#         55
  C:510EH         LINE#         58
  C:5111H         LINE#         59
  C:5114H         LINE#         60
  C:5117H         LINE#         61
  C:5119H         LINE#         64
  -------         ENDPROC       SPILCDMODE
  -------         PROC          SPIINT
  C:51A6H         LINE#         84
  C:51A6H         LINE#         86
  C:51A9H         LINE#         87
  C:51ACH         LINE#         88
  -------         ENDPROC       SPIINT
  -------         PROC          _SPI_WRITEBYTE
  D:0007H         SYMBOL        dat
  C:5075H         LINE#         106
  C:5075H         LINE#         107
  C:5075H         LINE#         108
  C:5078H         LINE#         109
  C:507AH         LINE#         110
  C:507FH         LINE#         111
  C:5082H         LINE#         112
  C:5084H         LINE#         113
  -------         ENDPROC       _SPI_WRITEBYTE
  -------         ENDMOD        SPI

  -------         MODULE        USART
  C:0000H         SYMBOL        _ICE_DUMMY_
  D:0080H         PUBLIC        P0
  D:00B2H         PUBLIC        P3M0
  D:0090H         PUBLIC        P1
  D:00B1H         PUBLIC        P3M1
  D:00A0H         PUBLIC        P2
  D:00B0H         PUBLIC        P3
  D:00C0H         PUBLIC        P4
  D:00C8H         PUBLIC        P5
  X:0000H         PUBLIC        stUsartCfg
  D:00A8H         PUBLIC        IE
  C:3F22H         PUBLIC        _CheckPsk
  B:00A8H.4       PUBLIC        ES
  D:00B8H         PUBLIC        IP
  B:0098H.0       PUBLIC        RI
  B:0098H.1       PUBLIC        TI
  D:00D8H         PUBLIC        CCON
  B:0027H.0       PUBLIC        bUsart0RecFinish
  C:3D2BH         PUBLIC        UsartInit
  D:0099H         PUBLIC        SBUF
  D:0087H         PUBLIC        PCON
  D:0098H         PUBLIC        SCON
  B:0027H.1       PUBLIC        bRS485DataError
  D:0088H         PUBLIC        TCON
  D:008EH         PUBLIC        AUXR
  D:00E0H         PUBLIC        ACC
  C:0B6BH         PUBLIC        Usart0RecDeal
BL51 BANKED LINKER/LOCATER V6.22                                                      02/18/2019  11:57:09  PAGE 69


  X:000FH         PUBLIC        byUsart0RecBuf
  C:51B3H         PUBLIC        _Send_Data_Byte
  B:0098H.4       PUBLIC        REN
  D:009AH         PUBLIC        S2CON
  C:50A4H         PUBLIC        _Send_Data
  D:009CH         PUBLIC        BRT
  C:419CH         PUBLIC        _GetPskCrc
  C:2A09H         PUBLIC        UART0
  C:4F52H         PUBLIC        UART1
  B:00B0H.2       PUBLIC        MIC_CTRL
  D:00D0H         PUBLIC        PSW
  -------         PROC          USARTINIT
  C:3D2BH         LINE#         54
  C:3D2BH         LINE#         55
  C:3D2BH         LINE#         56
  C:3D2EH         LINE#         59
  C:3D31H         LINE#         60
  C:3D34H         LINE#         63
  C:3D3EH         LINE#         64
  C:3D43H         LINE#         65
  C:3D45H         LINE#         66
  C:3D49H         LINE#         67
  C:3D4DH         LINE#         68
  C:3D4FH         LINE#         69
  C:3D5BH         LINE#         71
  C:3D5EH         LINE#         81
  C:3D61H         LINE#         82
  C:3D64H         LINE#         84
  C:3D74H         LINE#         85
  C:3D74H         LINE#         86
  C:3D77H         LINE#         88
  C:3D83H         LINE#         91
  C:3D85H         LINE#         93
  C:3D85H         LINE#         94
  C:3D88H         LINE#         96
  C:3DA3H         LINE#         97
  C:3DA3H         LINE#         99
  C:3DA6H         LINE#         101
  C:3DA8H         LINE#         102
  C:3DAAH         LINE#         103
  C:3DACH         LINE#         104
  C:3DAEH         LINE#         105
  -------         ENDPROC       USARTINIT
  -------         PROC          UART0
  -------         DO            
  D:0007H         SYMBOL        byTemp
  -------         ENDDO         
  C:2A09H         LINE#         122
  C:2A22H         LINE#         125
  C:2A28H         LINE#         126
  C:2A28H         LINE#         127
  C:2A2AH         LINE#         128
  C:2A2CH         LINE#         129
  C:2A36H         LINE#         130
  C:2A36H         LINE#         131
  C:2A3CH         LINE#         132
  C:2A3CH         LINE#         133
BL51 BANKED LINKER/LOCATER V6.22                                                      02/18/2019  11:57:09  PAGE 70


  C:2A3FH         LINE#         134
  C:2A42H         LINE#         136
  C:2A42H         LINE#         137
  C:2A42H         LINE#         138
  C:2A48H         LINE#         139
  C:2A60H         LINE#         140
  C:2A77H         LINE#         141
  C:2A77H         LINE#         142
  C:2A77H         LINE#         143
  C:2A7BH         LINE#         144
  C:2A7BH         LINE#         145
  C:2A81H         LINE#         147
  C:2A87H         LINE#         148
  C:2A8AH         LINE#         150
  C:2A8AH         LINE#         151
  C:2A8EH         LINE#         152
  C:2A8EH         LINE#         153
  C:2A91H         LINE#         154
  C:2A91H         LINE#         155
  C:2A9CH         LINE#         156
  C:2A9CH         LINE#         157
  C:2AA2H         LINE#         158
  C:2AA7H         LINE#         159
  C:2AA7H         LINE#         160
  C:2AAAH         LINE#         161
  C:2AAAH         LINE#         162
  C:2AB0H         LINE#         163
  C:2AB5H         LINE#         164
  C:2AB5H         LINE#         165
  C:2ABDH         LINE#         166
  C:2AC0H         LINE#         167
  C:2AC6H         LINE#         168
  C:2AC6H         LINE#         170
  C:2AD5H         LINE#         171
  C:2AE5H         LINE#         172
  C:2AE5H         LINE#         173
  C:2AE8H         LINE#         174
  C:2AF6H         LINE#         175
  C:2AF8H         LINE#         177
  C:2AF8H         LINE#         178
  C:2AFAH         LINE#         179
  C:2AFBH         LINE#         180
  C:2AFBH         LINE#         181
  C:2AFBH         LINE#         182
  C:2AFDH         LINE#         183
  C:2AFDH         LINE#         184
  C:2B0BH         LINE#         185
  C:2B0BH         LINE#         186
  C:2B0FH         LINE#         187
  C:2B0FH         LINE#         188
  C:2B11H         LINE#         189
  C:2B11H         LINE#         190
  C:2B16H         LINE#         191
  C:2B17H         LINE#         192
  C:2B17H         LINE#         193
  C:2B19H         LINE#         194
  C:2B19H         LINE#         195
BL51 BANKED LINKER/LOCATER V6.22                                                      02/18/2019  11:57:09  PAGE 71


  C:2B1EH         LINE#         196
  C:2B22H         LINE#         197
  C:2B24H         LINE#         198
  C:2B24H         LINE#         199
  C:2B24H         LINE#         200
  C:2B27H         LINE#         201
  C:2B27H         LINE#         202
  C:2B29H         LINE#         203
  C:2B37H         LINE#         204
  C:2B45H         LINE#         205
  C:2B4FH         LINE#         206
  C:2B4FH         LINE#         207
  C:2B68H         LINE#         209
  C:2B68H         LINE#         210
  C:2B68H         LINE#         211
  -------         ENDPROC       UART0
  -------         PROC          UART1
  C:4F52H         LINE#         230
  C:4F56H         LINE#         232
  C:4F5BH         LINE#         233
  C:4F5BH         LINE#         234
  C:4F5EH         LINE#         235
  C:4F60H         LINE#         236
  C:4F65H         LINE#         237
  C:4F65H         LINE#         238
  C:4F68H         LINE#         239
  C:4F68H         LINE#         240
  -------         ENDPROC       UART1
  -------         PROC          _GETPSKCRC
  X:0325H         SYMBOL        pstDataFreq
  -------         DO            
  X:0328H         SYMBOL        pbyData
  X:032BH         SYMBOL        uiLen
  D:0005H         SYMBOL        byCrc
  -------         ENDDO         
  C:419CH         LINE#         257
  C:41A7H         LINE#         258
  C:41A7H         LINE#         261
  C:41A9H         LINE#         263
  C:41B9H         LINE#         264
  C:41D7H         LINE#         265
  C:41E5H         LINE#         266
  C:41E5H         LINE#         267
  C:41FAH         LINE#         268
  C:41FCH         LINE#         269
  C:41FEH         LINE#         270
  -------         ENDPROC       _GETPSKCRC
  -------         PROC          _CHECKPSK
  X:024FH         SYMBOL        pstDataFreq
  -------         DO            
  X:0252H         SYMBOL        pbyData
  X:0255H         SYMBOL        uiLen
  D:0005H         SYMBOL        byCrc
  -------         ENDDO         
  C:3F22H         LINE#         286
  C:3F2DH         LINE#         287
  C:3F2DH         LINE#         290
BL51 BANKED LINKER/LOCATER V6.22                                                      02/18/2019  11:57:09  PAGE 72


  C:3F2FH         LINE#         292
  C:3F3FH         LINE#         293
  C:3F5DH         LINE#         294
  C:3F6BH         LINE#         295
  C:3F6BH         LINE#         296
  C:3F80H         LINE#         297
  C:3F82H         LINE#         298
  C:3F93H         LINE#         299
  C:3F93H         LINE#         300
  C:3F96H         LINE#         301
  C:3F96H         LINE#         302
  C:3F98H         LINE#         303
  -------         ENDPROC       _CHECKPSK
  -------         PROC          USART0RECDEAL
  -------         DO            
  D:0001H         SYMBOL        pstDataFreq
  X:024CH         SYMBOL        uiDataLen
  X:024EH         SYMBOL        i
  -------         ENDDO         
  C:0B6BH         LINE#         320
  C:0B6BH         LINE#         321
  C:0B6BH         LINE#         326
  C:0B80H         LINE#         328
  C:0B88H         LINE#         329
  C:0B90H         LINE#         330
  C:0B98H         LINE#         331
  C:0B9EH         LINE#         335
  C:0BDEH         LINE#         339
  C:0BDEH         LINE#         341
  C:0BF0H         LINE#         342
  C:0BF0H         LINE#         343
  C:0BF6H         LINE#         344
  C:0BF6H         LINE#         345
  C:0BF6H         LINE#         346
  C:0BF6H         LINE#         347
  C:0BF6H         LINE#         348
  C:0BF9H         LINE#         350
  C:0BF9H         LINE#         351
  C:0C00H         LINE#         352
  C:0C00H         LINE#         353
  C:0C08H         LINE#         354
  C:0C08H         LINE#         356
  C:0C20H         LINE#         357
  C:0C20H         LINE#         358
  C:0C20H         LINE#         359
  C:0C28H         LINE#         360
  C:0C28H         LINE#         361
  C:0C2BH         LINE#         362
  C:0C2EH         LINE#         363
  C:0C39H         LINE#         364
  C:0C3CH         LINE#         365
  C:0C58H         LINE#         366
  C:0C6BH         LINE#         369
  C:0C6BH         LINE#         370
  C:0C6DH         LINE#         372
  C:0C6DH         LINE#         373
  C:0C70H         LINE#         374
BL51 BANKED LINKER/LOCATER V6.22                                                      02/18/2019  11:57:09  PAGE 73


  C:0C9DH         LINE#         375
  C:0CB7H         LINE#         376
  C:0CBAH         LINE#         377
  C:0CBAH         LINE#         379
  C:0CC5H         LINE#         380
  C:0CC5H         LINE#         381
  C:0CC8H         LINE#         382
  C:0CDFH         LINE#         383
  C:0CE2H         LINE#         384
  C:0CEDH         LINE#         385
  C:0CEDH         LINE#         386
  C:0CF4H         LINE#         387
  C:0CF6H         LINE#         388
  C:0CF6H         LINE#         389
  C:0CF6H         LINE#         390
  C:0CF6H         LINE#         391
  C:0CF9H         LINE#         393
  C:0CF9H         LINE#         394
  C:0D01H         LINE#         395
  C:0D01H         LINE#         396
  C:0D04H         LINE#         397
  C:0D0FH         LINE#         398
  C:0D12H         LINE#         399
  C:0D2EH         LINE#         400
  C:0D42H         LINE#         403
  C:0D44H         LINE#         405
  C:0D44H         LINE#         406
  C:0D72H         LINE#         407
  C:0D8CH         LINE#         408
  C:0D8CH         LINE#         410
  C:0D97H         LINE#         411
  C:0D97H         LINE#         412
  C:0DAEH         LINE#         413
  C:0DB9H         LINE#         414
  C:0DB9H         LINE#         415
  C:0DC0H         LINE#         416
  C:0DC2H         LINE#         417
  C:0DC2H         LINE#         418
  C:0DC2H         LINE#         419
  C:0DC2H         LINE#         420
  C:0DC5H         LINE#         421
  C:0DC5H         LINE#         422
  C:0DCDH         LINE#         423
  C:0DCDH         LINE#         424
  C:0DD0H         LINE#         425
  C:0DDBH         LINE#         426
  C:0DDEH         LINE#         427
  C:0DFAH         LINE#         428
  C:0E0EH         LINE#         431
  C:0E10H         LINE#         433
  C:0E10H         LINE#         434
  C:0E3DH         LINE#         435
  C:0E57H         LINE#         436
  C:0E57H         LINE#         438
  C:0E5EH         LINE#         439
  C:0E5EH         LINE#         440
  C:0E75H         LINE#         441
BL51 BANKED LINKER/LOCATER V6.22                                                      02/18/2019  11:57:09  PAGE 74


  C:0E7DH         LINE#         442
  C:0E7DH         LINE#         443
  C:0E84H         LINE#         444
  C:0E89H         LINE#         445
  C:0E93H         LINE#         446
  C:0E93H         LINE#         447
  C:0E93H         LINE#         448
  C:0E93H         LINE#         450
  C:0E93H         LINE#         451
  C:0EA2H         LINE#         453
  C:0EA8H         LINE#         454
  C:0EACH         LINE#         455
  C:0EADH         LINE#         457
  C:0EADH         LINE#         458
  C:0EAFH         LINE#         460
  C:0EAFH         LINE#         461
  C:0EB5H         LINE#         462
  C:0EB8H         LINE#         463
  C:0EC1H         LINE#         464
  C:0EC1H         LINE#         465
  C:0EC1H         LINE#         466
  -------         ENDPROC       USART0RECDEAL
  -------         PROC          _SEND_DATA
  X:0259H         SYMBOL        Databuf
  X:025CH         SYMBOL        l
  C:50A4H         LINE#         468
  C:50B2H         LINE#         469
  C:50B2H         LINE#         492
  -------         ENDPROC       _SEND_DATA
  -------         PROC          _SEND_DATA_BYTE
  X:024CH         SYMBOL        SendData
  C:51B3H         LINE#         495
  C:51B8H         LINE#         496
  C:51B8H         LINE#         513
  -------         ENDPROC       _SEND_DATA_BYTE
  -------         ENDMOD        USART

  -------         MODULE        PCT25VF
  C:0000H         SYMBOL        _ICE_DUMMY_
  C:4E7FH         PUBLIC        WREN_Check
  D:0080H         PUBLIC        P0
  D:0090H         PUBLIC        P1
  D:00A0H         PUBLIC        P2
  C:501CH         PUBLIC        _Send_Byte
  D:00B0H         PUBLIC        P3
  D:00C0H         PUBLIC        P4
  C:4C94H         PUBLIC        _Byte_Write
  D:00C8H         PUBLIC        P5
  D:00A8H         PUBLIC        IE
  C:5053H         PUBLIC        Read_Status_Register
  C:4D5BH         PUBLIC        Get_Byte
  D:00B8H         PUBLIC        IP
  C:51BCH         PUBLIC        CE_Low
  C:4B86H         PUBLIC        Poll_SO
  C:4DADH         PUBLIC        Wait_Busy
  C:000AH         PUBLIC        Hold_Low
  D:00D8H         PUBLIC        CCON
BL51 BANKED LINKER/LOCATER V6.22                                                      02/18/2019  11:57:09  PAGE 75


  C:467AH         PUBLIC        Jedec_ID_Read
  C:4BE4H         PUBLIC        WREN_AAI_Check
  X:02C7H         PUBLIC        FRAM_BUFF
  C:5152H         PUBLIC        DBSY
  C:5147H         PUBLIC        EBSY
  D:0098H         PUBLIC        SCON
  D:0088H         PUBLIC        TCON
  C:4D68H         PUBLIC        _Byte_Write1
  C:513CH         PUBLIC        WRDI
  B:0090H.6       PUBLIC        MISO
  C:3DAFH         PUBLIC        _AAI_Write
  C:0012H         PUBLIC        WP_Low
  C:50C1H         PUBLIC        WREN
  C:4EE0H         PUBLIC        _delay_nms
  C:5131H         PUBLIC        EWSR
  C:45E7H         PUBLIC        _Auto_Add_IncA
  C:4DF5H         PUBLIC        _Auto_Add_IncB
  C:4715H         PUBLIC        _Sector_Erase
  D:00E0H         PUBLIC        ACC
  C:3F99H         PUBLIC        FRAM_TEST
  C:4C69H         PUBLIC        Wait_Busy_AAI
  C:4F3DH         PUBLIC        _delay_nus
  C:3719H         PUBLIC        _HighSpeed_Read_Cont
  C:4F1AH         PUBLIC        _WRSR
  C:4960H         PUBLIC        _Block_Erase_32K
  C:42D5H         PUBLIC        _Byte_Program
  C:46C2H         PUBLIC        _HighSpeed_Read
  C:499DH         PUBLIC        _Block_Erase_64K
  C:43BFH         PUBLIC        _Auto_Add_IncA_EBSY
  D:00C1H         PUBLIC        WDT_CONTR
  C:515DH         PUBLIC        Chip_Erase
  C:4C12H         PUBLIC        _Auto_Add_IncB_EBSY
  C:002EH         PUBLIC        CE_High
  C:4005H         PUBLIC        _AAI_Write1
  C:4CBFH         PUBLIC        _Read_ID
  C:0019H         PUBLIC        UnWP
  C:0011H         PUBLIC        Unhold
  C:3655H         PUBLIC        _Read_Cont
  C:4D12H         PUBLIC        SST25VF_Init
  B:0090H.3       PUBLIC        SST25VF_CS
  D:00D0H         PUBLIC        PSW
  C:48E3H         PUBLIC        _Read
  -------         PROC          SST25VF_INIT
  C:4D12H         LINE#         162
  C:4D12H         LINE#         163
  C:4D12H         LINE#         165
  C:4D15H         LINE#         166
  C:4D1BH         LINE#         168
  C:4D1EH         LINE#         169
  C:4D25H         LINE#         170
  C:4D2BH         LINE#         171
  C:4D32H         LINE#         173
  C:4D38H         LINE#         174
  -------         ENDPROC       SST25VF_INIT
  C:500CH         SYMBOL        L?0091
  C:5018H         SYMBOL        L?0092
  -------         PROC          L?0090
BL51 BANKED LINKER/LOCATER V6.22                                                      02/18/2019  11:57:09  PAGE 76


  -------         ENDPROC       L?0090
  C:500CH         SYMBOL        L?0091
  C:5018H         SYMBOL        L?0092
  -------         PROC          _SEND_BYTE
  D:0007H         SYMBOL        out
  C:501CH         LINE#         189
  C:501CH         LINE#         190
  C:501CH         LINE#         204
  -------         ENDPROC       _SEND_BYTE
  -------         PROC          L?0095
  -------         ENDPROC       L?0095
  -------         PROC          GET_BYTE
  -------         DO            
  D:0007H         SYMBOL        in
  -------         ENDDO         
  C:4D5BH         LINE#         219
  C:4D5BH         LINE#         220
  C:4D5BH         LINE#         236
  C:4D60H         LINE#         237
  C:4D60H         LINE#         238
  -------         ENDPROC       GET_BYTE
  -------         PROC          POLL_SO
  -------         DO            
  X:0356H         SYMBOL        i
  X:0358H         SYMBOL        temp
  -------         ENDDO         
  C:4B86H         LINE#         253
  C:4B86H         LINE#         254
  C:4B86H         LINE#         255
  C:4B8EH         LINE#         257
  C:4B91H         LINE#         258
  C:4B94H         LINE#         259
  C:4B9AH         LINE#         260
  C:4B9AH         LINE#         261
  C:4B9DH         LINE#         262
  C:4BA1H         LINE#         263
  C:4BA4H         LINE#         264
  C:4BB2H         LINE#         266
  -------         ENDPROC       POLL_SO
  -------         PROC          CE_HIGH
  C:002EH         LINE#         281
  C:002EH         LINE#         282
  C:002EH         LINE#         283
  C:0030H         LINE#         284
  -------         ENDPROC       CE_HIGH
  -------         PROC          L?0096
  -------         ENDPROC       L?0096
  -------         PROC          CE_LOW
  C:51BCH         LINE#         298
  C:51BCH         LINE#         299
  C:51BCH         LINE#         300
  C:51BEH         LINE#         301
  -------         ENDPROC       CE_LOW
  -------         PROC          HOLD_LOW
  C:000AH         LINE#         314
  C:000AH         LINE#         315
  C:000AH         LINE#         319
BL51 BANKED LINKER/LOCATER V6.22                                                      02/18/2019  11:57:09  PAGE 77


  -------         ENDPROC       HOLD_LOW
  -------         PROC          UNHOLD
  C:0011H         LINE#         332
  C:0011H         LINE#         333
  C:0011H         LINE#         337
  -------         ENDPROC       UNHOLD
  -------         PROC          WP_LOW
  C:0012H         LINE#         350
  C:0012H         LINE#         351
  C:0012H         LINE#         355
  -------         ENDPROC       WP_LOW
  -------         PROC          UNWP
  C:0019H         LINE#         368
  C:0019H         LINE#         369
  C:0019H         LINE#         373
  -------         ENDPROC       UNWP
  -------         PROC          READ_STATUS_REGISTER
  -------         DO            
  D:0007H         SYMBOL        byte
  -------         ENDDO         
  C:5053H         LINE#         386
  C:5053H         LINE#         387
  C:5053H         LINE#         388
  C:5055H         LINE#         389
  C:5058H         LINE#         390
  C:505DH         LINE#         391
  C:5060H         LINE#         392
  C:5063H         LINE#         393
  C:5063H         LINE#         394
  -------         ENDPROC       READ_STATUS_REGISTER
  -------         PROC          EWSR
  C:5131H         LINE#         407
  C:5131H         LINE#         408
  C:5131H         LINE#         409
  C:5134H         LINE#         410
  C:5139H         LINE#         411
  -------         ENDPROC       EWSR
  -------         PROC          _WRSR
  X:024CH         SYMBOL        byte
  C:4F1AH         LINE#         425
  C:4F22H         LINE#         426
  C:4F22H         LINE#         427
  C:4F25H         LINE#         428
  C:4F2AH         LINE#         429
  C:4F33H         LINE#         431
  -------         ENDPROC       _WRSR
  -------         PROC          WREN
  C:50C1H         LINE#         446
  C:50C1H         LINE#         447
  C:50C1H         LINE#         448
  C:50C4H         LINE#         449
  C:50C9H         LINE#         450
  C:50CCH         LINE#         451
  -------         ENDPROC       WREN
  -------         PROC          WRDI
  C:513CH         LINE#         465
  C:513CH         LINE#         466
BL51 BANKED LINKER/LOCATER V6.22                                                      02/18/2019  11:57:09  PAGE 78


  C:513CH         LINE#         467
  C:513FH         LINE#         468
  C:5144H         LINE#         469
  -------         ENDPROC       WRDI
  -------         PROC          EBSY
  C:5147H         LINE#         484
  C:5147H         LINE#         485
  C:5147H         LINE#         486
  C:514AH         LINE#         487
  C:514FH         LINE#         488
  -------         ENDPROC       EBSY
  -------         PROC          DBSY
  C:5152H         LINE#         503
  C:5152H         LINE#         504
  C:5152H         LINE#         505
  C:5155H         LINE#         506
  C:515AH         LINE#         507
  -------         ENDPROC       DBSY
  -------         PROC          _READ_ID
  X:035FH         SYMBOL        ID_addr
  -------         DO            
  D:0007H         SYMBOL        byte
  -------         ENDDO         
  C:4CBFH         LINE#         527
  C:4CC7H         LINE#         528
  C:4CC7H         LINE#         530
  C:4CCAH         LINE#         531
  C:4CCFH         LINE#         532
  C:4CD4H         LINE#         533
  C:4CD9H         LINE#         534
  C:4CE2H         LINE#         535
  C:4CE5H         LINE#         536
  C:4CE8H         LINE#         537
  C:4CE8H         LINE#         538
  -------         ENDPROC       _READ_ID
  -------         PROC          JEDEC_ID_READ
  -------         DO            
  X:0343H         SYMBOL        temp
  -------         ENDDO         
  C:467AH         LINE#         555
  C:467AH         LINE#         556
  C:467AH         LINE#         559
  C:4684H         LINE#         561
  C:4687H         LINE#         562
  C:468CH         LINE#         563
  C:468FH         LINE#         564
  C:4692H         LINE#         565
  C:46B0H         LINE#         566
  C:46B3H         LINE#         568
  C:46C1H         LINE#         569
  -------         ENDPROC       JEDEC_ID_READ
  -------         PROC          _READ
  X:0347H         SYMBOL        Dst
  -------         DO            
  D:0007H         SYMBOL        byte
  -------         ENDDO         
  C:48E3H         LINE#         588
BL51 BANKED LINKER/LOCATER V6.22                                                      02/18/2019  11:57:09  PAGE 79


  C:48E9H         LINE#         589
  C:48E9H         LINE#         590
  C:48EBH         LINE#         592
  C:48EEH         LINE#         593
  C:48F3H         LINE#         594
  C:48F9H         LINE#         595
  C:490AH         LINE#         596
  C:491BH         LINE#         597
  C:491EH         LINE#         598
  C:4921H         LINE#         599
  C:4921H         LINE#         600
  -------         ENDPROC       _READ
  -------         PROC          _READ_CONT
  X:0280H         SYMBOL        pBuffer
  X:0283H         SYMBOL        Dst
  X:0287H         SYMBOL        no_bytes
  -------         DO            
  X:028BH         SYMBOL        i
  -------         ENDDO         
  C:3655H         LINE#         617
  C:3664H         LINE#         618
  C:3664H         LINE#         619
  C:366EH         LINE#         620
  C:3671H         LINE#         621
  C:3674H         LINE#         622
  C:3679H         LINE#         623
  C:367FH         LINE#         624
  C:3694H         LINE#         625
  C:36A5H         LINE#         626
  C:36CFH         LINE#         627
  C:36CFH         LINE#         628
  C:36F2H         LINE#         629
  C:3713H         LINE#         630
  C:3716H         LINE#         631
  -------         ENDPROC       _READ_CONT
  -------         PROC          _HIGHSPEED_READ
  X:034BH         SYMBOL        Dst
  -------         DO            
  D:0007H         SYMBOL        byte
  -------         ENDDO         
  C:46C2H         LINE#         651
  C:46C8H         LINE#         652
  C:46C8H         LINE#         653
  C:46CAH         LINE#         655
  C:46CDH         LINE#         656
  C:46D2H         LINE#         657
  C:46D8H         LINE#         658
  C:46EDH         LINE#         659
  C:46FEH         LINE#         660
  C:4703H         LINE#         661
  C:4706H         LINE#         662
  C:4709H         LINE#         663
  C:4709H         LINE#         664
  -------         ENDPROC       _HIGHSPEED_READ
  -------         PROC          _HIGHSPEED_READ_CONT
  X:02FEH         SYMBOL        Dst
  X:0302H         SYMBOL        no_bytes
BL51 BANKED LINKER/LOCATER V6.22                                                      02/18/2019  11:57:09  PAGE 80


  X:0306H         SYMBOL        pBuffer
  -------         DO            
  X:0309H         SYMBOL        i
  -------         ENDDO         
  C:3719H         LINE#         680
  C:371FH         LINE#         681
  C:371FH         LINE#         682
  C:3729H         LINE#         683
  C:372CH         LINE#         684
  C:3731H         LINE#         685
  C:3737H         LINE#         686
  C:374CH         LINE#         687
  C:375DH         LINE#         688
  C:3762H         LINE#         689
  C:378EH         LINE#         690
  C:378EH         LINE#         691
  C:37B1H         LINE#         692
  C:37D2H         LINE#         693
  -------         ENDPROC       _HIGHSPEED_READ_CONT
  C:42D1H         SYMBOL        L?0094
  -------         PROC          L?0093
  -------         ENDPROC       L?0093
  C:42D1H         SYMBOL        L?0094
  -------         PROC          _BYTE_PROGRAM
  X:025CH         SYMBOL        Dst
  X:0260H         SYMBOL        byte
  C:42D5H         LINE#         714
  C:42D8H         LINE#         715
  C:42D8H         LINE#         716
  C:42DBH         LINE#         717
  C:42E0H         LINE#         718
  C:42E6H         LINE#         719
  C:42FBH         LINE#         720
  C:430CH         LINE#         721
  C:4314H         LINE#         722
  -------         ENDPROC       _BYTE_PROGRAM
  -------         PROC          _AUTO_ADD_INCA
  X:032DH         SYMBOL        Dst
  X:0331H         SYMBOL        byte1
  X:0332H         SYMBOL        byte2
  C:45E7H         LINE#         753
  C:45EAH         LINE#         754
  C:45EAH         LINE#         755
  C:45EDH         LINE#         756
  C:45F2H         LINE#         757
  C:45F8H         LINE#         758
  C:460DH         LINE#         759
  C:461EH         LINE#         760
  C:4626H         LINE#         761
  C:462EH         LINE#         762
  -------         ENDPROC       _AUTO_ADD_INCA
  -------         PROC          _AUTO_ADD_INCB
  X:0361H         SYMBOL        byte1
  X:0362H         SYMBOL        byte2
  C:4DF5H         LINE#         793
  C:4DFDH         LINE#         794
  C:4DFDH         LINE#         795
BL51 BANKED LINKER/LOCATER V6.22                                                      02/18/2019  11:57:09  PAGE 81


  C:4E00H         LINE#         796
  C:4E05H         LINE#         797
  C:4E0DH         LINE#         798
  C:4E15H         LINE#         799
  -------         ENDPROC       _AUTO_ADD_INCB
  -------         PROC          _AUTO_ADD_INCA_EBSY
  X:0333H         SYMBOL        Dst
  X:0337H         SYMBOL        byte1
  X:0338H         SYMBOL        byte2
  C:43BFH         LINE#         832
  C:43C5H         LINE#         833
  C:43C5H         LINE#         834
  C:43C8H         LINE#         836
  C:43CBH         LINE#         837
  C:43D0H         LINE#         838
  C:43D6H         LINE#         839
  C:43EBH         LINE#         840
  C:43FCH         LINE#         841
  C:4404H         LINE#         842
  C:440CH         LINE#         843
  C:440FH         LINE#         845
  -------         ENDPROC       _AUTO_ADD_INCA_EBSY
  -------         PROC          _AUTO_ADD_INCB_EBSY
  X:0363H         SYMBOL        byte1
  X:0364H         SYMBOL        byte2
  C:4C12H         LINE#         879
  C:4C1AH         LINE#         880
  C:4C1AH         LINE#         881
  C:4C1DH         LINE#         882
  C:4C22H         LINE#         883
  C:4C2AH         LINE#         884
  C:4C32H         LINE#         885
  C:4C35H         LINE#         887
  C:4C38H         LINE#         889
  C:4C3BH         LINE#         890
  -------         ENDPROC       _AUTO_ADD_INCB_EBSY
  -------         PROC          CHIP_ERASE
  C:515DH         LINE#         904
  C:515DH         LINE#         905
  C:515DH         LINE#         906
  C:5160H         LINE#         907
  C:5165H         LINE#         908
  -------         ENDPROC       CHIP_ERASE
  -------         PROC          L?0099
  -------         ENDPROC       L?0099
  -------         PROC          _SECTOR_ERASE
  X:0257H         SYMBOL        Dst
  C:4715H         LINE#         922
  C:471BH         LINE#         923
  C:471BH         LINE#         926
  C:471EH         LINE#         927
  C:4723H         LINE#         928
  C:4729H         LINE#         929
  C:473EH         LINE#         930
  C:474FH         LINE#         931
  -------         ENDPROC       _SECTOR_ERASE
  -------         PROC          _BLOCK_ERASE_32K
BL51 BANKED LINKER/LOCATER V6.22                                                      02/18/2019  11:57:09  PAGE 82


  X:024FH         SYMBOL        Dst
  C:4960H         LINE#         945
  C:4966H         LINE#         946
  C:4966H         LINE#         947
  C:4969H         LINE#         948
  C:496EH         LINE#         949
  C:4974H         LINE#         950
  C:4989H         LINE#         951
  C:499AH         LINE#         952
  -------         ENDPROC       _BLOCK_ERASE_32K
  -------         PROC          _BLOCK_ERASE_64K
  X:034FH         SYMBOL        Dst
  C:499DH         LINE#         966
  C:49A3H         LINE#         967
  C:49A3H         LINE#         968
  C:49A6H         LINE#         969
  C:49ABH         LINE#         970
  C:49B1H         LINE#         971
  C:49C6H         LINE#         972
  C:49D7H         LINE#         973
  -------         ENDPROC       _BLOCK_ERASE_64K
  -------         PROC          WAIT_BUSY
  -------         DO            
  X:025CH         SYMBOL        i
  -------         ENDDO         
  C:4DADH         LINE#         988
  C:4DADH         LINE#         989
  C:4DADH         LINE#         991
  C:4DB7H         LINE#         993
  C:4DBEH         LINE#         994
  C:4DBEH         LINE#         995
  C:4DBEH         LINE#         996
  C:4DC1H         LINE#         997
  C:4DD0H         LINE#         1000
  -------         ENDPROC       WAIT_BUSY
  -------         PROC          WAIT_BUSY_AAI
  -------         DO            
  X:0365H         SYMBOL        i
  -------         ENDDO         
  C:4C69H         LINE#         1013
  C:4C69H         LINE#         1014
  C:4C69H         LINE#         1016
  C:4C73H         LINE#         1018
  C:4C7AH         LINE#         1019
  C:4C7AH         LINE#         1020
  C:4C7DH         LINE#         1021
  C:4C84H         LINE#         1022
  C:4C93H         LINE#         1025
  -------         ENDPROC       WAIT_BUSY_AAI
  -------         PROC          WREN_CHECK
  -------         DO            
  X:0367H         SYMBOL        i
  -------         ENDDO         
  C:4E7FH         LINE#         1038
  C:4E7FH         LINE#         1039
  C:4E7FH         LINE#         1041
  C:4E87H         LINE#         1043
BL51 BANKED LINKER/LOCATER V6.22                                                      02/18/2019  11:57:09  PAGE 83


  C:4E8EH         LINE#         1044
  C:4E8EH         LINE#         1045
  C:4E8EH         LINE#         1046
  C:4E91H         LINE#         1047
  C:4EA0H         LINE#         1050
  -------         ENDPROC       WREN_CHECK
  -------         PROC          WREN_AAI_CHECK
  -------         DO            
  X:0369H         SYMBOL        i
  -------         ENDDO         
  C:4BE4H         LINE#         1063
  C:4BE4H         LINE#         1064
  C:4BE4H         LINE#         1066
  C:4BEEH         LINE#         1068
  C:4BF8H         LINE#         1069
  C:4BF8H         LINE#         1070
  C:4BFBH         LINE#         1071
  C:4C02H         LINE#         1072
  C:4C11H         LINE#         1075
  -------         ENDPROC       WREN_AAI_CHECK
  -------         PROC          _BYTE_WRITE
  X:0251H         SYMBOL        Dst
  X:0255H         SYMBOL        byte
  C:4C94H         LINE#         1080
  C:4C9AH         LINE#         1081
  C:4C9AH         LINE#         1082
  C:4C9DH         LINE#         1083
  C:4CA3H         LINE#         1084
  C:4CA6H         LINE#         1087
  C:4CA9H         LINE#         1088
  C:4CBCH         LINE#         1089
  -------         ENDPROC       _BYTE_WRITE
  -------         PROC          _AAI_WRITE
  X:024FH         SYMBOL        Dst
  X:0253H         SYMBOL        p
  X:0256H         SYMBOL        no_bytes
  C:3DAFH         LINE#         1128
  C:3DC0H         LINE#         1129
  C:3DC0H         LINE#         1131
  C:3DC3H         LINE#         1132
  C:3DC9H         LINE#         1134
  C:3DCCH         LINE#         1137
  C:3DE6H         LINE#         1138
  C:3DEFH         LINE#         1139
  C:3DEFH         LINE#         1140
  C:3DF2H         LINE#         1141
  C:3DF8H         LINE#         1142
  C:3DFBH         LINE#         1143
  C:3E1AH         LINE#         1144
  C:3E24H         LINE#         1145
  C:3E2CH         LINE#         1147
  -------         ENDPROC       _AAI_WRITE
  -------         PROC          L?0100
  -------         ENDPROC       L?0100
  -------         PROC          _BYTE_WRITE1
  X:0257H         SYMBOL        Dst
  X:025BH         SYMBOL        byte
BL51 BANKED LINKER/LOCATER V6.22                                                      02/18/2019  11:57:09  PAGE 84


  C:4D68H         LINE#         1151
  C:4D6EH         LINE#         1152
  C:4D6EH         LINE#         1153
  C:4D71H         LINE#         1154
  C:4D84H         LINE#         1155
  -------         ENDPROC       _BYTE_WRITE1
  -------         PROC          _AAI_WRITE1
  X:024FH         SYMBOL        Dst
  X:0253H         SYMBOL        p
  X:0256H         SYMBOL        no_bytes
  C:4005H         LINE#         1161
  C:4016H         LINE#         1162
  C:4016H         LINE#         1164
  C:4027H         LINE#         1166
  C:4030H         LINE#         1167
  C:4030H         LINE#         1168
  C:4033H         LINE#         1169
  C:4039H         LINE#         1170
  C:403CH         LINE#         1171
  C:405BH         LINE#         1172
  C:4065H         LINE#         1173
  C:406DH         LINE#         1175
  -------         ENDPROC       _AAI_WRITE1
  -------         PROC          FRAM_TEST
  -------         DO            
  D:0007H         SYMBOL        i
  -------         ENDDO         
  C:3F99H         LINE#         1192
  C:3F99H         LINE#         1193
  C:3F99H         LINE#         1196
  C:3F9FH         LINE#         1197
  C:3FA3H         LINE#         1198
  C:3FA7H         LINE#         1199
  C:3FABH         LINE#         1200
  C:3FAFH         LINE#         1201
  C:3FB3H         LINE#         1203
  C:3FB7H         LINE#         1204
  C:3FBBH         LINE#         1205
  C:3FBFH         LINE#         1206
  C:3FC3H         LINE#         1207
  C:3FC7H         LINE#         1213
  C:3FD1H         LINE#         1214
  C:3FD8H         LINE#         1217
  C:3FF3H         LINE#         1218
  C:3FFAH         LINE#         1220
  -------         ENDPROC       FRAM_TEST
  -------         PROC          _DELAY_NMS
  D:0006H         SYMBOL        i
  -------         DO            
  D:0004H         SYMBOL        j
  -------         ENDDO         
  C:4EE0H         LINE#         1239
  C:4EE0H         LINE#         1240
  C:4EE0H         LINE#         1243
  C:4EE9H         LINE#         1244
  C:4EE9H         LINE#         1245
  C:4EF6H         LINE#         1246
BL51 BANKED LINKER/LOCATER V6.22                                                      02/18/2019  11:57:09  PAGE 85


  C:4EFDH         LINE#         1248
  -------         ENDPROC       _DELAY_NMS
  C:4F39H         SYMBOL        L?0098
  -------         PROC          L?0097
  -------         ENDPROC       L?0097
  C:4F39H         SYMBOL        L?0098
  -------         PROC          _DELAY_NUS
  D:0006H         SYMBOL        i
  -------         DO            
  D:0005H         SYMBOL        j
  -------         ENDDO         
  C:4F3DH         LINE#         1266
  C:4F3DH         LINE#         1267
  C:4F3DH         LINE#         1270
  C:4F46H         LINE#         1271
  C:4F46H         LINE#         1272
  C:4F4AH         LINE#         1273
  C:4F51H         LINE#         1275
  -------         ENDPROC       _DELAY_NUS
  -------         ENDMOD        PCT25VF

  -------         MODULE        OS_CORE
  C:0000H         SYMBOL        _ICE_DUMMY_
  C:4F86H         PUBLIC        _OS_TaskSuspend
  D:0080H         PUBLIC        P0
  D:0090H         PUBLIC        P1
  D:00A0H         PUBLIC        P2
  D:00B0H         PUBLIC        P3
  D:00C0H         PUBLIC        P4
  D:00C8H         PUBLIC        P5
  B:00A8H.7       PUBLIC        EA
  C:4FF8H         PUBLIC        OSSched
  D:00A8H         PUBLIC        IE
  D:00B8H         PUBLIC        IP
  C:511AH         PUBLIC        _OSTaskSuspend
  D:00D8H         PUBLIC        CCON
  D:0008H         PUBLIC        OSIntNesting
  C:4F6DH         PUBLIC        _OSTaskResume
  D:0009H         PUBLIC        OSTaskRuning
  D:0098H         PUBLIC        SCON
  D:0088H         PUBLIC        TCON
  C:5064H         PUBLIC        OSInit
  C:41FFH         PUBLIC        _OSWait
  D:000AH         PUBLIC        Os_Enter_Sum
  C:4EC1H         PUBLIC        OSTimeTick
  C:4F9EH         PUBLIC        OSFindNextRunningTask
  D:000BH         PUBLIC        OSTaskID
  D:00E0H         PUBLIC        ACC
  D:000CH         PUBLIC        OSWaitTick
  C:4E18H         PUBLIC        _OSTimeDly
  C:5171H         PUBLIC        OSMapTbl
  D:0011H         PUBLIC        OSNextTaskID
  C:4DD1H         PUBLIC        OSIntExit
  C:49DAH         PUBLIC        __OSTaskCreate
  D:0012H         PUBLIC        OSTaskCreated
  D:00D0H         PUBLIC        PSW
  -------         PROC          OSINIT
BL51 BANKED LINKER/LOCATER V6.22                                                      02/18/2019  11:57:09  PAGE 86


  C:5064H         LINE#         87
  C:5064H         LINE#         89
  C:5067H         LINE#         90
  C:5069H         LINE#         95
  C:506BH         LINE#         96
  C:506EH         LINE#         97
  C:5070H         LINE#         98
  C:5072H         LINE#         99
  -------         ENDPROC       OSINIT
  -------         PROC          __OSTASKCREATE
  D:0001H         SYMBOL        TaskID
  D:0006H         SYMBOL        task
  D:0002H         SYMBOL        ptos
  C:49DAH         LINE#         119
  C:49E0H         LINE#         121
  C:49E6H         LINE#         122
  C:49E6H         LINE#         123
  C:49EAH         LINE#         125
  C:49F3H         LINE#         126
  C:49F3H         LINE#         127
  C:49F6H         LINE#         128
  C:49F6H         LINE#         129
  C:49FDH         LINE#         130
  C:49FFH         LINE#         151
  C:4A08H         LINE#         152
  C:4A0BH         LINE#         153
  C:4A10H         LINE#         154
  C:4A13H         LINE#         155
  C:4A13H         LINE#         156
  C:4A15H         LINE#         157
  -------         ENDPROC       __OSTASKCREATE
  -------         PROC          _OSTASKRESUME
  D:0007H         SYMBOL        TaskID
  C:4F6DH         LINE#         217
  C:4F6DH         LINE#         219
  C:4F73H         LINE#         220
  C:4F73H         LINE#         221
  C:4F77H         LINE#         223
  C:4F7EH         LINE#         234
  C:4F83H         LINE#         235
  C:4F83H         LINE#         236
  -------         ENDPROC       _OSTASKRESUME
  -------         PROC          _OS_TASKSUSPEND
  D:0007H         SYMBOL        TaskID
  C:4F86H         LINE#         254
  C:4F86H         LINE#         256
  C:4F8CH         LINE#         257
  C:4F8CH         LINE#         258
  C:4F90H         LINE#         260
  C:4F98H         LINE#         271
  C:4F9DH         LINE#         272
  C:4F9DH         LINE#         273
  -------         ENDPROC       _OS_TASKSUSPEND
  -------         PROC          _OSTASKSUSPEND
  D:0007H         SYMBOL        TaskID
  C:511AH         LINE#         291
  C:511AH         LINE#         293
BL51 BANKED LINKER/LOCATER V6.22                                                      02/18/2019  11:57:09  PAGE 87


  C:5120H         LINE#         295
  C:5123H         LINE#         296
  -------         ENDPROC       _OSTASKSUSPEND
  -------         PROC          OSFINDNEXTRUNNINGTASK
  -------         DO            
  D:0007H         SYMBOL        temp
  -------         ENDDO         
  C:4F9EH         LINE#         314
  C:4F9EH         LINE#         318
  C:4FA3H         LINE#         321
  C:4FA6H         LINE#         322
  C:4FA6H         LINE#         323
  C:4FAAH         LINE#         324
  C:4FAAH         LINE#         325
  C:4FAAH         LINE#         326
  C:4FAAH         LINE#         327
  C:4FAEH         LINE#         328
  C:4FB5H         LINE#         351
  -------         ENDPROC       OSFINDNEXTRUNNINGTASK
  -------         PROC          OSINTEXIT
  C:4DD1H         LINE#         368
  C:4DD1H         LINE#         371
  C:4DD5H         LINE#         373
  C:4DDCH         LINE#         374
  C:4DDCH         LINE#         375
  C:4DDEH         LINE#         376
  C:4DDEH         LINE#         377
  C:4DE2H         LINE#         378
  C:4DE2H         LINE#         379
  C:4DE4H         LINE#         380
  C:4DE7H         LINE#         381
  C:4DEAH         LINE#         382
  C:4DEDH         LINE#         383
  C:4DEDH         LINE#         384
  C:4DF2H         LINE#         385
  C:4DF4H         LINE#         386
  -------         ENDPROC       OSINTEXIT
  -------         PROC          OSSCHED
  C:4FF8H         LINE#         403
  C:4FF8H         LINE#         406
  C:4FFCH         LINE#         407
  C:5000H         LINE#         408
  C:5000H         LINE#         409
  C:5003H         LINE#         410
  C:5006H         LINE#         411
  C:5006H         LINE#         412
  C:500BH         LINE#         413
  -------         ENDPROC       OSSCHED
  -------         PROC          OSTIMETICK
  -------         DO            
  D:0007H         SYMBOL        i
  -------         ENDDO         
  C:4EC1H         LINE#         430
  C:4EC1H         LINE#         434
  C:4EC3H         LINE#         435
  C:4EC3H         LINE#         436
  C:4ECAH         LINE#         437
BL51 BANKED LINKER/LOCATER V6.22                                                      02/18/2019  11:57:09  PAGE 88


  C:4ECAH         LINE#         438
  C:4ECBH         LINE#         439
  C:4ED2H         LINE#         440
  C:4ED2H         LINE#         442
  C:4ED9H         LINE#         453
  C:4ED9H         LINE#         454
  C:4ED9H         LINE#         455
  C:4EDDH         LINE#         456
  -------         ENDPROC       OSTIMETICK
  -------         PROC          _OSTIMEDLY
  D:0007H         SYMBOL        ticks
  C:4E18H         LINE#         475
  C:4E18H         LINE#         477
  C:4E1FH         LINE#         478
  C:4E23H         LINE#         479
  C:4E2BH         LINE#         480
  C:4E2BH         LINE#         481
  C:4E30H         LINE#         482
  C:4E33H         LINE#         483
  C:4E35H         LINE#         484
  C:4E3AH         LINE#         485
  -------         ENDPROC       _OSTIMEDLY
  -------         PROC          _OSWAIT
  D:0007H         SYMBOL        typ
  D:0005H         SYMBOL        ticks
  C:41FFH         LINE#         534
  C:41FFH         LINE#         536
  C:4206H         LINE#         538
  C:4212H         LINE#         539
  C:4212H         LINE#         540
  C:4212H         LINE#         541
  C:4217H         LINE#         542
  C:421AH         LINE#         543
  C:421AH         LINE#         544
  C:4224H         LINE#         545
  C:4227H         LINE#         546
  C:4227H         LINE#         548
  C:422BH         LINE#         549
  C:4233H         LINE#         550
  C:4233H         LINE#         551
  C:4236H         LINE#         552
  C:4236H         LINE#         553
  C:423BH         LINE#         554
  C:423EH         LINE#         555
  C:4243H         LINE#         556
  C:424BH         LINE#         557
  C:424BH         LINE#         558
  C:424DH         LINE#         559
  C:4250H         LINE#         560
  C:4250H         LINE#         561
  C:4253H         LINE#         562
  C:4253H         LINE#         563
  C:425AH         LINE#         564
  C:425CH         LINE#         565
  C:425CH         LINE#         566
  -------         ENDPROC       _OSWAIT
  -------         ENDMOD        OS_CORE
BL51 BANKED LINKER/LOCATER V6.22                                                      02/18/2019  11:57:09  PAGE 89



  -------         MODULE        OS_MEM
  C:0000H         SYMBOL        _ICE_DUMMY_
  D:0080H         PUBLIC        P0
  D:0090H         PUBLIC        P1
  D:00A0H         PUBLIC        P2
  D:00B0H         PUBLIC        P3
  D:00C0H         PUBLIC        P4
  D:00C8H         PUBLIC        P5
  D:00A8H         PUBLIC        IE
  D:00B8H         PUBLIC        IP
  D:00D8H         PUBLIC        CCON
  D:0098H         PUBLIC        SCON
  D:0088H         PUBLIC        TCON
  D:00E0H         PUBLIC        ACC
  D:00D0H         PUBLIC        PSW
  -------         ENDMOD        OS_MEM

  -------         MODULE        OS_Q
  C:0000H         SYMBOL        _ICE_DUMMY_
  D:0080H         PUBLIC        P0
  D:0090H         PUBLIC        P1
  D:00A0H         PUBLIC        P2
  D:00B0H         PUBLIC        P3
  D:00C0H         PUBLIC        P4
  D:00C8H         PUBLIC        P5
  B:00A8H.7       PUBLIC        EA
  D:00A8H         PUBLIC        IE
  D:00B8H         PUBLIC        IP
  C:3C1CH         PUBLIC        _OSQPost
  D:0081H         PUBLIC        SP
  D:00D8H         PUBLIC        CCON
  D:0098H         PUBLIC        SCON
  D:0088H         PUBLIC        TCON
  D:00E0H         PUBLIC        ACC
  C:4A4FH         PUBLIC        _OSQCreate
  D:00D0H         PUBLIC        PSW
  C:39E2H         PUBLIC        _OSQPend
  -------         PROC          _OSQCREATE
  D:0007H         SYMBOL        Buf
  D:0005H         SYMBOL        SizeOfBuf
  C:4A4FH         LINE#         62
  C:4A4FH         LINE#         64
  C:4A4FH         LINE#         65
  C:4A53H         LINE#         67
  C:4A5CH         LINE#         68
  C:4A5CH         LINE#         69
  C:4A5FH         LINE#         70
  C:4A66H         LINE#         72
  C:4A6CH         LINE#         76
  C:4A72H         LINE#         77
  C:4A78H         LINE#         80
  C:4A7DH         LINE#         81
  C:4A80H         LINE#         82
  C:4A80H         LINE#         84
  C:4A80H         LINE#         85
  C:4A85H         LINE#         86
BL51 BANKED LINKER/LOCATER V6.22                                                      02/18/2019  11:57:09  PAGE 90


  C:4A87H         LINE#         87
  C:4A87H         LINE#         89
  -------         ENDPROC       _OSQCREATE
  -------         PROC          _OSQPEND
  D:0007H         SYMBOL        Ret
  D:0005H         SYMBOL        Buf
  D:0003H         SYMBOL        Tick
  -------         DO            
  D:0007H         SYMBOL        cp
  -------         ENDDO         
  C:39E2H         LINE#         119
  C:39E2H         LINE#         120
  C:39E2H         LINE#         132
  C:39E6H         LINE#         134
  C:39EFH         LINE#         139
  C:39F1H         LINE#         140
  C:39F7H         LINE#         145
  C:3A03H         LINE#         157
  C:3A08H         LINE#         158
  C:3A08H         LINE#         161
  C:3A0AH         LINE#         162
  C:3A10H         LINE#         165
  C:3A15H         LINE#         166
  C:3A18H         LINE#         169
  C:3A1EH         LINE#         170
  C:3A20H         LINE#         173
  C:3A28H         LINE#         174
  C:3A28H         LINE#         175
  C:3A28H         LINE#         176
  C:3A28H         LINE#         181
  C:3A35H         LINE#         193
  C:3A3DH         LINE#         194
  C:3A3DH         LINE#         196
  C:3A3EH         LINE#         198
  C:3A43H         LINE#         199
  C:3A4FH         LINE#         200
  C:3A4FH         LINE#         202
  C:3A51H         LINE#         206
  C:3A51H         LINE#         208
  C:3A57H         LINE#         209
  C:3A59H         LINE#         210
  C:3A64H         LINE#         214
  C:3A69H         LINE#         215
  C:3A6CH         LINE#         216
  C:3A6CH         LINE#         218
  C:3A6CH         LINE#         221
  C:3A6EH         LINE#         224
  C:3A73H         LINE#         225
  C:3A75H         LINE#         226
  C:3A75H         LINE#         227
  -------         ENDPROC       _OSQPEND
  -------         PROC          _OSQPOST
  D:0007H         SYMBOL        Buf
  D:0005H         SYMBOL        Data
  -------         DO            
  D:0006H         SYMBOL        temp
  D:0005H         SYMBOL        i
BL51 BANKED LINKER/LOCATER V6.22                                                      02/18/2019  11:57:09  PAGE 91


  -------         ENDDO         
  C:3C1CH         LINE#         307
  C:3C1CH         LINE#         308
  C:3C1CH         LINE#         318
  C:3C20H         LINE#         322
  C:3C2EH         LINE#         326
  C:3C2EH         LINE#         329
  C:3C30H         LINE#         330
  C:3C38H         LINE#         333
  C:3C44H         LINE#         334
  C:3C4EH         LINE#         335
  C:3C4EH         LINE#         337
  C:3C53H         LINE#         341
  C:3C53H         LINE#         344
  C:3C5EH         LINE#         345
  C:3C60H         LINE#         350
  C:3C63H         LINE#         352
  C:3C68H         LINE#         353
  C:3C68H         LINE#         355
  C:3C6EH         LINE#         357
  C:3C70H         LINE#         358
  C:3C70H         LINE#         359
  C:3C74H         LINE#         360
  C:3C74H         LINE#         361
  C:3C74H         LINE#         362
  C:3C74H         LINE#         363
  C:3C78H         LINE#         364
  C:3C7DH         LINE#         365
  C:3C83H         LINE#         366
  C:3C83H         LINE#         368
  C:3C8FH         LINE#         369
  C:3C94H         LINE#         370
  C:3C94H         LINE#         406
  C:3C94H         LINE#         407
  C:3C99H         LINE#         408
  C:3C9CH         LINE#         409
  C:3C9CH         LINE#         411
  C:3C9CH         LINE#         412
  C:3CA1H         LINE#         413
  C:3CA3H         LINE#         414
  C:3CA3H         LINE#         415
  -------         ENDPROC       _OSQPOST
  -------         ENDMOD        OS_Q

  -------         MODULE        OS_SEM
  C:0000H         SYMBOL        _ICE_DUMMY_
  D:0080H         PUBLIC        P0
  D:0090H         PUBLIC        P1
  D:00A0H         PUBLIC        P2
  D:00B0H         PUBLIC        P3
  D:00C0H         PUBLIC        P4
  D:00C8H         PUBLIC        P5
  D:00A8H         PUBLIC        IE
  D:00B8H         PUBLIC        IP
  D:00D8H         PUBLIC        CCON
  D:0098H         PUBLIC        SCON
  D:0088H         PUBLIC        TCON
BL51 BANKED LINKER/LOCATER V6.22                                                      02/18/2019  11:57:09  PAGE 92


  D:00E0H         PUBLIC        ACC
  D:00D0H         PUBLIC        PSW
  -------         ENDMOD        OS_SEM

  -------         MODULE        OS_CPU_C
  C:0000H         SYMBOL        _ICE_DUMMY_
  D:0080H         PUBLIC        P0
  D:0090H         PUBLIC        P1
  D:00A0H         PUBLIC        P2
  D:00B0H         PUBLIC        P3
  C:4D87H         PUBLIC        _OSTaskStkDel
  D:00C0H         PUBLIC        P4
  D:00C8H         PUBLIC        P5
  B:00A8H.7       PUBLIC        EA
  C:47DCH         PUBLIC        _StkDelA
  C:481FH         PUBLIC        _StkDelB
  C:4FB6H         PUBLIC        _StkDelC
  D:00A8H         PUBLIC        IE
  D:00B8H         PUBLIC        IP
  C:4631H         PUBLIC        OSTickISR
  C:5085H         PUBLIC        OSCPUInit
  D:0081H         PUBLIC        SP
  D:00D8H         PUBLIC        CCON
  D:0013H         PUBLIC        OSTsakStackBotton
  D:0098H         PUBLIC        SCON
  D:0088H         PUBLIC        TCON
  D:00E0H         PUBLIC        ACC
  D:001AH         PUBLIC        OSFastSwap
  X:036BH         PUBLIC        timer_i
  D:00D0H         PUBLIC        PSW
  -------         PROC          OSCPUINIT
  -------         DO            
  D:0007H         SYMBOL        i
  -------         ENDDO         
  C:5085H         LINE#         81
  C:5085H         LINE#         85
  C:5087H         LINE#         86
  C:5087H         LINE#         87
  C:508DH         LINE#         88
  C:5091H         LINE#         89
  C:5094H         LINE#         91
  -------         ENDPROC       OSCPUINIT
  -------         PROC          _STKDELA
  D:0007H         SYMBOL        TaskID
  -------         DO            
  D:0006H         SYMBOL        cp
  D:0005H         SYMBOL        cp1
  D:0004H         SYMBOL        temp
  D:0007H         SYMBOL        i
  -------         ENDDO         
  C:47DCH         LINE#         203
  C:47DCH         LINE#         204
  C:47DCH         LINE#         209
  C:47E2H         LINE#         210
  C:47E8H         LINE#         211
  C:47EDH         LINE#         212
  C:47F6H         LINE#         213
BL51 BANKED LINKER/LOCATER V6.22                                                      02/18/2019  11:57:09  PAGE 93


  C:47F6H         LINE#         214
  C:4801H         LINE#         215
  C:4804H         LINE#         216
  C:480AH         LINE#         218
  C:480AH         LINE#         219
  C:4816H         LINE#         220
  C:4818H         LINE#         221
  C:481EH         LINE#         222
  -------         ENDPROC       _STKDELA
  -------         PROC          _STKDELB
  D:0007H         SYMBOL        TaskID
  -------         DO            
  D:0005H         SYMBOL        cp
  D:0004H         SYMBOL        cp1
  D:0005H         SYMBOL        temp
  D:0006H         SYMBOL        i
  -------         ENDDO         
  C:481FH         LINE#         225
  C:481FH         LINE#         226
  C:481FH         LINE#         231
  C:4826H         LINE#         232
  C:482CH         LINE#         233
  C:4837H         LINE#         234
  C:4839H         LINE#         235
  C:4839H         LINE#         237
  C:4839H         LINE#         238
  C:4845H         LINE#         239
  C:4847H         LINE#         240
  C:4847H         LINE#         241
  C:484DH         LINE#         242
  C:4856H         LINE#         243
  C:4856H         LINE#         244
  C:485DH         LINE#         245
  C:4860H         LINE#         246
  -------         ENDPROC       _STKDELB
  -------         PROC          _STKDELC
  D:0007H         SYMBOL        TaskID
  -------         DO            
  D:0005H         SYMBOL        cp
  -------         ENDDO         
  C:4FB6H         LINE#         248
  C:4FB6H         LINE#         249
  C:4FB6H         LINE#         254
  C:4FBCH         LINE#         255
  C:4FC2H         LINE#         256
  C:4FC7H         LINE#         257
  C:4FCBH         LINE#         258
  -------         ENDPROC       _STKDELC
  -------         PROC          _OSTASKSTKDEL
  D:0007H         SYMBOL        TaskID
  -------         DO            
  D:0006H         SYMBOL        temp
  -------         ENDDO         
  C:4D87H         LINE#         261
  C:4D87H         LINE#         265
  C:4D89H         LINE#         266
  C:4D8DH         LINE#         267
BL51 BANKED LINKER/LOCATER V6.22                                                      02/18/2019  11:57:09  PAGE 94


  C:4D8DH         LINE#         268
  C:4D8EH         LINE#         269
  C:4D90H         LINE#         270
  C:4D96H         LINE#         271
  C:4D96H         LINE#         272
  C:4D98H         LINE#         273
  C:4D98H         LINE#         274
  C:4DA3H         LINE#         275
  C:4DA3H         LINE#         276
  C:4DA3H         LINE#         277
  C:4DA6H         LINE#         278
  C:4DA6H         LINE#         279
  C:4DA6H         LINE#         280
  C:4DA9H         LINE#         281
  C:4DA9H         LINE#         282
  C:4DA9H         LINE#         283
  C:4DACH         LINE#         284
  C:4DACH         LINE#         285
  C:4DACH         LINE#         286
  C:4DACH         LINE#         287
  C:4DACH         LINE#         288
  -------         ENDPROC       _OSTASKSTKDEL
  -------         PROC          OSTICKISR
  C:4631H         LINE#         311
  C:4650H         LINE#         319
  C:4653H         LINE#         329
  C:4657H         LINE#         332
  C:465AH         LINE#         337
  C:465DH         LINE#         338
  -------         ENDPROC       OSTICKISR
  -------         ENDMOD        OS_CPU_C

  -------         MODULE        OS_CPU_A_ASM
  C:50E9H         SEGMENT       ?PR?OSCTXSW?OS_CPU_A
  C:4BB5H         SEGMENT       ?PR?OSINTCTXSW?OS_CPU_A
  C:4AF0H         SEGMENT       ?PR?LOADCTX?OS_CPU_A
  C:3B04H         SEGMENT       ?PR?C_OSCTXSW?OS_CPU_A
  C:3E2DH         SEGMENT       ?PR?_OSTASKSTKINIT?OS_CPU_A
  I:0074H         SEGMENT       ?STACK
  C:3B04H         PUBLIC        C_OSCTXSW
  C:4AF0H         PUBLIC        LOADCTX
  C:50E9H         PUBLIC        OSCTXSW
  C:4BB5H         PUBLIC        OSINTCTXSW
  I:0074H         PUBLIC        STACK
  C:3E2DH         PUBLIC        _OSTASKSTKINIT
  C:3B51H         SYMBOL        ?C0001
  C:3B22H         SYMBOL        ?C0002
  C:3B28H         SYMBOL        ?C0003
  C:3B45H         SYMBOL        ?C0004
  C:3B4BH         SYMBOL        ?C0005
  C:3B8AH         SYMBOL        ?C0007
  C:3B5BH         SYMBOL        ?C0008
  C:3B61H         SYMBOL        ?C0009
  C:3B8DH         SYMBOL        ?C000R
  C:3B7FH         SYMBOL        ?C0010
  C:3B85H         SYMBOL        ?C0011
  D:00E0H         SYMBOL        ACC
BL51 BANKED LINKER/LOCATER V6.22                                                      02/18/2019  11:57:09  PAGE 95


  D:00F0H         SYMBOL        B
  D:0083H         SYMBOL        DPH
  D:0082H         SYMBOL        DPL
  B:00A8H.7       SYMBOL        EA
  C:4AF9H         SYMBOL        LOADCTX_0
  C:4B1BH         SYMBOL        LOADCTX_2
  C:4B22H         SYMBOL        LOADCTX_3
  C:4BCAH         SYMBOL        OSINTCTXSW_0
  N:0000H         SYMBOL        OS_CPU_A_ASM
  D:00D0H         SYMBOL        PSW
  D:0081H         SYMBOL        SP
  C:3E64H         SYMBOL        STKINIT11
  C:3E98H         SYMBOL        STKINIT12
  C:3E76H         SYMBOL        STKINIT15
  C:3E92H         SYMBOL        STKINIT18
  C:3E6CH         SYMBOL        STKINIT5
  C:3E47H         SYMBOL        STKINIT8
  C:3E2DH         LINE#         137
  C:3E2FH         LINE#         138
  C:3E31H         LINE#         142
  C:3E32H         LINE#         143
  C:3E35H         LINE#         144
  C:3E36H         LINE#         145
  C:3E38H         LINE#         173
  C:3E39H         LINE#         174
  C:3E3AH         LINE#         175
  C:3E3CH         LINE#         176
  C:3E3EH         LINE#         179
  C:3E3FH         LINE#         180
  C:3E41H         LINE#         181
  C:3E42H         LINE#         182
  C:3E43H         LINE#         184
  C:3E45H         LINE#         185
  C:3E46H         LINE#         186
  C:3E47H         LINE#         191
  C:3E49H         LINE#         192
  C:3E4AH         LINE#         193
  C:3E4BH         LINE#         195
  C:3E4CH         LINE#         197
  C:3E4EH         LINE#         200
  C:3E50H         LINE#         203
  C:3E52H         LINE#         204
  C:3E54H         LINE#         205
  C:3E56H         LINE#         207
  C:3E58H         LINE#         208
  C:3E59H         LINE#         209
  C:3E5AH         LINE#         210
  C:3E5CH         LINE#         211
  C:3E5DH         LINE#         212
  C:3E5FH         LINE#         213
  C:3E60H         LINE#         214
  C:3E61H         LINE#         215
  C:3E62H         LINE#         217
  C:3E64H         LINE#         222
  C:3E65H         LINE#         223
  C:3E66H         LINE#         224
  C:3E67H         LINE#         225
BL51 BANKED LINKER/LOCATER V6.22                                                      02/18/2019  11:57:09  PAGE 96


  C:3E68H         LINE#         227
  C:3E6AH         LINE#         229
  C:3E6CH         LINE#         234
  C:3E6EH         LINE#         235
  C:3E70H         LINE#         236
  C:3E71H         LINE#         238
  C:3E72H         LINE#         239
  C:3E73H         LINE#         240
  C:3E75H         LINE#         241
  C:3E76H         LINE#         246
  C:3E78H         LINE#         247
  C:3E79H         LINE#         248
  C:3E7AH         LINE#         250
  C:3E7BH         LINE#         252
  C:3E7DH         LINE#         255
  C:3E7FH         LINE#         256
  C:3E81H         LINE#         257
  C:3E82H         LINE#         258
  C:3E83H         LINE#         259
  C:3E84H         LINE#         261
  C:3E85H         LINE#         262
  C:3E87H         LINE#         263
  C:3E88H         LINE#         265
  C:3E8AH         LINE#         266
  C:3E8BH         LINE#         267
  C:3E8CH         LINE#         268
  C:3E8DH         LINE#         269
  C:3E8EH         LINE#         270
  C:3E8FH         LINE#         271
  C:3E90H         LINE#         273
  C:3E92H         LINE#         278
  C:3E93H         LINE#         279
  C:3E94H         LINE#         280
  C:3E95H         LINE#         281
  C:3E96H         LINE#         283
  C:3E98H         LINE#         287
  C:3E9AH         LINE#         288
  C:3E9BH         LINE#         289
  C:3E9CH         LINE#         290
  C:3E9DH         LINE#         291
  C:3E9EH         LINE#         293
  C:3EA0H         LINE#         294
  C:3EA1H         LINE#         295
  C:3EA2H         LINE#         297
  C:3EA4H         LINE#         298
  C:3EA5H         LINE#         299
  C:3EA6H         LINE#         309
  C:3EA7H         LINE#         310
  C:3EA8H         LINE#         312
  C:4AF0H         LINE#         340
  C:4AF2H         LINE#         348
  C:4AF4H         LINE#         349
  C:4AF7H         LINE#         350
  C:4AF9H         LINE#         352
  C:4AFCH         LINE#         354
  C:4AFDH         LINE#         355
  C:4AFFH         LINE#         367
BL51 BANKED LINKER/LOCATER V6.22                                                      02/18/2019  11:57:09  PAGE 97


  C:4B01H         LINE#         369
  C:4B03H         LINE#         370
  C:4B05H         LINE#         371
  C:4B07H         LINE#         372
  C:4B09H         LINE#         373
  C:4B0BH         LINE#         374
  C:4B0DH         LINE#         375
  C:4B0FH         LINE#         376
  C:4B11H         LINE#         377
  C:4B13H         LINE#         378
  C:4B15H         LINE#         379
  C:4B17H         LINE#         380
  C:4B19H         LINE#         381
  C:4B1BH         LINE#         384
  C:4B1DH         LINE#         385
  C:4B20H         LINE#         386
  C:4B22H         LINE#         388
  C:50E9H         LINE#         415
  C:50EBH         LINE#         417
  C:50EEH         LINE#         418
  C:50F0H         LINE#         420
  C:50F1H         LINE#         421
  C:50F3H         LINE#         434
  C:3B04H         LINE#         457
  C:3B06H         LINE#         460
  C:3B08H         LINE#         466
  C:3B09H         LINE#         468
  C:3B0BH         LINE#         469
  C:3B0DH         LINE#         470
  C:3B0EH         LINE#         471
  C:3B0FH         LINE#         472
  C:3B10H         LINE#         474
  C:3B12H         LINE#         475
  C:3B14H         LINE#         476
  C:3B15H         LINE#         477
  C:3B16H         LINE#         478
  C:3B17H         LINE#         480
  C:3B19H         LINE#         481
  C:3B1AH         LINE#         482
  C:3B1CH         LINE#         483
  C:3B1EH         LINE#         489
  C:3B1FH         LINE#         490
  C:3B20H         LINE#         491
  C:3B21H         LINE#         492
  C:3B22H         LINE#         494
  C:3B23H         LINE#         495
  C:3B24H         LINE#         496
  C:3B25H         LINE#         497
  C:3B26H         LINE#         498
  C:3B28H         LINE#         501
  C:3B2AH         LINE#         502
  C:3B2CH         LINE#         503
  C:3B2DH         LINE#         504
  C:3B2EH         LINE#         505
  C:3B2FH         LINE#         507
  C:3B30H         LINE#         508
  C:3B31H         LINE#         510
BL51 BANKED LINKER/LOCATER V6.22                                                      02/18/2019  11:57:09  PAGE 98


  C:3B32H         LINE#         511
  C:3B34H         LINE#         516
  C:3B36H         LINE#         517
  C:3B37H         LINE#         518
  C:3B39H         LINE#         519
  C:3B3AH         LINE#         520
  C:3B3CH         LINE#         522
  C:3B3EH         LINE#         523
  C:3B40H         LINE#         524
  C:3B41H         LINE#         525
  C:3B42H         LINE#         526
  C:3B43H         LINE#         527
  C:3B44H         LINE#         528
  C:3B45H         LINE#         530
  C:3B46H         LINE#         531
  C:3B47H         LINE#         532
  C:3B48H         LINE#         533
  C:3B49H         LINE#         534
  C:3B4BH         LINE#         537
  C:3B4EH         LINE#         539
  C:3B51H         LINE#         544
  C:3B53H         LINE#         545
  C:3B55H         LINE#         546
  C:3B57H         LINE#         558
  C:3B58H         LINE#         559
  C:3B59H         LINE#         560
  C:3B5AH         LINE#         561
  C:3B5BH         LINE#         563
  C:3B5CH         LINE#         564
  C:3B5DH         LINE#         565
  C:3B5EH         LINE#         566
  C:3B5FH         LINE#         567
  C:3B61H         LINE#         570
  C:3B63H         LINE#         571
  C:3B65H         LINE#         572
  C:3B66H         LINE#         573
  C:3B67H         LINE#         574
  C:3B68H         LINE#         576
  C:3B69H         LINE#         577
  C:3B6AH         LINE#         579
  C:3B6CH         LINE#         580
  C:3B6EH         LINE#         581
  C:3B6FH         LINE#         582
  C:3B70H         LINE#         583
  C:3B72H         LINE#         589
  C:3B74H         LINE#         590
  C:3B75H         LINE#         591
  C:3B77H         LINE#         592
  C:3B79H         LINE#         594
  C:3B7AH         LINE#         595
  C:3B7CH         LINE#         596
  C:3B7EH         LINE#         597
  C:3B7FH         LINE#         599
  C:3B80H         LINE#         600
  C:3B81H         LINE#         601
  C:3B82H         LINE#         602
  C:3B83H         LINE#         603
BL51 BANKED LINKER/LOCATER V6.22                                                      02/18/2019  11:57:09  PAGE 99


  C:3B85H         LINE#         607
  C:3B88H         LINE#         609
  C:3B8AH         LINE#         613
  C:3B8DH         LINE#         618
  C:4BB5H         LINE#         642
  C:4BB7H         LINE#         643
  C:4BB9H         LINE#         644
  C:4BBBH         LINE#         647
  C:4BBDH         LINE#         648
  C:4BBFH         LINE#         649
  C:4BC1H         LINE#         651
  C:4BC3H         LINE#         652
  C:4BC5H         LINE#         653
  C:4BC7H         LINE#         654
  C:4BC9H         LINE#         655
  C:4BCAH         LINE#         659
  C:4BCCH         LINE#         660
  C:4BCEH         LINE#         661
  C:4BD0H         LINE#         663
  C:4BD3H         LINE#         664
  C:4BD5H         LINE#         666
  C:4BD6H         LINE#         667
  C:4BD7H         LINE#         668
  C:4BD9H         LINE#         689
  C:4BDBH         LINE#         691
  C:4BDDH         LINE#         692
  C:4BDFH         LINE#         693
  C:4BE1H         LINE#         694
  C:4BE3H         LINE#         695
  -------         ENDMOD        OS_CPU_A_ASM

  -------         MODULE        ?C?COPY
  C:0807H         PUBLIC        ?C?COPY
  -------         ENDMOD        ?C?COPY

  -------         MODULE        ?C?CLDPTR
  C:082DH         PUBLIC        ?C?CLDPTR
  -------         ENDMOD        ?C?CLDPTR

  -------         MODULE        ?C?CLDOPTR
  C:0846H         PUBLIC        ?C?CLDOPTR
  -------         ENDMOD        ?C?CLDOPTR

  -------         MODULE        ?C?CSTPTR
  C:0873H         PUBLIC        ?C?CSTPTR
  -------         ENDMOD        ?C?CSTPTR

  -------         MODULE        ?C?CSTOPTR
  C:0885H         PUBLIC        ?C?CSTOPTR
  -------         ENDMOD        ?C?CSTOPTR

  -------         MODULE        ?C?IMUL
  C:08A7H         PUBLIC        ?C?IMUL
  -------         ENDMOD        ?C?IMUL

  -------         MODULE        ?C?UIDIV
  C:08B9H         PUBLIC        ?C?UIDIV
BL51 BANKED LINKER/LOCATER V6.22                                                      02/18/2019  11:57:09  PAGE 100


  -------         ENDMOD        ?C?UIDIV

  -------         MODULE        ?C?IILDX
  C:090EH         PUBLIC        ?C?IILDX
  -------         ENDMOD        ?C?IILDX

  -------         MODULE        ?C?ILDIX
  C:0924H         PUBLIC        ?C?ILDIX
  -------         ENDMOD        ?C?ILDIX

  -------         MODULE        ?C?ILDOPTR
  C:093AH         PUBLIC        ?C?ILDOPTR
  -------         ENDMOD        ?C?ILDOPTR

  -------         MODULE        ?C?LMUL
  C:0972H         PUBLIC        ?C?LMUL
  -------         ENDMOD        ?C?LMUL

  -------         MODULE        ?C?SLDIV
  C:4798H         PUBLIC        ?C?SLDIV
  -------         ENDMOD        ?C?SLDIV

  -------         MODULE        ?C?SLCMP
  C:09C1H         PUBLIC        ?C?SLCMP
  -------         ENDMOD        ?C?SLCMP

  -------         MODULE        ?C?ULCMP
  C:09D7H         PUBLIC        ?C?ULCMP
  -------         ENDMOD        ?C?ULCMP

  -------         MODULE        ?C?ULSHR
  C:09E8H         PUBLIC        ?C?ULSHR
  -------         ENDMOD        ?C?ULSHR

  -------         MODULE        ?C?LSHL
  C:09FBH         PUBLIC        ?C?LSHL
  -------         ENDMOD        ?C?LSHL

  -------         MODULE        ?C?LSTXDATA
  C:0A0EH         PUBLIC        ?C?LSTXDATA
  -------         ENDMOD        ?C?LSTXDATA

  -------         MODULE        ?C?LSTKXDATA
  C:0A1AH         PUBLIC        ?C?LSTKXDATA
  -------         ENDMOD        ?C?LSTKXDATA

  -------         MODULE        ?C?CCASE
  C:0A4BH         PUBLIC        ?C?CCASE
  -------         ENDMOD        ?C?CCASE

  -------         MODULE        ?C?MEMSET
  C:0A71H         PUBLIC        ?C?MEMSET
  -------         ENDMOD        ?C?MEMSET

  -------         MODULE        ?C?ULDIV
  C:0AD9H         PUBLIC        ?C?ULDIV
  -------         ENDMOD        ?C?ULDIV
BL51 BANKED LINKER/LOCATER V6.22                                                      02/18/2019  11:57:09  PAGE 101



*** WARNING L16: UNCALLED SEGMENT, IGNORED FOR OVERLAY PROCESS
    SEGMENT: ?PR?REC_GT23_DATA?GT23

*** WARNING L16: UNCALLED SEGMENT, IGNORED FOR OVERLAY PROCESS
    SEGMENT: ?PR?_LCD_FILL?LCD

*** WARNING L16: UNCALLED SEGMENT, IGNORED FOR OVERLAY PROCESS
    SEGMENT: ?PR?_DISPLAY_DOT?LCD

*** WARNING L16: UNCALLED SEGMENT, IGNORED FOR OVERLAY PROCESS
    SEGMENT: ?PR?_DISPLAY_HLINE?LCD

*** WARNING L16: UNCALLED SEGMENT, IGNORED FOR OVERLAY PROCESS
    SEGMENT: ?PR?_DISPLAY_VLINE?LCD

*** WARNING L16: UNCALLED SEGMENT, IGNORED FOR OVERLAY PROCESS
    SEGMENT: ?PR?_DISPLAYDIGIT?LCD

*** WARNING L16: UNCALLED SEGMENT, IGNORED FOR OVERLAY PROCESS
    SEGMENT: ?PR?_DISPLAYASCII?LCD

*** WARNING L16: UNCALLED SEGMENT, IGNORED FOR OVERLAY PROCESS
    SEGMENT: ?PR?_DISPLAYSTRING?LCD

*** WARNING L16: UNCALLED SEGMENT, IGNORED FOR OVERLAY PROCESS
    SEGMENT: ?PR?_LCD_FANGDA_DIS_TEXT?LCD

*** WARNING L16: UNCALLED SEGMENT, IGNORED FOR OVERLAY PROCESS
    SEGMENT: ?PR?SHOWMAINMENUFACE?LCD

*** WARNING L16: UNCALLED SEGMENT, IGNORED FOR OVERLAY PROCESS
    SEGMENT: ?PR?SHOWDIETFACE?LCD

*** WARNING L16: UNCALLED SEGMENT, IGNORED FOR OVERLAY PROCESS
    SEGMENT: ?PR?SHOWPRESCRIPTIONFACE?LCD

*** WARNING L16: UNCALLED SEGMENT, IGNORED FOR OVERLAY PROCESS
    SEGMENT: ?PR?SHOWPROMPTFACE?LCD

*** WARNING L16: UNCALLED SEGMENT, IGNORED FOR OVERLAY PROCESS
    SEGMENT: ?PR?LED0FLASH?SINGLEBUS

*** WARNING L16: UNCALLED SEGMENT, IGNORED FOR OVERLAY PROCESS
    SEGMENT: ?PR?SYSRESET?SINGLEBUS

*** WARNING L16: UNCALLED SEGMENT, IGNORED FOR OVERLAY PROCESS
    SEGMENT: ?PR?_GETPSKCRC?USART

*** WARNING L16: UNCALLED SEGMENT, IGNORED FOR OVERLAY PROCESS
    SEGMENT: ?PR?HOLD_LOW?PCT25VF

*** WARNING L16: UNCALLED SEGMENT, IGNORED FOR OVERLAY PROCESS
    SEGMENT: ?PR?UNHOLD?PCT25VF

*** WARNING L16: UNCALLED SEGMENT, IGNORED FOR OVERLAY PROCESS
    SEGMENT: ?PR?WP_LOW?PCT25VF
BL51 BANKED LINKER/LOCATER V6.22                                                      02/18/2019  11:57:09  PAGE 102



*** WARNING L16: UNCALLED SEGMENT, IGNORED FOR OVERLAY PROCESS
    SEGMENT: ?PR?UNWP?PCT25VF

*** WARNING L16: UNCALLED SEGMENT, IGNORED FOR OVERLAY PROCESS
    SEGMENT: ?PR?_READ_ID?PCT25VF

*** WARNING L16: UNCALLED SEGMENT, IGNORED FOR OVERLAY PROCESS
    SEGMENT: ?PR?JEDEC_ID_READ?PCT25VF

*** WARNING L16: UNCALLED SEGMENT, IGNORED FOR OVERLAY PROCESS
    SEGMENT: ?PR?_READ?PCT25VF

*** WARNING L16: UNCALLED SEGMENT, IGNORED FOR OVERLAY PROCESS
    SEGMENT: ?PR?_HIGHSPEED_READ?PCT25VF

*** WARNING L16: UNCALLED SEGMENT, IGNORED FOR OVERLAY PROCESS
    SEGMENT: ?PR?_HIGHSPEED_READ_CONT?PCT25VF

*** WARNING L16: UNCALLED SEGMENT, IGNORED FOR OVERLAY PROCESS
    SEGMENT: ?PR?_AUTO_ADD_INCA?PCT25VF

*** WARNING L16: UNCALLED SEGMENT, IGNORED FOR OVERLAY PROCESS
    SEGMENT: ?PR?_AUTO_ADD_INCB?PCT25VF

*** WARNING L16: UNCALLED SEGMENT, IGNORED FOR OVERLAY PROCESS
    SEGMENT: ?PR?_AUTO_ADD_INCA_EBSY?PCT25VF

*** WARNING L16: UNCALLED SEGMENT, IGNORED FOR OVERLAY PROCESS
    SEGMENT: ?PR?_AUTO_ADD_INCB_EBSY?PCT25VF

*** WARNING L16: UNCALLED SEGMENT, IGNORED FOR OVERLAY PROCESS
    SEGMENT: ?PR?CHIP_ERASE?PCT25VF

*** WARNING L16: UNCALLED SEGMENT, IGNORED FOR OVERLAY PROCESS
    SEGMENT: ?PR?_BLOCK_ERASE_64K?PCT25VF

*** WARNING L16: UNCALLED SEGMENT, IGNORED FOR OVERLAY PROCESS
    SEGMENT: ?PR?WAIT_BUSY_AAI?PCT25VF

*** WARNING L16: UNCALLED SEGMENT, IGNORED FOR OVERLAY PROCESS
    SEGMENT: ?PR?WREN_CHECK?PCT25VF

*** WARNING L16: UNCALLED SEGMENT, IGNORED FOR OVERLAY PROCESS
    SEGMENT: ?PR?WREN_AAI_CHECK?PCT25VF

*** WARNING L16: UNCALLED SEGMENT, IGNORED FOR OVERLAY PROCESS
    SEGMENT: ?PR?FRAM_TEST?PCT25VF

*** WARNING L16: UNCALLED SEGMENT, IGNORED FOR OVERLAY PROCESS
    SEGMENT: ?PR?_OSTASKSTKDEL?OS_CPU_C

Program Size: data=113.5 xdata=876 code=20905
LINK/LOCATE RUN COMPLETE.  36 WARNING(S),  0 ERROR(S)
