BL51 BANKED LINKER/LOCATER V6.05                                                        08/18/2014  14:10:06  PAGE 1


BL51 BANKED LINKER/LOCATER V6.05, INVOKED BY:
C:\KEIL\C51\BIN\BL51.EXE GT23.obj, IAP.obj, Key.obj, lcd.obj, main.obj, SingleBus.obj, SPI.obj, Usart.obj, PCT25VF.obj, 
>> .\OS_CORE.obj, .\OS_MEM.obj, .\OS_Q.obj, .\OS_SEM.obj, .\OS_CPU_C.obj, .\OS_CPU_A.obj TO CTFJ-SB-(SH-BL17) RAMSIZE (2
>> 56)


MEMORY MODEL: LARGE


INPUT MODULES INCLUDED:
  GT23.obj (GT23)
  IAP.obj (IAP)
  Key.obj (KEY)
  lcd.obj (LCD)
  main.obj (MAIN)
  SingleBus.obj (SINGLEBUS)
  SPI.obj (SPI)
  Usart.obj (USART)
  PCT25VF.obj (PCT25VF)
  .\OS_CORE.obj (OS_CORE)
  .\OS_MEM.obj (OS_MEM)
  .\OS_Q.obj (OS_Q)
  .\OS_SEM.obj (OS_SEM)
  .\OS_CPU_C.obj (OS_CPU_C)
  .\OS_CPU_A.obj (OS_CPU_A_ASM)
  C:\KEIL\C51\LIB\C51L.LIB (?C_STARTUP)
  C:\KEIL\C51\LIB\C51L.LIB (?C?COPY)
  C:\KEIL\C51\LIB\C51L.LIB (?C?CLDPTR)
  C:\KEIL\C51\LIB\C51L.LIB (?C?CLDOPTR)
  C:\KEIL\C51\LIB\C51L.LIB (?C?CSTPTR)
  C:\KEIL\C51\LIB\C51L.LIB (?C?CSTOPTR)
  C:\KEIL\C51\LIB\C51L.LIB (?C?IMUL)
  C:\KEIL\C51\LIB\C51L.LIB (?C?UIDIV)
  C:\KEIL\C51\LIB\C51L.LIB (?C?IILDX)
  C:\KEIL\C51\LIB\C51L.LIB (?C?ILDIX)
  C:\KEIL\C51\LIB\C51L.LIB (?C?ILDOPTR)
  C:\KEIL\C51\LIB\C51L.LIB (?C?LMUL)
  C:\KEIL\C51\LIB\C51L.LIB (?C?ULDIV)
  C:\KEIL\C51\LIB\C51L.LIB (?C?SLDIV)
  C:\KEIL\C51\LIB\C51L.LIB (?C?ULCMP)
  C:\KEIL\C51\LIB\C51L.LIB (?C?ULSHR)
  C:\KEIL\C51\LIB\C51L.LIB (?C?LSHL)
  C:\KEIL\C51\LIB\C51L.LIB (?C?LSTXDATA)
  C:\KEIL\C51\LIB\C51L.LIB (?C?LSTKXDATA)
  C:\KEIL\C51\LIB\C51L.LIB (?C?CCASE)
  C:\KEIL\C51\LIB\C51L.LIB (?C?MEMSET)
  C:\KEIL\C51\LIB\C51L.LIB (?C_INIT)


LINK MAP OF MODULE:  CTFJ-SB-(SH-BL17) (GT23)


            TYPE    BASE      LENGTH    RELOCATION   SEGMENT NAME
            -----------------------------------------------------

            * * * * * * *   D A T A   M E M O R Y   * * * * * * *
            REG     0000H     0008H     ABSOLUTE     "REG BANK 0"
            DATA    0008H     000BH     UNIT         ?DT?OS_CORE
BL51 BANKED LINKER/LOCATER V6.05                                                      08/18/2014  14:10:06  PAGE 2


            DATA    0013H     0008H     UNIT         ?DT?OS_CPU_C
            DATA    001BH     0001H     UNIT         ?DT?MAIN
                    001CH     0004H                  *** GAP ***
            DATA    0020H     0007H     BIT_ADDR     ?BA?SINGLEBUS
            BIT     0027H.0   0000H.2   UNIT         ?BI?USART
            BIT     0027H.2   0000H.1   UNIT         ?BI?LCD
            BIT     0027H.3   0000H.1   UNIT         ?BI?MAIN
            BIT     0027H.4   0000H.1   UNIT         ?BI?SINGLEBUS
                    0027H.5   0000H.3                *** GAP ***
            DATA    0028H     003CH     UNIT         ?DT?SINGLEBUS
            IDATA   0064H     0010H     UNIT         ?ID?MAIN
            IDATA   0074H     0002H     UNIT         ?STACK

            * * * * * * *  X D A T A   M E M O R Y  * * * * * * *
            XDATA   0000H     011BH     UNIT         ?XD?USART
            XDATA   011BH     00A6H     UNIT         ?XD?LCD
            XDATA   01C1H     0089H     UNIT         ?XD?GT23
            XDATA   024AH     0039H     UNIT         ?XD?MAIN
            XDATA   0283H     0032H     UNIT         _XDATA_GROUP_
            XDATA   02B5H     0014H     UNIT         ?XD?PCT25VF
            XDATA   02C9H     0012H     UNIT         ?XD?_LCD_FANGDA_DIS_TEXT?LCD
            XDATA   02DBH     000FH     UNIT         ?XD?_HIGHSPEED_READ_CONT?PCT25VF
            XDATA   02EAH     0008H     UNIT         ?XD?_LCD_FILL?LCD
            XDATA   02F2H     0008H     UNIT         ?XD?_DISPLAYDIGIT?LCD
            XDATA   02FAH     0008H     UNIT         ?XD?_DISPLAYASCII?LCD
            XDATA   0302H     0008H     UNIT         ?XD?_GETPSKCRC?USART
            XDATA   030AH     0006H     UNIT         ?XD?_AUTO_ADD_INCA?PCT25VF
            XDATA   0310H     0006H     UNIT         ?XD?_AUTO_ADD_INCA_EBSY?PCT25VF
            XDATA   0316H     0005H     UNIT         ?XD?_DISPLAY_HLINE?LCD
            XDATA   031BH     0005H     UNIT         ?XD?_DISPLAY_VLINE?LCD
            XDATA   0320H     0004H     UNIT         ?XD?_SEND_DATA?USART
            XDATA   0324H     0004H     UNIT         ?XD?JEDEC_ID_READ?PCT25VF
            XDATA   0328H     0004H     UNIT         ?XD?_READ?PCT25VF
            XDATA   032CH     0004H     UNIT         ?XD?_HIGHSPEED_READ?PCT25VF
            XDATA   0330H     0004H     UNIT         ?XD?_BLOCK_ERASE_32K?PCT25VF
            XDATA   0334H     0004H     UNIT         ?XD?_BLOCK_ERASE_64K?PCT25VF
            XDATA   0338H     0003H     UNIT         ?XD?KEY
            XDATA   033BH     0003H     UNIT         ?XD?POLL_SO?PCT25VF
            XDATA   033EH     0002H     UNIT         ?XD?_DISPLAY_DOT?LCD
            XDATA   0340H     0002H     UNIT         ?XD?SHOWPOWERUPFACE?LCD
            XDATA   0342H     0002H     UNIT         ?XD?SHOWMAINMENUFACE?LCD
            XDATA   0344H     0002H     UNIT         ?XD?SINGLEBUS
            XDATA   0346H     0002H     UNIT         ?XD?_WRSR?PCT25VF
            XDATA   0348H     0002H     UNIT         ?XD?_READ_ID?PCT25VF
            XDATA   034AH     0002H     UNIT         ?XD?_AUTO_ADD_INCB?PCT25VF
            XDATA   034CH     0002H     UNIT         ?XD?_AUTO_ADD_INCB_EBSY?PCT25VF
            XDATA   034EH     0002H     UNIT         ?XD?WAIT_BUSY_AAI?PCT25VF
            XDATA   0350H     0002H     UNIT         ?XD?WREN_CHECK?PCT25VF
            XDATA   0352H     0002H     UNIT         ?XD?WREN_AAI_CHECK?PCT25VF
            XDATA   0354H     0001H     UNIT         ?XD?OS_CPU_C

            * * * * * * *   C O D E   M E M O R Y   * * * * * * *
            CODE    0000H     0003H     ABSOLUTE     
            CODE    0003H     0003H     ABSOLUTE     
            CODE    0006H     0005H     UNIT         ?CO?MAIN
            CODE    000BH     0003H     ABSOLUTE     
            CODE    000EH     0003H     UNIT         ?PR?EX0INT?MAIN
BL51 BANKED LINKER/LOCATER V6.05                                                      08/18/2014  14:10:06  PAGE 3


            CODE    0011H     0001H     UNIT         ?PR?SYSRESET?SINGLEBUS
            CODE    0012H     0001H     UNIT         ?PR?HOLD_LOW?PCT25VF
            CODE    0013H     0003H     ABSOLUTE     
            CODE    0016H     0003H     UNIT         ?PR?TIMER1INT?MAIN
            CODE    0019H     0001H     UNIT         ?PR?UNHOLD?PCT25VF
            CODE    001AH     0001H     UNIT         ?PR?WP_LOW?PCT25VF
            CODE    001BH     0003H     ABSOLUTE     
            CODE    001EH     0003H     UNIT         ?PR?ADCINT?MAIN
            CODE    0021H     0001H     UNIT         ?PR?UNWP?PCT25VF
                    0022H     0001H                  *** GAP ***
            CODE    0023H     0003H     ABSOLUTE     
            CODE    0026H     0003H     UNIT         ?PR?LVDINT?MAIN
                    0029H     0002H                  *** GAP ***
            CODE    002BH     0003H     ABSOLUTE     
            CODE    002EH     0003H     UNIT         ?PR?CE_HIGH?PCT25VF
                    0031H     0002H                  *** GAP ***
            CODE    0033H     0003H     ABSOLUTE     
                    0036H     0005H                  *** GAP ***
            CODE    003BH     0003H     ABSOLUTE     
                    003EH     0005H                  *** GAP ***
            CODE    0043H     0003H     ABSOLUTE     
                    0046H     0005H                  *** GAP ***
            CODE    004BH     0003H     ABSOLUTE     
            CODE    004EH     06E6H     UNIT         ?PR?BUS0RECDEAL?SINGLEBUS
            CODE    0734H     0529H     UNIT         ?PR?_GET_GT23_DATA1?GT23
            CODE    0C5DH     04F7H     UNIT         ?PR?_GET_GT23_DATA?GT23
            CODE    1154H     041EH     UNIT         ?C?LIB_CODE
            CODE    1572H     0334H     UNIT         ?PR?_DISPLAYSTRING?LCD
            CODE    18A6H     031AH     UNIT         ?PR?SHOWLANDINGFACE?LCD
            CODE    1BC0H     0304H     UNIT         ?PR?USART0RECDEAL?USART
            CODE    1EC4H     02F8H     UNIT         ?PR?TIMER0INT?SINGLEBUS
            CODE    21BCH     02B4H     UNIT         ?PR?SHOWMAINMENUFACE?LCD
            CODE    2470H     023CH     UNIT         ?PR?SHOWPOWERUPFACE?LCD
            CODE    26ACH     01B9H     UNIT         ?PR?_SHOWFACE?LCD
            CODE    2865H     017DH     UNIT         ?PR?ILI9163C_INIT?LCD
            CODE    29E2H     0176H     UNIT         ?PR?UART0?USART
            CODE    2B58H     0142H     UNIT         ?PR?_DISPLAYDIGITSTRING?LCD
            CODE    2C9AH     0129H     UNIT         ?PR?_KEYDOWNDEAL?KEY
            CODE    2DC3H     011FH     UNIT         ?PR?_LCD_FANGDA_DIS_TEXT?LCD
            CODE    2EE2H     011DH     UNIT         ?PR?TIMEROUTDEAL?SINGLEBUS
            CODE    2FFFH     0114H     UNIT         ?PR?_DISPLAYASCIISTRING?LCD
            CODE    3113H     00F8H     UNIT         ?PR?_DISPLAYCHINESESTRING?LCD
            CODE    320BH     00F7H     UNIT         ?PR?_DISPLAYBLOCK?LCD
            CODE    3302H     00EAH     UNIT         ?PR?_DISPLAY_CHINESE?LCD
            CODE    33ECH     00E1H     UNIT         ?PR?_DISPLAY_ASCII?LCD
            CODE    34CDH     00D9H     UNIT         ?PR?_ASCIIXDIRECTIONINCREASE?LCD
            CODE    35A6H     00D9H     UNIT         ?PR?_CHINESEXDIRECTIONINCREASE?LCD
            CODE    367FH     00BEH     UNIT         ?PR?_READ_CONT?PCT25VF
            CODE    373DH     00BCH     UNIT         ?PR?_HIGHSPEED_READ_CONT?PCT25VF
            CODE    37F9H     00B5H     UNIT         ?CO?LCD
            CODE    38AEH     00A6H     UNIT         ?PR?FRAM_TEST?PCT25VF
            CODE    3954H     0094H     UNIT         ?PR?_OSQPEND?OS_Q
            CODE    39E8H     008EH     UNIT         ?PR?SHOWCALLSUCCESS?LCD
            CODE    3A76H     008CH     UNIT         ?PR?C_OSCTXSW?OS_CPU_A
            CODE    3B02H     008CH     UNIT         ?C_C51STARTUP
            CODE    3B8EH     0088H     UNIT         ?PR?_OSQPOST?OS_Q
            CODE    3C16H     0084H     UNIT         ?PR?USARTINIT?USART
BL51 BANKED LINKER/LOCATER V6.05                                                      08/18/2014  14:10:06  PAGE 4


            CODE    3C9AH     007DH     UNIT         ?PR?KEYMANAGER?KEY
            CODE    3D17H     007CH     UNIT         ?PR?_OSTASKSTKINIT?OS_CPU_A
            CODE    3D93H     0079H     UNIT         ?PR?_BUS0OUTPUTDATA?SINGLEBUS
            CODE    3E0CH     0077H     UNIT         ?PR?_CHECKPSK?USART
            CODE    3E83H     0074H     UNIT         ?PR?INIT?MAIN
            CODE    3EF7H     006FH     UNIT         ?PR?SAVEPARAMETER?SINGLEBUS
            CODE    3F66H     0066H     UNIT         ?PR?_DISPLAYDIGIT?LCD
            CODE    3FCCH     0064H     UNIT         ?PR?_AAI_WRITE?PCT25VF
            CODE    4030H     0063H     UNIT         ?PR?_GETPSKCRC?USART
            CODE    4093H     005EH     UNIT         ?PR?_OSWAIT?OS_CORE
            CODE    40F1H     005DH     UNIT         ?PR?_LCD_FILL?LCD
            CODE    414EH     005DH     UNIT         ?PR?_BYTE_PROGRAM?PCT25VF
            CODE    41ABH     0058H     UNIT         ?PR?_AAI_WRITE1?PCT25VF
            CODE    4203H     0055H     UNIT         ?PR?_DISPLAYASCII?LCD
            CODE    4258H     0053H     UNIT         ?PR?_SET_DISPLAY_AREA?LCD
            CODE    42ABH     0053H     UNIT         ?PR?_AUTO_ADD_INCA_EBSY?PCT25VF
            CODE    42FEH     0052H     UNIT         ?PR?_LCD_CLEAR?LCD
            CODE    4350H     004EH     UNIT         ?PR?MAINTASK?MAIN
            CODE    439EH     004DH     UNIT         ?PR?_KEYUPDEAL?KEY
            CODE    43EBH     004DH     UNIT         ?PR?_KEYALWAYSDEAL?KEY
            CODE    4438H     004CH     UNIT         ?PR?SHOWTALKFACE?LCD
            CODE    4484H     004CH     UNIT         ?PR?SHOWBROADFACE?LCD
            CODE    44D0H     004CH     UNIT         ?PR?READPARAMETER?SINGLEBUS
            CODE    451CH     004AH     UNIT         ?PR?_AUTO_ADD_INCA?PCT25VF
            CODE    4566H     0049H     UNIT         ?PR?OSTICKISR?OS_CPU_C
            CODE    45AFH     0048H     UNIT         ?PR?JEDEC_ID_READ?PCT25VF
            CODE    45F7H     0048H     UNIT         ?PR?_HIGHSPEED_READ?PCT25VF
            CODE    463FH     0048H     UNIT         ?PR?_SECTOR_ERASE?PCT25VF
            CODE    4687H     0044H     UNIT         ?C?LDIV
            CODE    46CBH     0043H     UNIT         ?PR?_STKDELA?OS_CPU_C
            CODE    470EH     0042H     UNIT         ?PR?_STKDELB?OS_CPU_C
            CODE    4750H     0041H     UNIT         ?PR?_DISPATCHMESSAGE?MAIN
            CODE    4791H     0041H     UNIT         ?PR?_ADDRCOMPARE?SINGLEBUS
            CODE    47D2H     003FH     UNIT         ?PR?_READ?PCT25VF
            CODE    4811H     003DH     UNIT         ?PR?_BLOCK_ERASE_32K?PCT25VF
            CODE    484EH     003DH     UNIT         ?PR?_BLOCK_ERASE_64K?PCT25VF
            CODE    488BH     003CH     UNIT         ?PR?INITPARAMETER?SINGLEBUS
            CODE    48C7H     003CH     UNIT         ?PR?__OSTASKCREATE?OS_CORE
            CODE    4903H     0039H     UNIT         ?C_INITSEG
            CODE    493CH     0039H     UNIT         ?PR?_OSQCREATE?OS_Q
            CODE    4975H     0036H     UNIT         ?PR?_DISPLAY_HLINE?LCD
            CODE    49ABH     0035H     UNIT         ?PR?SINGLEBUSINIT?SINGLEBUS
            CODE    49E0H     0033H     UNIT         ?PR?LOADCTX?OS_CPU_A
            CODE    4A13H     0032H     UNIT         ?PR?_DIRADDRCOMPARE?SINGLEBUS
            CODE    4A45H     0031H     UNIT         ?PR?BUS0SENDDEAL?SINGLEBUS
            CODE    4A76H     0030H     UNIT         ?PR?_DISPLAY_VLINE?LCD
            CODE    4AA6H     002FH     UNIT         ?PR?OSINTCTXSW?OS_CPU_A
            CODE    4AD5H     002CH     UNIT         ?PR?POLL_SO?PCT25VF
            CODE    4B01H     002CH     UNIT         ?PR?_AUTO_ADD_INCB_EBSY?PCT25VF
            CODE    4B2DH     002BH     UNIT         ?PR?_DISPLAY_DOT?LCD
            CODE    4B58H     002BH     UNIT         ?PR?_BYTE_WRITE?PCT25VF
            CODE    4B83H     002AH     UNIT         ?PR?_READ_ID?PCT25VF
            CODE    4BADH     002AH     UNIT         ?PR?WREN_AAI_CHECK?PCT25VF
            CODE    4BD7H     0029H     UNIT         ?PR?KEYSCAN?KEY
            CODE    4C00H     0027H     UNIT         ?PR?WAIT_BUSY_AAI?PCT25VF
            CODE    4C27H     0026H     UNIT         ?PR?GET_BYTE?PCT25VF
            CODE    4C4DH     0026H     UNIT         ?PR?_OSTASKSTKDEL?OS_CPU_C
BL51 BANKED LINKER/LOCATER V6.05                                                      08/18/2014  14:10:06  PAGE 5


            CODE    4C73H     0024H     UNIT         ?PR?OSINTEXIT?OS_CORE
            CODE    4C97H     0023H     UNIT         ?PR?SST25VF_INIT?PCT25VF
            CODE    4CBAH     0023H     UNIT         ?PR?_AUTO_ADD_INCB?PCT25VF
            CODE    4CDDH     0023H     UNIT         ?PR?WAIT_BUSY?PCT25VF
            CODE    4D00H     0023H     UNIT         ?PR?_OSTIMEDLY?OS_CORE
            CODE    4D23H     0022H     UNIT         ?PR?USERTICKTIMER?MAIN
            CODE    4D45H     0021H     UNIT         ?PR?WREN_CHECK?PCT25VF
            CODE    4D66H     001FH     UNIT         ?PR?TIMEROUTMANAGER?SINGLEBUS
            CODE    4D85H     001FH     UNIT         ?PR?_BYTE_WRITE1?PCT25VF
            CODE    4DA4H     001FH     UNIT         ?PR?OSTIMETICK?OS_CORE
            CODE    4DC3H     001EH     UNIT         ?PR?_DELAY_NMS?PCT25VF
            CODE    4DE1H     001DH     UNIT         ?PR?BUS0MANAGE?SINGLEBUS
            CODE    4DFEH     001CH     UNIT         ?PR?_WRSR?PCT25VF
            CODE    4E1AH     001BH     UNIT         ?PR?UART1?USART
            CODE    4E35H     0019H     UNIT         ?PR?_DELAYMS?LCD
            CODE    4E4EH     0019H     UNIT         ?PR?_DELAY_NUS?PCT25VF
            CODE    4E67H     0019H     UNIT         ?PR?_OSTASKRESUME?OS_CORE
            CODE    4E80H     0018H     UNIT         ?PR?DISPMANAGER?LCD
            CODE    4E98H     0018H     UNIT         ?PR?_OS_TASKSUSPEND?OS_CORE
            CODE    4EB0H     0018H     UNIT         ?PR?OSFINDNEXTRUNNINGTASK?OS_CORE
            CODE    4EC8H     0018H     UNIT         ?PR?_STKDELC?OS_CPU_C
            CODE    4EE0H     0016H     UNIT         ?PR?_IAPWRITEBYTE?IAP
            CODE    4EF6H     0014H     UNIT         ?PR?_IAPREADBYTE?IAP
            CODE    4F0AH     0014H     UNIT         ?PR?OSSCHED?OS_CORE
            CODE    4F1EH     0013H     UNIT         ?PR?_SEND_BYTE?PCT25VF
            CODE    4F31H     0012H     UNIT         ?PR?_IAPERASE?IAP
            CODE    4F43H     0011H     UNIT         ?PR?_SEND_ST7735_DATA?LCD
            CODE    4F54H     0011H     UNIT         ?PR?MAIN?MAIN
            CODE    4F65H     0011H     UNIT         ?PR?READ_STATUS_REGISTER?PCT25VF
            CODE    4F76H     0011H     UNIT         ?PR?OSINIT?OS_CORE
            CODE    4F87H     0010H     UNIT         ?PR?OSCPUINIT?OS_CPU_C
            CODE    4F97H     000FH     UNIT         ?PR?_SEND_DATA?USART
            CODE    4FA6H     000EH     UNIT         ?PR?BUS0RECINT?SINGLEBUS
            CODE    4FB4H     000EH     UNIT         ?PR?WREN?PCT25VF
            CODE    4FC2H     000DH     UNIT         ?PR?_SETLEDSTATE?KEY
            CODE    4FCFH     000DH     UNIT         ?PR?LED0FLASH?SINGLEBUS
            CODE    4FDCH     000DH     UNIT         ?PR?_SPI_WRITEBYTE?SPI
            CODE    4FE9H     000DH     UNIT         ?PR?OSCTXSW?OS_CPU_A
            CODE    4FF6H     000CH     UNIT         ?PR?_SEND_ST7735_COMMAND?LCD
            CODE    5002H     000CH     UNIT         ?PR?SPINORMALMODE?SPI
            CODE    500EH     000CH     UNIT         ?PR?SPILCDMODE?SPI
            CODE    501AH     000CH     UNIT         ?PR?_OSTASKSUSPEND?OS_CORE
            CODE    5026H     000BH     UNIT         ?PR?_MAKECH0TIMEROUT?SINGLEBUS
            CODE    5031H     000BH     UNIT         ?PR?EWSR?PCT25VF
            CODE    503CH     000BH     UNIT         ?PR?WRDI?PCT25VF
            CODE    5047H     000BH     UNIT         ?PR?EBSY?PCT25VF
            CODE    5052H     000BH     UNIT         ?PR?DBSY?PCT25VF
            CODE    505DH     000BH     UNIT         ?PR?CHIP_ERASE?PCT25VF
            CODE    5068H     0009H     UNIT         ?PR?BL_SW_INIT?MAIN
            CODE    5071H     0009H     UNIT         ?CO?OS_CORE
            CODE    507AH     0008H     UNIT         ?PR?REC_GT23_DATA?GT23
            CODE    5082H     0008H     UNIT         ?PR?DISABLEIAP?IAP
            CODE    508AH     0007H     UNIT         ?PR?SHOWDIETFACE?LCD
            CODE    5091H     0007H     UNIT         ?PR?SHOWPRESCRIPTIONFACE?LCD
            CODE    5098H     0007H     UNIT         ?PR?SHOWPROMPTFACE?LCD
            CODE    509FH     0007H     UNIT         ?PR?_GETMESSAGE?MAIN
            CODE    50A6H     0007H     UNIT         ?PR?SPIINT?SPI
BL51 BANKED LINKER/LOCATER V6.05                                                      08/18/2014  14:10:06  PAGE 6


            CODE    50ADH     0006H     UNIT         ?PR?_ENABLEIAP?IAP
            CODE    50B3H     0006H     UNIT         ?PR?_SEND_DATA_BYTE?USART
            CODE    50B9H     0006H     UNIT         ?PR?CE_LOW?PCT25VF



OVERLAY MAP OF MODULE:   CTFJ-SB-(SH-BL17) (GT23)


SEGMENT                                      XDATA_GROUP
  +--> CALLED SEGMENT                      START    LENGTH
----------------------------------------------------------
?PR?OSTICKISR?OS_CPU_C                     -----    -----
  +--> ?PR?USERTICKTIMER?MAIN
  +--> ?PR?OSTIMETICK?OS_CORE
  +--> ?PR?OSINTEXIT?OS_CORE

?PR?OSTIMETICK?OS_CORE                     -----    -----
  +--> ?CO?OS_CORE
  +--> ?PR?OSSCHED?OS_CORE

?PR?OSSCHED?OS_CORE                        -----    -----
  +--> ?PR?OSFINDNEXTRUNNINGTASK?OS_CORE
  +--> ?PR?OSCTXSW?OS_CPU_A

?PR?OSCTXSW?OS_CPU_A                       -----    -----
  +--> ?CO?OS_CORE
  +--> ?PR?C_OSCTXSW?OS_CPU_A

?PR?C_OSCTXSW?OS_CPU_A                     -----    -----
  +--> ?PR?LOADCTX?OS_CPU_A

?PR?LOADCTX?OS_CPU_A                       -----    -----
  +--> ?CO?OS_CORE

?PR?OSINTEXIT?OS_CORE                      -----    -----
  +--> ?PR?OSFINDNEXTRUNNINGTASK?OS_CORE
  +--> ?PR?OSINTCTXSW?OS_CPU_A

?PR?OSINTCTXSW?OS_CPU_A                    -----    -----
  +--> ?PR?OSCTXSW?OS_CPU_A
  +--> ?CO?OS_CORE
  +--> ?PR?C_OSCTXSW?OS_CPU_A

*** NEW ROOT ***************************************************

?C_C51STARTUP                              -----    -----
  +--> ?PR?MAIN?MAIN
  +--> ?C_INITSEG

?PR?MAIN?MAIN                              -----    -----
  +--> ?PR?OSINIT?OS_CORE
  +--> ?PR?MAINTASK?MAIN
  +--> ?PR?__OSTASKCREATE?OS_CORE

?PR?OSINIT?OS_CORE                         -----    -----
  +--> ?PR?OSCPUINIT?OS_CPU_C
BL51 BANKED LINKER/LOCATER V6.05                                                      08/18/2014  14:10:06  PAGE 7



?PR?MAINTASK?MAIN                          -----    -----
  +--> ?PR?INIT?MAIN
  +--> ?PR?_OSQCREATE?OS_Q
  +--> ?PR?BUS0MANAGE?SINGLEBUS
  +--> ?PR?__OSTASKCREATE?OS_CORE
  +--> ?PR?KEYMANAGER?KEY
  +--> ?PR?DISPMANAGER?LCD
  +--> ?PR?TIMEROUTMANAGER?SINGLEBUS
  +--> ?PR?_GETMESSAGE?MAIN
  +--> ?PR?_DISPATCHMESSAGE?MAIN
  +--> ?PR?USART0RECDEAL?USART

?PR?INIT?MAIN                              -----    -----
  +--> ?PR?_DELAYMS?LCD
  +--> ?PR?INITPARAMETER?SINGLEBUS
  +--> ?PR?SINGLEBUSINIT?SINGLEBUS
  +--> ?PR?USARTINIT?USART
  +--> ?PR?_SEND_DATA_BYTE?USART
  +--> ?PR?SPILCDMODE?SPI
  +--> ?PR?BL_SW_INIT?MAIN

?PR?INITPARAMETER?SINGLEBUS                -----    -----
  +--> ?PR?_ENABLEIAP?IAP
  +--> ?PR?_IAPREADBYTE?IAP
  +--> ?PR?READPARAMETER?SINGLEBUS
  +--> ?PR?SAVEPARAMETER?SINGLEBUS

?PR?READPARAMETER?SINGLEBUS                -----    -----
  +--> ?PR?_ENABLEIAP?IAP
  +--> ?PR?_IAPREADBYTE?IAP
  +--> ?PR?DISABLEIAP?IAP

?PR?SAVEPARAMETER?SINGLEBUS                -----    -----
  +--> ?PR?_ENABLEIAP?IAP
  +--> ?PR?_IAPERASE?IAP
  +--> ?PR?_IAPWRITEBYTE?IAP
  +--> ?PR?DISABLEIAP?IAP

?PR?_SEND_DATA_BYTE?USART                  0283H    0001H

?PR?BUS0MANAGE?SINGLEBUS                   -----    -----
  +--> ?PR?_OSQPOST?OS_Q
  +--> ?PR?_OSWAIT?OS_CORE

?PR?_OSQPOST?OS_Q                          -----    -----
  +--> ?CO?OS_CORE
  +--> ?PR?_OSTASKRESUME?OS_CORE

?PR?_OSTASKRESUME?OS_CORE                  -----    -----
  +--> ?CO?OS_CORE
  +--> ?PR?OSSCHED?OS_CORE

?PR?_OSWAIT?OS_CORE                        -----    -----
  +--> ?PR?_OSTASKSUSPEND?OS_CORE
  +--> ?PR?_OSTIMEDLY?OS_CORE
  +--> ?PR?_OS_TASKSUSPEND?OS_CORE
BL51 BANKED LINKER/LOCATER V6.05                                                      08/18/2014  14:10:06  PAGE 8


  +--> ?PR?OSSCHED?OS_CORE

?PR?_OSTASKSUSPEND?OS_CORE                 -----    -----
  +--> ?PR?_OS_TASKSUSPEND?OS_CORE
  +--> ?PR?OSSCHED?OS_CORE

?PR?_OS_TASKSUSPEND?OS_CORE                -----    -----
  +--> ?CO?OS_CORE

?PR?_OSTIMEDLY?OS_CORE                     -----    -----
  +--> ?PR?_OS_TASKSUSPEND?OS_CORE
  +--> ?PR?OSSCHED?OS_CORE

?PR?__OSTASKCREATE?OS_CORE                 -----    -----
  +--> ?CO?OS_CORE
  +--> ?PR?_OSTASKSTKINIT?OS_CPU_A
  +--> ?PR?OSSCHED?OS_CORE

?PR?_OSTASKSTKINIT?OS_CPU_A                -----    -----
  +--> ?CO?OS_CORE

?PR?KEYMANAGER?KEY                         -----    -----
  +--> ?PR?_OSWAIT?OS_CORE
  +--> ?PR?KEYSCAN?KEY
  +--> ?PR?_OSQPOST?OS_Q

?PR?DISPMANAGER?LCD                        -----    -----
  +--> ?PR?_OSWAIT?OS_CORE
  +--> ?PR?SHOWLANDINGFACE?LCD

?PR?SHOWLANDINGFACE?LCD                    0288H    0004H
  +--> ?PR?_DISPLAYDIGITSTRING?LCD
  +--> ?CO?LCD
  +--> ?PR?_DISPLAYCHINESESTRING?LCD
  +--> ?PR?_DISPLAYASCIISTRING?LCD
  +--> ?PR?_DISPLAYBLOCK?LCD

?PR?_DISPLAYDIGITSTRING?LCD                028CH    0011H
  +--> ?PR?_GET_GT23_DATA?GT23
  +--> ?PR?_DISPLAY_ASCII?LCD
  +--> ?PR?_ASCIIXDIRECTIONINCREASE?LCD

?PR?_GET_GT23_DATA?GT23                    02A2H    0013H
  +--> ?PR?_SPI_WRITEBYTE?SPI
  +--> ?PR?REC_GT23_DATA?GT23

?PR?REC_GT23_DATA?GT23                     -----    -----
  +--> ?PR?_SPI_WRITEBYTE?SPI

?PR?_DISPLAY_ASCII?LCD                     02A2H    000CH
  +--> ?PR?_SET_DISPLAY_AREA?LCD
  +--> ?PR?_SEND_ST7735_COMMAND?LCD
  +--> ?PR?_SEND_ST7735_DATA?LCD

?PR?_SET_DISPLAY_AREA?LCD                  02AEH    0004H
  +--> ?PR?_SEND_ST7735_COMMAND?LCD
  +--> ?PR?_SEND_ST7735_DATA?LCD
BL51 BANKED LINKER/LOCATER V6.05                                                      08/18/2014  14:10:06  PAGE 9



?PR?_SEND_ST7735_COMMAND?LCD               -----    -----
  +--> ?PR?_SPI_WRITEBYTE?SPI

?PR?_SEND_ST7735_DATA?LCD                  -----    -----
  +--> ?PR?_SPI_WRITEBYTE?SPI

?PR?_ASCIIXDIRECTIONINCREASE?LCD           02A2H    0007H

?PR?_DISPLAYCHINESESTRING?LCD              0291H    0011H
  +--> ?PR?_GET_GT23_DATA1?GT23
  +--> ?PR?_DISPLAY_CHINESE?LCD
  +--> ?PR?_CHINESEXDIRECTIONINCREASE?LCD

?PR?_GET_GT23_DATA1?GT23                   02A2H    0013H
  +--> ?PR?_SPI_WRITEBYTE?SPI
  +--> ?PR?REC_GT23_DATA?GT23

?PR?_DISPLAY_CHINESE?LCD                   02A2H    000CH
  +--> ?PR?_SET_DISPLAY_AREA?LCD
  +--> ?PR?_SEND_ST7735_COMMAND?LCD
  +--> ?PR?_SEND_ST7735_DATA?LCD

?PR?_CHINESEXDIRECTIONINCREASE?LCD         02A2H    0007H

?PR?_DISPLAYASCIISTRING?LCD                028CH    0011H
  +--> ?CO?LCD
  +--> ?PR?_GET_GT23_DATA?GT23
  +--> ?PR?_DISPLAY_ASCII?LCD
  +--> ?PR?_ASCIIXDIRECTIONINCREASE?LCD

?PR?_DISPLAYBLOCK?LCD                      028CH    000BH
  +--> ?PR?_SET_DISPLAY_AREA?LCD
  +--> ?PR?_SEND_ST7735_COMMAND?LCD
  +--> ?PR?_SEND_ST7735_DATA?LCD

?PR?TIMEROUTMANAGER?SINGLEBUS              -----    -----
  +--> ?PR?_OSWAIT?OS_CORE
  +--> ?PR?_OSQPOST?OS_Q

?PR?_GETMESSAGE?MAIN                       -----    -----
  +--> ?PR?_OSQPEND?OS_Q

?PR?_OSQPEND?OS_Q                          -----    -----
  +--> ?CO?OS_CORE
  +--> ?PR?_OS_TASKSUSPEND?OS_CORE
  +--> ?PR?OSSCHED?OS_CORE

?PR?_DISPATCHMESSAGE?MAIN                  0283H    0001H
  +--> ?PR?BUS0RECDEAL?SINGLEBUS
  +--> ?PR?BUS0SENDDEAL?SINGLEBUS
  +--> ?PR?_KEYDOWNDEAL?KEY
  +--> ?PR?_KEYALWAYSDEAL?KEY
  +--> ?PR?_KEYUPDEAL?KEY
  +--> ?PR?TIMEROUTDEAL?SINGLEBUS

?PR?BUS0RECDEAL?SINGLEBUS                  0284H    0004H
BL51 BANKED LINKER/LOCATER V6.05                                                      08/18/2014  14:10:06  PAGE 10


  +--> ?PR?_MAKECH0TIMEROUT?SINGLEBUS
  +--> ?PR?_BYTE_WRITE?PCT25VF
  +--> ?PR?_BYTE_WRITE1?PCT25VF
  +--> ?PR?SAVEPARAMETER?SINGLEBUS
  +--> ?PR?_SETLEDSTATE?KEY
  +--> ?PR?SHOWCALLSUCCESS?LCD
  +--> ?PR?SHOWTALKFACE?LCD
  +--> ?PR?_DISPLAYDIGITSTRING?LCD
  +--> ?PR?SHOWBROADFACE?LCD
  +--> ?PR?_DIRADDRCOMPARE?SINGLEBUS
  +--> ?PR?_ADDRCOMPARE?SINGLEBUS
  +--> ?PR?SHOWLANDINGFACE?LCD
  +--> ?PR?_BUS0OUTPUTDATA?SINGLEBUS
  +--> ?PR?USARTINIT?USART

?PR?_BYTE_WRITE?PCT25VF                    0288H    0005H
  +--> ?PR?WREN?PCT25VF
  +--> ?PR?_SECTOR_ERASE?PCT25VF
  +--> ?PR?WAIT_BUSY?PCT25VF
  +--> ?PR?_BYTE_PROGRAM?PCT25VF

?PR?WREN?PCT25VF                           -----    -----
  +--> ?PR?CE_LOW?PCT25VF
  +--> ?PR?_SEND_BYTE?PCT25VF
  +--> ?PR?CE_HIGH?PCT25VF
  +--> ?PR?WAIT_BUSY?PCT25VF

?PR?_SEND_BYTE?PCT25VF                     -----    -----
  +--> ?PR?_SPI_WRITEBYTE?SPI

?PR?WAIT_BUSY?PCT25VF                      028DH    0002H
  +--> ?PR?READ_STATUS_REGISTER?PCT25VF
  +--> ?PR?_DELAY_NUS?PCT25VF

?PR?READ_STATUS_REGISTER?PCT25VF           -----    -----
  +--> ?PR?CE_LOW?PCT25VF
  +--> ?PR?_SEND_BYTE?PCT25VF
  +--> ?PR?GET_BYTE?PCT25VF
  +--> ?PR?CE_HIGH?PCT25VF

?PR?GET_BYTE?PCT25VF                       -----    -----
  +--> ?PR?_SPI_WRITEBYTE?SPI

?PR?_SECTOR_ERASE?PCT25VF                  028DH    0004H
  +--> ?PR?CE_LOW?PCT25VF
  +--> ?PR?_SEND_BYTE?PCT25VF
  +--> ?PR?CE_HIGH?PCT25VF

?PR?_BYTE_PROGRAM?PCT25VF                  028DH    0005H
  +--> ?PR?CE_LOW?PCT25VF
  +--> ?PR?_SEND_BYTE?PCT25VF
  +--> ?PR?CE_HIGH?PCT25VF

?PR?_BYTE_WRITE1?PCT25VF                   0288H    0005H
  +--> ?PR?WREN?PCT25VF
  +--> ?PR?_BYTE_PROGRAM?PCT25VF
  +--> ?PR?WAIT_BUSY?PCT25VF
BL51 BANKED LINKER/LOCATER V6.05                                                      08/18/2014  14:10:06  PAGE 11



?PR?SHOWCALLSUCCESS?LCD                    0288H    0002H
  +--> ?PR?_LCD_CLEAR?LCD
  +--> ?CO?LCD
  +--> ?PR?_DISPLAYCHINESESTRING?LCD

?PR?_LCD_CLEAR?LCD                         0291H    0004H
  +--> ?PR?_SET_DISPLAY_AREA?LCD
  +--> ?PR?_SEND_ST7735_COMMAND?LCD
  +--> ?PR?_SEND_ST7735_DATA?LCD

?PR?SHOWTALKFACE?LCD                       0288H    0002H
  +--> ?PR?_LCD_CLEAR?LCD
  +--> ?CO?LCD
  +--> ?PR?_DISPLAYCHINESESTRING?LCD

?PR?SHOWBROADFACE?LCD                      0288H    0002H
  +--> ?PR?_LCD_CLEAR?LCD
  +--> ?CO?LCD
  +--> ?PR?_DISPLAYCHINESESTRING?LCD

?PR?_BUS0OUTPUTDATA?SINGLEBUS              0288H    0004H

?PR?BUS0SENDDEAL?SINGLEBUS                 -----    -----
  +--> ?PR?_MAKECH0TIMEROUT?SINGLEBUS

?PR?_KEYDOWNDEAL?KEY                       0284H    0003H
  +--> ?PR?_SHOWFACE?LCD
  +--> ?PR?SHOWLANDINGFACE?LCD
  +--> ?PR?_BUS0OUTPUTDATA?SINGLEBUS

?PR?_SHOWFACE?LCD                          0287H    000AH
  +--> ?PR?_LCD_CLEAR?LCD
  +--> ?CO?LCD
  +--> ?PR?_DISPLAYCHINESESTRING?LCD
  +--> ?PR?_READ_CONT?PCT25VF
  +--> ?PR?_DISPLAYSTRING?LCD

?PR?_READ_CONT?PCT25VF                     0291H    000FH
  +--> ?PR?CE_LOW?PCT25VF
  +--> ?PR?_SEND_BYTE?PCT25VF
  +--> ?PR?GET_BYTE?PCT25VF
  +--> ?PR?CE_HIGH?PCT25VF

?PR?_DISPLAYSTRING?LCD                     0291H    0011H
  +--> ?PR?_GET_GT23_DATA1?GT23
  +--> ?PR?_DISPLAY_CHINESE?LCD
  +--> ?PR?_CHINESEXDIRECTIONINCREASE?LCD
  +--> ?PR?_GET_GT23_DATA?GT23
  +--> ?PR?_DISPLAY_ASCII?LCD
  +--> ?PR?_ASCIIXDIRECTIONINCREASE?LCD

?PR?_KEYALWAYSDEAL?KEY                     -----    -----
  +--> ?PR?_BUS0OUTPUTDATA?SINGLEBUS

?PR?_KEYUPDEAL?KEY                         -----    -----
  +--> ?PR?_BUS0OUTPUTDATA?SINGLEBUS
BL51 BANKED LINKER/LOCATER V6.05                                                      08/18/2014  14:10:06  PAGE 12



?PR?TIMEROUTDEAL?SINGLEBUS                 0284H    0002H
  +--> ?PR?_BUS0OUTPUTDATA?SINGLEBUS
  +--> ?CO?LCD
  +--> ?PR?_DISPLAY_ASCII?LCD
  +--> ?PR?_DISPLAYBLOCK?LCD
  +--> ?PR?SHOWLANDINGFACE?LCD

?PR?USART0RECDEAL?USART                    0283H    0002H
  +--> ?PR?_CHECKPSK?USART
  +--> ?PR?_AAI_WRITE?PCT25VF
  +--> ?PR?_AAI_WRITE1?PCT25VF
  +--> ?PR?_SHOWFACE?LCD
  +--> ?PR?_BUS0OUTPUTDATA?SINGLEBUS

?PR?_CHECKPSK?USART                        0285H    0008H

?PR?_AAI_WRITE?PCT25VF                     0285H    0008H
  +--> ?PR?WREN?PCT25VF
  +--> ?PR?_SECTOR_ERASE?PCT25VF
  +--> ?PR?WAIT_BUSY?PCT25VF
  +--> ?PR?_BYTE_PROGRAM?PCT25VF

?PR?_AAI_WRITE1?PCT25VF                    0285H    0008H
  +--> ?PR?WREN?PCT25VF
  +--> ?PR?_BYTE_PROGRAM?PCT25VF
  +--> ?PR?WAIT_BUSY?PCT25VF

?C_INITSEG                                 -----    -----
  +--> ?CO?MAIN



UNRESOLVED EXTERNAL SYMBOLS:
   ST7735_INIT



SYMBOL TABLE OF MODULE:  CTFJ-SB-(SH-BL17) (GT23)

  VALUE           TYPE          NAME
  ----------------------------------

  -------         MODULE        GT23
  C:0000H         SYMBOL        _ICE_DUMMY_
  D:0080H         PUBLIC        P0
  D:0090H         PUBLIC        P1
  D:00A0H         PUBLIC        P2
  D:00B0H         PUBLIC        P3
  D:00C0H         PUBLIC        P4
  D:00C8H         PUBLIC        P5
  D:00A8H         PUBLIC        IE
  C:0734H         PUBLIC        _Get_GT23_Data1
  X:01C1H         PUBLIC        GT23_32Address
  D:00B8H         PUBLIC        IP
  D:00D8H         PUBLIC        CCON
  D:0098H         PUBLIC        SCON
BL51 BANKED LINKER/LOCATER V6.05                                                      08/18/2014  14:10:06  PAGE 13


  D:0088H         PUBLIC        TCON
  X:01C5H         PUBLIC        GT23_Rec_Length
  B:0090H.3       PUBLIC        GT23L_CS
  D:00E0H         PUBLIC        ACC
  C:507AH         PUBLIC        Rec_GT23_Data
  X:01C6H         PUBLIC        GT23_Rec_Data
  X:0246H         PUBLIC        GT23_16HAddress
  C:0C5DH         PUBLIC        _Get_GT23_Data
  X:0248H         PUBLIC        GT23_16LAddress
  D:00D0H         PUBLIC        PSW
  D:00CFH         PUBLIC        SPDAT
  -------         PROC          REC_GT23_DATA
  C:507AH         LINE#         57
  C:507AH         LINE#         58
  C:507AH         LINE#         59
  C:507FH         LINE#         60
  C:5081H         LINE#         61
  -------         ENDPROC       REC_GT23_DATA
  -------         PROC          _GET_GT23_DATA
  X:02A2H         SYMBOL        highbyte
  X:02A3H         SYMBOL        lowbyte
  X:02A4H         SYMBOL        word_size
  -------         DO            
  X:02A5H         SYMBOL        address1
  X:02A9H         SYMBOL        address2
  X:02ADH         SYMBOL        address3
  X:02B1H         SYMBOL        address4
  -------         ENDDO         
  C:0C5DH         LINE#         94
  C:0C6AH         LINE#         95
  C:0C6AH         LINE#         97
  C:0C6CH         LINE#         100
  C:0C89H         LINE#         101
  C:0C89H         LINE#         102
  C:0C8FH         LINE#         103
  C:0C8FH         LINE#         104
  C:0CA4H         LINE#         105
  C:0CABH         LINE#         106
  C:0CABH         LINE#         107
  C:0CABH         LINE#         108
  C:0CAEH         LINE#         109
  C:0CB6H         LINE#         110
  C:0CB6H         LINE#         111
  C:0CD0H         LINE#         112
  C:0CDAH         LINE#         113
  C:0CDAH         LINE#         114
  C:0CDAH         LINE#         115
  C:0CDDH         LINE#         116
  C:0CE8H         LINE#         117
  C:0CE8H         LINE#         118
  C:0D02H         LINE#         119
  C:0D0CH         LINE#         120
  C:0D0CH         LINE#         121
  C:0D0CH         LINE#         122
  C:0D0CH         LINE#         123
  C:0D0FH         LINE#         126
  C:0D30H         LINE#         127
BL51 BANKED LINKER/LOCATER V6.05                                                      08/18/2014  14:10:06  PAGE 14


  C:0D30H         LINE#         128
  C:0D36H         LINE#         129
  C:0D36H         LINE#         130
  C:0D50H         LINE#         131
  C:0D77H         LINE#         132
  C:0D94H         LINE#         133
  C:0DABH         LINE#         134
  C:0DAEH         LINE#         135
  C:0DB6H         LINE#         136
  C:0DB6H         LINE#         137
  C:0DD0H         LINE#         138
  C:0DFAH         LINE#         139
  C:0E17H         LINE#         140
  C:0E2EH         LINE#         141
  C:0E31H         LINE#         142
  C:0E3CH         LINE#         143
  C:0E3CH         LINE#         144
  C:0E56H         LINE#         145
  C:0E80H         LINE#         146
  C:0E9DH         LINE#         147
  C:0EB9H         LINE#         148
  C:0EB9H         LINE#         149
  C:0EBCH         LINE#         151
  C:0ED9H         LINE#         152
  C:0ED9H         LINE#         153
  C:0EDFH         LINE#         154
  C:0EDFH         LINE#         155
  C:0F01H         LINE#         156
  C:0F1FH         LINE#         157
  C:0F22H         LINE#         158
  C:0F26H         LINE#         159
  C:0F26H         LINE#         160
  C:0F40H         LINE#         161
  C:0F5EH         LINE#         162
  C:0F60H         LINE#         163
  C:0F67H         LINE#         164
  C:0F67H         LINE#         165
  C:0F86H         LINE#         166
  C:0FA7H         LINE#         168
  C:0FA7H         LINE#         169
  C:0FA7H         LINE#         171
  C:0FBBH         LINE#         172
  C:0FDAH         LINE#         173
  C:0FF0H         LINE#         174
  C:0FF2H         LINE#         175
  C:0FF7H         LINE#         176
  C:0FFFH         LINE#         177
  C:1007H         LINE#         178
  C:100FH         LINE#         180
  C:102FH         LINE#         181
  C:102FH         LINE#         182
  C:1034H         LINE#         183
  C:1034H         LINE#         184
  C:1039H         LINE#         185
  C:1057H         LINE#         186
  C:1057H         LINE#         187
  C:105EH         LINE#         188
BL51 BANKED LINKER/LOCATER V6.05                                                      08/18/2014  14:10:06  PAGE 15


  C:105EH         LINE#         189
  C:1063H         LINE#         190
  C:1084H         LINE#         191
  C:1084H         LINE#         192
  C:108FH         LINE#         193
  C:108FH         LINE#         194
  C:1093H         LINE#         195
  C:10B4H         LINE#         196
  C:10B4H         LINE#         197
  C:10B4H         LINE#         198
  C:10D1H         LINE#         199
  C:10D1H         LINE#         200
  C:10D6H         LINE#         201
  C:10D6H         LINE#         202
  C:10DBH         LINE#         203
  C:10FBH         LINE#         204
  C:10FBH         LINE#         205
  C:1102H         LINE#         206
  C:1102H         LINE#         207
  C:1107H         LINE#         208
  C:1127H         LINE#         209
  C:1127H         LINE#         210
  C:112EH         LINE#         211
  C:112EH         LINE#         212
  C:1133H         LINE#         213
  C:1151H         LINE#         214
  C:1151H         LINE#         215
  C:1151H         LINE#         216
  C:1153H         LINE#         217
  -------         ENDPROC       _GET_GT23_DATA
  -------         PROC          _GET_GT23_DATA1
  D:0001H         SYMBOL        word
  X:02A2H         SYMBOL        word_size
  -------         DO            
  X:02A3H         SYMBOL        address1
  X:02A7H         SYMBOL        address2
  X:02ABH         SYMBOL        address3
  X:02AFH         SYMBOL        address4
  X:02B3H         SYMBOL        highbyte
  X:02B4H         SYMBOL        lowbyte
  -------         ENDDO         
  C:0734H         LINE#         231
  C:0739H         LINE#         232
  C:0739H         LINE#         235
  C:073BH         LINE#         237
  C:0743H         LINE#         238
  C:074AH         LINE#         239
  C:0751H         LINE#         240
  C:0757H         LINE#         241
  C:0757H         LINE#         242
  C:075DH         LINE#         243
  C:0762H         LINE#         244
  C:0762H         LINE#         246
  C:0783H         LINE#         247
  C:0783H         LINE#         248
  C:078BH         LINE#         249
  C:078BH         LINE#         250
BL51 BANKED LINKER/LOCATER V6.05                                                      08/18/2014  14:10:06  PAGE 16


  C:07A5H         LINE#         251
  C:07ACH         LINE#         252
  C:07ACH         LINE#         253
  C:07ACH         LINE#         254
  C:07AFH         LINE#         255
  C:07B7H         LINE#         256
  C:07B7H         LINE#         257
  C:07D1H         LINE#         258
  C:07DBH         LINE#         259
  C:07DBH         LINE#         260
  C:07DBH         LINE#         261
  C:07DEH         LINE#         262
  C:07E9H         LINE#         263
  C:07E9H         LINE#         264
  C:0803H         LINE#         265
  C:080DH         LINE#         266
  C:080DH         LINE#         267
  C:080DH         LINE#         268
  C:080DH         LINE#         270
  C:0810H         LINE#         273
  C:0831H         LINE#         274
  C:0831H         LINE#         275
  C:0839H         LINE#         276
  C:0839H         LINE#         277
  C:0853H         LINE#         278
  C:087AH         LINE#         279
  C:0897H         LINE#         280
  C:08AEH         LINE#         281
  C:08B1H         LINE#         282
  C:08B9H         LINE#         283
  C:08B9H         LINE#         284
  C:08D3H         LINE#         285
  C:08FDH         LINE#         286
  C:091AH         LINE#         287
  C:0931H         LINE#         288
  C:0934H         LINE#         289
  C:093FH         LINE#         290
  C:093FH         LINE#         291
  C:0959H         LINE#         292
  C:0983H         LINE#         293
  C:09A0H         LINE#         294
  C:09BCH         LINE#         295
  C:09BCH         LINE#         296
  C:09BFH         LINE#         298
  C:09DCH         LINE#         299
  C:09DCH         LINE#         300
  C:09E4H         LINE#         301
  C:09E4H         LINE#         302
  C:0A06H         LINE#         303
  C:0A24H         LINE#         304
  C:0A27H         LINE#         305
  C:0A2BH         LINE#         306
  C:0A2BH         LINE#         307
  C:0A45H         LINE#         308
  C:0A63H         LINE#         309
  C:0A65H         LINE#         310
  C:0A6CH         LINE#         311
BL51 BANKED LINKER/LOCATER V6.05                                                      08/18/2014  14:10:06  PAGE 17


  C:0A6CH         LINE#         312
  C:0A8BH         LINE#         313
  C:0AACH         LINE#         315
  C:0AACH         LINE#         316
  C:0AACH         LINE#         318
  C:0AC0H         LINE#         319
  C:0ADFH         LINE#         320
  C:0AF5H         LINE#         321
  C:0AF7H         LINE#         322
  C:0AFCH         LINE#         323
  C:0B04H         LINE#         324
  C:0B0CH         LINE#         325
  C:0B14H         LINE#         327
  C:0B34H         LINE#         328
  C:0B34H         LINE#         329
  C:0B3BH         LINE#         330
  C:0B3BH         LINE#         331
  C:0B40H         LINE#         332
  C:0B5EH         LINE#         333
  C:0B5EH         LINE#         334
  C:0B65H         LINE#         335
  C:0B65H         LINE#         336
  C:0B6AH         LINE#         337
  C:0B8BH         LINE#         338
  C:0B8BH         LINE#         339
  C:0B96H         LINE#         340
  C:0B96H         LINE#         341
  C:0B9AH         LINE#         342
  C:0BBBH         LINE#         343
  C:0BBBH         LINE#         344
  C:0BBBH         LINE#         345
  C:0BD8H         LINE#         346
  C:0BD8H         LINE#         347
  C:0BDFH         LINE#         348
  C:0BDFH         LINE#         349
  C:0BE4H         LINE#         350
  C:0C04H         LINE#         351
  C:0C04H         LINE#         352
  C:0C0BH         LINE#         353
  C:0C0BH         LINE#         354
  C:0C10H         LINE#         355
  C:0C30H         LINE#         356
  C:0C30H         LINE#         357
  C:0C37H         LINE#         358
  C:0C37H         LINE#         359
  C:0C3CH         LINE#         360
  C:0C5AH         LINE#         361
  C:0C5AH         LINE#         362
  C:0C5AH         LINE#         364
  C:0C5CH         LINE#         365
  -------         ENDPROC       _GET_GT23_DATA1
  -------         ENDMOD        GT23

  -------         MODULE        IAP
  C:0000H         SYMBOL        _ICE_DUMMY_
  D:0080H         PUBLIC        P0
  D:0090H         PUBLIC        P1
BL51 BANKED LINKER/LOCATER V6.05                                                      08/18/2014  14:10:06  PAGE 18


  D:00A0H         PUBLIC        P2
  D:00B0H         PUBLIC        P3
  D:00C0H         PUBLIC        P4
  D:00C8H         PUBLIC        P5
  D:00A8H         PUBLIC        IE
  C:4F31H         PUBLIC        _IapErase
  D:00C5H         PUBLIC        IAP_CMD
  C:5082H         PUBLIC        DisableIAP
  D:00B8H         PUBLIC        IP
  D:00C3H         PUBLIC        IAP_ADDRH
  D:00D8H         PUBLIC        CCON
  D:00C4H         PUBLIC        IAP_ADDRL
  C:50ADH         PUBLIC        _EnableIAP
  C:4EF6H         PUBLIC        _IapReadByte
  D:0098H         PUBLIC        SCON
  D:0088H         PUBLIC        TCON
  C:4EE0H         PUBLIC        _IapWriteByte
  D:00C7H         PUBLIC        IAP_CONTR
  D:00E0H         PUBLIC        ACC
  D:00C2H         PUBLIC        IAP_DATA
  D:00C6H         PUBLIC        IAP_TRIG
  D:00D0H         PUBLIC        PSW
  -------         PROC          _ENABLEIAP
  D:0007H         SYMBOL        byCmd
  C:50ADH         LINE#         42
  C:50ADH         LINE#         43
  C:50ADH         LINE#         44
  C:50B0H         LINE#         45
  C:50B2H         LINE#         46
  -------         ENDPROC       _ENABLEIAP
  -------         PROC          DISABLEIAP
  C:5082H         LINE#         62
  C:5082H         LINE#         63
  C:5082H         LINE#         64
  C:5085H         LINE#         65
  C:5087H         LINE#         66
  C:5089H         LINE#         67
  -------         ENDPROC       DISABLEIAP
  -------         PROC          _IAPWRITEBYTE
  D:0002H         SYMBOL        uiAddr
  D:0005H         SYMBOL        byData
  C:4EE0H         LINE#         83
  C:4EE4H         LINE#         84
  C:4EE4H         LINE#         85
  C:4EE8H         LINE#         86
  C:4EEBH         LINE#         87
  C:4EEFH         LINE#         88
  C:4EF2H         LINE#         89
  C:4EF5H         LINE#         90
  -------         ENDPROC       _IAPWRITEBYTE
  -------         PROC          _IAPREADBYTE
  D:0004H         SYMBOL        uiAddr
  C:4EF6H         LINE#         106
  C:4EFAH         LINE#         107
  C:4EFAH         LINE#         108
  C:4EFDH         LINE#         109
  C:4F01H         LINE#         110
BL51 BANKED LINKER/LOCATER V6.05                                                      08/18/2014  14:10:06  PAGE 19


  C:4F04H         LINE#         111
  C:4F07H         LINE#         112
  C:4F09H         LINE#         113
  -------         ENDPROC       _IAPREADBYTE
  -------         PROC          _IAPERASE
  D:0004H         SYMBOL        uiAddr
  C:4F31H         LINE#         130
  C:4F35H         LINE#         131
  C:4F35H         LINE#         132
  C:4F38H         LINE#         133
  C:4F3CH         LINE#         134
  C:4F3FH         LINE#         135
  C:4F42H         LINE#         136
  -------         ENDPROC       _IAPERASE
  -------         ENDMOD        IAP

  -------         MODULE        KEY
  C:0000H         SYMBOL        _ICE_DUMMY_
  D:0080H         PUBLIC        P0
  D:0090H         PUBLIC        P1
  D:00A0H         PUBLIC        P2
  D:00B0H         PUBLIC        P3
  X:033AH         PUBLIC        MainMenuSelect
  B:00A0H.3       PUBLIC        DOWN_KEY
  D:00C0H         PUBLIC        P4
  D:00C8H         PUBLIC        P5
  D:00A8H         PUBLIC        IE
  C:43EBH         PUBLIC        _KeyAlwaysDeal
  B:00C8H.1       PUBLIC        BL_SW
  D:00B8H         PUBLIC        IP
  D:00D8H         PUBLIC        CCON
  B:00A0H.0       PUBLIC        ESC_KEY
  C:4BD7H         PUBLIC        KeyScan
  D:0098H         PUBLIC        SCON
  D:0088H         PUBLIC        TCON
  C:2C9AH         PUBLIC        _KeyDownDeal
  D:00E0H         PUBLIC        ACC
  C:4FC2H         PUBLIC        _SetLedState
  B:00A0H.2       PUBLIC        ENTER_KEY
  B:00C8H.0       PUBLIC        LED
  B:00A0H.4       PUBLIC        CALL_KEY
  C:439EH         PUBLIC        _KeyUpDeal
  C:3C9AH         PUBLIC        KeyManager
  B:00A0H.1       PUBLIC        UP_KEY
  D:00D0H         PUBLIC        PSW
  -------         PROC          _SETLEDSTATE
  D:0007H         SYMBOL        byState
  C:4FC2H         LINE#         44
  C:4FC2H         LINE#         45
  C:4FC2H         LINE#         46
  C:4FC7H         LINE#         47
  C:4FC9H         LINE#         48
  C:4FCEH         LINE#         49
  -------         ENDPROC       _SETLEDSTATE
  -------         PROC          KEYSCAN
  C:4BD7H         LINE#         68
  C:4BD7H         LINE#         69
BL51 BANKED LINKER/LOCATER V6.05                                                      08/18/2014  14:10:06  PAGE 20


  C:4BD7H         LINE#         70
  C:4BDAH         LINE#         71
  C:4BDAH         LINE#         72
  C:4BDDH         LINE#         73
  C:4BDDH         LINE#         76
  C:4BDEH         LINE#         77
  C:4BDFH         LINE#         78
  C:4BE2H         LINE#         79
  C:4BE2H         LINE#         81
  C:4BE5H         LINE#         82
  C:4BE5H         LINE#         84
  C:4BE6H         LINE#         85
  C:4BE7H         LINE#         86
  C:4BEAH         LINE#         87
  C:4BEAH         LINE#         88
  C:4BEDH         LINE#         89
  C:4BEDH         LINE#         91
  C:4BEEH         LINE#         92
  C:4BEFH         LINE#         93
  C:4BF2H         LINE#         94
  C:4BF2H         LINE#         95
  C:4BF5H         LINE#         96
  C:4BF5H         LINE#         98
  C:4BF6H         LINE#         99
  C:4BF7H         LINE#         100
  C:4BFAH         LINE#         101
  C:4BFAH         LINE#         102
  C:4BFDH         LINE#         103
  C:4BFDH         LINE#         105
  C:4BFFH         LINE#         106
  -------         ENDPROC       KEYSCAN
  -------         PROC          KEYMANAGER
  -------         DO            
  X:0338H         SYMBOL        byKeyValue
  X:0339H         SYMBOL        byKeyDelay
  C:3D09H         SYMBOL        KeyUp
  -------         ENDDO         
  C:3C9AH         LINE#         122
  C:3C9AH         LINE#         123
  C:3C9AH         LINE#         127
  C:3C9AH         LINE#         128
  C:3C9AH         LINE#         129
  C:3CA1H         LINE#         130
  C:3CA9H         LINE#         131
  C:3CACH         LINE#         132
  C:3CACH         LINE#         133
  C:3CACH         LINE#         134
  C:3CACH         LINE#         135
  C:3CB3H         LINE#         136
  C:3CBEH         LINE#         137
  C:3CBEH         LINE#         138
  C:3CBEH         LINE#         139
  C:3CBEH         LINE#         140
  C:3CC7H         LINE#         142
  C:3CCDH         LINE#         143
  C:3CD7H         LINE#         144
  C:3CD7H         LINE#         145
BL51 BANKED LINKER/LOCATER V6.05                                                      08/18/2014  14:10:06  PAGE 21


  C:3CE1H         LINE#         146
  C:3CE1H         LINE#         147
  C:3CE8H         LINE#         148
  C:3CEAH         LINE#         150
  C:3CEAH         LINE#         151
  C:3CEAH         LINE#         152
  C:3CEAH         LINE#         153
  C:3CEAH         LINE#         154
  C:3CF6H         LINE#         155
  C:3D00H         LINE#         156
  C:3D00H         LINE#         157
  C:3D07H         LINE#         158
  C:3D09H         LINE#         159
  C:3D09H         LINE#         160
  C:3D15H         LINE#         161
  -------         ENDPROC       KEYMANAGER
  -------         PROC          _KEYDOWNDEAL
  X:0284H         SYMBOL        byKey
  -------         DO            
  X:0285H         SYMBOL        x
  X:0286H         SYMBOL        y
  -------         ENDDO         
  C:2C9AH         LINE#         178
  C:2C9FH         LINE#         179
  C:2C9FH         LINE#         181
  C:2CA2H         LINE#         184
  C:2CABH         LINE#         185
  C:2CADH         LINE#         187
  C:2CB3H         LINE#         188
  C:2CB3H         LINE#         190
  C:2CB3H         LINE#         193
  C:2CD0H         LINE#         194
  C:2CD0H         LINE#         195
  C:2CD0H         LINE#         197
  C:2CDDH         LINE#         198
  C:2CF9H         LINE#         199
  C:2CFBH         LINE#         200
  C:2CFBH         LINE#         201
  C:2CFBH         LINE#         202
  C:2CFDH         LINE#         204
  C:2CFDH         LINE#         205
  C:2D0AH         LINE#         206
  C:2D26H         LINE#         207
  C:2D28H         LINE#         208
  C:2D28H         LINE#         209
  C:2D28H         LINE#         210
  C:2D2AH         LINE#         212
  C:2D2AH         LINE#         213
  C:2D37H         LINE#         214
  C:2D53H         LINE#         215
  C:2D58H         LINE#         216
  C:2D5EH         LINE#         217
  C:2D68H         LINE#         218
  C:2D69H         LINE#         220
  C:2D69H         LINE#         221
  C:2D71H         LINE#         222
  C:2D71H         LINE#         223
BL51 BANKED LINKER/LOCATER V6.05                                                      08/18/2014  14:10:06  PAGE 22


  C:2D76H         LINE#         224
  C:2D7CH         LINE#         225
  C:2D7FH         LINE#         226
  C:2D7FH         LINE#         227
  C:2D7FH         LINE#         229
  C:2D7FH         LINE#         230
  C:2D87H         LINE#         231
  C:2D8FH         LINE#         232
  C:2D97H         LINE#         233
  C:2D9FH         LINE#         234
  C:2DA7H         LINE#         235
  C:2DAFH         LINE#         236
  C:2DB9H         LINE#         237
  C:2DC2H         LINE#         238
  C:2DC2H         LINE#         240
  C:2DC2H         LINE#         241
  -------         ENDPROC       _KEYDOWNDEAL
  -------         PROC          _KEYUPDEAL
  D:0007H         SYMBOL        byKey
  C:439EH         LINE#         257
  C:439EH         LINE#         258
  C:439EH         LINE#         259
  C:43A2H         LINE#         261
  C:43A5H         LINE#         262
  C:43A5H         LINE#         264
  C:43A5H         LINE#         266
  C:43AAH         LINE#         267
  C:43AAH         LINE#         268
  C:43AAH         LINE#         269
  C:43AAH         LINE#         270
  C:43AAH         LINE#         271
  C:43AAH         LINE#         272
  C:43AAH         LINE#         273
  C:43AAH         LINE#         274
  C:43B2H         LINE#         275
  C:43BAH         LINE#         276
  C:43C2H         LINE#         277
  C:43CAH         LINE#         278
  C:43D2H         LINE#         279
  C:43DAH         LINE#         280
  C:43E1H         LINE#         281
  C:43EAH         LINE#         282
  C:43EAH         LINE#         283
  C:43EAH         LINE#         285
  -------         ENDPROC       _KEYUPDEAL
  -------         PROC          _KEYALWAYSDEAL
  D:0007H         SYMBOL        byKey
  C:43EBH         LINE#         301
  C:43EBH         LINE#         302
  C:43EBH         LINE#         303
  C:43EFH         LINE#         306
  C:43F2H         LINE#         307
  C:43F2H         LINE#         309
  C:43F2H         LINE#         311
  C:43F7H         LINE#         312
  C:43F7H         LINE#         313
  C:43F7H         LINE#         314
BL51 BANKED LINKER/LOCATER V6.05                                                      08/18/2014  14:10:06  PAGE 23


  C:43F7H         LINE#         315
  C:43F7H         LINE#         316
  C:43F7H         LINE#         317
  C:43F7H         LINE#         318
  C:43F7H         LINE#         319
  C:43FFH         LINE#         320
  C:4407H         LINE#         321
  C:440FH         LINE#         322
  C:4417H         LINE#         323
  C:441FH         LINE#         324
  C:4427H         LINE#         325
  C:442EH         LINE#         326
  C:4437H         LINE#         327
  C:4437H         LINE#         328
  C:4437H         LINE#         330
  -------         ENDPROC       _KEYALWAYSDEAL
  -------         ENDMOD        KEY

  -------         MODULE        LCD
  C:0000H         SYMBOL        _ICE_DUMMY_
  C:3302H         PUBLIC        _Display_Chinese
  D:0080H         PUBLIC        P0
  C:39E8H         PUBLIC        ShowCallSuccess
  C:4484H         PUBLIC        ShowBroadFace
  D:0090H         PUBLIC        P1
  B:0090H.1       PUBLIC        LCD_CS7
  D:00A0H         PUBLIC        P2
  D:00B0H         PUBLIC        P3
  D:00C0H         PUBLIC        P4
  D:00C8H         PUBLIC        P5
  C:4975H         PUBLIC        _Display_HLine
  D:00A8H         PUBLIC        IE
  C:4FF6H         PUBLIC        _Send_ST7735_Command
  C:26ACH         PUBLIC        _ShowFace
  X:011BH         PUBLIC        DispDataBuff
  X:01BBH         PUBLIC        ASCII_BCD
  D:00DAH         PUBLIC        CCAPM0
  B:00C8H.1       PUBLIC        BL_SW
  D:00B8H         PUBLIC        IP
  C:3132H         PUBLIC        _DisplayChineseString
  C:5098H         PUBLIC        ShowPromptFace
  C:34CDH         PUBLIC        _ASCIIXDirectionIncrease
  C:4A76H         PUBLIC        _Display_VLine
  C:508AH         PUBLIC        ShowDietFace
  C:5091H         PUBLIC        ShowPrescriptionFace
  C:4438H         PUBLIC        ShowTalkFace
  D:00D8H         PUBLIC        CCON
  C:33ECH         PUBLIC        _Display_ASCII
  X:01BEH         PUBLIC        fontbuf1
  X:01BFH         PUBLIC        fontbuf2
  B:00C0H.4       PUBLIC        LCD_RST
  D:0098H         PUBLIC        SCON
  C:21BCH         PUBLIC        ShowMainMenuFace
  D:0088H         PUBLIC        TCON
  C:3034H         PUBLIC        _DisplayASCIIString
  C:386EH         PUBLIC        ColonCode16x32
  C:2DC3H         PUBLIC        _lcd_fangda_dis_text
BL51 BANKED LINKER/LOCATER V6.05                                                      08/18/2014  14:10:06  PAGE 24


  C:4262H         PUBLIC        _Set_Display_Area
  C:4203H         PUBLIC        _DisplayASCII
  D:00E0H         PUBLIC        ACC
  C:4F48H         PUBLIC        _Send_ST7735_Data
  C:320BH         PUBLIC        _DisplayBlock
  C:2BA0H         PUBLIC        _DisplayDigitString
  C:3F66H         PUBLIC        _DisplayDigit
  C:4E80H         PUBLIC        DispManager
  C:4E35H         PUBLIC        _Delayms
  C:1572H         PUBLIC        _DisplayString
  C:18A6H         PUBLIC        ShowLandingFace
  B:0090H.0       PUBLIC        LCD_RS
  C:4302H         PUBLIC        _Lcd_Clear
  C:4B2DH         PUBLIC        _Display_Dot
  X:01C0H         PUBLIC        CurrentPage
  B:0027H.2       PUBLIC        bSecondDisState
  C:2470H         PUBLIC        ShowPowerUpFace
  C:2865H         PUBLIC        ILI9163C_Init
  C:35A6H         PUBLIC        _ChineseXDirectionIncrease
  D:00D0H         PUBLIC        PSW
  C:40F1H         PUBLIC        _Lcd_Fill
  -------         PROC          _DELAYMS
  D:0006H         SYMBOL        ms
  -------         DO            
  D:0004H         SYMBOL        i
  -------         ENDDO         
  C:4E35H         LINE#         41
  C:4E35H         LINE#         42
  C:4E35H         LINE#         44
  C:4E39H         LINE#         45
  C:4E4DH         LINE#         46
  -------         ENDPROC       _DELAYMS
  -------         PROC          _SEND_ST7735_COMMAND
  D:0007H         SYMBOL        st7735_command
  C:4FF6H         LINE#         49
  C:4FF6H         LINE#         50
  C:4FF6H         LINE#         52
  C:4FF8H         LINE#         53
  C:4FFAH         LINE#         62
  C:4FFDH         LINE#         64
  C:4FFFH         LINE#         65
  C:5001H         LINE#         67
  -------         ENDPROC       _SEND_ST7735_COMMAND
  C:4F43H         SYMBOL        L?0302
  -------         PROC          L?0301
  -------         ENDPROC       L?0301
  C:4F43H         SYMBOL        L?0302
  -------         PROC          _SEND_ST7735_DATA
  D:0007H         SYMBOL        st7735_data
  C:4F48H         LINE#         71
  C:4F48H         LINE#         72
  C:4F48H         LINE#         74
  C:4F4AH         LINE#         75
  C:4F4CH         LINE#         83
  C:4F4FH         LINE#         85
  C:4F51H         LINE#         86
  C:4F53H         LINE#         88
BL51 BANKED LINKER/LOCATER V6.05                                                      08/18/2014  14:10:06  PAGE 25


  -------         ENDPROC       _SEND_ST7735_DATA
  -------         PROC          ILI9163C_INIT
  C:2865H         LINE#         95
  C:2865H         LINE#         96
  C:2865H         LINE#         97
  C:2867H         LINE#         98
  C:286EH         LINE#         99
  C:2870H         LINE#         100
  C:2877H         LINE#         101
  C:2879H         LINE#         102
  C:2880H         LINE#         105
  C:2885H         LINE#         106
  C:288CH         LINE#         107
  C:2891H         LINE#         108
  C:2896H         LINE#         109
  C:289BH         LINE#         110
  C:28A0H         LINE#         111
  C:28A5H         LINE#         112
  C:28AAH         LINE#         113
  C:28AFH         LINE#         114
  C:28B4H         LINE#         115
  C:28B9H         LINE#         116
  C:28BEH         LINE#         117
  C:28C3H         LINE#         118
  C:28C8H         LINE#         119
  C:28CDH         LINE#         120
  C:28D2H         LINE#         121
  C:28D7H         LINE#         122
  C:28DCH         LINE#         123
  C:28E1H         LINE#         125
  C:28E6H         LINE#         126
  C:28EBH         LINE#         127
  C:28F0H         LINE#         128
  C:28F5H         LINE#         129
  C:28FAH         LINE#         130
  C:28FFH         LINE#         131
  C:2904H         LINE#         132
  C:2909H         LINE#         133
  C:290EH         LINE#         134
  C:2913H         LINE#         135
  C:2918H         LINE#         136
  C:291DH         LINE#         137
  C:2922H         LINE#         138
  C:2927H         LINE#         140
  C:292CH         LINE#         141
  C:2931H         LINE#         142
  C:2936H         LINE#         143
  C:293BH         LINE#         144
  C:2940H         LINE#         145
  C:2945H         LINE#         146
  C:294AH         LINE#         147
  C:294FH         LINE#         148
  C:2954H         LINE#         149
  C:2959H         LINE#         150
  C:295EH         LINE#         151
  C:2963H         LINE#         152
  C:2968H         LINE#         153
BL51 BANKED LINKER/LOCATER V6.05                                                      08/18/2014  14:10:06  PAGE 26


  C:296DH         LINE#         155
  C:2972H         LINE#         156
  C:2977H         LINE#         157
  C:297CH         LINE#         158
  C:2981H         LINE#         159
  C:2986H         LINE#         160
  C:298BH         LINE#         161
  C:2990H         LINE#         162
  C:2995H         LINE#         163
  C:299AH         LINE#         164
  C:299FH         LINE#         165
  C:29A4H         LINE#         166
  C:29A9H         LINE#         167
  C:29AEH         LINE#         168
  C:29B3H         LINE#         169
  C:29B8H         LINE#         170
  C:29BDH         LINE#         171
  C:29C2H         LINE#         172
  C:29C7H         LINE#         173
  C:29CCH         LINE#         174
  C:29D1H         LINE#         175
  C:29D6H         LINE#         176
  C:29DBH         LINE#         177
  -------         ENDPROC       ILI9163C_INIT
  C:425EH         SYMBOL        L?0298
  -------         PROC          L?0297
  -------         ENDPROC       L?0297
  C:425EH         SYMBOL        L?0298
  -------         PROC          _SET_DISPLAY_AREA
  X:02AEH         SYMBOL        start_x
  X:02AFH         SYMBOL        end_x
  X:02B0H         SYMBOL        start_y
  X:02B1H         SYMBOL        end_y
  C:4262H         LINE#         206
  C:426DH         LINE#         207
  C:426DH         LINE#         208
  C:4272H         LINE#         209
  C:4277H         LINE#         210
  C:427FH         LINE#         211
  C:4284H         LINE#         212
  C:428CH         LINE#         213
  C:4291H         LINE#         214
  C:4296H         LINE#         215
  C:429EH         LINE#         216
  C:42A3H         LINE#         217
  -------         ENDPROC       _SET_DISPLAY_AREA
  C:42FEH         SYMBOL        L?0300
  -------         PROC          L?0299
  -------         ENDPROC       L?0299
  C:42FEH         SYMBOL        L?0300
  -------         PROC          _LCD_CLEAR
  X:0291H         SYMBOL        color
  -------         DO            
  X:0293H         SYMBOL        i
  X:0294H         SYMBOL        j
  -------         ENDDO         
  C:4302H         LINE#         225
BL51 BANKED LINKER/LOCATER V6.05                                                      08/18/2014  14:10:06  PAGE 27


  C:430AH         LINE#         226
  C:430AH         LINE#         228
  C:4318H         LINE#         229
  C:431DH         LINE#         230
  C:4322H         LINE#         231
  C:4322H         LINE#         232
  C:4327H         LINE#         233
  C:4327H         LINE#         234
  C:432FH         LINE#         235
  C:4337H         LINE#         236
  C:4343H         LINE#         237
  C:434FH         LINE#         238
  -------         ENDPROC       _LCD_CLEAR
  -------         PROC          _LCD_FILL
  D:0005H         SYMBOL        start_x
  D:0006H         SYMBOL        start_y
  X:02ECH         SYMBOL        width
  X:02EDH         SYMBOL        height
  X:02EEH         SYMBOL        color
  -------         DO            
  X:02F0H         SYMBOL        i
  X:02F1H         SYMBOL        j
  -------         ENDDO         
  C:40F1H         LINE#         249
  C:40FAH         LINE#         250
  C:40FAH         LINE#         252
  C:4106H         LINE#         253
  C:410BH         LINE#         254
  C:411DH         LINE#         255
  C:411DH         LINE#         256
  C:412DH         LINE#         257
  C:412DH         LINE#         258
  C:4135H         LINE#         259
  C:413DH         LINE#         260
  C:4145H         LINE#         261
  C:414DH         LINE#         262
  -------         ENDPROC       _LCD_FILL
  -------         PROC          _DISPLAYBLOCK
  X:028CH         SYMBOL        start_x
  X:028DH         SYMBOL        start_y
  X:028EH         SYMBOL        end_x
  X:028FH         SYMBOL        end_y
  X:0290H         SYMBOL        srgb
  -------         DO            
  X:0291H         SYMBOL        color
  X:0293H         SYMBOL        width
  X:0294H         SYMBOL        height
  X:0295H         SYMBOL        i
  X:0296H         SYMBOL        j
  -------         ENDDO         
  C:320BH         LINE#         264
  C:3216H         LINE#         265
  C:3216H         LINE#         269
  C:323BH         LINE#         270
  C:323BH         LINE#         271
  C:323BH         LINE#         272
  C:323CH         LINE#         273
BL51 BANKED LINKER/LOCATER V6.05                                                      08/18/2014  14:10:06  PAGE 28


  C:323EH         LINE#         274
  C:323EH         LINE#         275
  C:3242H         LINE#         276
  C:3244H         LINE#         277
  C:3244H         LINE#         278
  C:3249H         LINE#         279
  C:324BH         LINE#         280
  C:324BH         LINE#         281
  C:3255H         LINE#         282
  C:3257H         LINE#         283
  C:3257H         LINE#         284
  C:3260H         LINE#         285
  C:3262H         LINE#         286
  C:3262H         LINE#         287
  C:326CH         LINE#         288
  C:326EH         LINE#         289
  C:326EH         LINE#         290
  C:3278H         LINE#         291
  C:327AH         LINE#         292
  C:327AH         LINE#         293
  C:327AH         LINE#         294
  C:3282H         LINE#         295
  C:3282H         LINE#         296
  C:3282H         LINE#         298
  C:3298H         LINE#         299
  C:329DH         LINE#         300
  C:32ADH         LINE#         301
  C:32BDH         LINE#         302
  C:32CFH         LINE#         303
  C:32CFH         LINE#         304
  C:32E1H         LINE#         305
  C:32E1H         LINE#         306
  C:32E9H         LINE#         307
  C:32F1H         LINE#         308
  C:32F9H         LINE#         309
  C:3301H         LINE#         311
  -------         ENDPROC       _DISPLAYBLOCK
  -------         PROC          _DISPLAY_DOT
  D:0005H         SYMBOL        x
  D:0006H         SYMBOL        y
  X:033EH         SYMBOL        color
  C:4B2DH         LINE#         319
  C:4B39H         LINE#         320
  C:4B39H         LINE#         321
  C:4B43H         LINE#         322
  C:4B48H         LINE#         323
  C:4B50H         LINE#         324
  -------         ENDPROC       _DISPLAY_DOT
  -------         PROC          _DISPLAY_HLINE
  D:0005H         SYMBOL        x
  D:0006H         SYMBOL        y
  X:0318H         SYMBOL        width
  X:0319H         SYMBOL        color
  C:4975H         LINE#         332
  C:497EH         LINE#         333
  C:497EH         LINE#         334
  C:498BH         LINE#         335
BL51 BANKED LINKER/LOCATER V6.05                                                      08/18/2014  14:10:06  PAGE 29


  C:4990H         LINE#         336
  C:499AH         LINE#         337
  C:499AH         LINE#         338
  C:49A0H         LINE#         339
  C:49A8H         LINE#         340
  C:49AAH         LINE#         341
  -------         ENDPROC       _DISPLAY_HLINE
  -------         PROC          _DISPLAY_VLINE
  D:0005H         SYMBOL        x
  D:0006H         SYMBOL        y
  X:031DH         SYMBOL        height
  X:031EH         SYMBOL        color
  C:4A76H         LINE#         348
  C:4A7FH         LINE#         349
  C:4A7FH         LINE#         350
  C:4A86H         LINE#         351
  C:4A8BH         LINE#         352
  C:4A95H         LINE#         353
  C:4A95H         LINE#         354
  C:4A9BH         LINE#         355
  C:4AA3H         LINE#         356
  C:4AA5H         LINE#         357
  -------         ENDPROC       _DISPLAY_VLINE
  -------         PROC          _DISPLAY_ASCII
  X:02A2H         SYMBOL        x
  X:02A3H         SYMBOL        y
  X:02A4H         SYMBOL        p
  X:02A7H         SYMBOL        fcolor
  X:02A9H         SYMBOL        bcolor
  X:02ABH         SYMBOL        size
  -------         DO            
  X:02ACH         SYMBOL        i
  X:02ADH         SYMBOL        j
  -------         ENDDO         
  C:33ECH         LINE#         365
  C:33FDH         LINE#         366
  C:33FDH         LINE#         369
  C:340AH         LINE#         370
  C:340AH         LINE#         371
  C:340AH         LINE#         372
  C:340AH         LINE#         373
  C:340AH         LINE#         374
  C:340CH         LINE#         375
  C:340CH         LINE#         376
  C:3416H         LINE#         377
  C:341CH         LINE#         378
  C:341EH         LINE#         379
  C:341EH         LINE#         380
  C:342EH         LINE#         381
  C:3434H         LINE#         382
  C:3436H         LINE#         383
  C:3446H         LINE#         385
  C:344CH         LINE#         386
  C:344CH         LINE#         387
  C:344CH         LINE#         389
  C:3451H         LINE#         391
  C:345AH         LINE#         392
BL51 BANKED LINKER/LOCATER V6.05                                                      08/18/2014  14:10:06  PAGE 30


  C:345AH         LINE#         393
  C:3467H         LINE#         394
  C:3467H         LINE#         395
  C:3492H         LINE#         396
  C:3492H         LINE#         397
  C:3495H         LINE#         398
  C:3495H         LINE#         399
  C:3497H         LINE#         401
  C:3497H         LINE#         402
  C:34A4H         LINE#         403
  C:34A7H         LINE#         404
  C:34A7H         LINE#         405
  C:34AAH         LINE#         406
  C:34B2H         LINE#         407
  C:34BAH         LINE#         408
  C:34C4H         LINE#         409
  C:34CCH         LINE#         410
  -------         ENDPROC       _DISPLAY_ASCII
  -------         PROC          _DISPLAY_CHINESE
  X:02A2H         SYMBOL        x
  X:02A3H         SYMBOL        y
  X:02A4H         SYMBOL        p
  X:02A7H         SYMBOL        fcolor
  X:02A9H         SYMBOL        bcolor
  X:02ABH         SYMBOL        size
  -------         DO            
  X:02ACH         SYMBOL        i
  X:02ADH         SYMBOL        j
  -------         ENDDO         
  C:3302H         LINE#         416
  C:3313H         LINE#         417
  C:3313H         LINE#         419
  C:3322H         LINE#         420
  C:3322H         LINE#         421
  C:3322H         LINE#         422
  C:3329H         LINE#         423
  C:3329H         LINE#         424
  C:332BH         LINE#         425
  C:332BH         LINE#         426
  C:3335H         LINE#         427
  C:333BH         LINE#         428
  C:333DH         LINE#         429
  C:333DH         LINE#         430
  C:334DH         LINE#         431
  C:3353H         LINE#         432
  C:3355H         LINE#         434
  C:3355H         LINE#         435
  C:3365H         LINE#         436
  C:336BH         LINE#         437
  C:336BH         LINE#         438
  C:336BH         LINE#         440
  C:3370H         LINE#         441
  C:3379H         LINE#         442
  C:3379H         LINE#         443
  C:3386H         LINE#         444
  C:3386H         LINE#         445
  C:33B1H         LINE#         446
BL51 BANKED LINKER/LOCATER V6.05                                                      08/18/2014  14:10:06  PAGE 31


  C:33B1H         LINE#         447
  C:33B4H         LINE#         448
  C:33B4H         LINE#         449
  C:33B6H         LINE#         451
  C:33B6H         LINE#         452
  C:33C3H         LINE#         453
  C:33C6H         LINE#         455
  C:33C6H         LINE#         456
  C:33C9H         LINE#         457
  C:33D1H         LINE#         458
  C:33D9H         LINE#         459
  C:33E3H         LINE#         460
  C:33EBH         LINE#         461
  -------         ENDPROC       _DISPLAY_CHINESE
  -------         PROC          _ASCIIXDIRECTIONINCREASE
  D:0007H         SYMBOL        size
  X:02A3H         SYMBOL        px
  X:02A6H         SYMBOL        py
  -------         DO            
  D:0006H         SYMBOL        x
  D:0005H         SYMBOL        y
  -------         ENDDO         
  C:34CDH         LINE#         464
  C:34D8H         LINE#         465
  C:34D8H         LINE#         467
  C:34DCH         LINE#         468
  C:34EBH         LINE#         469
  C:34F5H         LINE#         470
  C:34F5H         LINE#         471
  C:34F5H         LINE#         472
  C:34F5H         LINE#         473
  C:350DH         LINE#         475
  C:350DH         LINE#         476
  C:3523H         LINE#         480
  C:3523H         LINE#         481
  C:353BH         LINE#         483
  C:353BH         LINE#         484
  C:3551H         LINE#         485
  C:3551H         LINE#         486
  C:3551H         LINE#         487
  C:3553H         LINE#         488
  C:3553H         LINE#         489
  C:356BH         LINE#         491
  C:356BH         LINE#         492
  C:3585H         LINE#         493
  C:3588H         LINE#         494
  C:3588H         LINE#         495
  C:3588H         LINE#         496
  C:3588H         LINE#         497
  C:3597H         LINE#         498
  -------         ENDPROC       _ASCIIXDIRECTIONINCREASE
  -------         PROC          _CHINESEXDIRECTIONINCREASE
  D:0007H         SYMBOL        size
  X:02A3H         SYMBOL        px
  X:02A6H         SYMBOL        py
  -------         DO            
  D:0006H         SYMBOL        x
BL51 BANKED LINKER/LOCATER V6.05                                                      08/18/2014  14:10:06  PAGE 32


  D:0005H         SYMBOL        y
  -------         ENDDO         
  C:35A6H         LINE#         502
  C:35B1H         LINE#         503
  C:35B1H         LINE#         505
  C:35B5H         LINE#         506
  C:35C4H         LINE#         507
  C:35CEH         LINE#         508
  C:35CEH         LINE#         509
  C:35CEH         LINE#         510
  C:35CEH         LINE#         511
  C:35E6H         LINE#         513
  C:35E6H         LINE#         514
  C:35FCH         LINE#         518
  C:35FCH         LINE#         519
  C:3614H         LINE#         521
  C:3614H         LINE#         522
  C:362AH         LINE#         523
  C:362AH         LINE#         524
  C:362AH         LINE#         525
  C:362CH         LINE#         526
  C:362CH         LINE#         527
  C:3644H         LINE#         529
  C:3644H         LINE#         530
  C:365EH         LINE#         531
  C:3661H         LINE#         532
  C:3661H         LINE#         533
  C:3661H         LINE#         535
  C:3661H         LINE#         536
  C:3670H         LINE#         537
  -------         ENDPROC       _CHINESEXDIRECTIONINCREASE
  C:2B58H         SYMBOL        L?0285
  C:2B83H         SYMBOL        L?0286
  C:2B84H         SYMBOL        L?0287
  C:2B94H         SYMBOL        L?0288
  C:2B95H         SYMBOL        L?0289
  C:2B9CH         SYMBOL        L?0290
  -------         PROC          L?0284
  -------         ENDPROC       L?0284
  C:2B58H         SYMBOL        L?0285
  C:2B83H         SYMBOL        L?0286
  C:2B84H         SYMBOL        L?0287
  C:2B94H         SYMBOL        L?0288
  C:2B95H         SYMBOL        L?0289
  C:2B9CH         SYMBOL        L?0290
  -------         PROC          _DISPLAYDIGITSTRING
  X:028CH         SYMBOL        px
  X:028FH         SYMBOL        py
  X:0292H         SYMBOL        pDigit
  X:0295H         SYMBOL        Length
  X:0296H         SYMBOL        fcolor
  X:0298H         SYMBOL        bcolor
  X:029AH         SYMBOL        size
  -------         DO            
  X:029BH         SYMBOL        x
  X:029CH         SYMBOL        y
  -------         ENDDO         
BL51 BANKED LINKER/LOCATER V6.05                                                      08/18/2014  14:10:06  PAGE 33


  C:2BA0H         LINE#         542
  C:2BABH         LINE#         543
  C:2BABH         LINE#         545
  C:2BB2H         LINE#         546
  C:2BC4H         LINE#         547
  C:2BD0H         LINE#         548
  C:2BD0H         LINE#         549
  C:2BD3H         LINE#         550
  C:2BECH         LINE#         551
  C:2C07H         LINE#         552
  C:2C0AH         LINE#         553
  C:2C43H         LINE#         555
  C:2C5FH         LINE#         556
  C:2C69H         LINE#         557
  C:2C72H         LINE#         558
  C:2C86H         LINE#         559
  -------         ENDPROC       _DISPLAYDIGITSTRING
  -------         PROC          _DISPLAYDIGIT
  X:02F2H         SYMBOL        x
  X:02F3H         SYMBOL        y
  X:02F4H         SYMBOL        Digit
  X:02F5H         SYMBOL        fcolor
  X:02F7H         SYMBOL        bcolor
  X:02F9H         SYMBOL        size
  C:3F66H         LINE#         563
  C:3F71H         LINE#         564
  C:3F71H         LINE#         565
  C:3F74H         LINE#         566
  C:3F7FH         LINE#         567
  C:3F90H         LINE#         568
  C:3F93H         LINE#         569
  -------         ENDPROC       _DISPLAYDIGIT
  C:3017H         SYMBOL        L?0292
  C:3028H         SYMBOL        L?0293
  -------         PROC          L?0291
  -------         ENDPROC       L?0291
  C:3017H         SYMBOL        L?0292
  C:3028H         SYMBOL        L?0293
  -------         PROC          _DISPLAYASCIISTRING
  X:028CH         SYMBOL        px
  X:028FH         SYMBOL        py
  X:0292H         SYMBOL        pASCII
  X:0295H         SYMBOL        Length
  X:0296H         SYMBOL        fcolor
  X:0298H         SYMBOL        bcolor
  X:029AH         SYMBOL        size
  -------         DO            
  X:029BH         SYMBOL        x
  X:029CH         SYMBOL        y
  -------         ENDDO         
  C:3034H         LINE#         573
  C:303FH         LINE#         574
  C:303FH         LINE#         576
  C:3046H         LINE#         577
  C:3058H         LINE#         578
  C:3064H         LINE#         579
  C:3064H         LINE#         580
BL51 BANKED LINKER/LOCATER V6.05                                                      08/18/2014  14:10:06  PAGE 34


  C:3067H         LINE#         581
  C:3080H         LINE#         582
  C:3083H         LINE#         583
  C:30BCH         LINE#         585
  C:30D8H         LINE#         586
  C:30E2H         LINE#         587
  C:30EBH         LINE#         588
  C:30FFH         LINE#         589
  -------         ENDPROC       _DISPLAYASCIISTRING
  -------         PROC          _DISPLAYASCII
  X:02FAH         SYMBOL        x
  X:02FBH         SYMBOL        y
  D:0003H         SYMBOL        ASCII
  X:02FDH         SYMBOL        fcolor
  X:02FFH         SYMBOL        bcolor
  X:0301H         SYMBOL        size
  C:4203H         LINE#         592
  C:420BH         LINE#         593
  C:420BH         LINE#         594
  C:420EH         LINE#         595
  C:421CH         LINE#         596
  C:421FH         LINE#         597
  -------         ENDPROC       _DISPLAYASCII
  C:3126H         SYMBOL        L?0295
  C:3127H         SYMBOL        L?0296
  -------         PROC          L?0294
  -------         ENDPROC       L?0294
  C:3126H         SYMBOL        L?0295
  C:3127H         SYMBOL        L?0296
  -------         PROC          _DISPLAYCHINESESTRING
  X:0291H         SYMBOL        px
  X:0294H         SYMBOL        py
  X:0297H         SYMBOL        pChinese
  X:029AH         SYMBOL        Length
  X:029BH         SYMBOL        fcolor
  X:029DH         SYMBOL        bcolor
  X:029FH         SYMBOL        size
  -------         DO            
  X:02A0H         SYMBOL        x
  X:02A1H         SYMBOL        y
  -------         ENDDO         
  C:3132H         LINE#         601
  C:313DH         LINE#         602
  C:313DH         LINE#         604
  C:3144H         LINE#         605
  C:3156H         LINE#         606
  C:3162H         LINE#         607
  C:3162H         LINE#         608
  C:3165H         LINE#         609
  C:3178H         LINE#         610
  C:317BH         LINE#         611
  C:31B4H         LINE#         613
  C:31D0H         LINE#         614
  C:31DAH         LINE#         615
  C:31E3H         LINE#         616
  C:31F7H         LINE#         617
  -------         ENDPROC       _DISPLAYCHINESESTRING
BL51 BANKED LINKER/LOCATER V6.05                                                      08/18/2014  14:10:06  PAGE 35


  -------         PROC          _DISPLAYSTRING
  X:0291H         SYMBOL        px
  X:0294H         SYMBOL        py
  X:0297H         SYMBOL        pDispData
  X:029AH         SYMBOL        Length
  X:029BH         SYMBOL        fcolor
  X:029DH         SYMBOL        bcolor
  X:029FH         SYMBOL        size
  -------         DO            
  X:02A0H         SYMBOL        x
  X:02A1H         SYMBOL        y
  -------         ENDDO         
  C:1572H         LINE#         621
  C:157DH         LINE#         622
  C:157DH         LINE#         624
  C:1584H         LINE#         625
  C:1596H         LINE#         628
  C:15A3H         LINE#         629
  C:15A3H         LINE#         630
  C:15C3H         LINE#         631
  C:15C3H         LINE#         632
  C:15CDH         LINE#         633
  C:15E3H         LINE#         634
  C:15E3H         LINE#         635
  C:15EBH         LINE#         636
  C:15EBH         LINE#         637
  C:15F5H         LINE#         638
  C:1608H         LINE#         641
  C:161BH         LINE#         642
  C:161BH         LINE#         643
  C:161BH         LINE#         644
  C:1633H         LINE#         645
  C:1633H         LINE#         646
  C:1635H         LINE#         647
  C:164CH         LINE#         648
  C:1653H         LINE#         649
  C:1653H         LINE#         650
  C:1655H         LINE#         651
  C:1655H         LINE#         652
  C:166AH         LINE#         653
  C:166AH         LINE#         654
  C:166CH         LINE#         655
  C:1683H         LINE#         656
  C:168AH         LINE#         657
  C:168AH         LINE#         658
  C:168CH         LINE#         659
  C:168CH         LINE#         660
  C:16A1H         LINE#         661
  C:16A1H         LINE#         662
  C:16A3H         LINE#         663
  C:16BAH         LINE#         664
  C:16C1H         LINE#         665
  C:16C1H         LINE#         666
  C:16C1H         LINE#         667
  C:16C1H         LINE#         668
  C:16F5H         LINE#         670
  C:1711H         LINE#         671
BL51 BANKED LINKER/LOCATER V6.05                                                      08/18/2014  14:10:06  PAGE 36


  C:171BH         LINE#         672
  C:1722H         LINE#         673
  C:1725H         LINE#         680
  C:1725H         LINE#         681
  C:1725H         LINE#         682
  C:1725H         LINE#         683
  C:1728H         LINE#         684
  C:1748H         LINE#         685
  C:1748H         LINE#         686
  C:1756H         LINE#         688
  C:1769H         LINE#         689
  C:1769H         LINE#         690
  C:1769H         LINE#         691
  C:1781H         LINE#         692
  C:1781H         LINE#         693
  C:1783H         LINE#         694
  C:179AH         LINE#         695
  C:17A1H         LINE#         696
  C:17A1H         LINE#         697
  C:17A3H         LINE#         698
  C:17A3H         LINE#         699
  C:17B8H         LINE#         700
  C:17B8H         LINE#         701
  C:17BAH         LINE#         702
  C:17D1H         LINE#         703
  C:17D8H         LINE#         704
  C:17D8H         LINE#         705
  C:17DAH         LINE#         706
  C:17DAH         LINE#         707
  C:17EFH         LINE#         708
  C:17EFH         LINE#         709
  C:17F1H         LINE#         710
  C:1808H         LINE#         711
  C:180FH         LINE#         712
  C:180FH         LINE#         713
  C:180FH         LINE#         714
  C:180FH         LINE#         715
  C:1843H         LINE#         717
  C:185FH         LINE#         718
  C:1869H         LINE#         719
  C:1869H         LINE#         720
  C:186BH         LINE#         722
  C:186BH         LINE#         723
  C:1875H         LINE#         724
  C:187BH         LINE#         725
  C:187BH         LINE#         726
  C:187EH         LINE#         728
  C:1892H         LINE#         729
  -------         ENDPROC       _DISPLAYSTRING
  -------         PROC          _LCD_FANGDA_DIS_TEXT
  D:0005H         SYMBOL        x
  D:0006H         SYMBOL        y
  X:02CBH         SYMBOL        type_x_wide
  X:02CCH         SYMBOL        type_y_height
  X:02CDH         SYMBOL        mul_row
  X:02CEH         SYMBOL        mul_col
  X:02CFH         SYMBOL        fcolor
BL51 BANKED LINKER/LOCATER V6.05                                                      08/18/2014  14:10:06  PAGE 37


  X:02D1H         SYMBOL        bcolor
  X:02D3H         SYMBOL        p
  -------         DO            
  X:02D6H         SYMBOL        i
  X:02D7H         SYMBOL        j
  X:02D8H         SYMBOL        k
  X:02D9H         SYMBOL        m
  X:02DAH         SYMBOL        n
  -------         ENDDO         
  C:2DC3H         LINE#         852
  C:2DCCH         LINE#         854
  C:2DCCH         LINE#         859
  C:2DEBH         LINE#         860
  C:2DF0H         LINE#         861
  C:2E05H         LINE#         862
  C:2E05H         LINE#         864
  C:2E1AH         LINE#         865
  C:2E1AH         LINE#         867
  C:2E34H         LINE#         868
  C:2E34H         LINE#         870
  C:2E37H         LINE#         871
  C:2E37H         LINE#         873
  C:2E49H         LINE#         874
  C:2E49H         LINE#         877
  C:2E91H         LINE#         878
  C:2E91H         LINE#         879
  C:2E94H         LINE#         880
  C:2E94H         LINE#         881
  C:2E96H         LINE#         884
  C:2E96H         LINE#         885
  C:2EA1H         LINE#         886
  C:2EA4H         LINE#         887
  C:2EA4H         LINE#         889
  C:2EA7H         LINE#         890
  C:2EAFH         LINE#         892
  C:2EB7H         LINE#         893
  C:2EC6H         LINE#         894
  C:2ECFH         LINE#         895
  C:2ED8H         LINE#         896
  C:2EE1H         LINE#         897
  -------         ENDPROC       _LCD_FANGDA_DIS_TEXT
  -------         PROC          SHOWPOWERUPFACE
  -------         DO            
  X:0340H         SYMBOL        x
  X:0341H         SYMBOL        y
  -------         ENDDO         
  C:2470H         LINE#         901
  C:2470H         LINE#         902
  C:2470H         LINE#         905
  C:2473H         LINE#         906
  C:2479H         LINE#         907
  C:247DH         LINE#         908
  C:24B5H         LINE#         910
  C:24BBH         LINE#         911
  C:24C0H         LINE#         912
  C:24F7H         LINE#         913
  C:252EH         LINE#         914
BL51 BANKED LINKER/LOCATER V6.05                                                      08/18/2014  14:10:06  PAGE 38


  C:253CH         LINE#         915
  C:254AH         LINE#         916
  C:2553H         LINE#         917
  C:2559H         LINE#         918
  C:2559H         LINE#         919
  C:2576H         LINE#         920
  C:2578H         LINE#         922
  C:2578H         LINE#         923
  C:2581H         LINE#         924
  C:2581H         LINE#         925
  C:259BH         LINE#         926
  C:259DH         LINE#         927
  C:25D1H         LINE#         928
  C:25D1H         LINE#         929
  C:2608H         LINE#         931
  C:2616H         LINE#         932
  C:2624H         LINE#         933
  C:262DH         LINE#         934
  C:2633H         LINE#         935
  C:2633H         LINE#         936
  C:2650H         LINE#         937
  C:2652H         LINE#         939
  C:2652H         LINE#         940
  C:265BH         LINE#         941
  C:265BH         LINE#         942
  C:2675H         LINE#         943
  C:2677H         LINE#         944
  C:26ABH         LINE#         945
  C:26ABH         LINE#         947
  -------         ENDPROC       SHOWPOWERUPFACE
  -------         PROC          SHOWLANDINGFACE
  -------         DO            
  X:0288H         SYMBOL        temp1
  X:0289H         SYMBOL        temp2
  X:028AH         SYMBOL        x
  X:028BH         SYMBOL        y
  -------         ENDDO         
  C:18A6H         LINE#         965
  C:18A6H         LINE#         966
  C:18A6H         LINE#         971
  C:18B4H         LINE#         972
  C:18BEH         LINE#         973
  C:18C7H         LINE#         975
  C:18CEH         LINE#         976
  C:1900H         LINE#         977
  C:192CH         LINE#         978
  C:1958H         LINE#         980
  C:1966H         LINE#         981
  C:1970H         LINE#         982
  C:1979H         LINE#         983
  C:19A6H         LINE#         984
  C:19D3H         LINE#         985
  C:1A00H         LINE#         987
  C:1A09H         LINE#         988
  C:1A0CH         LINE#         989
  C:1A0CH         LINE#         990
  C:1A0CH         LINE#         991
BL51 BANKED LINKER/LOCATER V6.05                                                      08/18/2014  14:10:06  PAGE 39


  C:1A0FH         LINE#         992
  C:1A2AH         LINE#         993
  C:1A2DH         LINE#         995
  C:1A30H         LINE#         996
  C:1A30H         LINE#         997
  C:1A30H         LINE#         998
  C:1A33H         LINE#         999
  C:1A4FH         LINE#         1000
  C:1A52H         LINE#         1002
  C:1A55H         LINE#         1003
  C:1A55H         LINE#         1004
  C:1A55H         LINE#         1005
  C:1A58H         LINE#         1006
  C:1A74H         LINE#         1008
  C:1A87H         LINE#         1009
  C:1A91H         LINE#         1010
  C:1A94H         LINE#         1011
  C:1A94H         LINE#         1012
  C:1A94H         LINE#         1013
  C:1A97H         LINE#         1014
  C:1AB3H         LINE#         1015
  C:1ACEH         LINE#         1017
  C:1AD1H         LINE#         1018
  C:1AD1H         LINE#         1019
  C:1AD1H         LINE#         1020
  C:1AD4H         LINE#         1021
  C:1AF0H         LINE#         1022
  C:1B07H         LINE#         1024
  C:1B1AH         LINE#         1025
  C:1B24H         LINE#         1026
  C:1B3FH         LINE#         1031
  C:1B48H         LINE#         1032
  C:1B63H         LINE#         1033
  C:1B91H         LINE#         1034
  C:1BA8H         LINE#         1036
  C:1BAEH         LINE#         1037
  C:1BB4H         LINE#         1038
  C:1BB4H         LINE#         1039
  C:1BB7H         LINE#         1040
  C:1BBAH         LINE#         1041
  C:1BBCH         LINE#         1042
  C:1BBDH         LINE#         1044
  C:1BBDH         LINE#         1045
  C:1BBFH         LINE#         1046
  C:1BBFH         LINE#         1047
  -------         ENDPROC       SHOWLANDINGFACE
  -------         PROC          SHOWMAINMENUFACE
  -------         DO            
  X:0342H         SYMBOL        x
  X:0343H         SYMBOL        y
  -------         ENDDO         
  C:21BCH         LINE#         1051
  C:21BCH         LINE#         1052
  C:21BCH         LINE#         1054
  C:21BFH         LINE#         1055
  C:21C6H         LINE#         1056
  C:21CEH         LINE#         1057
BL51 BANKED LINKER/LOCATER V6.05                                                      08/18/2014  14:10:06  PAGE 40


  C:21CEH         LINE#         1058
  C:2205H         LINE#         1059
  C:222FH         LINE#         1060
  C:2231H         LINE#         1062
  C:2231H         LINE#         1063
  C:2269H         LINE#         1064
  C:22A1H         LINE#         1065
  C:22A1H         LINE#         1070
  C:22AAH         LINE#         1071
  C:22B2H         LINE#         1072
  C:22B2H         LINE#         1073
  C:22E9H         LINE#         1074
  C:2313H         LINE#         1075
  C:2315H         LINE#         1077
  C:2315H         LINE#         1078
  C:234DH         LINE#         1079
  C:2385H         LINE#         1080
  C:2385H         LINE#         1083
  C:238EH         LINE#         1084
  C:2396H         LINE#         1085
  C:2396H         LINE#         1086
  C:23CDH         LINE#         1087
  C:23F7H         LINE#         1088
  C:23F9H         LINE#         1090
  C:23F9H         LINE#         1091
  C:2431H         LINE#         1092
  C:2469H         LINE#         1093
  C:2469H         LINE#         1095
  C:246FH         LINE#         1097
  -------         ENDPROC       SHOWMAINMENUFACE
  -------         PROC          SHOWTALKFACE
  -------         DO            
  X:0288H         SYMBOL        x
  X:0289H         SYMBOL        y
  -------         ENDDO         
  C:4438H         LINE#         1113
  C:4438H         LINE#         1114
  C:4438H         LINE#         1116
  C:443BH         LINE#         1117
  C:4441H         LINE#         1118
  C:4445H         LINE#         1120
  C:447DH         LINE#         1121
  C:4483H         LINE#         1122
  -------         ENDPROC       SHOWTALKFACE
  -------         PROC          SHOWBROADFACE
  -------         DO            
  X:0288H         SYMBOL        x
  X:0289H         SYMBOL        y
  -------         ENDDO         
  C:4484H         LINE#         1125
  C:4484H         LINE#         1126
  C:4484H         LINE#         1128
  C:4487H         LINE#         1129
  C:448DH         LINE#         1130
  C:4491H         LINE#         1132
  C:44C9H         LINE#         1133
  C:44CFH         LINE#         1134
BL51 BANKED LINKER/LOCATER V6.05                                                      08/18/2014  14:10:06  PAGE 41


  -------         ENDPROC       SHOWBROADFACE
  -------         PROC          SHOWCALLSUCCESS
  -------         DO            
  X:0288H         SYMBOL        x
  X:0289H         SYMBOL        y
  -------         ENDDO         
  C:39E8H         LINE#         1137
  C:39E8H         LINE#         1138
  C:39E8H         LINE#         1140
  C:39EBH         LINE#         1141
  C:39F0H         LINE#         1142
  C:39F4H         LINE#         1144
  C:3A2CH         LINE#         1146
  C:3A32H         LINE#         1147
  C:3A37H         LINE#         1148
  C:3A6FH         LINE#         1150
  C:3A75H         LINE#         1151
  -------         ENDPROC       SHOWCALLSUCCESS
  -------         PROC          _SHOWFACE
  X:0287H         SYMBOL        DispFaceType
  -------         DO            
  X:0288H         SYMBOL        TotalDataLen
  X:028AH         SYMBOL        DispDataLen
  X:028BH         SYMBOL        x
  X:028CH         SYMBOL        y
  X:028DH         SYMBOL        MRReadAddr
  C:2841H         SYMBOL        SHOW_FACE_RETURN
  -------         ENDDO         
  C:26ACH         LINE#         1155
  C:26B1H         LINE#         1156
  C:26B1H         LINE#         1166
  C:26BCH         LINE#         1167
  C:26BCH         LINE#         1168
  C:26BCH         LINE#         1169
  C:26BFH         LINE#         1170
  C:26C1H         LINE#         1171
  C:26C1H         LINE#         1172
  C:26C4H         LINE#         1173
  C:26C6H         LINE#         1174
  C:26C6H         LINE#         1175
  C:26D5H         LINE#         1176
  C:26D7H         LINE#         1177
  C:26D7H         LINE#         1178
  C:26DEH         LINE#         1179
  C:26DEH         LINE#         1180
  C:26DEH         LINE#         1182
  C:26E8H         LINE#         1183
  C:26E8H         LINE#         1184
  C:26EEH         LINE#         1185
  C:26F7H         LINE#         1186
  C:272FH         LINE#         1188
  C:2732H         LINE#         1189
  C:2732H         LINE#         1193
  C:274BH         LINE#         1194
  C:274BH         LINE#         1195
  C:2751H         LINE#         1197
  C:2754H         LINE#         1198
BL51 BANKED LINKER/LOCATER V6.05                                                      08/18/2014  14:10:06  PAGE 42


  C:2754H         LINE#         1202
  C:2763H         LINE#         1203
  C:2763H         LINE#         1204
  C:2763H         LINE#         1205
  C:2763H         LINE#         1206
  C:2765H         LINE#         1207
  C:2765H         LINE#         1208
  C:2775H         LINE#         1209
  C:2777H         LINE#         1210
  C:2777H         LINE#         1211
  C:2794H         LINE#         1212
  C:2796H         LINE#         1213
  C:2796H         LINE#         1214
  C:27A0H         LINE#         1215
  C:27A0H         LINE#         1216
  C:27A0H         LINE#         1221
  C:27C2H         LINE#         1222
  C:27C2H         LINE#         1223
  C:27C6H         LINE#         1224
  C:27C8H         LINE#         1226
  C:27C8H         LINE#         1227
  C:27D5H         LINE#         1228
  C:27D5H         LINE#         1232
  C:27D8H         LINE#         1234
  C:27DEH         LINE#         1235
  C:27DEH         LINE#         1236
  C:2800H         LINE#         1238
  C:2807H         LINE#         1239
  C:2841H         LINE#         1242
  C:2841H         LINE#         1245
  C:2841H         LINE#         1247
  C:2850H         LINE#         1248
  C:2850H         LINE#         1249
  C:2850H         LINE#         1250
  C:2856H         LINE#         1251
  C:2857H         LINE#         1253
  C:2857H         LINE#         1254
  C:285DH         LINE#         1255
  C:285EH         LINE#         1256
  C:285EH         LINE#         1257
  C:2864H         LINE#         1258
  C:2864H         LINE#         1259
  C:2864H         LINE#         1260
  C:2864H         LINE#         1261
  C:2864H         LINE#         1263
  -------         ENDPROC       _SHOWFACE
  -------         PROC          SHOWDIETFACE
  C:508AH         LINE#         1268
  C:508AH         LINE#         1269
  C:508AH         LINE#         1270
  C:5090H         LINE#         1272
  -------         ENDPROC       SHOWDIETFACE
  -------         PROC          SHOWPRESCRIPTIONFACE
  C:5091H         LINE#         1274
  C:5091H         LINE#         1275
  C:5091H         LINE#         1276
  C:5097H         LINE#         1277
BL51 BANKED LINKER/LOCATER V6.05                                                      08/18/2014  14:10:06  PAGE 43


  -------         ENDPROC       SHOWPRESCRIPTIONFACE
  -------         PROC          SHOWPROMPTFACE
  C:5098H         LINE#         1280
  C:5098H         LINE#         1281
  C:5098H         LINE#         1282
  C:509EH         LINE#         1284
  -------         ENDPROC       SHOWPROMPTFACE
  -------         PROC          DISPMANAGER
  C:4E80H         LINE#         1300
  C:4E80H         LINE#         1301
  C:4E80H         LINE#         1302
  C:4E83H         LINE#         1303
  C:4E83H         LINE#         1305
  C:4E8AH         LINE#         1306
  C:4E8CH         LINE#         1309
  C:4E8FH         LINE#         1310
  C:4E8FH         LINE#         1311
  C:4E8FH         LINE#         1313
  C:4E96H         LINE#         1314
  -------         ENDPROC       DISPMANAGER
  -------         ENDMOD        LCD

  -------         MODULE        MAIN
  C:0000H         SYMBOL        _ICE_DUMMY_
  D:0093H         PUBLIC        P0M1
  D:0092H         PUBLIC        P1M0
  C:4750H         PUBLIC        _DispatchMessage
  D:0096H         PUBLIC        P2M0
  D:0091H         PUBLIC        P1M1
  D:0080H         PUBLIC        P0
  D:00B2H         PUBLIC        P3M0
  D:0095H         PUBLIC        P2M1
  D:0090H         PUBLIC        P1
  B:0090H.1       PUBLIC        LCD_CS7
  D:00B4H         PUBLIC        P4M0
  D:00B1H         PUBLIC        P3M1
  D:00A0H         PUBLIC        P2
  D:00CAH         PUBLIC        P5M0
  D:00B3H         PUBLIC        P4M1
  D:00B0H         PUBLIC        P3
  C:000AH         PUBLIC        byVersionLo
  D:00C9H         PUBLIC        P5M1
  D:00C0H         PUBLIC        P4
  D:00C8H         PUBLIC        P5
  D:00F9H         PUBLIC        CH
  B:00A8H.5       PUBLIC        EADC
  D:00A8H         PUBLIC        IE
  X:024AH         PUBLIC        DispData
  D:00E9H         PUBLIC        CL
  C:5068H         PUBLIC        BL_SW_Init
  D:00FAH         PUBLIC        CCAP0H
  D:00EAH         PUBLIC        CCAP0L
  B:00D8H.6       PUBLIC        CR
  C:3E83H         PUBLIC        Init
  D:00DAH         PUBLIC        CCAPM0
  B:00C8H.1       PUBLIC        BL_SW
  D:00B8H         PUBLIC        IP
BL51 BANKED LINKER/LOCATER V6.05                                                      08/18/2014  14:10:06  PAGE 44


  C:000EH         PUBLIC        Ex0Int
  C:4350H         PUBLIC        MainTask
  X:024CH         PUBLIC        uiIsrTimerCount
  D:00D9H         PUBLIC        CMOD
  D:00D8H         PUBLIC        CCON
  C:4F54H         PUBLIC        main
  B:00A8H.6       PUBLIC        ELVD
  D:00BBH         PUBLIC        P4SW
  C:4D23H         PUBLIC        UserTickTimer
  D:0098H         PUBLIC        SCON
  D:0088H         PUBLIC        TCON
  C:001EH         PUBLIC        AdcInt
  X:024EH         PUBLIC        MicCtrlState
  X:024FH         PUBLIC        stLocalControl
  B:0090H.3       PUBLIC        GT23L_CS
  D:00E0H         PUBLIC        ACC
  B:00A8H.3       PUBLIC        ET1
  I:0064H         PUBLIC        byMainCmdQ
  B:00A8H.0       PUBLIC        EX0
  C:0026H         PUBLIC        LvdInt
  B:0027H.3       PUBLIC        bBL_SW_State
  C:0016H         PUBLIC        TIMER1Int
  C:509FH         PUBLIC        _GetMessage
  B:00B0H.2       PUBLIC        MIC_CTRL
  B:0090H.4       PUBLIC        SST25VF_CS
  C:0009H         PUBLIC        byVersionHi
  D:00D0H         PUBLIC        PSW
  B:00D8H.0       PUBLIC        CCF0
  D:0094H         PUBLIC        P0M0
  -------         PROC          EX0INT
  C:000EH         LINE#         41
  C:000EH         LINE#         43
  C:0010H         LINE#         44
  -------         ENDPROC       EX0INT
  -------         PROC          TIMER1INT
  C:0016H         LINE#         46
  C:0016H         LINE#         48
  C:0018H         LINE#         49
  -------         ENDPROC       TIMER1INT
  -------         PROC          ADCINT
  C:001EH         LINE#         52
  C:001EH         LINE#         54
  C:0020H         LINE#         55
  -------         ENDPROC       ADCINT
  -------         PROC          LVDINT
  C:0026H         LINE#         57
  C:0026H         LINE#         59
  C:0028H         LINE#         60
  -------         ENDPROC       LVDINT
  -------         PROC          USERTICKTIMER
  C:4D23H         LINE#         71
  C:4D23H         LINE#         72
  C:4D23H         LINE#         75
  C:4D31H         LINE#         76
  C:4D37H         LINE#         77
  C:4D3AH         LINE#         78
  C:4D3CH         LINE#         82
BL51 BANKED LINKER/LOCATER V6.05                                                      08/18/2014  14:10:06  PAGE 45


  C:4D44H         LINE#         83
  -------         ENDPROC       USERTICKTIMER
  -------         PROC          BL_SW_INIT
  C:5068H         LINE#         85
  C:5068H         LINE#         86
  C:5068H         LINE#         88
  C:506BH         LINE#         89
  C:506EH         LINE#         90
  C:5070H         LINE#         91
  -------         ENDPROC       BL_SW_INIT
  -------         PROC          INIT
  C:3E83H         LINE#         108
  C:3E83H         LINE#         109
  C:3E83H         LINE#         110
  C:3E92H         LINE#         112
  C:3E95H         LINE#         113
  C:3E98H         LINE#         114
  C:3E9AH         LINE#         115
  C:3E9CH         LINE#         116
  C:3EA5H         LINE#         117
  C:3EA8H         LINE#         119
  C:3EABH         LINE#         122
  C:3EADH         LINE#         130
  C:3EB0H         LINE#         131
  C:3EB2H         LINE#         136
  C:3EB5H         LINE#         137
  C:3EB7H         LINE#         142
  C:3EB9H         LINE#         143
  C:3EBBH         LINE#         154
  C:3EBEH         LINE#         155
  C:3EC0H         LINE#         161
  C:3EC3H         LINE#         162
  C:3EC5H         LINE#         163
  C:3EC8H         LINE#         168
  C:3ECBH         LINE#         169
  C:3ECDH         LINE#         173
  C:3ECFH         LINE#         174
  C:3ED1H         LINE#         175
  C:3ED3H         LINE#         178
  C:3ED7H         LINE#         180
  C:3EDEH         LINE#         184
  C:3EE1H         LINE#         187
  C:3EE4H         LINE#         190
  C:3EE7H         LINE#         191
  C:3EECH         LINE#         194
  C:3EEFH         LINE#         195
  C:3EF2H         LINE#         198
  C:3EF5H         LINE#         199
  -------         ENDPROC       INIT
  -------         PROC          _GETMESSAGE
  D:0007H         SYMBOL        Msg
  C:509FH         LINE#         261
  C:509FH         LINE#         262
  C:509FH         LINE#         263
  -------         ENDPROC       _GETMESSAGE
  -------         PROC          _DISPATCHMESSAGE
  X:0283H         SYMBOL        Msg
BL51 BANKED LINKER/LOCATER V6.05                                                      08/18/2014  14:10:06  PAGE 46


  C:4750H         LINE#         280
  C:4755H         LINE#         281
  C:4755H         LINE#         282
  C:476FH         LINE#         283
  C:476FH         LINE#         284
  C:476FH         LINE#         285
  C:4772H         LINE#         286
  C:4772H         LINE#         287
  C:4772H         LINE#         288
  C:4775H         LINE#         289
  C:4775H         LINE#         290
  C:4775H         LINE#         291
  C:477DH         LINE#         292
  C:477DH         LINE#         293
  C:477DH         LINE#         294
  C:4785H         LINE#         295
  C:4785H         LINE#         296
  C:4785H         LINE#         297
  C:478DH         LINE#         298
  C:478DH         LINE#         299
  C:478DH         LINE#         300
  C:4790H         LINE#         301
  C:4790H         LINE#         302
  C:4790H         LINE#         303
  -------         ENDPROC       _DISPATCHMESSAGE
  -------         PROC          MAINTASK
  -------         DO            
  D:001BH         SYMBOL        Msg
  -------         ENDDO         
  C:4350H         LINE#         319
  C:4350H         LINE#         320
  C:4350H         LINE#         324
  C:4353H         LINE#         326
  C:435AH         LINE#         328
  C:4366H         LINE#         329
  C:4372H         LINE#         330
  C:437EH         LINE#         331
  C:438AH         LINE#         335
  C:438AH         LINE#         336
  C:438AH         LINE#         337
  C:438FH         LINE#         338
  C:4394H         LINE#         339
  C:4397H         LINE#         340
  C:4397H         LINE#         341
  C:4399H         LINE#         342
  C:439CH         LINE#         343
  C:439CH         LINE#         344
  -------         ENDPROC       MAINTASK
  -------         PROC          MAIN
  C:4F54H         LINE#         361
  C:4F54H         LINE#         362
  C:4F54H         LINE#         364
  C:4F57H         LINE#         368
  C:4F62H         LINE#         370
  C:4F62H         LINE#         371
  C:4F62H         LINE#         372
  C:4F63H         LINE#         374
BL51 BANKED LINKER/LOCATER V6.05                                                      08/18/2014  14:10:06  PAGE 47


  -------         ENDPROC       MAIN
  -------         ENDMOD        MAIN

  -------         MODULE        SINGLEBUS
  C:0000H         SYMBOL        _ICE_DUMMY_
  C:4D66H         PUBLIC        TimerOutManager
  D:0028H         PUBLIC        byBus0DisableCount
  D:0080H         PUBLIC        P0
  D:00B2H         PUBLIC        P3M0
  D:0090H         PUBLIC        P1
  D:00B1H         PUBLIC        P3M1
  D:00A0H         PUBLIC        P2
  D:00B0H         PUBLIC        P3
  D:00C0H         PUBLIC        P4
  D:00C8H         PUBLIC        P5
  B:00A8H.7       PUBLIC        EA
  B:0020H.7       PUBLIC        bBusy
  B:0021H.2       PUBLIC        bBus0Enable
  B:0022H.7       PUBLIC        bWaitAck
  B:0023H.4       PUBLIC        bEnCallDeal
  D:00A8H         PUBLIC        IE
  B:0024H.0       PUBLIC        bPWState
  B:0024H.4       PUBLIC        bConfusionNoting
  B:00B0H.4       PUBLIC        Bus0SendPin
  D:0029H         PUBLIC        byBus0TxTail
  D:00DAH         PUBLIC        CCAPM0
  B:0021H.1       PUBLIC        bBus0OnRec
  B:00C8H.1       PUBLIC        BL_SW
  D:00B8H         PUBLIC        IP
  X:0344H         PUBLIC        uitTimer0TimerCount
  B:0021H.5       PUBLIC        bBus0OnSendFreq
  B:0023H.2       PUBLIC        bEnHelpDeal
  B:0027H.4       PUBLIC        FLED
  B:0025H.2       PUBLIC        bEnAllBroad
  B:0022H.2       PUBLIC        bOfficeBroad
  B:00B0H.3       PUBLIC        Bus0RecPin
  D:002AH         PUBLIC        byBus0RecTimeOut
  B:0020H.5       PUBLIC        bDealKeyDown
  B:0020H.0       PUBLIC        bLanding
  D:00D8H         PUBLIC        CCON
  C:4FA6H         PUBLIC        Bus0RecInt
  C:44D0H         PUBLIC        ReadParameter
  B:0025H.5       PUBLIC        bEnAutoListen
  C:4DE1H         PUBLIC        Bus0Manage
  C:49ABH         PUBLIC        SingleBusInit
  B:0025H.6       PUBLIC        bEnVoiceNote
  B:0022H.5       PUBLIC        bChannel0Talked
  B:0021H.4       PUBLIC        bBus0OnSendBit
  B:0020H.3       PUBLIC        bChannel1Talked
  B:0020H.4       PUBLIC        bNurseIn
  B:0024H.3       PUBLIC        bServiceNoting
  B:0023H.6       PUBLIC        bEnHandDown
  B:0025H.0       PUBLIC        bEnSickRoomBroad
  B:0026H.2       PUBLIC        bBus0SendFinish
  D:0020H         PUBLIC        byDevState1
  D:0022H         PUBLIC        byDevState2
  D:0098H         PUBLIC        SCON
BL51 BANKED LINKER/LOCATER V6.05                                                      08/18/2014  14:10:06  PAGE 48


  B:0026H.1       PUBLIC        bBus0RecBit9
  B:0023H.3       PUBLIC        bEnEmergencyDeal
  D:0024H         PUBLIC        byDevState3
  D:0089H         PUBLIC        TMOD
  D:0088H         PUBLIC        TCON
  C:2EE2H         PUBLIC        TimerOutDeal
  C:3F0FH         PUBLIC        SaveParameter
  B:0025H.3       PUBLIC        bEnSoundNote
  C:488BH         PUBLIC        InitParameter
  B:0024H.7       PUBLIC        bCalledRing
  B:0088H.3       PUBLIC        IE1
  B:0026H.0       PUBLIC        bBus0RecFinish
  B:0024H.5       PUBLIC        bMusicPlaying
  D:008EH         PUBLIC        AUXR
  D:002BH         PUBLIC        byBus0SendData
  D:00C7H         PUBLIC        IAP_CONTR
  C:0011H         PUBLIC        SysReset
  D:00E0H         PUBLIC        ACC
  C:4797H         PUBLIC        _AddrCompare
  B:00A8H.1       PUBLIC        ET0
  B:0088H.5       PUBLIC        TF0
  B:0021H.7       PUBLIC        bBus0Error
  D:008CH         PUBLIC        TH0
  B:0088H.2       PUBLIC        IT1
  B:00A8H.2       PUBLIC        EX1
  B:0024H.6       PUBLIC        bVoiceNoting
  D:008AH         PUBLIC        TL0
  D:0032H         PUBLIC        byBus0RecData
  D:0039H         PUBLIC        byBus0SendCount
  B:0025H.1       PUBLIC        bEnOfficeBroad
  B:0023H.5       PUBLIC        bEnMusicplay
  B:00C8H.0       PUBLIC        LED
  B:0020H.6       PUBLIC        bSetKeyDown
  B:0088H.4       PUBLIC        TR0
  D:003AH         PUBLIC        byBus0TxQ
  D:0025H         PUBLIC        byEnable1
  B:0021H.6       PUBLIC        bBus0SendError
  D:0023H         PUBLIC        byEnable2
  B:0022H.0       PUBLIC        bSelfBroad
  B:0025H.7       PUBLIC        bEnHandleDeal
  B:0022H.4       PUBLIC        bChannel0Talk
  B:0023H.0       PUBLIC        bEnInfusionDeal
  B:0020H.2       PUBLIC        bChannel1Talk
  C:4A45H         PUBLIC        Bus0SendDeal
  C:1EC4H         PUBLIC        Timer0Int
  D:005EH         PUBLIC        byBus0RecCount
  B:0024H.2       PUBLIC        bHelpNoting
  B:0025H.4       PUBLIC        bEnOutRing
  D:005FH         PUBLIC        byBus0SendBuf
  B:0023H.1       PUBLIC        bEnServiceDeal
  B:0022H.1       PUBLIC        bAllBroad
  B:0020H.1       PUBLIC        bIndicatingOther
  C:4A13H         PUBLIC        _DirAddrCompare
  B:0026H.4       PUBLIC        bBus0SendBit
  B:0021H.0       PUBLIC        bBus0StartRec
  D:0021H         PUBLIC        byBus0State0
  B:0022H.6       PUBLIC        bWaitListen
BL51 BANKED LINKER/LOCATER V6.05                                                      08/18/2014  14:10:06  PAGE 49


  C:3D93H         PUBLIC        _Bus0OutputData
  D:0060H         PUBLIC        byBus0RecSendCount
  D:0026H         PUBLIC        byBus0State1
  C:004EH         PUBLIC        Bus0RecDeal
  B:00B0H.2       PUBLIC        MIC_CTRL
  D:0061H         PUBLIC        byBus0RecBuf
  B:0021H.3       PUBLIC        bBus0ReqSend
  B:0026H.3       PUBLIC        bBus0Disable
  C:4FCFH         PUBLIC        led0flash
  D:0062H         PUBLIC        byBus0TxHead
  B:0022H.3       PUBLIC        bSickRoomBroad
  D:00D0H         PUBLIC        PSW
  C:5026H         PUBLIC        _MakeCH0TimerOut
  D:0063H         PUBLIC        byBus0SendStopCount
  B:0026H.5       PUBLIC        bBus0RecBit
  B:0024H.1       PUBLIC        bEmergencyNoting
  -------         PROC          LED0FLASH
  C:4FCFH         LINE#         66
  C:4FCFH         LINE#         67
  C:4FCFH         LINE#         68
  C:4FD2H         LINE#         69
  C:4FD2H         LINE#         70
  C:4FD4H         LINE#         71
  C:4FD6H         LINE#         72
  C:4FD7H         LINE#         74
  C:4FD7H         LINE#         75
  C:4FD9H         LINE#         76
  C:4FDBH         LINE#         77
  C:4FDBH         LINE#         78
  -------         ENDPROC       LED0FLASH
  -------         PROC          SINGLEBUSINIT
  C:49ABH         LINE#         94
  C:49ABH         LINE#         95
  C:49ABH         LINE#         105
  C:49AEH         LINE#         106
  C:49B1H         LINE#         109
  C:49B4H         LINE#         110
  C:49B7H         LINE#         113
  C:49B9H         LINE#         114
  C:49BBH         LINE#         118
  C:49BEH         LINE#         119
  C:49C1H         LINE#         121
  C:49C4H         LINE#         122
  C:49C7H         LINE#         126
  C:49C9H         LINE#         127
  C:49CCH         LINE#         128
  C:49CEH         LINE#         129
  C:49D0H         LINE#         131
  C:49D3H         LINE#         132
  C:49D5H         LINE#         133
  C:49D7H         LINE#         134
  C:49DAH         LINE#         135
  C:49DAH         LINE#         136
  C:49DCH         LINE#         137
  C:49DDH         LINE#         139
  C:49DDH         LINE#         140
  C:49DFH         LINE#         141
BL51 BANKED LINKER/LOCATER V6.05                                                      08/18/2014  14:10:06  PAGE 50


  C:49DFH         LINE#         142
  -------         ENDPROC       SINGLEBUSINIT
  -------         PROC          BUS0RECINT
  C:4FA6H         LINE#         159
  C:4FA8H         LINE#         161
  C:4FAAH         LINE#         162
  C:4FACH         LINE#         163
  C:4FAEH         LINE#         164
  C:4FB1H         LINE#         165
  -------         ENDPROC       BUS0RECINT
  -------         PROC          TIMER0INT
  C:1EC4H         LINE#         183
  C:1EDDH         LINE#         185
  C:1EDFH         LINE#         186
  C:1EE2H         LINE#         187
  C:1EE5H         LINE#         188
  C:1EE7H         LINE#         189
  C:1EEBH         LINE#         191
  C:1EEEH         LINE#         192
  C:1EEEH         LINE#         193
  C:1EF4H         LINE#         194
  C:1EFDH         LINE#         195
  C:1EFDH         LINE#         196
  C:1EFFH         LINE#         197
  C:1F01H         LINE#         198
  C:1F04H         LINE#         199
  C:1F04H         LINE#         200
  C:1F0AH         LINE#         201
  C:1F0AH         LINE#         202
  C:1F0DH         LINE#         203
  C:1F0FH         LINE#         204
  C:1F11H         LINE#         205
  C:1F11H         LINE#         206
  C:1F14H         LINE#         207
  C:1F17H         LINE#         208
  C:1F17H         LINE#         209
  C:1F19H         LINE#         211
  C:1F19H         LINE#         212
  C:1F1BH         LINE#         213
  C:1F1BH         LINE#         214
  C:1F1BH         LINE#         215
  C:1F1EH         LINE#         216
  C:1F24H         LINE#         217
  C:1F24H         LINE#         218
  C:1F2AH         LINE#         219
  C:1F33H         LINE#         220
  C:1F33H         LINE#         221
  C:1F36H         LINE#         222
  C:1F38H         LINE#         223
  C:1F41H         LINE#         224
  C:1F41H         LINE#         225
  C:1F43H         LINE#         226
  C:1F46H         LINE#         227
  C:1F46H         LINE#         228
  C:1F52H         LINE#         229
  C:1F52H         LINE#         230
  C:1F55H         LINE#         231
BL51 BANKED LINKER/LOCATER V6.05                                                      08/18/2014  14:10:06  PAGE 51


  C:1F58H         LINE#         232
  C:1F5AH         LINE#         234
  C:1F5AH         LINE#         235
  C:1F5DH         LINE#         236
  C:1F67H         LINE#         237
  C:1F6DH         LINE#         238
  C:1F74H         LINE#         239
  C:1F74H         LINE#         240
  C:1F77H         LINE#         241
  C:1F7DH         LINE#         242
  C:1F7DH         LINE#         243
  C:1F7FH         LINE#         244
  C:1F7FH         LINE#         245
  C:1F82H         LINE#         246
  C:1F85H         LINE#         247
  C:1F87H         LINE#         248
  C:1F87H         LINE#         249
  C:1F87H         LINE#         250
  C:1F8AH         LINE#         251
  C:1F8EH         LINE#         252
  C:1F90H         LINE#         254
  C:1F90H         LINE#         255
  C:1F92H         LINE#         256
  C:1F98H         LINE#         257
  C:1F98H         LINE#         258
  C:1F9BH         LINE#         259
  C:1F9DH         LINE#         260
  C:1F9FH         LINE#         261
  C:1F9FH         LINE#         262
  C:1FA2H         LINE#         263
  C:1FA2H         LINE#         264
  C:1FA4H         LINE#         265
  C:1FA7H         LINE#         266
  C:1FA7H         LINE#         267
  C:1FABH         LINE#         268
  C:1FADH         LINE#         270
  C:1FADH         LINE#         271
  C:1FB3H         LINE#         272
  C:1FB6H         LINE#         273
  C:1FB6H         LINE#         274
  C:1FB9H         LINE#         275
  C:1FB9H         LINE#         276
  C:1FB9H         LINE#         277
  C:1FB9H         LINE#         278
  C:1FB9H         LINE#         280
  C:1FC1H         LINE#         281
  C:1FC1H         LINE#         282
  C:1FC4H         LINE#         283
  C:1FC4H         LINE#         284
  C:1FC6H         LINE#         285
  C:1FC8H         LINE#         286
  C:1FCAH         LINE#         287
  C:1FCDH         LINE#         288
  C:1FD7H         LINE#         289
  C:1FD9H         LINE#         290
  C:1FDCH         LINE#         292
  C:1FDCH         LINE#         293
BL51 BANKED LINKER/LOCATER V6.05                                                      08/18/2014  14:10:06  PAGE 52


  C:1FDFH         LINE#         294
  C:1FE1H         LINE#         295
  C:1FE4H         LINE#         296
  C:1FE4H         LINE#         297
  C:1FE4H         LINE#         298
  C:1FE4H         LINE#         299
  C:1FE7H         LINE#         300
  C:1FEDH         LINE#         301
  C:1FEDH         LINE#         302
  C:1FF5H         LINE#         303
  C:1FF5H         LINE#         304
  C:1FFBH         LINE#         305
  C:2001H         LINE#         306
  C:2001H         LINE#         307
  C:2004H         LINE#         308
  C:2006H         LINE#         309
  C:200EH         LINE#         310
  C:200EH         LINE#         311
  C:2017H         LINE#         312
  C:201BH         LINE#         313
  C:201DH         LINE#         314
  C:2020H         LINE#         315
  C:2020H         LINE#         316
  C:2022H         LINE#         317
  C:2024H         LINE#         318
  C:2026H         LINE#         319
  C:202EH         LINE#         320
  C:202EH         LINE#         321
  C:2030H         LINE#         322
  C:2032H         LINE#         323
  C:203BH         LINE#         324
  C:203BH         LINE#         325
  C:203EH         LINE#         326
  C:2041H         LINE#         327
  C:2044H         LINE#         328
  C:2047H         LINE#         329
  C:204AH         LINE#         330
  C:204CH         LINE#         332
  C:204CH         LINE#         333
  C:204FH         LINE#         334
  C:2051H         LINE#         335
  C:2051H         LINE#         336
  C:2055H         LINE#         337
  C:2057H         LINE#         339
  C:2057H         LINE#         340
  C:205CH         LINE#         341
  C:205CH         LINE#         342
  C:205EH         LINE#         343
  C:2060H         LINE#         344
  C:2062H         LINE#         346
  C:2062H         LINE#         347
  C:2064H         LINE#         348
  C:2066H         LINE#         349
  C:2066H         LINE#         350
  C:206CH         LINE#         351
  C:206CH         LINE#         352
  C:206CH         LINE#         353
BL51 BANKED LINKER/LOCATER V6.05                                                      08/18/2014  14:10:06  PAGE 53


  C:206EH         LINE#         355
  C:206EH         LINE#         356
  C:2071H         LINE#         357
  C:2074H         LINE#         358
  C:2076H         LINE#         359
  C:2078H         LINE#         360
  C:207BH         LINE#         361
  C:207BH         LINE#         362
  C:207BH         LINE#         364
  C:2081H         LINE#         365
  C:2081H         LINE#         366
  C:2085H         LINE#         367
  C:2085H         LINE#         368
  C:2088H         LINE#         369
  C:2088H         LINE#         370
  C:208AH         LINE#         371
  C:208AH         LINE#         372
  C:208AH         LINE#         373
  C:208DH         LINE#         374
  C:208DH         LINE#         375
  C:208FH         LINE#         376
  C:2092H         LINE#         377
  C:2092H         LINE#         378
  C:2094H         LINE#         379
  C:2098H         LINE#         380
  C:209BH         LINE#         381
  C:209BH         LINE#         382
  C:209BH         LINE#         383
  C:209BH         LINE#         385
  C:209FH         LINE#         386
  C:209FH         LINE#         387
  C:20A2H         LINE#         388
  C:20A2H         LINE#         389
  C:20A5H         LINE#         390
  C:20A5H         LINE#         391
  C:20A5H         LINE#         392
  C:20A9H         LINE#         393
  C:20A9H         LINE#         394
  C:20ACH         LINE#         395
  C:20ACH         LINE#         396
  C:20AEH         LINE#         397
  C:20AEH         LINE#         398
  C:20AEH         LINE#         400
  C:20B7H         LINE#         401
  C:20B7H         LINE#         402
  C:20BAH         LINE#         403
  C:20BAH         LINE#         404
  C:20BCH         LINE#         405
  C:20BCH         LINE#         406
  C:20BFH         LINE#         408
  C:20BFH         LINE#         409
  C:20C8H         LINE#         410
  C:20C8H         LINE#         411
  C:20ECH         LINE#         412
  C:20ECH         LINE#         413
  C:20F4H         LINE#         414
  C:2104H         LINE#         415
BL51 BANKED LINKER/LOCATER V6.05                                                      08/18/2014  14:10:06  PAGE 54


  C:210CH         LINE#         416
  C:211DH         LINE#         417
  C:2125H         LINE#         418
  C:2136H         LINE#         419
  C:213EH         LINE#         420
  C:214FH         LINE#         421
  C:2157H         LINE#         422
  C:2168H         LINE#         423
  C:2170H         LINE#         424
  C:2181H         LINE#         425
  C:2189H         LINE#         426
  C:219AH         LINE#         427
  C:219DH         LINE#         428
  C:219FH         LINE#         430
  C:219FH         LINE#         431
  C:21A5H         LINE#         432
  C:21A5H         LINE#         433
  C:21A5H         LINE#         434
  C:21A5H         LINE#         435
  C:21A5H         LINE#         436
  -------         ENDPROC       TIMER0INT
  -------         PROC          _BUS0OUTPUTDATA
  X:0288H         SYMBOL        pbyData
  -------         DO            
  X:028BH         SYMBOL        byTemp
  -------         ENDDO         
  C:3D93H         LINE#         453
  C:3D9EH         LINE#         454
  C:3D9EH         LINE#         455
  C:3DA2H         LINE#         457
  C:3DA6H         LINE#         458
  C:3DC4H         LINE#         459
  C:3DC4H         LINE#         460
  C:3DC9H         LINE#         461
  C:3DCCH         LINE#         462
  C:3DCCH         LINE#         463
  C:3DD6H         LINE#         464
  C:3DD6H         LINE#         465
  C:3DF1H         LINE#         466
  C:3E02H         LINE#         467
  C:3E04H         LINE#         468
  C:3E09H         LINE#         469
  C:3E0BH         LINE#         470
  -------         ENDPROC       _BUS0OUTPUTDATA
  -------         PROC          L?0221
  -------         ENDPROC       L?0221
  -------         PROC          _ADDRCOMPARE
  D:0001H         SYMBOL        pstBusFreq
  C:4797H         LINE#         486
  C:4797H         LINE#         487
  C:4797H         LINE#         488
  C:47A8H         LINE#         489
  C:47A8H         LINE#         490
  C:47AAH         LINE#         491
  C:47AAH         LINE#         492
  C:47BBH         LINE#         493
  C:47BBH         LINE#         494
BL51 BANKED LINKER/LOCATER V6.05                                                      08/18/2014  14:10:06  PAGE 55


  C:47BDH         LINE#         495
  C:47BDH         LINE#         496
  C:47CEH         LINE#         497
  C:47CEH         LINE#         498
  C:47D0H         LINE#         499
  C:47D0H         LINE#         500
  C:47D1H         LINE#         501
  -------         ENDPROC       _ADDRCOMPARE
  -------         PROC          _DIRADDRCOMPARE
  D:0001H         SYMBOL        pstBusFreq
  C:4A13H         LINE#         517
  C:4A13H         LINE#         518
  C:4A13H         LINE#         519
  C:4A21H         LINE#         520
  C:4A21H         LINE#         521
  C:4A23H         LINE#         522
  C:4A23H         LINE#         523
  C:4A31H         LINE#         524
  C:4A31H         LINE#         525
  C:4A33H         LINE#         526
  C:4A33H         LINE#         527
  C:4A41H         LINE#         528
  C:4A41H         LINE#         529
  C:4A43H         LINE#         530
  C:4A43H         LINE#         531
  C:4A44H         LINE#         532
  -------         ENDPROC       _DIRADDRCOMPARE
  -------         PROC          _MAKECH0TIMEROUT
  D:0007H         SYMBOL        byTimerOut
  D:0005H         SYMBOL        byTimerOutCount
  C:5026H         LINE#         548
  C:5026H         LINE#         549
  C:5026H         LINE#         550
  C:502BH         LINE#         551
  C:502DH         LINE#         552
  C:5030H         LINE#         553
  -------         ENDPROC       _MAKECH0TIMEROUT
  -------         PROC          SYSRESET
  C:0011H         LINE#         571
  C:0011H         LINE#         572
  C:0011H         LINE#         574
  -------         ENDPROC       SYSRESET
  -------         PROC          L?0220
  -------         ENDPROC       L?0220
  -------         PROC          SAVEPARAMETER
  C:3F0FH         LINE#         591
  C:3F0FH         LINE#         592
  C:3F0FH         LINE#         593
  C:3F16H         LINE#         594
  C:3F20H         LINE#         595
  C:3F26H         LINE#         596
  C:3F2BH         LINE#         597
  C:3F31H         LINE#         598
  C:3F36H         LINE#         599
  C:3F40H         LINE#         600
  C:3F40H         LINE#         601
  C:3F61H         LINE#         602
BL51 BANKED LINKER/LOCATER V6.05                                                      08/18/2014  14:10:06  PAGE 56


  C:3F63H         LINE#         603
  -------         ENDPROC       SAVEPARAMETER
  -------         PROC          READPARAMETER
  C:44D0H         LINE#         622
  C:44D0H         LINE#         623
  C:44D0H         LINE#         625
  C:44D7H         LINE#         626
  C:44E1H         LINE#         627
  C:44E7H         LINE#         629
  C:44ECH         LINE#         630
  C:44F6H         LINE#         631
  C:44F6H         LINE#         632
  C:4517H         LINE#         633
  C:4519H         LINE#         634
  -------         ENDPROC       READPARAMETER
  -------         PROC          INITPARAMETER
  C:488BH         LINE#         651
  C:488BH         LINE#         652
  C:488BH         LINE#         653
  C:4890H         LINE#         654
  C:4899H         LINE#         655
  C:4899H         LINE#         656
  C:489CH         LINE#         657
  C:489CH         LINE#         659
  C:489CH         LINE#         660
  C:48A2H         LINE#         661
  C:48A6H         LINE#         662
  C:48A9H         LINE#         663
  C:48ACH         LINE#         665
  C:48B0H         LINE#         666
  C:48B2H         LINE#         667
  C:48B4H         LINE#         668
  C:48B8H         LINE#         669
  C:48BCH         LINE#         670
  C:48C3H         LINE#         671
  C:48C6H         LINE#         672
  C:48C6H         LINE#         673
  -------         ENDPROC       INITPARAMETER
  -------         PROC          BUS0RECDEAL
  -------         DO            
  X:0284H         SYMBOL        x
  X:0285H         SYMBOL        y
  X:0286H         SYMBOL        temp1
  X:0287H         SYMBOL        temp2
  -------         ENDDO         
  C:004EH         LINE#         691
  C:004EH         LINE#         692
  C:004EH         LINE#         695
  C:0052H         LINE#         696
  C:0065H         LINE#         697
  C:0067H         LINE#         698
  C:006CH         LINE#         701
  C:007AH         LINE#         702
  C:007AH         LINE#         704
  C:007AH         LINE#         706
  C:00EBH         LINE#         707
  C:00EBH         LINE#         708
BL51 BANKED LINKER/LOCATER V6.05                                                      08/18/2014  14:10:06  PAGE 57


  C:00EBH         LINE#         709
  C:00F1H         LINE#         710
  C:00F1H         LINE#         711
  C:00F3H         LINE#         712
  C:00F9H         LINE#         713
  C:011DH         LINE#         716
  C:011DH         LINE#         717
  C:012BH         LINE#         718
  C:013AH         LINE#         719
  C:0141H         LINE#         721
  C:014EH         LINE#         722
  C:015DH         LINE#         723
  C:0164H         LINE#         725
  C:0171H         LINE#         726
  C:0180H         LINE#         727
  C:0187H         LINE#         729
  C:0187H         LINE#         730
  C:0187H         LINE#         731
  C:0187H         LINE#         732
  C:018AH         LINE#         733
  C:018AH         LINE#         735
  C:0191H         LINE#         736
  C:0191H         LINE#         737
  C:0197H         LINE#         738
  C:0199H         LINE#         739
  C:019BH         LINE#         741
  C:019BH         LINE#         742
  C:01A0H         LINE#         743
  C:01A0H         LINE#         746
  C:01A7H         LINE#         747
  C:01A7H         LINE#         748
  C:01A9H         LINE#         749
  C:01AFH         LINE#         750
  C:01AFH         LINE#         751
  C:01B1H         LINE#         752
  C:01B4H         LINE#         753
  C:01B6H         LINE#         754
  C:01B9H         LINE#         756
  C:01B9H         LINE#         757
  C:01BDH         LINE#         758
  C:01BDH         LINE#         759
  C:01BDH         LINE#         760
  C:01BDH         LINE#         761
  C:01C0H         LINE#         762
  C:01C0H         LINE#         763
  C:01C0H         LINE#         764
  C:01C0H         LINE#         765
  C:01C0H         LINE#         766
  C:01C5H         LINE#         767
  C:01C8H         LINE#         768
  C:01D1H         LINE#         769
  C:01D3H         LINE#         770
  C:01D4H         LINE#         771
  C:01D4H         LINE#         772
  C:01D4H         LINE#         773
  C:01D4H         LINE#         774
  C:01D4H         LINE#         775
BL51 BANKED LINKER/LOCATER V6.05                                                      08/18/2014  14:10:06  PAGE 58


  C:01D9H         LINE#         776
  C:01D9H         LINE#         777
  C:01DCH         LINE#         778
  C:01DCH         LINE#         783
  C:01DCH         LINE#         784
  C:01DCH         LINE#         785
  C:01E1H         LINE#         786
  C:01E9H         LINE#         787
  C:01ECH         LINE#         788
  C:01ECH         LINE#         789
  C:01ECH         LINE#         790
  C:01ECH         LINE#         791
  C:01ECH         LINE#         792
  C:01F3H         LINE#         793
  C:01F8H         LINE#         794
  C:01F8H         LINE#         795
  C:01FBH         LINE#         796
  C:01FBH         LINE#         797
  C:0203H         LINE#         798
  C:020BH         LINE#         799
  C:0213H         LINE#         800
  C:021BH         LINE#         801
  C:0223H         LINE#         802
  C:022BH         LINE#         803
  C:0236H         LINE#         804
  C:0236H         LINE#         805
  C:023EH         LINE#         806
  C:0246H         LINE#         807
  C:024CH         LINE#         808
  C:0254H         LINE#         809
  C:028CH         LINE#         810
  C:02C4H         LINE#         813
  C:02CBH         LINE#         814
  C:02D3H         LINE#         815
  C:02D9H         LINE#         816
  C:02E1H         LINE#         817
  C:0319H         LINE#         818
  C:0351H         LINE#         821
  C:0358H         LINE#         822
  C:0360H         LINE#         823
  C:0366H         LINE#         824
  C:036EH         LINE#         825
  C:03A6H         LINE#         826
  C:03DEH         LINE#         829
  C:03E8H         LINE#         830
  C:03F0H         LINE#         831
  C:03F6H         LINE#         832
  C:03FEH         LINE#         833
  C:0436H         LINE#         834
  C:046EH         LINE#         837
  C:0475H         LINE#         838
  C:047DH         LINE#         839
  C:0483H         LINE#         840
  C:048BH         LINE#         841
  C:04C3H         LINE#         842
  C:04FBH         LINE#         844
  C:04FBH         LINE#         845
BL51 BANKED LINKER/LOCATER V6.05                                                      08/18/2014  14:10:06  PAGE 59


  C:04FBH         LINE#         847
  C:04FBH         LINE#         849
  C:050CH         LINE#         852
  C:050CH         LINE#         853
  C:050EH         LINE#         854
  C:050EH         LINE#         856
  C:050FH         LINE#         857
  C:050FH         LINE#         858
  C:050FH         LINE#         859
  C:0511H         LINE#         861
  C:0511H         LINE#         862
  C:051CH         LINE#         863
  C:051CH         LINE#         864
  C:0520H         LINE#         865
  C:0522H         LINE#         866
  C:0529H         LINE#         867
  C:0529H         LINE#         868
  C:052AH         LINE#         870
  C:052AH         LINE#         871
  C:0535H         LINE#         872
  C:0535H         LINE#         873
  C:053DH         LINE#         874
  C:053DH         LINE#         875
  C:053EH         LINE#         876
  C:053EH         LINE#         877
  C:053EH         LINE#         878
  C:053EH         LINE#         879
  C:056BH         LINE#         882
  C:056BH         LINE#         883
  C:0572H         LINE#         884
  C:0575H         LINE#         885
  C:0575H         LINE#         886
  C:0575H         LINE#         887
  C:0575H         LINE#         888
  C:0580H         LINE#         889
  C:0580H         LINE#         890
  C:0584H         LINE#         891
  C:0585H         LINE#         892
  C:058DH         LINE#         893
  C:058DH         LINE#         894
  C:058FH         LINE#         895
  C:0598H         LINE#         896
  C:0598H         LINE#         897
  C:059AH         LINE#         898
  C:059AH         LINE#         899
  C:059AH         LINE#         900
  C:059BH         LINE#         902
  C:059BH         LINE#         903
  C:059FH         LINE#         904
  C:05A0H         LINE#         906
  C:05A0H         LINE#         907
  C:05A6H         LINE#         908
  C:05A8H         LINE#         910
  C:05A8H         LINE#         911
  C:05A8H         LINE#         913
  C:05A8H         LINE#         914
  C:05A8H         LINE#         916
BL51 BANKED LINKER/LOCATER V6.05                                                      08/18/2014  14:10:06  PAGE 60


  C:05A8H         LINE#         917
  C:05A8H         LINE#         919
  C:05A8H         LINE#         920
  C:05A8H         LINE#         921
  C:05A8H         LINE#         922
  C:05AAH         LINE#         924
  C:05AAH         LINE#         925
  C:05B8H         LINE#         926
  C:05C7H         LINE#         928
  C:05D5H         LINE#         929
  C:05E4H         LINE#         931
  C:05F2H         LINE#         932
  C:0601H         LINE#         934
  C:0608H         LINE#         935
  C:060CH         LINE#         936
  C:0610H         LINE#         937
  C:0611H         LINE#         939
  C:0611H         LINE#         940
  C:061FH         LINE#         941
  C:061FH         LINE#         942
  C:0621H         LINE#         943
  C:0621H         LINE#         944
  C:0622H         LINE#         945
  C:0622H         LINE#         946
  C:0630H         LINE#         947
  C:0630H         LINE#         948
  C:0632H         LINE#         949
  C:0632H         LINE#         950
  C:0633H         LINE#         951
  C:0633H         LINE#         952
  C:063EH         LINE#         953
  C:063EH         LINE#         954
  C:063EH         LINE#         955
  C:063EH         LINE#         956
  C:063EH         LINE#         957
  C:0641H         LINE#         958
  C:0644H         LINE#         959
  C:0644H         LINE#         960
  C:0644H         LINE#         961
  C:0644H         LINE#         962
  C:064CH         LINE#         963
  C:064CH         LINE#         964
  C:064FH         LINE#         966
  C:064FH         LINE#         967
  C:0654H         LINE#         968
  C:0654H         LINE#         969
  C:0656H         LINE#         971
  C:0656H         LINE#         972
  C:065EH         LINE#         973
  C:065EH         LINE#         974
  C:0662H         LINE#         976
  C:0665H         LINE#         977
  C:0667H         LINE#         978
  C:0669H         LINE#         979
  C:066BH         LINE#         980
  C:066EH         LINE#         981
  C:066EH         LINE#         982
BL51 BANKED LINKER/LOCATER V6.05                                                      08/18/2014  14:10:06  PAGE 61


  C:066FH         LINE#         984
  C:066FH         LINE#         985
  C:0677H         LINE#         986
  C:067FH         LINE#         987
  C:0687H         LINE#         988
  C:068BH         LINE#         989
  C:068FH         LINE#         990
  C:0692H         LINE#         991
  C:0694H         LINE#         992
  C:069DH         LINE#         993
  C:069DH         LINE#         994
  C:069DH         LINE#         995
  C:06D3H         LINE#         996
  C:06D3H         LINE#         997
  C:06D3H         LINE#         998
  C:06DDH         LINE#         999
  C:06DFH         LINE#         1000
  C:06DFH         LINE#         1001
  C:06E9H         LINE#         1002
  C:06EBH         LINE#         1003
  C:06EBH         LINE#         1004
  C:06F5H         LINE#         1005
  C:06F7H         LINE#         1006
  C:06F7H         LINE#         1007
  C:06FCH         LINE#         1008
  C:06FEH         LINE#         1009
  C:06FEH         LINE#         1010
  C:0708H         LINE#         1011
  C:070AH         LINE#         1012
  C:070AH         LINE#         1013
  C:070FH         LINE#         1014
  C:0711H         LINE#         1015
  C:0711H         LINE#         1016
  C:071BH         LINE#         1017
  C:071DH         LINE#         1018
  C:071DH         LINE#         1019
  C:0722H         LINE#         1020
  C:0724H         LINE#         1021
  C:0724H         LINE#         1022
  C:072DH         LINE#         1023
  C:072DH         LINE#         1024
  C:072DH         LINE#         1027
  C:072DH         LINE#         1028
  C:0730H         LINE#         1029
  C:0733H         LINE#         1030
  C:0733H         LINE#         1031
  C:0733H         LINE#         1032
  C:0733H         LINE#         1034
  -------         ENDPROC       BUS0RECDEAL
  -------         PROC          BUS0SENDDEAL
  C:4A45H         LINE#         1052
  C:4A45H         LINE#         1053
  C:4A45H         LINE#         1055
  C:4A49H         LINE#         1056
  C:4A5CH         LINE#         1057
  C:4A5EH         LINE#         1058
  C:4A63H         LINE#         1065
BL51 BANKED LINKER/LOCATER V6.05                                                      08/18/2014  14:10:06  PAGE 62


  C:4A6BH         LINE#         1066
  C:4A6BH         LINE#         1067
  C:4A6BH         LINE#         1068
  C:4A6EH         LINE#         1069
  C:4A6EH         LINE#         1070
  C:4A75H         LINE#         1071
  C:4A75H         LINE#         1072
  C:4A75H         LINE#         1073
  C:4A75H         LINE#         1074
  C:4A75H         LINE#         1076
  C:4A75H         LINE#         1077
  -------         ENDPROC       BUS0SENDDEAL
  -------         PROC          BUS0MANAGE
  C:4DE1H         LINE#         1093
  C:4DE1H         LINE#         1094
  C:4DE1H         LINE#         1095
  C:4DE1H         LINE#         1096
  C:4DE1H         LINE#         1097
  C:4DE4H         LINE#         1098
  C:4DE4H         LINE#         1099
  C:4DEBH         LINE#         1100
  C:4DEBH         LINE#         1101
  C:4DEEH         LINE#         1102
  C:4DEEH         LINE#         1103
  C:4DF5H         LINE#         1104
  C:4DF5H         LINE#         1105
  C:4DFCH         LINE#         1106
  -------         ENDPROC       BUS0MANAGE
  -------         PROC          TIMEROUTDEAL
  -------         DO            
  X:0284H         SYMBOL        x
  X:0285H         SYMBOL        y
  C:2EFAH         SYMBOL        TIMER0OUTDEAL
  -------         ENDDO         
  C:2EE2H         LINE#         1124
  C:2EE2H         LINE#         1125
  C:2EE2H         LINE#         1128
  C:2EE8H         LINE#         1129
  C:2EE8H         LINE#         1130
  C:2EEAH         LINE#         1131
  C:2EEDH         LINE#         1132
  C:2EEDH         LINE#         1133
  C:2EF1H         LINE#         1134
  C:2EF1H         LINE#         1135
  C:2EF1H         LINE#         1136
  C:2EF1H         LINE#         1138
  C:2EF1H         LINE#         1139
  C:2EF7H         LINE#         1140
  C:2EFAH         LINE#         1141
  C:2EFAH         LINE#         1142
  C:2EFAH         LINE#         1143
  C:2EFDH         LINE#         1144
  C:2EFDH         LINE#         1145
  C:2F05H         LINE#         1146
  C:2F0DH         LINE#         1147
  C:2F15H         LINE#         1148
  C:2F19H         LINE#         1149
BL51 BANKED LINKER/LOCATER V6.05                                                      08/18/2014  14:10:06  PAGE 63


  C:2F21H         LINE#         1150
  C:2F29H         LINE#         1151
  C:2F31H         LINE#         1152
  C:2F3AH         LINE#         1153
  C:2F3AH         LINE#         1155
  C:2F3CH         LINE#         1157
  C:2F3CH         LINE#         1158
  C:2F42H         LINE#         1159
  C:2F42H         LINE#         1160
  C:2F42H         LINE#         1161
  C:2F42H         LINE#         1162
  C:2F42H         LINE#         1164
  C:2F4AH         LINE#         1165
  C:2F4AH         LINE#         1166
  C:2F50H         LINE#         1167
  C:2F5AH         LINE#         1168
  C:2F5AH         LINE#         1169
  C:2F5CH         LINE#         1170
  C:2F60H         LINE#         1171
  C:2F60H         LINE#         1172
  C:2F60H         LINE#         1174
  C:2F68H         LINE#         1175
  C:2F68H         LINE#         1176
  C:2F6BH         LINE#         1177
  C:2F71H         LINE#         1178
  C:2F71H         LINE#         1179
  C:2F7BH         LINE#         1180
  C:2F7DH         LINE#         1181
  C:2F80H         LINE#         1182
  C:2F80H         LINE#         1183
  C:2FA0H         LINE#         1184
  C:2FA2H         LINE#         1186
  C:2FA2H         LINE#         1187
  C:2FB5H         LINE#         1188
  C:2FB5H         LINE#         1190
  C:2FB5H         LINE#         1191
  C:2FB5H         LINE#         1192
  C:2FBFH         LINE#         1193
  C:2FBFH         LINE#         1194
  C:2FCDH         LINE#         1195
  C:2FCDH         LINE#         1196
  C:2FD7H         LINE#         1197
  C:2FD7H         LINE#         1198
  C:2FD9H         LINE#         1199
  C:2FD9H         LINE#         1200
  C:2FD9H         LINE#         1201
  C:2FD9H         LINE#         1203
  C:2FE3H         LINE#         1204
  C:2FE3H         LINE#         1205
  C:2FF1H         LINE#         1206
  C:2FF1H         LINE#         1207
  C:2FF5H         LINE#         1208
  C:2FFBH         LINE#         1209
  C:2FFEH         LINE#         1210
  C:2FFEH         LINE#         1211
  C:2FFEH         LINE#         1212
  -------         ENDPROC       TIMEROUTDEAL
BL51 BANKED LINKER/LOCATER V6.05                                                      08/18/2014  14:10:06  PAGE 64


  -------         PROC          TIMEROUTMANAGER
  C:4D66H         LINE#         1228
  C:4D66H         LINE#         1229
  C:4D66H         LINE#         1230
  C:4D66H         LINE#         1231
  C:4D66H         LINE#         1232
  C:4D6DH         LINE#         1233
  C:4D73H         LINE#         1234
  C:4D73H         LINE#         1235
  C:4D7AH         LINE#         1236
  C:4D7CH         LINE#         1238
  C:4D7CH         LINE#         1239
  C:4D83H         LINE#         1240
  C:4D83H         LINE#         1241
  -------         ENDPROC       TIMEROUTMANAGER
  -------         ENDMOD        SINGLEBUS

  -------         MODULE        SPI
  C:0000H         SYMBOL        _ICE_DUMMY_
  D:0080H         PUBLIC        P0
  D:0090H         PUBLIC        P1
  D:00A0H         PUBLIC        P2
  D:00B0H         PUBLIC        P3
  D:00C0H         PUBLIC        P4
  D:00C8H         PUBLIC        P5
  D:00CEH         PUBLIC        SPCTL
  D:00A8H         PUBLIC        IE
  D:00B8H         PUBLIC        IP
  C:5002H         PUBLIC        SpiNormalMode
  D:00D8H         PUBLIC        CCON
  D:0098H         PUBLIC        SCON
  D:0088H         PUBLIC        TCON
  B:0090H.6       PUBLIC        MISO
  D:00AFH         PUBLIC        IE2
  D:00E0H         PUBLIC        ACC
  C:500EH         PUBLIC        SpiLcdMode
  C:50A6H         PUBLIC        SpiInt
  D:00CDH         PUBLIC        SPSTAT
  C:4FDCH         PUBLIC        _SPI_WriteByte
  D:00D0H         PUBLIC        PSW
  D:00CFH         PUBLIC        SPDAT
  -------         PROC          SPINORMALMODE
  C:5002H         LINE#         41
  C:5002H         LINE#         42
  C:5002H         LINE#         46
  C:5005H         LINE#         47
  C:5008H         LINE#         48
  C:500BH         LINE#         49
  C:500DH         LINE#         50
  -------         ENDPROC       SPINORMALMODE
  -------         PROC          SPILCDMODE
  C:500EH         LINE#         54
  C:500EH         LINE#         55
  C:500EH         LINE#         57
  C:5011H         LINE#         58
  C:5014H         LINE#         59
  C:5017H         LINE#         60
BL51 BANKED LINKER/LOCATER V6.05                                                      08/18/2014  14:10:06  PAGE 65


  C:5019H         LINE#         62
  -------         ENDPROC       SPILCDMODE
  -------         PROC          SPIINT
  C:50A6H         LINE#         82
  C:50A6H         LINE#         84
  C:50A9H         LINE#         85
  C:50ACH         LINE#         86
  -------         ENDPROC       SPIINT
  -------         PROC          _SPI_WRITEBYTE
  D:0007H         SYMBOL        dat
  C:4FDCH         LINE#         104
  C:4FDCH         LINE#         105
  C:4FDCH         LINE#         107
  C:4FDEH         LINE#         108
  C:4FE3H         LINE#         109
  C:4FE6H         LINE#         110
  C:4FE8H         LINE#         111
  -------         ENDPROC       _SPI_WRITEBYTE
  -------         ENDMOD        SPI

  -------         MODULE        USART
  C:0000H         SYMBOL        _ICE_DUMMY_
  D:0080H         PUBLIC        P0
  D:00B2H         PUBLIC        P3M0
  D:0090H         PUBLIC        P1
  D:00B1H         PUBLIC        P3M1
  D:00A0H         PUBLIC        P2
  D:00B0H         PUBLIC        P3
  D:00C0H         PUBLIC        P4
  D:00C8H         PUBLIC        P5
  X:0000H         PUBLIC        stUsartCfg
  D:00A8H         PUBLIC        IE
  C:3E0CH         PUBLIC        _CheckPsk
  B:00A8H.4       PUBLIC        ES
  D:00B8H         PUBLIC        IP
  B:0098H.0       PUBLIC        RI
  B:0098H.1       PUBLIC        TI
  D:00D8H         PUBLIC        CCON
  B:0027H.0       PUBLIC        bUsart0RecFinish
  C:3C16H         PUBLIC        UsartInit
  D:0099H         PUBLIC        SBUF
  D:0087H         PUBLIC        PCON
  D:0098H         PUBLIC        SCON
  B:0027H.1       PUBLIC        bRS485DataError
  D:0088H         PUBLIC        TCON
  D:008EH         PUBLIC        AUXR
  D:00E0H         PUBLIC        ACC
  C:1BC0H         PUBLIC        Usart0RecDeal
  X:000FH         PUBLIC        byUsart0RecBuf
  C:50B3H         PUBLIC        _Send_Data_Byte
  B:0098H.4       PUBLIC        REN
  D:009AH         PUBLIC        S2CON
  C:4F97H         PUBLIC        _Send_Data
  D:009CH         PUBLIC        BRT
  C:4030H         PUBLIC        _GetPskCrc
  C:29E2H         PUBLIC        UART0
  C:4E1AH         PUBLIC        UART1
BL51 BANKED LINKER/LOCATER V6.05                                                      08/18/2014  14:10:06  PAGE 66


  B:00B0H.2       PUBLIC        MIC_CTRL
  D:00D0H         PUBLIC        PSW
  -------         PROC          USARTINIT
  C:3C16H         LINE#         54
  C:3C16H         LINE#         55
  C:3C16H         LINE#         56
  C:3C19H         LINE#         59
  C:3C1CH         LINE#         60
  C:3C1FH         LINE#         63
  C:3C29H         LINE#         64
  C:3C2EH         LINE#         65
  C:3C30H         LINE#         66
  C:3C34H         LINE#         67
  C:3C38H         LINE#         68
  C:3C3AH         LINE#         69
  C:3C46H         LINE#         71
  C:3C49H         LINE#         81
  C:3C4CH         LINE#         82
  C:3C4FH         LINE#         84
  C:3C5FH         LINE#         85
  C:3C5FH         LINE#         86
  C:3C62H         LINE#         88
  C:3C6EH         LINE#         91
  C:3C70H         LINE#         93
  C:3C70H         LINE#         94
  C:3C73H         LINE#         96
  C:3C8EH         LINE#         97
  C:3C8EH         LINE#         99
  C:3C91H         LINE#         101
  C:3C93H         LINE#         102
  C:3C95H         LINE#         103
  C:3C97H         LINE#         104
  C:3C99H         LINE#         105
  -------         ENDPROC       USARTINIT
  -------         PROC          UART0
  -------         DO            
  D:0007H         SYMBOL        byTemp
  -------         ENDDO         
  C:29E2H         LINE#         122
  C:29FBH         LINE#         125
  C:2A01H         LINE#         126
  C:2A01H         LINE#         127
  C:2A03H         LINE#         128
  C:2A05H         LINE#         129
  C:2A0FH         LINE#         130
  C:2A0FH         LINE#         131
  C:2A15H         LINE#         132
  C:2A15H         LINE#         133
  C:2A18H         LINE#         134
  C:2A1BH         LINE#         136
  C:2A1BH         LINE#         137
  C:2A1BH         LINE#         138
  C:2A21H         LINE#         139
  C:2A39H         LINE#         140
  C:2A50H         LINE#         141
  C:2A50H         LINE#         142
  C:2A50H         LINE#         143
BL51 BANKED LINKER/LOCATER V6.05                                                      08/18/2014  14:10:06  PAGE 67


  C:2A54H         LINE#         144
  C:2A54H         LINE#         145
  C:2A5AH         LINE#         147
  C:2A60H         LINE#         148
  C:2A63H         LINE#         150
  C:2A63H         LINE#         151
  C:2A67H         LINE#         152
  C:2A67H         LINE#         153
  C:2A6AH         LINE#         154
  C:2A6AH         LINE#         155
  C:2A75H         LINE#         156
  C:2A75H         LINE#         157
  C:2A7BH         LINE#         158
  C:2A80H         LINE#         159
  C:2A80H         LINE#         160
  C:2A83H         LINE#         161
  C:2A83H         LINE#         162
  C:2A89H         LINE#         163
  C:2A8EH         LINE#         164
  C:2A8EH         LINE#         165
  C:2A96H         LINE#         166
  C:2A99H         LINE#         167
  C:2A9FH         LINE#         168
  C:2A9FH         LINE#         170
  C:2AAEH         LINE#         171
  C:2ABEH         LINE#         172
  C:2ABEH         LINE#         173
  C:2AC1H         LINE#         174
  C:2ACFH         LINE#         175
  C:2AD1H         LINE#         177
  C:2AD1H         LINE#         178
  C:2AD3H         LINE#         179
  C:2AD4H         LINE#         180
  C:2AD4H         LINE#         181
  C:2AD4H         LINE#         182
  C:2AD6H         LINE#         183
  C:2AD6H         LINE#         184
  C:2AE4H         LINE#         185
  C:2AE4H         LINE#         186
  C:2AE8H         LINE#         187
  C:2AE8H         LINE#         188
  C:2AEAH         LINE#         189
  C:2AEAH         LINE#         190
  C:2AEFH         LINE#         191
  C:2AF0H         LINE#         192
  C:2AF0H         LINE#         193
  C:2AF2H         LINE#         194
  C:2AF2H         LINE#         195
  C:2AF7H         LINE#         196
  C:2AFBH         LINE#         197
  C:2AFDH         LINE#         198
  C:2AFDH         LINE#         199
  C:2AFDH         LINE#         200
  C:2B00H         LINE#         201
  C:2B00H         LINE#         202
  C:2B02H         LINE#         203
  C:2B10H         LINE#         204
BL51 BANKED LINKER/LOCATER V6.05                                                      08/18/2014  14:10:06  PAGE 68


  C:2B1EH         LINE#         205
  C:2B28H         LINE#         206
  C:2B28H         LINE#         207
  C:2B41H         LINE#         209
  C:2B41H         LINE#         210
  C:2B41H         LINE#         211
  -------         ENDPROC       UART0
  -------         PROC          UART1
  C:4E1AH         LINE#         230
  C:4E1EH         LINE#         232
  C:4E23H         LINE#         233
  C:4E23H         LINE#         234
  C:4E26H         LINE#         235
  C:4E28H         LINE#         236
  C:4E2DH         LINE#         237
  C:4E2DH         LINE#         238
  C:4E30H         LINE#         239
  C:4E30H         LINE#         240
  -------         ENDPROC       UART1
  -------         PROC          _GETPSKCRC
  X:0302H         SYMBOL        pstDataFreq
  -------         DO            
  X:0305H         SYMBOL        pbyData
  X:0308H         SYMBOL        uiLen
  D:0005H         SYMBOL        byCrc
  -------         ENDDO         
  C:4030H         LINE#         257
  C:403BH         LINE#         258
  C:403BH         LINE#         261
  C:403DH         LINE#         263
  C:404DH         LINE#         264
  C:406BH         LINE#         265
  C:4079H         LINE#         266
  C:4079H         LINE#         267
  C:408EH         LINE#         268
  C:4090H         LINE#         269
  C:4092H         LINE#         270
  -------         ENDPROC       _GETPSKCRC
  -------         PROC          _CHECKPSK
  X:0285H         SYMBOL        pstDataFreq
  -------         DO            
  X:0288H         SYMBOL        pbyData
  X:028BH         SYMBOL        uiLen
  D:0005H         SYMBOL        byCrc
  -------         ENDDO         
  C:3E0CH         LINE#         286
  C:3E17H         LINE#         287
  C:3E17H         LINE#         290
  C:3E19H         LINE#         292
  C:3E29H         LINE#         293
  C:3E47H         LINE#         294
  C:3E55H         LINE#         295
  C:3E55H         LINE#         296
  C:3E6AH         LINE#         297
  C:3E6CH         LINE#         298
  C:3E7DH         LINE#         299
  C:3E7DH         LINE#         300
BL51 BANKED LINKER/LOCATER V6.05                                                      08/18/2014  14:10:06  PAGE 69


  C:3E80H         LINE#         301
  C:3E80H         LINE#         302
  C:3E82H         LINE#         303
  -------         ENDPROC       _CHECKPSK
  -------         PROC          USART0RECDEAL
  -------         DO            
  D:0001H         SYMBOL        pstDataFreq
  X:0283H         SYMBOL        uiDataLen
  -------         ENDDO         
  C:1BC0H         LINE#         489
  C:1BC0H         LINE#         490
  C:1BC0H         LINE#         494
  C:1BD5H         LINE#         496
  C:1BDDH         LINE#         497
  C:1BE5H         LINE#         498
  C:1BEDH         LINE#         499
  C:1BF3H         LINE#         503
  C:1C33H         LINE#         507
  C:1C33H         LINE#         509
  C:1C45H         LINE#         510
  C:1C45H         LINE#         511
  C:1C4BH         LINE#         512
  C:1C4BH         LINE#         513
  C:1C4BH         LINE#         514
  C:1C4BH         LINE#         515
  C:1C4BH         LINE#         516
  C:1C4EH         LINE#         518
  C:1C4EH         LINE#         519
  C:1C55H         LINE#         520
  C:1C55H         LINE#         521
  C:1C5DH         LINE#         522
  C:1C5DH         LINE#         524
  C:1C75H         LINE#         525
  C:1C75H         LINE#         526
  C:1C75H         LINE#         527
  C:1C7CH         LINE#         528
  C:1C7CH         LINE#         533
  C:1C98H         LINE#         535
  C:1CACH         LINE#         538
  C:1CAEH         LINE#         540
  C:1CAEH         LINE#         541
  C:1CD1H         LINE#         542
  C:1CEBH         LINE#         545
  C:1CEBH         LINE#         547
  C:1CF6H         LINE#         548
  C:1CF6H         LINE#         549
  C:1D0DH         LINE#         550
  C:1D18H         LINE#         551
  C:1D18H         LINE#         552
  C:1D1DH         LINE#         553
  C:1D1FH         LINE#         554
  C:1D1FH         LINE#         555
  C:1D1FH         LINE#         556
  C:1D1FH         LINE#         557
  C:1D1FH         LINE#         558
  C:1D22H         LINE#         560
  C:1D22H         LINE#         561
BL51 BANKED LINKER/LOCATER V6.05                                                      08/18/2014  14:10:06  PAGE 70


  C:1D29H         LINE#         562
  C:1D29H         LINE#         567
  C:1D45H         LINE#         569
  C:1D59H         LINE#         572
  C:1D5BH         LINE#         574
  C:1D5BH         LINE#         575
  C:1D84H         LINE#         576
  C:1D9EH         LINE#         579
  C:1D9EH         LINE#         581
  C:1DA9H         LINE#         582
  C:1DA9H         LINE#         583
  C:1DC0H         LINE#         584
  C:1DCBH         LINE#         585
  C:1DCBH         LINE#         586
  C:1DD0H         LINE#         587
  C:1DD2H         LINE#         588
  C:1DD2H         LINE#         589
  C:1DD2H         LINE#         590
  C:1DD2H         LINE#         591
  C:1DD2H         LINE#         592
  C:1DD5H         LINE#         593
  C:1DD5H         LINE#         594
  C:1DDCH         LINE#         595
  C:1DDCH         LINE#         600
  C:1DF8H         LINE#         602
  C:1E0CH         LINE#         605
  C:1E0EH         LINE#         607
  C:1E0EH         LINE#         608
  C:1E3BH         LINE#         609
  C:1E55H         LINE#         612
  C:1E55H         LINE#         614
  C:1E5CH         LINE#         615
  C:1E5CH         LINE#         616
  C:1E73H         LINE#         617
  C:1E7BH         LINE#         618
  C:1E7BH         LINE#         619
  C:1E80H         LINE#         620
  C:1E85H         LINE#         621
  C:1E8BH         LINE#         622
  C:1E95H         LINE#         623
  C:1E95H         LINE#         624
  C:1E95H         LINE#         625
  C:1E95H         LINE#         627
  C:1E95H         LINE#         628
  C:1EA4H         LINE#         630
  C:1EAAH         LINE#         631
  C:1EAEH         LINE#         632
  C:1EAFH         LINE#         634
  C:1EAFH         LINE#         635
  C:1EB1H         LINE#         637
  C:1EB1H         LINE#         638
  C:1EB7H         LINE#         639
  C:1EBAH         LINE#         640
  C:1EC3H         LINE#         641
  C:1EC3H         LINE#         642
  C:1EC3H         LINE#         643
  -------         ENDPROC       USART0RECDEAL
BL51 BANKED LINKER/LOCATER V6.05                                                      08/18/2014  14:10:06  PAGE 71


  -------         PROC          _SEND_DATA
  X:0320H         SYMBOL        Databuf
  X:0323H         SYMBOL        l
  C:4F97H         LINE#         645
  C:4FA5H         LINE#         646
  C:4FA5H         LINE#         668
  -------         ENDPROC       _SEND_DATA
  -------         PROC          _SEND_DATA_BYTE
  X:0283H         SYMBOL        SendData
  C:50B3H         LINE#         671
  C:50B8H         LINE#         672
  C:50B8H         LINE#         689
  -------         ENDPROC       _SEND_DATA_BYTE
  -------         ENDMOD        USART

  -------         MODULE        PCT25VF
  C:0000H         SYMBOL        _ICE_DUMMY_
  C:4D45H         PUBLIC        WREN_Check
  D:0080H         PUBLIC        P0
  D:0090H         PUBLIC        P1
  D:00A0H         PUBLIC        P2
  C:4F2EH         PUBLIC        _Send_Byte
  D:00B0H         PUBLIC        P3
  D:00C0H         PUBLIC        P4
  C:4B58H         PUBLIC        _Byte_Write
  D:00C8H         PUBLIC        P5
  D:00A8H         PUBLIC        IE
  C:4F65H         PUBLIC        Read_Status_Register
  C:4C47H         PUBLIC        Get_Byte
  D:00B8H         PUBLIC        IP
  C:50BCH         PUBLIC        CE_Low
  C:4AD5H         PUBLIC        Poll_SO
  C:4CDDH         PUBLIC        Wait_Busy
  C:0012H         PUBLIC        Hold_Low
  D:00D8H         PUBLIC        CCON
  C:45AFH         PUBLIC        Jedec_ID_Read
  C:4BADH         PUBLIC        WREN_AAI_Check
  X:02B5H         PUBLIC        FRAM_BUFF
  C:5052H         PUBLIC        DBSY
  C:5047H         PUBLIC        EBSY
  D:0098H         PUBLIC        SCON
  D:0088H         PUBLIC        TCON
  C:4D85H         PUBLIC        _Byte_Write1
  C:503CH         PUBLIC        WRDI
  B:0090H.6       PUBLIC        MISO
  C:3FCCH         PUBLIC        _AAI_Write
  C:001AH         PUBLIC        WP_Low
  C:4FB4H         PUBLIC        WREN
  C:4DC3H         PUBLIC        _delay_nms
  C:5031H         PUBLIC        EWSR
  C:451CH         PUBLIC        _Auto_Add_IncA
  C:4CBAH         PUBLIC        _Auto_Add_IncB
  C:464AH         PUBLIC        _Sector_Erase
  D:00E0H         PUBLIC        ACC
  C:38AEH         PUBLIC        FRAM_TEST
  C:4C00H         PUBLIC        Wait_Busy_AAI
  C:4E52H         PUBLIC        _delay_nus
BL51 BANKED LINKER/LOCATER V6.05                                                      08/18/2014  14:10:06  PAGE 72


  C:373DH         PUBLIC        _HighSpeed_Read_Cont
  C:4DFEH         PUBLIC        _WRSR
  C:4811H         PUBLIC        _Block_Erase_32K
  C:4169H         PUBLIC        _Byte_Program
  C:45F7H         PUBLIC        _HighSpeed_Read
  C:484EH         PUBLIC        _Block_Erase_64K
  C:42ABH         PUBLIC        _Auto_Add_IncA_EBSY
  C:505DH         PUBLIC        Chip_Erase
  C:4B01H         PUBLIC        _Auto_Add_IncB_EBSY
  C:002EH         PUBLIC        CE_High
  C:41ABH         PUBLIC        _AAI_Write1
  C:4B83H         PUBLIC        _Read_ID
  C:0021H         PUBLIC        UnWP
  C:0019H         PUBLIC        Unhold
  C:367FH         PUBLIC        _Read_Cont
  C:4C97H         PUBLIC        SST25VF_Init
  B:0090H.4       PUBLIC        SST25VF_CS
  D:00D0H         PUBLIC        PSW
  C:47D2H         PUBLIC        _Read
  -------         PROC          SST25VF_INIT
  C:4C97H         LINE#         162
  C:4C97H         LINE#         163
  C:4C97H         LINE#         166
  C:4C9DH         LINE#         168
  C:4CA0H         LINE#         169
  C:4CA7H         LINE#         170
  C:4CADH         LINE#         171
  C:4CB4H         LINE#         173
  -------         ENDPROC       SST25VF_INIT
  C:4F1EH         SYMBOL        L?0091
  C:4F2AH         SYMBOL        L?0092
  -------         PROC          L?0090
  -------         ENDPROC       L?0090
  C:4F1EH         SYMBOL        L?0091
  C:4F2AH         SYMBOL        L?0092
  -------         PROC          _SEND_BYTE
  D:0007H         SYMBOL        out
  C:4F2EH         LINE#         188
  C:4F2EH         LINE#         189
  C:4F2EH         LINE#         203
  -------         ENDPROC       _SEND_BYTE
  -------         PROC          L?0095
  -------         ENDPROC       L?0095
  -------         PROC          GET_BYTE
  -------         DO            
  D:0007H         SYMBOL        in
  -------         ENDDO         
  C:4C47H         LINE#         218
  C:4C47H         LINE#         219
  C:4C47H         LINE#         235
  C:4C4CH         LINE#         236
  C:4C4CH         LINE#         237
  -------         ENDPROC       GET_BYTE
  -------         PROC          POLL_SO
  -------         DO            
  X:033BH         SYMBOL        i
  X:033DH         SYMBOL        temp
BL51 BANKED LINKER/LOCATER V6.05                                                      08/18/2014  14:10:06  PAGE 73


  -------         ENDDO         
  C:4AD5H         LINE#         252
  C:4AD5H         LINE#         253
  C:4AD5H         LINE#         254
  C:4ADDH         LINE#         256
  C:4AE0H         LINE#         257
  C:4AE3H         LINE#         258
  C:4AE9H         LINE#         259
  C:4AE9H         LINE#         260
  C:4AEDH         LINE#         261
  C:4AF0H         LINE#         262
  C:4AFEH         LINE#         263
  C:4AFEH         LINE#         264
  -------         ENDPROC       POLL_SO
  -------         PROC          CE_HIGH
  C:002EH         LINE#         279
  C:002EH         LINE#         280
  C:002EH         LINE#         281
  C:0030H         LINE#         282
  -------         ENDPROC       CE_HIGH
  -------         PROC          L?0096
  -------         ENDPROC       L?0096
  -------         PROC          CE_LOW
  C:50BCH         LINE#         296
  C:50BCH         LINE#         297
  C:50BCH         LINE#         298
  C:50BEH         LINE#         299
  -------         ENDPROC       CE_LOW
  -------         PROC          HOLD_LOW
  C:0012H         LINE#         312
  C:0012H         LINE#         313
  C:0012H         LINE#         317
  -------         ENDPROC       HOLD_LOW
  -------         PROC          UNHOLD
  C:0019H         LINE#         330
  C:0019H         LINE#         331
  C:0019H         LINE#         335
  -------         ENDPROC       UNHOLD
  -------         PROC          WP_LOW
  C:001AH         LINE#         348
  C:001AH         LINE#         349
  C:001AH         LINE#         353
  -------         ENDPROC       WP_LOW
  -------         PROC          UNWP
  C:0021H         LINE#         366
  C:0021H         LINE#         367
  C:0021H         LINE#         371
  -------         ENDPROC       UNWP
  -------         PROC          READ_STATUS_REGISTER
  -------         DO            
  D:0007H         SYMBOL        byte
  -------         ENDDO         
  C:4F65H         LINE#         384
  C:4F65H         LINE#         385
  C:4F65H         LINE#         386
  C:4F67H         LINE#         387
  C:4F6AH         LINE#         388
BL51 BANKED LINKER/LOCATER V6.05                                                      08/18/2014  14:10:06  PAGE 74


  C:4F6FH         LINE#         389
  C:4F72H         LINE#         390
  C:4F75H         LINE#         391
  C:4F75H         LINE#         392
  -------         ENDPROC       READ_STATUS_REGISTER
  -------         PROC          EWSR
  C:5031H         LINE#         405
  C:5031H         LINE#         406
  C:5031H         LINE#         407
  C:5034H         LINE#         408
  C:5039H         LINE#         409
  -------         ENDPROC       EWSR
  -------         PROC          _WRSR
  X:0346H         SYMBOL        byte
  C:4DFEH         LINE#         423
  C:4E06H         LINE#         424
  C:4E06H         LINE#         425
  C:4E09H         LINE#         426
  C:4E0EH         LINE#         427
  C:4E17H         LINE#         429
  -------         ENDPROC       _WRSR
  -------         PROC          WREN
  C:4FB4H         LINE#         444
  C:4FB4H         LINE#         445
  C:4FB4H         LINE#         446
  C:4FB7H         LINE#         447
  C:4FBCH         LINE#         448
  C:4FBFH         LINE#         449
  -------         ENDPROC       WREN
  -------         PROC          WRDI
  C:503CH         LINE#         463
  C:503CH         LINE#         464
  C:503CH         LINE#         465
  C:503FH         LINE#         466
  C:5044H         LINE#         467
  -------         ENDPROC       WRDI
  -------         PROC          EBSY
  C:5047H         LINE#         482
  C:5047H         LINE#         483
  C:5047H         LINE#         484
  C:504AH         LINE#         485
  C:504FH         LINE#         486
  -------         ENDPROC       EBSY
  -------         PROC          DBSY
  C:5052H         LINE#         501
  C:5052H         LINE#         502
  C:5052H         LINE#         503
  C:5055H         LINE#         504
  C:505AH         LINE#         505
  -------         ENDPROC       DBSY
  -------         PROC          _READ_ID
  X:0348H         SYMBOL        ID_addr
  -------         DO            
  D:0007H         SYMBOL        byte
  -------         ENDDO         
  C:4B83H         LINE#         525
  C:4B8BH         LINE#         526
BL51 BANKED LINKER/LOCATER V6.05                                                      08/18/2014  14:10:06  PAGE 75


  C:4B8BH         LINE#         528
  C:4B8EH         LINE#         529
  C:4B93H         LINE#         530
  C:4B98H         LINE#         531
  C:4B9DH         LINE#         532
  C:4BA6H         LINE#         533
  C:4BA9H         LINE#         534
  C:4BACH         LINE#         535
  C:4BACH         LINE#         536
  -------         ENDPROC       _READ_ID
  -------         PROC          JEDEC_ID_READ
  -------         DO            
  X:0324H         SYMBOL        temp
  -------         ENDDO         
  C:45AFH         LINE#         553
  C:45AFH         LINE#         554
  C:45AFH         LINE#         557
  C:45B9H         LINE#         559
  C:45BCH         LINE#         560
  C:45C1H         LINE#         561
  C:45C4H         LINE#         562
  C:45C7H         LINE#         563
  C:45E5H         LINE#         564
  C:45E8H         LINE#         566
  C:45F6H         LINE#         567
  -------         ENDPROC       JEDEC_ID_READ
  -------         PROC          _READ
  X:0328H         SYMBOL        Dst
  -------         DO            
  D:0007H         SYMBOL        byte
  -------         ENDDO         
  C:47D2H         LINE#         586
  C:47D8H         LINE#         587
  C:47D8H         LINE#         588
  C:47DAH         LINE#         590
  C:47DDH         LINE#         591
  C:47E2H         LINE#         592
  C:47E8H         LINE#         593
  C:47F9H         LINE#         594
  C:480AH         LINE#         595
  C:480DH         LINE#         596
  C:4810H         LINE#         597
  C:4810H         LINE#         598
  -------         ENDPROC       _READ
  -------         PROC          _READ_CONT
  X:0291H         SYMBOL        pBuffer
  X:0294H         SYMBOL        Dst
  X:0298H         SYMBOL        no_bytes
  -------         DO            
  X:029CH         SYMBOL        i
  -------         ENDDO         
  C:367FH         LINE#         615
  C:368EH         LINE#         616
  C:368EH         LINE#         617
  C:3698H         LINE#         618
  C:369BH         LINE#         619
  C:36A0H         LINE#         620
BL51 BANKED LINKER/LOCATER V6.05                                                      08/18/2014  14:10:06  PAGE 76


  C:36A6H         LINE#         621
  C:36BBH         LINE#         622
  C:36CCH         LINE#         623
  C:36F6H         LINE#         624
  C:36F6H         LINE#         625
  C:3719H         LINE#         626
  C:373AH         LINE#         627
  -------         ENDPROC       _READ_CONT
  -------         PROC          _HIGHSPEED_READ
  X:032CH         SYMBOL        Dst
  -------         DO            
  D:0007H         SYMBOL        byte
  -------         ENDDO         
  C:45F7H         LINE#         648
  C:45FDH         LINE#         649
  C:45FDH         LINE#         650
  C:45FFH         LINE#         652
  C:4602H         LINE#         653
  C:4607H         LINE#         654
  C:460DH         LINE#         655
  C:4622H         LINE#         656
  C:4633H         LINE#         657
  C:4638H         LINE#         658
  C:463BH         LINE#         659
  C:463EH         LINE#         660
  C:463EH         LINE#         661
  -------         ENDPROC       _HIGHSPEED_READ
  -------         PROC          _HIGHSPEED_READ_CONT
  X:02DBH         SYMBOL        Dst
  X:02DFH         SYMBOL        no_bytes
  X:02E3H         SYMBOL        pBuffer
  -------         DO            
  X:02E6H         SYMBOL        i
  -------         ENDDO         
  C:373DH         LINE#         677
  C:3743H         LINE#         678
  C:3743H         LINE#         679
  C:374DH         LINE#         680
  C:3750H         LINE#         681
  C:3755H         LINE#         682
  C:375BH         LINE#         683
  C:3770H         LINE#         684
  C:3781H         LINE#         685
  C:3786H         LINE#         686
  C:37B2H         LINE#         687
  C:37B2H         LINE#         688
  C:37D5H         LINE#         689
  C:37F6H         LINE#         690
  -------         ENDPROC       _HIGHSPEED_READ_CONT
  C:4165H         SYMBOL        L?0094
  -------         PROC          L?0093
  -------         ENDPROC       L?0093
  C:4165H         SYMBOL        L?0094
  -------         PROC          _BYTE_PROGRAM
  X:028DH         SYMBOL        Dst
  X:0291H         SYMBOL        byte
  C:4169H         LINE#         711
BL51 BANKED LINKER/LOCATER V6.05                                                      08/18/2014  14:10:06  PAGE 77


  C:416CH         LINE#         712
  C:416CH         LINE#         713
  C:416FH         LINE#         714
  C:4174H         LINE#         715
  C:417AH         LINE#         716
  C:418FH         LINE#         717
  C:41A0H         LINE#         718
  C:41A8H         LINE#         719
  -------         ENDPROC       _BYTE_PROGRAM
  -------         PROC          _AUTO_ADD_INCA
  X:030AH         SYMBOL        Dst
  X:030EH         SYMBOL        byte1
  X:030FH         SYMBOL        byte2
  C:451CH         LINE#         750
  C:451FH         LINE#         751
  C:451FH         LINE#         752
  C:4522H         LINE#         753
  C:4527H         LINE#         754
  C:452DH         LINE#         755
  C:4542H         LINE#         756
  C:4553H         LINE#         757
  C:455BH         LINE#         758
  C:4563H         LINE#         759
  -------         ENDPROC       _AUTO_ADD_INCA
  -------         PROC          _AUTO_ADD_INCB
  X:034AH         SYMBOL        byte1
  X:034BH         SYMBOL        byte2
  C:4CBAH         LINE#         790
  C:4CC2H         LINE#         791
  C:4CC2H         LINE#         792
  C:4CC5H         LINE#         793
  C:4CCAH         LINE#         794
  C:4CD2H         LINE#         795
  C:4CDAH         LINE#         796
  -------         ENDPROC       _AUTO_ADD_INCB
  -------         PROC          _AUTO_ADD_INCA_EBSY
  X:0310H         SYMBOL        Dst
  X:0314H         SYMBOL        byte1
  X:0315H         SYMBOL        byte2
  C:42ABH         LINE#         829
  C:42B1H         LINE#         830
  C:42B1H         LINE#         831
  C:42B4H         LINE#         833
  C:42B7H         LINE#         834
  C:42BCH         LINE#         835
  C:42C2H         LINE#         836
  C:42D7H         LINE#         837
  C:42E8H         LINE#         838
  C:42F0H         LINE#         839
  C:42F8H         LINE#         840
  C:42FBH         LINE#         842
  -------         ENDPROC       _AUTO_ADD_INCA_EBSY
  -------         PROC          _AUTO_ADD_INCB_EBSY
  X:034CH         SYMBOL        byte1
  X:034DH         SYMBOL        byte2
  C:4B01H         LINE#         876
  C:4B09H         LINE#         877
BL51 BANKED LINKER/LOCATER V6.05                                                      08/18/2014  14:10:06  PAGE 78


  C:4B09H         LINE#         878
  C:4B0CH         LINE#         879
  C:4B11H         LINE#         880
  C:4B19H         LINE#         881
  C:4B21H         LINE#         882
  C:4B24H         LINE#         884
  C:4B27H         LINE#         886
  C:4B2AH         LINE#         887
  -------         ENDPROC       _AUTO_ADD_INCB_EBSY
  -------         PROC          CHIP_ERASE
  C:505DH         LINE#         901
  C:505DH         LINE#         902
  C:505DH         LINE#         903
  C:5060H         LINE#         904
  C:5065H         LINE#         905
  -------         ENDPROC       CHIP_ERASE
  -------         PROC          L?0097
  -------         ENDPROC       L?0097
  -------         PROC          _SECTOR_ERASE
  X:028DH         SYMBOL        Dst
  C:464AH         LINE#         919
  C:4650H         LINE#         920
  C:4650H         LINE#         923
  C:4653H         LINE#         924
  C:4658H         LINE#         925
  C:465EH         LINE#         926
  C:4673H         LINE#         927
  C:4684H         LINE#         928
  -------         ENDPROC       _SECTOR_ERASE
  -------         PROC          _BLOCK_ERASE_32K
  X:0330H         SYMBOL        Dst
  C:4811H         LINE#         942
  C:4817H         LINE#         943
  C:4817H         LINE#         944
  C:481AH         LINE#         945
  C:481FH         LINE#         946
  C:4825H         LINE#         947
  C:483AH         LINE#         948
  C:484BH         LINE#         949
  -------         ENDPROC       _BLOCK_ERASE_32K
  -------         PROC          _BLOCK_ERASE_64K
  X:0334H         SYMBOL        Dst
  C:484EH         LINE#         963
  C:4854H         LINE#         964
  C:4854H         LINE#         965
  C:4857H         LINE#         966
  C:485CH         LINE#         967
  C:4862H         LINE#         968
  C:4877H         LINE#         969
  C:4888H         LINE#         970
  -------         ENDPROC       _BLOCK_ERASE_64K
  -------         PROC          WAIT_BUSY
  -------         DO            
  X:028DH         SYMBOL        i
  -------         ENDDO         
  C:4CDDH         LINE#         985
  C:4CDDH         LINE#         986
BL51 BANKED LINKER/LOCATER V6.05                                                      08/18/2014  14:10:06  PAGE 79


  C:4CDDH         LINE#         988
  C:4CE7H         LINE#         990
  C:4CEEH         LINE#         991
  C:4CEEH         LINE#         993
  C:4CF1H         LINE#         994
  C:4CFFH         LINE#         995
  C:4CFFH         LINE#         997
  -------         ENDPROC       WAIT_BUSY
  -------         PROC          WAIT_BUSY_AAI
  -------         DO            
  X:034EH         SYMBOL        i
  -------         ENDDO         
  C:4C00H         LINE#         1010
  C:4C00H         LINE#         1011
  C:4C00H         LINE#         1013
  C:4C0AH         LINE#         1015
  C:4C11H         LINE#         1016
  C:4C11H         LINE#         1017
  C:4C18H         LINE#         1018
  C:4C26H         LINE#         1020
  C:4C26H         LINE#         1021
  -------         ENDPROC       WAIT_BUSY_AAI
  -------         PROC          WREN_CHECK
  -------         DO            
  X:0350H         SYMBOL        i
  -------         ENDDO         
  C:4D45H         LINE#         1034
  C:4D45H         LINE#         1035
  C:4D45H         LINE#         1037
  C:4D4DH         LINE#         1039
  C:4D54H         LINE#         1040
  C:4D54H         LINE#         1041
  C:4D57H         LINE#         1042
  C:4D65H         LINE#         1044
  C:4D65H         LINE#         1045
  -------         ENDPROC       WREN_CHECK
  -------         PROC          WREN_AAI_CHECK
  -------         DO            
  X:0352H         SYMBOL        i
  -------         ENDDO         
  C:4BADH         LINE#         1058
  C:4BADH         LINE#         1059
  C:4BADH         LINE#         1061
  C:4BB7H         LINE#         1063
  C:4BC1H         LINE#         1064
  C:4BC1H         LINE#         1065
  C:4BC8H         LINE#         1066
  C:4BD6H         LINE#         1068
  C:4BD6H         LINE#         1069
  -------         ENDPROC       WREN_AAI_CHECK
  -------         PROC          _BYTE_WRITE
  X:0288H         SYMBOL        Dst
  X:028CH         SYMBOL        byte
  C:4B58H         LINE#         1074
  C:4B5EH         LINE#         1075
  C:4B5EH         LINE#         1076
  C:4B61H         LINE#         1077
BL51 BANKED LINKER/LOCATER V6.05                                                      08/18/2014  14:10:06  PAGE 80


  C:4B67H         LINE#         1078
  C:4B6AH         LINE#         1081
  C:4B6DH         LINE#         1082
  C:4B80H         LINE#         1083
  -------         ENDPROC       _BYTE_WRITE
  -------         PROC          _AAI_WRITE
  X:0285H         SYMBOL        Dst
  X:0289H         SYMBOL        p
  X:028CH         SYMBOL        no_bytes
  C:3FCCH         LINE#         1122
  C:3FDDH         LINE#         1123
  C:3FDDH         LINE#         1125
  C:3FE0H         LINE#         1126
  C:3FE6H         LINE#         1128
  C:3FE9H         LINE#         1155
  C:3FF2H         LINE#         1156
  C:3FF2H         LINE#         1157
  C:3FF5H         LINE#         1158
  C:3FFBH         LINE#         1159
  C:3FFEH         LINE#         1160
  C:401DH         LINE#         1161
  C:4027H         LINE#         1162
  C:402FH         LINE#         1164
  -------         ENDPROC       _AAI_WRITE
  -------         PROC          _BYTE_WRITE1
  X:0288H         SYMBOL        Dst
  X:028CH         SYMBOL        byte
  C:4D85H         LINE#         1168
  C:4D8BH         LINE#         1169
  C:4D8BH         LINE#         1170
  C:4D8EH         LINE#         1171
  C:4DA1H         LINE#         1172
  -------         ENDPROC       _BYTE_WRITE1
  -------         PROC          _AAI_WRITE1
  X:0285H         SYMBOL        Dst
  X:0289H         SYMBOL        p
  X:028CH         SYMBOL        no_bytes
  C:41ABH         LINE#         1206
  C:41BCH         LINE#         1207
  C:41BCH         LINE#         1231
  C:41C5H         LINE#         1232
  C:41C5H         LINE#         1233
  C:41C8H         LINE#         1234
  C:41CEH         LINE#         1235
  C:41D1H         LINE#         1236
  C:41F0H         LINE#         1237
  C:41FAH         LINE#         1238
  C:4202H         LINE#         1240
  -------         ENDPROC       _AAI_WRITE1
  -------         PROC          FRAM_TEST
  -------         DO            
  D:0007H         SYMBOL        i
  -------         ENDDO         
  C:38AEH         LINE#         1257
  C:38AEH         LINE#         1258
  C:38AEH         LINE#         1261
  C:38B4H         LINE#         1262
BL51 BANKED LINKER/LOCATER V6.05                                                      08/18/2014  14:10:06  PAGE 81


  C:38B8H         LINE#         1263
  C:38BCH         LINE#         1264
  C:38C0H         LINE#         1265
  C:38C4H         LINE#         1266
  C:38C8H         LINE#         1268
  C:38CCH         LINE#         1269
  C:38D0H         LINE#         1270
  C:38D4H         LINE#         1271
  C:38D8H         LINE#         1272
  C:38DCH         LINE#         1275
  C:38EFH         LINE#         1276
  C:3906H         LINE#         1278
  C:3910H         LINE#         1279
  C:3917H         LINE#         1281
  C:3927H         LINE#         1282
  C:3942H         LINE#         1283
  C:3949H         LINE#         1285
  -------         ENDPROC       FRAM_TEST
  -------         PROC          _DELAY_NMS
  D:0006H         SYMBOL        i
  -------         DO            
  D:0004H         SYMBOL        j
  -------         ENDDO         
  C:4DC3H         LINE#         1304
  C:4DC3H         LINE#         1305
  C:4DC3H         LINE#         1308
  C:4DCCH         LINE#         1309
  C:4DCCH         LINE#         1310
  C:4DD9H         LINE#         1311
  C:4DE0H         LINE#         1313
  -------         ENDPROC       _DELAY_NMS
  C:4E4EH         SYMBOL        L?0099
  -------         PROC          L?0098
  -------         ENDPROC       L?0098
  C:4E4EH         SYMBOL        L?0099
  -------         PROC          _DELAY_NUS
  D:0006H         SYMBOL        i
  -------         DO            
  D:0005H         SYMBOL        j
  -------         ENDDO         
  C:4E52H         LINE#         1331
  C:4E52H         LINE#         1332
  C:4E52H         LINE#         1335
  C:4E5BH         LINE#         1336
  C:4E5BH         LINE#         1337
  C:4E5FH         LINE#         1338
  C:4E66H         LINE#         1340
  -------         ENDPROC       _DELAY_NUS
  -------         ENDMOD        PCT25VF

  -------         MODULE        OS_CORE
  C:0000H         SYMBOL        _ICE_DUMMY_
  C:4E98H         PUBLIC        _OS_TaskSuspend
  D:0080H         PUBLIC        P0
  D:0090H         PUBLIC        P1
  D:00A0H         PUBLIC        P2
  D:00B0H         PUBLIC        P3
BL51 BANKED LINKER/LOCATER V6.05                                                      08/18/2014  14:10:06  PAGE 82


  D:00C0H         PUBLIC        P4
  D:00C8H         PUBLIC        P5
  B:00A8H.7       PUBLIC        EA
  C:4F0AH         PUBLIC        OSSched
  D:00A8H         PUBLIC        IE
  D:00B8H         PUBLIC        IP
  C:501AH         PUBLIC        _OSTaskSuspend
  D:00D8H         PUBLIC        CCON
  D:0008H         PUBLIC        OSIntNesting
  C:4E67H         PUBLIC        _OSTaskResume
  D:0009H         PUBLIC        OSTaskRuning
  D:0098H         PUBLIC        SCON
  D:0088H         PUBLIC        TCON
  C:4F76H         PUBLIC        OSInit
  C:4093H         PUBLIC        _OSWait
  D:000AH         PUBLIC        Os_Enter_Sum
  C:4DA4H         PUBLIC        OSTimeTick
  C:4EB0H         PUBLIC        OSFindNextRunningTask
  D:000BH         PUBLIC        OSTaskID
  D:00E0H         PUBLIC        ACC
  D:000CH         PUBLIC        OSWaitTick
  C:4D00H         PUBLIC        _OSTimeDly
  C:5071H         PUBLIC        OSMapTbl
  D:0011H         PUBLIC        OSNextTaskID
  C:4C73H         PUBLIC        OSIntExit
  C:48C7H         PUBLIC        __OSTaskCreate
  D:0012H         PUBLIC        OSTaskCreated
  D:00D0H         PUBLIC        PSW
  -------         PROC          OSINIT
  C:4F76H         LINE#         87
  C:4F76H         LINE#         89
  C:4F79H         LINE#         90
  C:4F7BH         LINE#         95
  C:4F7DH         LINE#         96
  C:4F80H         LINE#         97
  C:4F82H         LINE#         98
  C:4F84H         LINE#         99
  -------         ENDPROC       OSINIT
  -------         PROC          __OSTASKCREATE
  D:0001H         SYMBOL        TaskID
  D:0006H         SYMBOL        task
  D:0002H         SYMBOL        ptos
  C:48C7H         LINE#         119
  C:48CDH         LINE#         121
  C:48D3H         LINE#         122
  C:48D3H         LINE#         123
  C:48D7H         LINE#         125
  C:48E0H         LINE#         126
  C:48E0H         LINE#         127
  C:48E3H         LINE#         128
  C:48E3H         LINE#         129
  C:48EAH         LINE#         130
  C:48ECH         LINE#         151
  C:48F5H         LINE#         152
  C:48F8H         LINE#         153
  C:48FDH         LINE#         154
  C:4900H         LINE#         155
BL51 BANKED LINKER/LOCATER V6.05                                                      08/18/2014  14:10:06  PAGE 83


  C:4900H         LINE#         156
  C:4902H         LINE#         157
  -------         ENDPROC       __OSTASKCREATE
  -------         PROC          _OSTASKRESUME
  D:0007H         SYMBOL        TaskID
  C:4E67H         LINE#         217
  C:4E67H         LINE#         219
  C:4E6DH         LINE#         220
  C:4E6DH         LINE#         221
  C:4E71H         LINE#         223
  C:4E78H         LINE#         234
  C:4E7DH         LINE#         235
  C:4E7DH         LINE#         236
  -------         ENDPROC       _OSTASKRESUME
  -------         PROC          _OS_TASKSUSPEND
  D:0007H         SYMBOL        TaskID
  C:4E98H         LINE#         254
  C:4E98H         LINE#         256
  C:4E9EH         LINE#         257
  C:4E9EH         LINE#         258
  C:4EA2H         LINE#         260
  C:4EAAH         LINE#         271
  C:4EAFH         LINE#         272
  C:4EAFH         LINE#         273
  -------         ENDPROC       _OS_TASKSUSPEND
  -------         PROC          _OSTASKSUSPEND
  D:0007H         SYMBOL        TaskID
  C:501AH         LINE#         291
  C:501AH         LINE#         293
  C:5020H         LINE#         295
  C:5023H         LINE#         296
  -------         ENDPROC       _OSTASKSUSPEND
  -------         PROC          OSFINDNEXTRUNNINGTASK
  -------         DO            
  D:0007H         SYMBOL        temp
  -------         ENDDO         
  C:4EB0H         LINE#         314
  C:4EB0H         LINE#         318
  C:4EB5H         LINE#         321
  C:4EB8H         LINE#         322
  C:4EB8H         LINE#         323
  C:4EBCH         LINE#         324
  C:4EBCH         LINE#         325
  C:4EBCH         LINE#         326
  C:4EBCH         LINE#         327
  C:4EC0H         LINE#         328
  C:4EC7H         LINE#         351
  -------         ENDPROC       OSFINDNEXTRUNNINGTASK
  -------         PROC          OSINTEXIT
  C:4C73H         LINE#         368
  C:4C73H         LINE#         371
  C:4C77H         LINE#         373
  C:4C7EH         LINE#         374
  C:4C7EH         LINE#         375
  C:4C80H         LINE#         376
  C:4C80H         LINE#         377
  C:4C84H         LINE#         378
BL51 BANKED LINKER/LOCATER V6.05                                                      08/18/2014  14:10:06  PAGE 84


  C:4C84H         LINE#         379
  C:4C86H         LINE#         380
  C:4C89H         LINE#         381
  C:4C8CH         LINE#         382
  C:4C8FH         LINE#         383
  C:4C8FH         LINE#         384
  C:4C94H         LINE#         385
  C:4C96H         LINE#         386
  -------         ENDPROC       OSINTEXIT
  -------         PROC          OSSCHED
  C:4F0AH         LINE#         403
  C:4F0AH         LINE#         406
  C:4F0EH         LINE#         407
  C:4F12H         LINE#         408
  C:4F12H         LINE#         409
  C:4F15H         LINE#         410
  C:4F18H         LINE#         411
  C:4F18H         LINE#         412
  C:4F1DH         LINE#         413
  -------         ENDPROC       OSSCHED
  -------         PROC          OSTIMETICK
  -------         DO            
  D:0007H         SYMBOL        i
  -------         ENDDO         
  C:4DA4H         LINE#         430
  C:4DA4H         LINE#         434
  C:4DA6H         LINE#         435
  C:4DA6H         LINE#         436
  C:4DADH         LINE#         437
  C:4DADH         LINE#         438
  C:4DAEH         LINE#         439
  C:4DB5H         LINE#         440
  C:4DB5H         LINE#         442
  C:4DBCH         LINE#         453
  C:4DBCH         LINE#         454
  C:4DBCH         LINE#         455
  C:4DC0H         LINE#         456
  -------         ENDPROC       OSTIMETICK
  -------         PROC          _OSTIMEDLY
  D:0007H         SYMBOL        ticks
  C:4D00H         LINE#         475
  C:4D00H         LINE#         477
  C:4D07H         LINE#         478
  C:4D0BH         LINE#         479
  C:4D13H         LINE#         480
  C:4D13H         LINE#         481
  C:4D18H         LINE#         482
  C:4D1BH         LINE#         483
  C:4D1DH         LINE#         484
  C:4D22H         LINE#         485
  -------         ENDPROC       _OSTIMEDLY
  -------         PROC          _OSWAIT
  D:0007H         SYMBOL        typ
  D:0005H         SYMBOL        ticks
  C:4093H         LINE#         534
  C:4093H         LINE#         536
  C:409AH         LINE#         538
BL51 BANKED LINKER/LOCATER V6.05                                                      08/18/2014  14:10:06  PAGE 85


  C:40A6H         LINE#         539
  C:40A6H         LINE#         540
  C:40A6H         LINE#         541
  C:40ABH         LINE#         542
  C:40AEH         LINE#         543
  C:40AEH         LINE#         544
  C:40B8H         LINE#         545
  C:40BBH         LINE#         546
  C:40BBH         LINE#         548
  C:40BFH         LINE#         549
  C:40C7H         LINE#         550
  C:40C7H         LINE#         551
  C:40CAH         LINE#         552
  C:40CAH         LINE#         553
  C:40CFH         LINE#         554
  C:40D2H         LINE#         555
  C:40D7H         LINE#         556
  C:40DFH         LINE#         557
  C:40DFH         LINE#         558
  C:40E1H         LINE#         559
  C:40E4H         LINE#         560
  C:40E4H         LINE#         561
  C:40E7H         LINE#         562
  C:40E7H         LINE#         563
  C:40EEH         LINE#         564
  C:40F0H         LINE#         565
  C:40F0H         LINE#         566
  -------         ENDPROC       _OSWAIT
  -------         ENDMOD        OS_CORE

  -------         MODULE        OS_MEM
  C:0000H         SYMBOL        _ICE_DUMMY_
  D:0080H         PUBLIC        P0
  D:0090H         PUBLIC        P1
  D:00A0H         PUBLIC        P2
  D:00B0H         PUBLIC        P3
  D:00C0H         PUBLIC        P4
  D:00C8H         PUBLIC        P5
  D:00A8H         PUBLIC        IE
  D:00B8H         PUBLIC        IP
  D:00D8H         PUBLIC        CCON
  D:0098H         PUBLIC        SCON
  D:0088H         PUBLIC        TCON
  D:00E0H         PUBLIC        ACC
  D:00D0H         PUBLIC        PSW
  -------         ENDMOD        OS_MEM

  -------         MODULE        OS_Q
  C:0000H         SYMBOL        _ICE_DUMMY_
  D:0080H         PUBLIC        P0
  D:0090H         PUBLIC        P1
  D:00A0H         PUBLIC        P2
  D:00B0H         PUBLIC        P3
  D:00C0H         PUBLIC        P4
  D:00C8H         PUBLIC        P5
  B:00A8H.7       PUBLIC        EA
  D:00A8H         PUBLIC        IE
BL51 BANKED LINKER/LOCATER V6.05                                                      08/18/2014  14:10:06  PAGE 86


  D:00B8H         PUBLIC        IP
  C:3B8EH         PUBLIC        _OSQPost
  D:0081H         PUBLIC        SP
  D:00D8H         PUBLIC        CCON
  D:0098H         PUBLIC        SCON
  D:0088H         PUBLIC        TCON
  D:00E0H         PUBLIC        ACC
  C:493CH         PUBLIC        _OSQCreate
  D:00D0H         PUBLIC        PSW
  C:3954H         PUBLIC        _OSQPend
  -------         PROC          _OSQCREATE
  D:0007H         SYMBOL        Buf
  D:0005H         SYMBOL        SizeOfBuf
  C:493CH         LINE#         62
  C:493CH         LINE#         64
  C:493CH         LINE#         65
  C:4940H         LINE#         67
  C:4949H         LINE#         68
  C:4949H         LINE#         69
  C:494CH         LINE#         70
  C:4953H         LINE#         72
  C:4959H         LINE#         76
  C:495FH         LINE#         77
  C:4965H         LINE#         80
  C:496AH         LINE#         81
  C:496DH         LINE#         82
  C:496DH         LINE#         84
  C:496DH         LINE#         85
  C:4972H         LINE#         86
  C:4974H         LINE#         87
  C:4974H         LINE#         89
  -------         ENDPROC       _OSQCREATE
  -------         PROC          _OSQPEND
  D:0007H         SYMBOL        Ret
  D:0005H         SYMBOL        Buf
  D:0003H         SYMBOL        Tick
  -------         DO            
  D:0007H         SYMBOL        cp
  -------         ENDDO         
  C:3954H         LINE#         119
  C:3954H         LINE#         120
  C:3954H         LINE#         132
  C:3958H         LINE#         134
  C:3961H         LINE#         139
  C:3963H         LINE#         140
  C:3969H         LINE#         145
  C:3975H         LINE#         157
  C:397AH         LINE#         158
  C:397AH         LINE#         161
  C:397CH         LINE#         162
  C:3982H         LINE#         165
  C:3987H         LINE#         166
  C:398AH         LINE#         169
  C:3990H         LINE#         170
  C:3992H         LINE#         173
  C:399AH         LINE#         174
  C:399AH         LINE#         175
BL51 BANKED LINKER/LOCATER V6.05                                                      08/18/2014  14:10:06  PAGE 87


  C:399AH         LINE#         176
  C:399AH         LINE#         177
  C:399AH         LINE#         181
  C:39A7H         LINE#         193
  C:39AFH         LINE#         194
  C:39AFH         LINE#         196
  C:39B0H         LINE#         198
  C:39B5H         LINE#         199
  C:39C1H         LINE#         200
  C:39C1H         LINE#         202
  C:39C3H         LINE#         206
  C:39C3H         LINE#         208
  C:39C9H         LINE#         209
  C:39CBH         LINE#         210
  C:39D6H         LINE#         214
  C:39DBH         LINE#         215
  C:39DEH         LINE#         216
  C:39DEH         LINE#         218
  C:39DEH         LINE#         221
  C:39E0H         LINE#         224
  C:39E5H         LINE#         225
  C:39E7H         LINE#         226
  C:39E7H         LINE#         227
  -------         ENDPROC       _OSQPEND
  -------         PROC          _OSQPOST
  D:0007H         SYMBOL        Buf
  D:0005H         SYMBOL        Data
  -------         DO            
  D:0006H         SYMBOL        temp
  D:0005H         SYMBOL        i
  -------         ENDDO         
  C:3B8EH         LINE#         307
  C:3B8EH         LINE#         308
  C:3B8EH         LINE#         318
  C:3B92H         LINE#         322
  C:3BA0H         LINE#         326
  C:3BA0H         LINE#         329
  C:3BA2H         LINE#         330
  C:3BAAH         LINE#         333
  C:3BB6H         LINE#         334
  C:3BC0H         LINE#         335
  C:3BC0H         LINE#         337
  C:3BC5H         LINE#         341
  C:3BC5H         LINE#         344
  C:3BD0H         LINE#         345
  C:3BD2H         LINE#         350
  C:3BD5H         LINE#         352
  C:3BDAH         LINE#         353
  C:3BDAH         LINE#         355
  C:3BE0H         LINE#         357
  C:3BE2H         LINE#         358
  C:3BE2H         LINE#         359
  C:3BE6H         LINE#         360
  C:3BE6H         LINE#         361
  C:3BE6H         LINE#         362
  C:3BE6H         LINE#         363
  C:3BEAH         LINE#         364
BL51 BANKED LINKER/LOCATER V6.05                                                      08/18/2014  14:10:06  PAGE 88


  C:3BEFH         LINE#         365
  C:3BF5H         LINE#         366
  C:3BF5H         LINE#         368
  C:3C01H         LINE#         369
  C:3C06H         LINE#         370
  C:3C06H         LINE#         406
  C:3C06H         LINE#         407
  C:3C0BH         LINE#         408
  C:3C0EH         LINE#         409
  C:3C0EH         LINE#         411
  C:3C0EH         LINE#         412
  C:3C13H         LINE#         413
  C:3C15H         LINE#         414
  C:3C15H         LINE#         415
  -------         ENDPROC       _OSQPOST
  -------         ENDMOD        OS_Q

  -------         MODULE        OS_SEM
  C:0000H         SYMBOL        _ICE_DUMMY_
  D:0080H         PUBLIC        P0
  D:0090H         PUBLIC        P1
  D:00A0H         PUBLIC        P2
  D:00B0H         PUBLIC        P3
  D:00C0H         PUBLIC        P4
  D:00C8H         PUBLIC        P5
  D:00A8H         PUBLIC        IE
  D:00B8H         PUBLIC        IP
  D:00D8H         PUBLIC        CCON
  D:0098H         PUBLIC        SCON
  D:0088H         PUBLIC        TCON
  D:00E0H         PUBLIC        ACC
  D:00D0H         PUBLIC        PSW
  -------         ENDMOD        OS_SEM

  -------         MODULE        OS_CPU_C
  C:0000H         SYMBOL        _ICE_DUMMY_
  D:0080H         PUBLIC        P0
  D:0090H         PUBLIC        P1
  D:00A0H         PUBLIC        P2
  D:00B0H         PUBLIC        P3
  C:4C4DH         PUBLIC        _OSTaskStkDel
  D:00C0H         PUBLIC        P4
  D:00C8H         PUBLIC        P5
  B:00A8H.7       PUBLIC        EA
  C:46CBH         PUBLIC        _StkDelA
  C:470EH         PUBLIC        _StkDelB
  C:4EC8H         PUBLIC        _StkDelC
  D:00A8H         PUBLIC        IE
  D:00B8H         PUBLIC        IP
  C:4566H         PUBLIC        OSTickISR
  C:4F87H         PUBLIC        OSCPUInit
  D:0081H         PUBLIC        SP
  D:00D8H         PUBLIC        CCON
  D:0013H         PUBLIC        OSTsakStackBotton
  D:0098H         PUBLIC        SCON
  D:0088H         PUBLIC        TCON
  D:00E0H         PUBLIC        ACC
BL51 BANKED LINKER/LOCATER V6.05                                                      08/18/2014  14:10:06  PAGE 89


  D:001AH         PUBLIC        OSFastSwap
  X:0354H         PUBLIC        timer_i
  D:00D0H         PUBLIC        PSW
  -------         PROC          OSCPUINIT
  -------         DO            
  D:0007H         SYMBOL        i
  -------         ENDDO         
  C:4F87H         LINE#         81
  C:4F87H         LINE#         85
  C:4F89H         LINE#         86
  C:4F89H         LINE#         87
  C:4F8FH         LINE#         88
  C:4F93H         LINE#         89
  C:4F96H         LINE#         91
  -------         ENDPROC       OSCPUINIT
  -------         PROC          _STKDELA
  D:0007H         SYMBOL        TaskID
  -------         DO            
  D:0006H         SYMBOL        cp
  D:0005H         SYMBOL        cp1
  D:0004H         SYMBOL        temp
  D:0007H         SYMBOL        i
  -------         ENDDO         
  C:46CBH         LINE#         203
  C:46CBH         LINE#         204
  C:46CBH         LINE#         209
  C:46D1H         LINE#         210
  C:46D7H         LINE#         211
  C:46DCH         LINE#         212
  C:46E5H         LINE#         213
  C:46E5H         LINE#         214
  C:46F0H         LINE#         215
  C:46F3H         LINE#         216
  C:46F9H         LINE#         218
  C:46F9H         LINE#         219
  C:4705H         LINE#         220
  C:4707H         LINE#         221
  C:470DH         LINE#         222
  -------         ENDPROC       _STKDELA
  -------         PROC          _STKDELB
  D:0007H         SYMBOL        TaskID
  -------         DO            
  D:0005H         SYMBOL        cp
  D:0004H         SYMBOL        cp1
  D:0005H         SYMBOL        temp
  D:0006H         SYMBOL        i
  -------         ENDDO         
  C:470EH         LINE#         225
  C:470EH         LINE#         226
  C:470EH         LINE#         231
  C:4715H         LINE#         232
  C:471BH         LINE#         233
  C:4726H         LINE#         234
  C:4728H         LINE#         235
  C:4728H         LINE#         237
  C:4728H         LINE#         238
  C:4734H         LINE#         239
BL51 BANKED LINKER/LOCATER V6.05                                                      08/18/2014  14:10:06  PAGE 90


  C:4736H         LINE#         240
  C:4736H         LINE#         241
  C:473CH         LINE#         242
  C:4745H         LINE#         243
  C:4745H         LINE#         244
  C:474CH         LINE#         245
  C:474FH         LINE#         246
  -------         ENDPROC       _STKDELB
  -------         PROC          _STKDELC
  D:0007H         SYMBOL        TaskID
  -------         DO            
  D:0005H         SYMBOL        cp
  -------         ENDDO         
  C:4EC8H         LINE#         248
  C:4EC8H         LINE#         249
  C:4EC8H         LINE#         254
  C:4ECEH         LINE#         255
  C:4ED4H         LINE#         256
  C:4ED9H         LINE#         257
  C:4EDDH         LINE#         258
  -------         ENDPROC       _STKDELC
  -------         PROC          _OSTASKSTKDEL
  D:0007H         SYMBOL        TaskID
  -------         DO            
  D:0006H         SYMBOL        temp
  -------         ENDDO         
  C:4C4DH         LINE#         261
  C:4C4DH         LINE#         265
  C:4C4FH         LINE#         266
  C:4C53H         LINE#         267
  C:4C53H         LINE#         268
  C:4C54H         LINE#         269
  C:4C56H         LINE#         270
  C:4C5CH         LINE#         271
  C:4C5CH         LINE#         272
  C:4C5EH         LINE#         273
  C:4C5EH         LINE#         274
  C:4C69H         LINE#         275
  C:4C69H         LINE#         276
  C:4C69H         LINE#         277
  C:4C6CH         LINE#         278
  C:4C6CH         LINE#         279
  C:4C6CH         LINE#         280
  C:4C6FH         LINE#         281
  C:4C6FH         LINE#         282
  C:4C6FH         LINE#         283
  C:4C72H         LINE#         284
  C:4C72H         LINE#         285
  C:4C72H         LINE#         286
  C:4C72H         LINE#         287
  C:4C72H         LINE#         288
  -------         ENDPROC       _OSTASKSTKDEL
  -------         PROC          OSTICKISR
  C:4566H         LINE#         311
  C:4585H         LINE#         319
  C:4588H         LINE#         329
  C:458CH         LINE#         332
BL51 BANKED LINKER/LOCATER V6.05                                                      08/18/2014  14:10:06  PAGE 91


  C:458FH         LINE#         337
  C:4592H         LINE#         338
  -------         ENDPROC       OSTICKISR
  -------         ENDMOD        OS_CPU_C

  -------         MODULE        OS_CPU_A_ASM
  C:4FE9H         SEGMENT       ?PR?OSCTXSW?OS_CPU_A
  C:4AA6H         SEGMENT       ?PR?OSINTCTXSW?OS_CPU_A
  C:49E0H         SEGMENT       ?PR?LOADCTX?OS_CPU_A
  C:3A76H         SEGMENT       ?PR?C_OSCTXSW?OS_CPU_A
  C:3D17H         SEGMENT       ?PR?_OSTASKSTKINIT?OS_CPU_A
  I:0074H         SEGMENT       ?STACK
  C:3A76H         PUBLIC        C_OSCTXSW
  C:49E0H         PUBLIC        LOADCTX
  C:4FE9H         PUBLIC        OSCTXSW
  C:4AA6H         PUBLIC        OSINTCTXSW
  I:0074H         PUBLIC        STACK
  C:3D17H         PUBLIC        _OSTASKSTKINIT
  C:3AC3H         SYMBOL        ?C0001
  C:3A94H         SYMBOL        ?C0002
  C:3A9AH         SYMBOL        ?C0003
  C:3AB7H         SYMBOL        ?C0004
  C:3ABDH         SYMBOL        ?C0005
  C:3AFCH         SYMBOL        ?C0007
  C:3ACDH         SYMBOL        ?C0008
  C:3AD3H         SYMBOL        ?C0009
  C:3AFFH         SYMBOL        ?C000R
  C:3AF1H         SYMBOL        ?C0010
  C:3AF7H         SYMBOL        ?C0011
  D:00E0H         SYMBOL        ACC
  D:00F0H         SYMBOL        B
  D:0083H         SYMBOL        DPH
  D:0082H         SYMBOL        DPL
  B:00A8H.7       SYMBOL        EA
  C:49E9H         SYMBOL        LOADCTX_0
  C:4A0BH         SYMBOL        LOADCTX_2
  C:4A12H         SYMBOL        LOADCTX_3
  C:4ABBH         SYMBOL        OSINTCTXSW_0
  N:0000H         SYMBOL        OS_CPU_A_ASM
  D:00D0H         SYMBOL        PSW
  D:0081H         SYMBOL        SP
  C:3D4EH         SYMBOL        STKINIT11
  C:3D82H         SYMBOL        STKINIT12
  C:3D60H         SYMBOL        STKINIT15
  C:3D7CH         SYMBOL        STKINIT18
  C:3D56H         SYMBOL        STKINIT5
  C:3D31H         SYMBOL        STKINIT8
  C:3D17H         LINE#         137
  C:3D19H         LINE#         138
  C:3D1BH         LINE#         142
  C:3D1CH         LINE#         143
  C:3D1FH         LINE#         144
  C:3D20H         LINE#         145
  C:3D22H         LINE#         173
  C:3D23H         LINE#         174
  C:3D24H         LINE#         175
  C:3D26H         LINE#         176
BL51 BANKED LINKER/LOCATER V6.05                                                      08/18/2014  14:10:06  PAGE 92


  C:3D28H         LINE#         179
  C:3D29H         LINE#         180
  C:3D2BH         LINE#         181
  C:3D2CH         LINE#         182
  C:3D2DH         LINE#         184
  C:3D2FH         LINE#         185
  C:3D30H         LINE#         186
  C:3D31H         LINE#         191
  C:3D33H         LINE#         192
  C:3D34H         LINE#         193
  C:3D35H         LINE#         195
  C:3D36H         LINE#         197
  C:3D38H         LINE#         200
  C:3D3AH         LINE#         203
  C:3D3CH         LINE#         204
  C:3D3EH         LINE#         205
  C:3D40H         LINE#         207
  C:3D42H         LINE#         208
  C:3D43H         LINE#         209
  C:3D44H         LINE#         210
  C:3D46H         LINE#         211
  C:3D47H         LINE#         212
  C:3D49H         LINE#         213
  C:3D4AH         LINE#         214
  C:3D4BH         LINE#         215
  C:3D4CH         LINE#         217
  C:3D4EH         LINE#         222
  C:3D4FH         LINE#         223
  C:3D50H         LINE#         224
  C:3D51H         LINE#         225
  C:3D52H         LINE#         227
  C:3D54H         LINE#         229
  C:3D56H         LINE#         234
  C:3D58H         LINE#         235
  C:3D5AH         LINE#         236
  C:3D5BH         LINE#         238
  C:3D5CH         LINE#         239
  C:3D5DH         LINE#         240
  C:3D5FH         LINE#         241
  C:3D60H         LINE#         246
  C:3D62H         LINE#         247
  C:3D63H         LINE#         248
  C:3D64H         LINE#         250
  C:3D65H         LINE#         252
  C:3D67H         LINE#         255
  C:3D69H         LINE#         256
  C:3D6BH         LINE#         257
  C:3D6CH         LINE#         258
  C:3D6DH         LINE#         259
  C:3D6EH         LINE#         261
  C:3D6FH         LINE#         262
  C:3D71H         LINE#         263
  C:3D72H         LINE#         265
  C:3D74H         LINE#         266
  C:3D75H         LINE#         267
  C:3D76H         LINE#         268
  C:3D77H         LINE#         269
BL51 BANKED LINKER/LOCATER V6.05                                                      08/18/2014  14:10:06  PAGE 93


  C:3D78H         LINE#         270
  C:3D79H         LINE#         271
  C:3D7AH         LINE#         273
  C:3D7CH         LINE#         278
  C:3D7DH         LINE#         279
  C:3D7EH         LINE#         280
  C:3D7FH         LINE#         281
  C:3D80H         LINE#         283
  C:3D82H         LINE#         287
  C:3D84H         LINE#         288
  C:3D85H         LINE#         289
  C:3D86H         LINE#         290
  C:3D87H         LINE#         291
  C:3D88H         LINE#         293
  C:3D8AH         LINE#         294
  C:3D8BH         LINE#         295
  C:3D8CH         LINE#         297
  C:3D8EH         LINE#         298
  C:3D8FH         LINE#         299
  C:3D90H         LINE#         309
  C:3D91H         LINE#         310
  C:3D92H         LINE#         312
  C:49E0H         LINE#         340
  C:49E2H         LINE#         348
  C:49E4H         LINE#         349
  C:49E7H         LINE#         350
  C:49E9H         LINE#         352
  C:49ECH         LINE#         354
  C:49EDH         LINE#         355
  C:49EFH         LINE#         367
  C:49F1H         LINE#         369
  C:49F3H         LINE#         370
  C:49F5H         LINE#         371
  C:49F7H         LINE#         372
  C:49F9H         LINE#         373
  C:49FBH         LINE#         374
  C:49FDH         LINE#         375
  C:49FFH         LINE#         376
  C:4A01H         LINE#         377
  C:4A03H         LINE#         378
  C:4A05H         LINE#         379
  C:4A07H         LINE#         380
  C:4A09H         LINE#         381
  C:4A0BH         LINE#         384
  C:4A0DH         LINE#         385
  C:4A10H         LINE#         386
  C:4A12H         LINE#         388
  C:4FE9H         LINE#         415
  C:4FEBH         LINE#         417
  C:4FEEH         LINE#         418
  C:4FF0H         LINE#         420
  C:4FF1H         LINE#         421
  C:4FF3H         LINE#         434
  C:3A76H         LINE#         457
  C:3A78H         LINE#         460
  C:3A7AH         LINE#         466
  C:3A7BH         LINE#         468
BL51 BANKED LINKER/LOCATER V6.05                                                      08/18/2014  14:10:06  PAGE 94


  C:3A7DH         LINE#         469
  C:3A7FH         LINE#         470
  C:3A80H         LINE#         471
  C:3A81H         LINE#         472
  C:3A82H         LINE#         474
  C:3A84H         LINE#         475
  C:3A86H         LINE#         476
  C:3A87H         LINE#         477
  C:3A88H         LINE#         478
  C:3A89H         LINE#         480
  C:3A8BH         LINE#         481
  C:3A8CH         LINE#         482
  C:3A8EH         LINE#         483
  C:3A90H         LINE#         489
  C:3A91H         LINE#         490
  C:3A92H         LINE#         491
  C:3A93H         LINE#         492
  C:3A94H         LINE#         494
  C:3A95H         LINE#         495
  C:3A96H         LINE#         496
  C:3A97H         LINE#         497
  C:3A98H         LINE#         498
  C:3A9AH         LINE#         501
  C:3A9CH         LINE#         502
  C:3A9EH         LINE#         503
  C:3A9FH         LINE#         504
  C:3AA0H         LINE#         505
  C:3AA1H         LINE#         507
  C:3AA2H         LINE#         508
  C:3AA3H         LINE#         510
  C:3AA4H         LINE#         511
  C:3AA6H         LINE#         516
  C:3AA8H         LINE#         517
  C:3AA9H         LINE#         518
  C:3AABH         LINE#         519
  C:3AACH         LINE#         520
  C:3AAEH         LINE#         522
  C:3AB0H         LINE#         523
  C:3AB2H         LINE#         524
  C:3AB3H         LINE#         525
  C:3AB4H         LINE#         526
  C:3AB5H         LINE#         527
  C:3AB6H         LINE#         528
  C:3AB7H         LINE#         530
  C:3AB8H         LINE#         531
  C:3AB9H         LINE#         532
  C:3ABAH         LINE#         533
  C:3ABBH         LINE#         534
  C:3ABDH         LINE#         537
  C:3AC0H         LINE#         539
  C:3AC3H         LINE#         544
  C:3AC5H         LINE#         545
  C:3AC7H         LINE#         546
  C:3AC9H         LINE#         558
  C:3ACAH         LINE#         559
  C:3ACBH         LINE#         560
  C:3ACCH         LINE#         561
BL51 BANKED LINKER/LOCATER V6.05                                                      08/18/2014  14:10:06  PAGE 95


  C:3ACDH         LINE#         563
  C:3ACEH         LINE#         564
  C:3ACFH         LINE#         565
  C:3AD0H         LINE#         566
  C:3AD1H         LINE#         567
  C:3AD3H         LINE#         570
  C:3AD5H         LINE#         571
  C:3AD7H         LINE#         572
  C:3AD8H         LINE#         573
  C:3AD9H         LINE#         574
  C:3ADAH         LINE#         576
  C:3ADBH         LINE#         577
  C:3ADCH         LINE#         579
  C:3ADEH         LINE#         580
  C:3AE0H         LINE#         581
  C:3AE1H         LINE#         582
  C:3AE2H         LINE#         583
  C:3AE4H         LINE#         589
  C:3AE6H         LINE#         590
  C:3AE7H         LINE#         591
  C:3AE9H         LINE#         592
  C:3AEBH         LINE#         594
  C:3AECH         LINE#         595
  C:3AEEH         LINE#         596
  C:3AF0H         LINE#         597
  C:3AF1H         LINE#         599
  C:3AF2H         LINE#         600
  C:3AF3H         LINE#         601
  C:3AF4H         LINE#         602
  C:3AF5H         LINE#         603
  C:3AF7H         LINE#         607
  C:3AFAH         LINE#         609
  C:3AFCH         LINE#         613
  C:3AFFH         LINE#         618
  C:4AA6H         LINE#         642
  C:4AA8H         LINE#         643
  C:4AAAH         LINE#         644
  C:4AACH         LINE#         647
  C:4AAEH         LINE#         648
  C:4AB0H         LINE#         649
  C:4AB2H         LINE#         651
  C:4AB4H         LINE#         652
  C:4AB6H         LINE#         653
  C:4AB8H         LINE#         654
  C:4ABAH         LINE#         655
  C:4ABBH         LINE#         659
  C:4ABDH         LINE#         660
  C:4ABFH         LINE#         661
  C:4AC1H         LINE#         663
  C:4AC4H         LINE#         664
  C:4AC6H         LINE#         666
  C:4AC7H         LINE#         667
  C:4AC8H         LINE#         668
  C:4ACAH         LINE#         689
  C:4ACCH         LINE#         691
  C:4ACEH         LINE#         692
  C:4AD0H         LINE#         693
BL51 BANKED LINKER/LOCATER V6.05                                                      08/18/2014  14:10:06  PAGE 96


  C:4AD2H         LINE#         694
  C:4AD4H         LINE#         695
  -------         ENDMOD        OS_CPU_A_ASM

  -------         MODULE        ?C?COPY
  C:1224H         PUBLIC        ?C?COPY
  -------         ENDMOD        ?C?COPY

  -------         MODULE        ?C?CLDPTR
  C:124AH         PUBLIC        ?C?CLDPTR
  -------         ENDMOD        ?C?CLDPTR

  -------         MODULE        ?C?CLDOPTR
  C:1263H         PUBLIC        ?C?CLDOPTR
  -------         ENDMOD        ?C?CLDOPTR

  -------         MODULE        ?C?CSTPTR
  C:1290H         PUBLIC        ?C?CSTPTR
  -------         ENDMOD        ?C?CSTPTR

  -------         MODULE        ?C?CSTOPTR
  C:12A2H         PUBLIC        ?C?CSTOPTR
  -------         ENDMOD        ?C?CSTOPTR

  -------         MODULE        ?C?IMUL
  C:12C4H         PUBLIC        ?C?IMUL
  -------         ENDMOD        ?C?IMUL

  -------         MODULE        ?C?UIDIV
  C:12D6H         PUBLIC        ?C?UIDIV
  -------         ENDMOD        ?C?UIDIV

  -------         MODULE        ?C?IILDX
  C:132BH         PUBLIC        ?C?IILDX
  -------         ENDMOD        ?C?IILDX

  -------         MODULE        ?C?ILDIX
  C:1341H         PUBLIC        ?C?ILDIX
  -------         ENDMOD        ?C?ILDIX

  -------         MODULE        ?C?ILDOPTR
  C:1357H         PUBLIC        ?C?ILDOPTR
  -------         ENDMOD        ?C?ILDOPTR

  -------         MODULE        ?C?LMUL
  C:138FH         PUBLIC        ?C?LMUL
  -------         ENDMOD        ?C?LMUL

  -------         MODULE        ?C?ULDIV
  C:141AH         PUBLIC        ?C?ULDIV
  -------         ENDMOD        ?C?ULDIV

  -------         MODULE        ?C?SLDIV
  C:4687H         PUBLIC        ?C?SLDIV
  -------         ENDMOD        ?C?SLDIV

  -------         MODULE        ?C?ULCMP
BL51 BANKED LINKER/LOCATER V6.05                                                      08/18/2014  14:10:06  PAGE 97


  C:14ACH         PUBLIC        ?C?ULCMP
  -------         ENDMOD        ?C?ULCMP

  -------         MODULE        ?C?ULSHR
  C:14BDH         PUBLIC        ?C?ULSHR
  -------         ENDMOD        ?C?ULSHR

  -------         MODULE        ?C?LSHL
  C:14D0H         PUBLIC        ?C?LSHL
  -------         ENDMOD        ?C?LSHL

  -------         MODULE        ?C?LSTXDATA
  C:14E3H         PUBLIC        ?C?LSTXDATA
  -------         ENDMOD        ?C?LSTXDATA

  -------         MODULE        ?C?LSTKXDATA
  C:14EFH         PUBLIC        ?C?LSTKXDATA
  -------         ENDMOD        ?C?LSTKXDATA

  -------         MODULE        ?C?CCASE
  C:1520H         PUBLIC        ?C?CCASE
  -------         ENDMOD        ?C?CCASE

  -------         MODULE        ?C?MEMSET
  C:1546H         PUBLIC        ?C?MEMSET
  -------         ENDMOD        ?C?MEMSET

*** WARNING L16: UNCALLED SEGMENT, IGNORED FOR OVERLAY PROCESS
    SEGMENT: ?PR?ILI9163C_INIT?LCD

*** WARNING L16: UNCALLED SEGMENT, IGNORED FOR OVERLAY PROCESS
    SEGMENT: ?PR?_LCD_FILL?LCD

*** WARNING L16: UNCALLED SEGMENT, IGNORED FOR OVERLAY PROCESS
    SEGMENT: ?PR?_DISPLAY_DOT?LCD

*** WARNING L16: UNCALLED SEGMENT, IGNORED FOR OVERLAY PROCESS
    SEGMENT: ?PR?_DISPLAY_HLINE?LCD

*** WARNING L16: UNCALLED SEGMENT, IGNORED FOR OVERLAY PROCESS
    SEGMENT: ?PR?_DISPLAY_VLINE?LCD

*** WARNING L16: UNCALLED SEGMENT, IGNORED FOR OVERLAY PROCESS
    SEGMENT: ?PR?_DISPLAYDIGIT?LCD

*** WARNING L16: UNCALLED SEGMENT, IGNORED FOR OVERLAY PROCESS
    SEGMENT: ?PR?_DISPLAYASCII?LCD

*** WARNING L16: UNCALLED SEGMENT, IGNORED FOR OVERLAY PROCESS
    SEGMENT: ?PR?_LCD_FANGDA_DIS_TEXT?LCD

*** WARNING L16: UNCALLED SEGMENT, IGNORED FOR OVERLAY PROCESS
    SEGMENT: ?PR?SHOWPOWERUPFACE?LCD

*** WARNING L16: UNCALLED SEGMENT, IGNORED FOR OVERLAY PROCESS
    SEGMENT: ?PR?SHOWMAINMENUFACE?LCD

BL51 BANKED LINKER/LOCATER V6.05                                                      08/18/2014  14:10:06  PAGE 98


*** WARNING L16: UNCALLED SEGMENT, IGNORED FOR OVERLAY PROCESS
    SEGMENT: ?PR?SHOWDIETFACE?LCD

*** WARNING L16: UNCALLED SEGMENT, IGNORED FOR OVERLAY PROCESS
    SEGMENT: ?PR?SHOWPRESCRIPTIONFACE?LCD

*** WARNING L16: UNCALLED SEGMENT, IGNORED FOR OVERLAY PROCESS
    SEGMENT: ?PR?SHOWPROMPTFACE?LCD

*** WARNING L16: UNCALLED SEGMENT, IGNORED FOR OVERLAY PROCESS
    SEGMENT: ?PR?LED0FLASH?SINGLEBUS

*** WARNING L16: UNCALLED SEGMENT, IGNORED FOR OVERLAY PROCESS
    SEGMENT: ?PR?SYSRESET?SINGLEBUS

*** WARNING L16: UNCALLED SEGMENT, IGNORED FOR OVERLAY PROCESS
    SEGMENT: ?PR?SPINORMALMODE?SPI

*** WARNING L16: UNCALLED SEGMENT, IGNORED FOR OVERLAY PROCESS
    SEGMENT: ?PR?_GETPSKCRC?USART

*** WARNING L16: UNCALLED SEGMENT, IGNORED FOR OVERLAY PROCESS
    SEGMENT: ?PR?SST25VF_INIT?PCT25VF

*** WARNING L16: UNCALLED SEGMENT, IGNORED FOR OVERLAY PROCESS
    SEGMENT: ?PR?HOLD_LOW?PCT25VF

*** WARNING L16: UNCALLED SEGMENT, IGNORED FOR OVERLAY PROCESS
    SEGMENT: ?PR?UNHOLD?PCT25VF

*** WARNING L16: UNCALLED SEGMENT, IGNORED FOR OVERLAY PROCESS
    SEGMENT: ?PR?WP_LOW?PCT25VF

*** WARNING L16: UNCALLED SEGMENT, IGNORED FOR OVERLAY PROCESS
    SEGMENT: ?PR?UNWP?PCT25VF

*** WARNING L16: UNCALLED SEGMENT, IGNORED FOR OVERLAY PROCESS
    SEGMENT: ?PR?_READ_ID?PCT25VF

*** WARNING L16: UNCALLED SEGMENT, IGNORED FOR OVERLAY PROCESS
    SEGMENT: ?PR?JEDEC_ID_READ?PCT25VF

*** WARNING L16: UNCALLED SEGMENT, IGNORED FOR OVERLAY PROCESS
    SEGMENT: ?PR?_HIGHSPEED_READ?PCT25VF

*** WARNING L16: UNCALLED SEGMENT, IGNORED FOR OVERLAY PROCESS
    SEGMENT: ?PR?_HIGHSPEED_READ_CONT?PCT25VF

*** WARNING L16: UNCALLED SEGMENT, IGNORED FOR OVERLAY PROCESS
    SEGMENT: ?PR?_AUTO_ADD_INCA?PCT25VF

*** WARNING L16: UNCALLED SEGMENT, IGNORED FOR OVERLAY PROCESS
    SEGMENT: ?PR?_AUTO_ADD_INCB?PCT25VF

*** WARNING L16: UNCALLED SEGMENT, IGNORED FOR OVERLAY PROCESS
    SEGMENT: ?PR?_AUTO_ADD_INCA_EBSY?PCT25VF

BL51 BANKED LINKER/LOCATER V6.05                                                      08/18/2014  14:10:06  PAGE 99


*** WARNING L16: UNCALLED SEGMENT, IGNORED FOR OVERLAY PROCESS
    SEGMENT: ?PR?_AUTO_ADD_INCB_EBSY?PCT25VF

*** WARNING L16: UNCALLED SEGMENT, IGNORED FOR OVERLAY PROCESS
    SEGMENT: ?PR?CHIP_ERASE?PCT25VF

*** WARNING L16: UNCALLED SEGMENT, IGNORED FOR OVERLAY PROCESS
    SEGMENT: ?PR?_BLOCK_ERASE_32K?PCT25VF

*** WARNING L16: UNCALLED SEGMENT, IGNORED FOR OVERLAY PROCESS
    SEGMENT: ?PR?_BLOCK_ERASE_64K?PCT25VF

*** WARNING L16: UNCALLED SEGMENT, IGNORED FOR OVERLAY PROCESS
    SEGMENT: ?PR?WAIT_BUSY_AAI?PCT25VF

*** WARNING L16: UNCALLED SEGMENT, IGNORED FOR OVERLAY PROCESS
    SEGMENT: ?PR?WREN_CHECK?PCT25VF

*** WARNING L16: UNCALLED SEGMENT, IGNORED FOR OVERLAY PROCESS
    SEGMENT: ?PR?WREN_AAI_CHECK?PCT25VF

*** WARNING L16: UNCALLED SEGMENT, IGNORED FOR OVERLAY PROCESS
    SEGMENT: ?PR?FRAM_TEST?PCT25VF

*** WARNING L16: UNCALLED SEGMENT, IGNORED FOR OVERLAY PROCESS
    SEGMENT: ?PR?_OSTASKSTKDEL?OS_CPU_C

*** WARNING L1: UNRESOLVED EXTERNAL SYMBOL
    SYMBOL:  ST7735_INIT
    MODULE:  main.obj (MAIN)

*** WARNING L2: REFERENCE MADE TO UNRESOLVED EXTERNAL
    SYMBOL:  ST7735_INIT
    MODULE:  main.obj (MAIN)
    ADDRESS: 3EF0H

Program Size: data=113.5 xdata=853 code=20651
LINK/LOCATE RUN COMPLETE.  40 WARNING(S),  0 ERROR(S)
