BL51 BANKED LINKER/LOCATER V6.05                                                        05/24/2012  09:37:58  PAGE 1


BL51 BANKED LINKER/LOCATER V6.05, INVOKED BY:
C:\KEIL\C51\BIN\BL51.EXE eeprom.obj, I2C.obj, main.obj, PCF8563.obj, SingleBus.obj, Uart.obj, Key.obj, .\OS_CORE.obj, .\
>> OS_MEM.obj, .\OS_Q.obj, .\OS_SEM.obj, .\OS_CPU_C.obj, .\OS_CPU_A.obj TO GLZJ-V10-DEBUG RAMSIZE (256)


MEMORY MODEL: LARGE


INPUT MODULES INCLUDED:
  eeprom.obj (EEPROM)
  I2C.obj (I2C)
  main.obj (MAIN)
  PCF8563.obj (PCF8563)
  SingleBus.obj (SINGLEBUS)
  Uart.obj (UART)
  Key.obj (KEY)
  .\OS_CORE.obj (OS_CORE)
  .\OS_MEM.obj (OS_MEM)
  .\OS_Q.obj (OS_Q)
  .\OS_SEM.obj (OS_SEM)
  .\OS_CPU_C.obj (OS_CPU_C)
  .\OS_CPU_A.obj (OS_CPU_A_ASM)
  C:\KEIL\C51\LIB\C51L.LIB (?C_STARTUP)
  C:\KEIL\C51\LIB\C51L.LIB (?C?COPY)
  C:\KEIL\C51\LIB\C51L.LIB (?C?CLDPTR)
  C:\KEIL\C51\LIB\C51L.LIB (?C?CLDOPTR)
  C:\KEIL\C51\LIB\C51L.LIB (?C?CSTPTR)
  C:\KEIL\C51\LIB\C51L.LIB (?C?CSTOPTR)
  C:\KEIL\C51\LIB\C51L.LIB (?C?UIDIV)
  C:\KEIL\C51\LIB\C51L.LIB (?C?IILDX)
  C:\KEIL\C51\LIB\C51L.LIB (?C?ILDIX)
  C:\KEIL\C51\LIB\C51L.LIB (?C?ILDOPTR)
  C:\KEIL\C51\LIB\C51L.LIB (?C?ISTOPTR)
  C:\KEIL\C51\LIB\C51L.LIB (?C?SLDIV)
  C:\KEIL\C51\LIB\C51L.LIB (?C?CCASE)
  C:\KEIL\C51\LIB\C51L.LIB (?C?MEMSET)
  C:\KEIL\C51\LIB\C51L.LIB (?C_INIT)
  C:\KEIL\C51\LIB\C51L.LIB (?C?ULDIV)


LINK MAP OF MODULE:  GLZJ-V10-DEBUG (EEPROM)


            TYPE    BASE      LENGTH    RELOCATION   SEGMENT NAME
            -----------------------------------------------------

            * * * * * * *   D A T A   M E M O R Y   * * * * * * *
            REG     0000H     0008H     ABSOLUTE     "REG BANK 0"
            DATA    0008H     0018H     UNIT         ?DT?SINGLEBUS
            DATA    0020H     0004H     BIT_ADDR     ?BA?SINGLEBUS
            DATA    0024H     0001H     BIT_ADDR     ?BA?UART
            BIT     0025H.0   0000H.3   UNIT         ?BI?MAIN
                    0025H.3   0000H.5                *** GAP ***
            DATA    0026H     000BH     UNIT         ?DT?OS_CORE
            DATA    0031H     0008H     UNIT         ?DT?OS_CPU_C
            DATA    0039H     0001H     UNIT         ?DT?MAIN
            IDATA   003AH     0010H     UNIT         ?ID?MAIN
            IDATA   004AH     0002H     UNIT         ?STACK
BL51 BANKED LINKER/LOCATER V6.05                                                      05/24/2012  09:37:58  PAGE 2



            * * * * * * *  X D A T A   M E M O R Y  * * * * * * *
            XDATA   0000H     017DH     UNIT         ?XD?MAIN
            XDATA   017DH     013EH     UNIT         ?XD?UART
            XDATA   02BBH     0086H     UNIT         ?XD?SINGLEBUS
            XDATA   0341H     0014H     UNIT         _XDATA_GROUP_
            XDATA   0355H     0007H     UNIT         ?XD?PCF8563
            XDATA   035CH     0006H     UNIT         ?XD?_DIRADDRCOMPARE?SINGLEBUS
            XDATA   0362H     0003H     UNIT         ?XD?_USARTSNDERROR?UART
            XDATA   0365H     0002H     UNIT         ?XD?EEPROM
            XDATA   0367H     0002H     UNIT         ?XD?OS_MEM
            XDATA   0369H     0001H     UNIT         ?XD?USARTRECERRHANDLE?UART
            XDATA   036AH     0001H     UNIT         ?XD?OS_CPU_C

            * * * * * * *   C O D E   M E M O R Y   * * * * * * *
            CODE    0000H     0003H     ABSOLUTE     
            CODE    0003H     0003H     ABSOLUTE     
            CODE    0006H     0004H     UNIT         ?PR?SPIINT?MAIN
            CODE    000AH     0001H     UNIT         ?PR?STOPVOICEPLAY?SINGLEBUS
            CODE    000BH     0003H     ABSOLUTE     
            CODE    000EH     0003H     UNIT         ?PR?TIMER1INT?MAIN
            CODE    0011H     0002H     UNIT         ?PR?_USERMEMCHKERR?OS_MEM
            CODE    0013H     0003H     ABSOLUTE     
            CODE    0016H     0003H     UNIT         ?PR?ADCINT?MAIN
            CODE    0019H     0001H     UNIT         ?PR?STARTVOICEPLAY?SINGLEBUS
            CODE    001AH     0001H     UNIT         ?PR?KEYUP?KEY
            CODE    001BH     0003H     ABSOLUTE     
            CODE    001EH     0003H     UNIT         ?PR?LVDINT?MAIN
                    0021H     0002H                  *** GAP ***
            CODE    0023H     0003H     ABSOLUTE     
            CODE    0026H     0003H     UNIT         ?PR?P8563_GETTIME?PCF8563
                    0029H     0002H                  *** GAP ***
            CODE    002BH     0003H     ABSOLUTE     
                    002EH     0005H                  *** GAP ***
            CODE    0033H     0003H     ABSOLUTE     
                    0036H     0005H                  *** GAP ***
            CODE    003BH     0003H     ABSOLUTE     
                    003EH     0005H                  *** GAP ***
            CODE    0043H     0003H     ABSOLUTE     
                    0046H     0005H                  *** GAP ***
            CODE    004BH     0003H     ABSOLUTE     
            CODE    004EH     0DEFH     UNIT         ?PR?BUS0RECDEAL?SINGLEBUS
            CODE    0E3DH     06B4H     UNIT         ?PR?TIMER0INT?SINGLEBUS
            CODE    14F1H     067CH     UNIT         ?PR?_ADDCALLNOD?SINGLEBUS
            CODE    1B6DH     061DH     UNIT         ?PR?USART1RECDEAL?UART
            CODE    218AH     05D3H     UNIT         ?PR?BUS0SENDFINISHDEAL?SINGLEBUS
            CODE    275DH     0376H     UNIT         ?C?LIB_CODE
            CODE    2AD3H     0346H     UNIT         ?PR?_REMOVECALLNOD?SINGLEBUS
            CODE    2E19H     01D5H     UNIT         ?PR?TIMEROUTDEAL?SINGLEBUS
            CODE    2FEEH     01B7H     UNIT         ?PR?_OSMEMFREE?OS_MEM
            CODE    31A5H     01B1H     UNIT         ?PR?_OSMEMNEW?OS_MEM
            CODE    3356H     017AH     UNIT         ?PR?RESTARTINDICATION?SINGLEBUS
            CODE    34D0H     0170H     UNIT         ?PR?UART1?UART
            CODE    3640H     0138H     UNIT         ?PR?_USARTSNDRESULT3?UART
            CODE    3778H     0125H     UNIT         ?PR?_USART1SNDDATA?UART
            CODE    389DH     0121H     UNIT         ?PR?_USARTSNDCMD?UART
            CODE    39BEH     010AH     UNIT         ?PR?USARTRECERRHANDLE?UART
BL51 BANKED LINKER/LOCATER V6.05                                                      05/24/2012  09:37:58  PAGE 3


            CODE    3AC8H     0103H     UNIT         ?PR?_USARTSNDRESULT1?UART
            CODE    3BCBH     00F5H     UNIT         ?PR?P8563MANAGER?PCF8563
            CODE    3CC0H     00EAH     UNIT         ?PR?_USARTSNDERROR?UART
            CODE    3DAAH     00D4H     UNIT         ?PR?_USARTSNDENTER?UART
            CODE    3E7EH     00D4H     UNIT         ?PR?_USARTSNDRESULT?UART
            CODE    3F52H     00BEH     UNIT         ?PR?PARAMETERINIT?MAIN
            CODE    4010H     00ABH     UNIT         ?PR?_ADDRCOMPARE?SINGLEBUS
            CODE    40BBH     00A0H     UNIT         ?PR?_BUS1OUTPUTDATA?SINGLEBUS
            CODE    415BH     0098H     UNIT         ?PR?UART0?UART
            CODE    41F3H     0094H     UNIT         ?PR?_OSQPEND?OS_Q
            CODE    4287H     008FH     UNIT         ?PR?_BUS0OUTPUTDATA?SINGLEBUS
            CODE    4316H     008EH     UNIT         ?PR?INIT?MAIN
            CODE    43A4H     008CH     UNIT         ?PR?C_OSCTXSW?OS_CPU_A
            CODE    4430H     008CH     UNIT         ?C_C51STARTUP
            CODE    44BCH     0088H     UNIT         ?PR?_OSQPOST?OS_Q
            CODE    4544H     0087H     UNIT         ?PR?USART0INIT?UART
            CODE    45CBH     0081H     UNIT         ?PR?_GETPSKCRC?UART
            CODE    464CH     007DH     UNIT         ?PR?_DIRADDRCOMPARE?SINGLEBUS
            CODE    46C9H     007CH     UNIT         ?PR?_OSTASKSTKINIT?OS_CPU_A
            CODE    4745H     0077H     UNIT         ?PR?_CHECKPSK?UART
            CODE    47BCH     006EH     UNIT         ?PR?_READDATASTR?I2C
            CODE    482AH     005EH     UNIT         ?PR?_OSWAIT?OS_CORE
            CODE    4888H     0050H     UNIT         ?PR?MAINTASK?MAIN
            CODE    48D8H     004EH     UNIT         ?PR?SAVEPARAMETER?MAIN
            CODE    4926H     004EH     UNIT         ?PR?SINGLEBUSINIT?SINGLEBUS
            CODE    4974H     004DH     UNIT         ?PR?_SAVEINDICATIONDATA?SINGLEBUS
            CODE    49C1H     004BH     UNIT         ?C_INITSEG
            CODE    4A0CH     004BH     UNIT         ?PR?BUS1RECDEAL?SINGLEBUS
            CODE    4A57H     0049H     UNIT         ?PR?OSTICKISR?OS_CPU_C
            CODE    4AA0H     0047H     UNIT         ?PR?_SAVECALLADDR?SINGLEBUS
            CODE    4AE7H     0046H     UNIT         ?PR?_OSMEMINIT?OS_MEM
            CODE    4B2DH     0044H     UNIT         ?C?LDIV
            CODE    4B71H     0043H     UNIT         ?PR?_STKDELA?OS_CPU_C
            CODE    4BB4H     0042H     UNIT         ?PR?_STKDELB?OS_CPU_C
            CODE    4BF6H     0040H     UNIT         ?PR?VOICECHANNELCTX?SINGLEBUS
            CODE    4C36H     0040H     UNIT         ?PR?USART1INIT?UART
            CODE    4C76H     003CH     UNIT         ?PR?__OSTASKCREATE?OS_CORE
            CODE    4CB2H     003AH     UNIT         ?PR?_WRITEDATASTR?I2C
            CODE    4CECH     0039H     UNIT         ?PR?_OSQCREATE?OS_Q
            CODE    4D25H     0038H     UNIT         ?PR?USERTICKTIMER?OS_CPU_C
            CODE    4D5DH     0036H     UNIT         ?PR?P8563_READ?PCF8563
            CODE    4D93H     0033H     UNIT         ?PR?LOADCTX?OS_CPU_A
            CODE    4DC6H     002FH     UNIT         ?PR?_WRITEBYTE?I2C
            CODE    4DF5H     002FH     UNIT         ?PR?OSINTCTXSW?OS_CPU_A
            CODE    4E24H     002EH     UNIT         ?PR?_DISPATCHMESSAGE?MAIN
            CODE    4E52H     002CH     UNIT         ?PR?BUSMANAGER?SINGLEBUS
            CODE    4E7EH     002BH     UNIT         ?PR?IOINIT?MAIN
            CODE    4EA9H     0028H     UNIT         ?PR?_BYTE_READ?EEPROM
            CODE    4ED1H     0026H     UNIT         ?PR?_BYTE_PROGRAM?EEPROM
            CODE    4EF7H     0026H     UNIT         ?PR?_OSTASKSTKDEL?OS_CPU_C
            CODE    4F1DH     0025H     UNIT         ?PR?WAITACK?I2C
            CODE    4F42H     0024H     UNIT         ?PR?_DELAY_US?I2C
            CODE    4F66H     0024H     UNIT         ?PR?OSINTEXIT?OS_CORE
            CODE    4F8AH     0023H     UNIT         ?PR?KEYMANAGER?KEY
            CODE    4FADH     0023H     UNIT         ?PR?_OSTIMEDLY?OS_CORE
            CODE    4FD0H     0022H     UNIT         ?PR?_SECTOR_ERASE?EEPROM
            CODE    4FF2H     0022H     UNIT         ?PR?_READDATA?I2C
BL51 BANKED LINKER/LOCATER V6.05                                                      05/24/2012  09:37:58  PAGE 4


            CODE    5014H     0020H     UNIT         ?PR?_UART_SEND_BYTE?UART
            CODE    5034H     001FH     UNIT         ?PR?READBYTE?I2C
            CODE    5053H     001FH     UNIT         ?PR?BUS1SENDFINISHDEAL?SINGLEBUS
            CODE    5072H     001FH     UNIT         ?PR?TIMEROUTMANAGER?SINGLEBUS
            CODE    5091H     001FH     UNIT         ?PR?OSTIMETICK?OS_CORE
            CODE    50B0H     001DH     UNIT         ?PR?BUS1MANAGER?SINGLEBUS
            CODE    50CDH     001CH     UNIT         ?PR?BUS1RECINT?SINGLEBUS
            CODE    50E9H     001BH     UNIT         ?PR?MAIN?MAIN
            CODE    5104H     001BH     UNIT         ?PR?P8563_INIT?PCF8563
            CODE    511FH     001AH     UNIT         ?PR?P8563_SETTIME?PCF8563
            CODE    5139H     0019H     UNIT         ?PR?_DELAYMS?MAIN
            CODE    5152H     0019H     UNIT         ?PR?_OSTASKRESUME?OS_CORE
            CODE    516BH     0018H     UNIT         ?PR?_OS_TASKSUSPEND?OS_CORE
            CODE    5183H     0018H     UNIT         ?PR?OSFINDNEXTRUNNINGTASK?OS_CORE
            CODE    519BH     0018H     UNIT         ?PR?_STKDELC?OS_CPU_C
            CODE    51B3H     0016H     UNIT         ?PR?START?I2C
            CODE    51C9H     0016H     UNIT         ?PR?_WRITEACK?I2C
            CODE    51DFH     0015H     UNIT         ?PR?_MAKECH1TIMEROUT?SINGLEBUS
            CODE    51F4H     0014H     UNIT         ?PR?STOP?I2C
            CODE    5208H     0014H     UNIT         ?PR?_WRITEDATA?I2C
            CODE    521CH     0014H     UNIT         ?PR?OSSCHED?OS_CORE
            CODE    5230H     0013H     UNIT         ?PR?_USARTSENDBYTE?UART
            CODE    5243H     0012H     UNIT         ?PR?KEYDOWN?KEY
            CODE    5255H     0011H     UNIT         ?PR?_MAKECH0TIMEROUT?SINGLEBUS
            CODE    5266H     0011H     UNIT         ?PR?OSINIT?OS_CORE
            CODE    5277H     0010H     UNIT         ?PR?BUS0RECINT?SINGLEBUS
            CODE    5287H     0010H     UNIT         ?PR?OSCPUINIT?OS_CPU_C
            CODE    5297H     000DH     UNIT         ?PR?LEDSTATEFLASH?MAIN
            CODE    52A4H     000DH     UNIT         ?PR?OSCTXSW?OS_CPU_A
            CODE    52B1H     000CH     UNIT         ?PR?IAP_DISABLE?EEPROM
            CODE    52BDH     000CH     UNIT         ?PR?MP3RST?MAIN
            CODE    52C9H     000CH     UNIT         ?PR?_OSTASKSUSPEND?OS_CORE
            CODE    52D5H     0009H     UNIT         ?PR?_GETMESSAGE?MAIN
            CODE    52DEH     0009H     UNIT         ?CO?OS_CORE
            CODE    52E7H     0007H     UNIT         ?PR?LEDINIT?MAIN



OVERLAY MAP OF MODULE:   GLZJ-V10-DEBUG (EEPROM)


SEGMENT                                     XDATA_GROUP
  +--> CALLED SEGMENT                     START    LENGTH
---------------------------------------------------------
?PR?OSTICKISR?OS_CPU_C                    -----    -----
  +--> ?PR?USERTICKTIMER?OS_CPU_C
  +--> ?PR?OSTIMETICK?OS_CORE
  +--> ?PR?OSINTEXIT?OS_CORE

?PR?OSTIMETICK?OS_CORE                    -----    -----
  +--> ?CO?OS_CORE
  +--> ?PR?OSSCHED?OS_CORE

?PR?OSSCHED?OS_CORE                       -----    -----
  +--> ?PR?OSFINDNEXTRUNNINGTASK?OS_CORE
  +--> ?PR?OSCTXSW?OS_CPU_A

BL51 BANKED LINKER/LOCATER V6.05                                                      05/24/2012  09:37:58  PAGE 5


?PR?OSCTXSW?OS_CPU_A                      -----    -----
  +--> ?CO?OS_CORE
  +--> ?PR?C_OSCTXSW?OS_CPU_A

?PR?C_OSCTXSW?OS_CPU_A                    -----    -----
  +--> ?PR?LOADCTX?OS_CPU_A

?PR?LOADCTX?OS_CPU_A                      -----    -----
  +--> ?CO?OS_CORE

?PR?OSINTEXIT?OS_CORE                     -----    -----
  +--> ?PR?OSFINDNEXTRUNNINGTASK?OS_CORE
  +--> ?PR?OSINTCTXSW?OS_CPU_A

?PR?OSINTCTXSW?OS_CPU_A                   -----    -----
  +--> ?PR?OSCTXSW?OS_CPU_A
  +--> ?CO?OS_CORE
  +--> ?PR?C_OSCTXSW?OS_CPU_A

*** NEW ROOT ***************************************************

?C_C51STARTUP                             -----    -----
  +--> ?PR?MAIN?MAIN
  +--> ?C_INITSEG

?PR?MAIN?MAIN                             -----    -----
  +--> ?PR?_DELAYMS?MAIN
  +--> ?PR?OSINIT?OS_CORE
  +--> ?PR?MAINTASK?MAIN
  +--> ?PR?__OSTASKCREATE?OS_CORE

?PR?OSINIT?OS_CORE                        -----    -----
  +--> ?PR?OSCPUINIT?OS_CPU_C

?PR?MAINTASK?MAIN                         -----    -----
  +--> ?PR?INIT?MAIN
  +--> ?PR?_OSQCREATE?OS_Q
  +--> ?PR?BUSMANAGER?SINGLEBUS
  +--> ?PR?__OSTASKCREATE?OS_CORE
  +--> ?PR?TIMEROUTMANAGER?SINGLEBUS
  +--> ?PR?KEYMANAGER?KEY
  +--> ?PR?P8563MANAGER?PCF8563
  +--> ?PR?_GETMESSAGE?MAIN
  +--> ?PR?_DISPATCHMESSAGE?MAIN
  +--> ?PR?USART1RECDEAL?UART

?PR?INIT?MAIN                             -----    -----
  +--> ?PR?IOINIT?MAIN
  +--> ?PR?MP3RST?MAIN
  +--> ?PR?LEDINIT?MAIN
  +--> ?PR?SINGLEBUSINIT?SINGLEBUS
  +--> ?PR?PARAMETERINIT?MAIN
  +--> ?PR?USART0INIT?UART
  +--> ?PR?USART1INIT?UART
  +--> ?PR?_USARTSENDBYTE?UART
  +--> ?PR?_OSMEMINIT?OS_MEM
  +--> ?PR?_MAKECH0TIMEROUT?SINGLEBUS
BL51 BANKED LINKER/LOCATER V6.05                                                      05/24/2012  09:37:58  PAGE 6


  +--> ?PR?_USARTSNDCMD?UART

?PR?MP3RST?MAIN                           -----    -----
  +--> ?PR?_OSWAIT?OS_CORE

?PR?_OSWAIT?OS_CORE                       -----    -----
  +--> ?PR?_OSTASKSUSPEND?OS_CORE
  +--> ?PR?_OSTIMEDLY?OS_CORE
  +--> ?PR?_OS_TASKSUSPEND?OS_CORE
  +--> ?PR?OSSCHED?OS_CORE

?PR?_OSTASKSUSPEND?OS_CORE                -----    -----
  +--> ?PR?_OS_TASKSUSPEND?OS_CORE
  +--> ?PR?OSSCHED?OS_CORE

?PR?_OS_TASKSUSPEND?OS_CORE               -----    -----
  +--> ?CO?OS_CORE

?PR?_OSTIMEDLY?OS_CORE                    -----    -----
  +--> ?PR?_OS_TASKSUSPEND?OS_CORE
  +--> ?PR?OSSCHED?OS_CORE

?PR?PARAMETERINIT?MAIN                    0341H    0006H
  +--> ?PR?_BYTE_READ?EEPROM
  +--> ?PR?_SECTOR_ERASE?EEPROM
  +--> ?PR?_BYTE_PROGRAM?EEPROM

?PR?_BYTE_READ?EEPROM                     -----    -----
  +--> ?PR?IAP_DISABLE?EEPROM

?PR?_SECTOR_ERASE?EEPROM                  -----    -----
  +--> ?PR?IAP_DISABLE?EEPROM

?PR?_BYTE_PROGRAM?EEPROM                  -----    -----
  +--> ?PR?IAP_DISABLE?EEPROM

?PR?_MAKECH0TIMEROUT?SINGLEBUS            -----    -----
  +--> ?PR?VOICECHANNELCTX?SINGLEBUS

?PR?_USARTSNDCMD?UART                     0347H    0006H
  +--> ?PR?_GETPSKCRC?UART

?PR?_GETPSKCRC?UART                       034DH    0008H

?PR?BUSMANAGER?SINGLEBUS                  -----    -----
  +--> ?PR?_OSQPOST?OS_Q
  +--> ?PR?_OSWAIT?OS_CORE

?PR?_OSQPOST?OS_Q                         -----    -----
  +--> ?CO?OS_CORE
  +--> ?PR?_OSTASKRESUME?OS_CORE

?PR?_OSTASKRESUME?OS_CORE                 -----    -----
  +--> ?CO?OS_CORE
  +--> ?PR?OSSCHED?OS_CORE

?PR?__OSTASKCREATE?OS_CORE                -----    -----
BL51 BANKED LINKER/LOCATER V6.05                                                      05/24/2012  09:37:58  PAGE 7


  +--> ?CO?OS_CORE
  +--> ?PR?_OSTASKSTKINIT?OS_CPU_A
  +--> ?PR?OSSCHED?OS_CORE

?PR?_OSTASKSTKINIT?OS_CPU_A               -----    -----
  +--> ?CO?OS_CORE

?PR?TIMEROUTMANAGER?SINGLEBUS             -----    -----
  +--> ?PR?_OSWAIT?OS_CORE
  +--> ?PR?_OSQPOST?OS_Q

?PR?KEYMANAGER?KEY                        -----    -----
  +--> ?PR?_OSTIMEDLY?OS_CORE
  +--> ?PR?_OSQPOST?OS_Q

?PR?P8563MANAGER?PCF8563                  -----    -----
  +--> ?PR?_OSWAIT?OS_CORE
  +--> ?PR?P8563_READ?PCF8563
  +--> ?PR?_BUS0OUTPUTDATA?SINGLEBUS

?PR?P8563_READ?PCF8563                    -----    -----
  +--> ?PR?_READDATASTR?I2C

?PR?_READDATASTR?I2C                      0341H    0006H
  +--> ?PR?_WRITEBYTE?I2C
  +--> ?PR?START?I2C
  +--> ?PR?READBYTE?I2C
  +--> ?PR?_WRITEACK?I2C
  +--> ?PR?STOP?I2C

?PR?_WRITEBYTE?I2C                        -----    -----
  +--> ?PR?START?I2C
  +--> ?PR?_DELAY_US?I2C
  +--> ?PR?WAITACK?I2C

?PR?START?I2C                             -----    -----
  +--> ?PR?_DELAY_US?I2C

?PR?WAITACK?I2C                           -----    -----
  +--> ?PR?_DELAY_US?I2C
  +--> ?PR?STOP?I2C

?PR?STOP?I2C                              -----    -----
  +--> ?PR?_DELAY_US?I2C

?PR?READBYTE?I2C                          -----    -----
  +--> ?PR?_DELAY_US?I2C

?PR?_WRITEACK?I2C                         -----    -----
  +--> ?PR?_DELAY_US?I2C

?PR?_BUS0OUTPUTDATA?SINGLEBUS             0347H    0004H

?PR?_GETMESSAGE?MAIN                      -----    -----
  +--> ?PR?_OSQPEND?OS_Q

?PR?_OSQPEND?OS_Q                         -----    -----
BL51 BANKED LINKER/LOCATER V6.05                                                      05/24/2012  09:37:58  PAGE 8


  +--> ?CO?OS_CORE
  +--> ?PR?_OS_TASKSUSPEND?OS_CORE
  +--> ?PR?OSSCHED?OS_CORE

?PR?_DISPATCHMESSAGE?MAIN                 -----    -----
  +--> ?PR?BUS0RECDEAL?SINGLEBUS
  +--> ?PR?BUS0SENDFINISHDEAL?SINGLEBUS
  +--> ?PR?BUS1RECDEAL?SINGLEBUS
  +--> ?PR?BUS1SENDFINISHDEAL?SINGLEBUS
  +--> ?PR?KEYDOWN?KEY
  +--> ?PR?TIMEROUTDEAL?SINGLEBUS

?PR?BUS0RECDEAL?SINGLEBUS                 0341H    0003H
  +--> ?PR?LEDSTATEFLASH?MAIN
  +--> ?PR?_USART1SNDDATA?UART
  +--> ?PR?_GETPSKCRC?UART
  +--> ?PR?_ADDCALLNOD?SINGLEBUS
  +--> ?PR?_BUS0OUTPUTDATA?SINGLEBUS
  +--> ?PR?_SAVEINDICATIONDATA?SINGLEBUS
  +--> ?PR?_REMOVECALLNOD?SINGLEBUS
  +--> ?PR?_SAVECALLADDR?SINGLEBUS
  +--> ?PR?_BUS1OUTPUTDATA?SINGLEBUS
  +--> ?PR?VOICECHANNELCTX?SINGLEBUS
  +--> ?PR?_ADDRCOMPARE?SINGLEBUS
  +--> ?PR?_MAKECH0TIMEROUT?SINGLEBUS
  +--> ?PR?_USARTSNDRESULT?UART
  +--> ?PR?RESTARTINDICATION?SINGLEBUS
  +--> ?PR?_USARTSNDCMD?UART
  +--> ?PR?_MAKECH1TIMEROUT?SINGLEBUS
  +--> ?PR?P8563_SETTIME?PCF8563
  +--> ?PR?_USARTSNDRESULT1?UART
  +--> ?PR?_USARTSNDRESULT3?UART

?PR?_USART1SNDDATA?UART                   0344H    0006H
  +--> ?PR?_GETPSKCRC?UART

?PR?_ADDCALLNOD?SINGLEBUS                 0344H    0009H
  +--> ?PR?_OSMEMNEW?OS_MEM

?PR?_OSMEMNEW?OS_MEM                      034DH    0004H

?PR?_REMOVECALLNOD?SINGLEBUS              0344H    0006H
  +--> ?PR?_OSMEMFREE?OS_MEM

?PR?_OSMEMFREE?OS_MEM                     034AH    0004H
  +--> ?PR?_USERMEMCHKERR?OS_MEM

?PR?_BUS1OUTPUTDATA?SINGLEBUS             0344H    0004H

?PR?_ADDRCOMPARE?SINGLEBUS                0344H    0006H

?PR?_USARTSNDRESULT?UART                  0344H    0003H
  +--> ?PR?_GETPSKCRC?UART

?PR?RESTARTINDICATION?SINGLEBUS           0344H    0003H
  +--> ?PR?_BUS0OUTPUTDATA?SINGLEBUS
  +--> ?PR?_USARTSNDCMD?UART
BL51 BANKED LINKER/LOCATER V6.05                                                      05/24/2012  09:37:58  PAGE 9


  +--> ?PR?_SAVEINDICATIONDATA?SINGLEBUS

?PR?P8563_SETTIME?PCF8563                 -----    -----
  +--> ?PR?_WRITEDATASTR?I2C

?PR?_WRITEDATASTR?I2C                     0344H    0003H
  +--> ?PR?_WRITEBYTE?I2C
  +--> ?PR?STOP?I2C

?PR?_USARTSNDRESULT1?UART                 0344H    0004H
  +--> ?PR?_GETPSKCRC?UART

?PR?_USARTSNDRESULT3?UART                 0344H    0009H
  +--> ?PR?_GETPSKCRC?UART

?PR?BUS0SENDFINISHDEAL?SINGLEBUS          0341H    0003H
  +--> ?PR?_USART1SNDDATA?UART
  +--> ?PR?_BUS0OUTPUTDATA?SINGLEBUS
  +--> ?PR?_BUS1OUTPUTDATA?SINGLEBUS
  +--> ?PR?VOICECHANNELCTX?SINGLEBUS
  +--> ?PR?_MAKECH0TIMEROUT?SINGLEBUS
  +--> ?PR?_MAKECH1TIMEROUT?SINGLEBUS
  +--> ?PR?_USARTSNDRESULT?UART
  +--> ?PR?_USARTSNDCMD?UART
  +--> ?PR?_REMOVECALLNOD?SINGLEBUS
  +--> ?PR?RESTARTINDICATION?SINGLEBUS
  +--> ?PR?_GETPSKCRC?UART
  +--> ?PR?_SAVECALLADDR?SINGLEBUS
  +--> ?PR?USART0INIT?UART
  +--> ?PR?SAVEPARAMETER?MAIN
  +--> ?PR?_DELAYMS?MAIN

?PR?SAVEPARAMETER?MAIN                    0344H    0006H
  +--> ?PR?_SECTOR_ERASE?EEPROM
  +--> ?PR?_BYTE_PROGRAM?EEPROM

?PR?BUS1RECDEAL?SINGLEBUS                 -----    -----
  +--> ?PR?_BUS0OUTPUTDATA?SINGLEBUS

?PR?TIMEROUTDEAL?SINGLEBUS                -----    -----
  +--> ?PR?_BUS0OUTPUTDATA?SINGLEBUS
  +--> ?PR?_USARTSNDCMD?UART
  +--> ?PR?_USARTSNDRESULT?UART
  +--> ?PR?RESTARTINDICATION?SINGLEBUS

?PR?USART1RECDEAL?UART                    0341H    0003H
  +--> ?PR?_CHECKPSK?UART
  +--> ?PR?_USARTSNDENTER?UART
  +--> ?PR?P8563_SETTIME?PCF8563
  +--> ?PR?_BUS0OUTPUTDATA?SINGLEBUS
  +--> ?PR?_USARTSNDRESULT?UART
  +--> ?PR?_DELAYMS?MAIN
  +--> ?PR?_MAKECH0TIMEROUT?SINGLEBUS
  +--> ?PR?_MAKECH1TIMEROUT?SINGLEBUS
  +--> ?PR?SAVEPARAMETER?MAIN

?PR?_CHECKPSK?UART                        0344H    0008H
BL51 BANKED LINKER/LOCATER V6.05                                                      05/24/2012  09:37:58  PAGE 10



?PR?_USARTSNDENTER?UART                   0344H    0003H
  +--> ?PR?_GETPSKCRC?UART



SYMBOL TABLE OF MODULE:  GLZJ-V10-DEBUG (EEPROM)

  VALUE           TYPE          NAME
  ----------------------------------

  -------         MODULE        EEPROM
  C:0000H         SYMBOL        _ICE_DUMMY_
  D:0080H         PUBLIC        P0
  D:0090H         PUBLIC        P1
  D:00A0H         PUBLIC        P2
  D:00B0H         PUBLIC        P3
  D:00C0H         PUBLIC        P4
  D:00C8H         PUBLIC        P5
  D:00A8H         PUBLIC        IE
  D:00C5H         PUBLIC        IAP_CMD
  D:00B8H         PUBLIC        IP
  D:00C3H         PUBLIC        IAP_ADDRH
  D:00D8H         PUBLIC        CCON
  D:00C4H         PUBLIC        IAP_ADDRL
  X:0365H         PUBLIC        my_unTemp16
  D:0098H         PUBLIC        SCON
  D:0088H         PUBLIC        TCON
  D:00C7H         PUBLIC        IAP_CONTR
  C:4FD0H         PUBLIC        _Sector_Erase
  D:00E0H         PUBLIC        ACC
  C:4ED1H         PUBLIC        _Byte_Program
  D:00C2H         PUBLIC        IAP_DATA
  D:00C6H         PUBLIC        IAP_TRIG
  C:52B1H         PUBLIC        IAP_Disable
  C:4EA9H         PUBLIC        _Byte_Read
  D:00D0H         PUBLIC        PSW
  -------         PROC          _BYTE_READ
  D:0006H         SYMBOL        add
  C:4EA9H         LINE#         12
  C:4EA9H         LINE#         13
  C:4EA9H         LINE#         14
  C:4EACH         LINE#         15
  C:4EAFH         LINE#         16
  C:4EB2H         LINE#         18
  C:4EBAH         LINE#         19
  C:4EC0H         LINE#         20
  C:4EC4H         LINE#         23
  C:4EC7H         LINE#         24
  C:4ECAH         LINE#         25
  C:4ECBH         LINE#         27
  C:4ECEH         LINE#         29
  C:4ED0H         LINE#         30
  -------         ENDPROC       _BYTE_READ
  -------         PROC          _BYTE_PROGRAM
  D:0006H         SYMBOL        add
  D:0005H         SYMBOL        ch
BL51 BANKED LINKER/LOCATER V6.05                                                      05/24/2012  09:37:58  PAGE 11


  C:4ED1H         LINE#         33
  C:4ED1H         LINE#         34
  C:4ED1H         LINE#         35
  C:4ED4H         LINE#         36
  C:4ED7H         LINE#         38
  C:4EDFH         LINE#         39
  C:4EE5H         LINE#         40
  C:4EE9H         LINE#         42
  C:4EEDH         LINE#         44
  C:4EF0H         LINE#         45
  C:4EF3H         LINE#         46
  C:4EF4H         LINE#         48
  -------         ENDPROC       _BYTE_PROGRAM
  -------         PROC          _SECTOR_ERASE
  D:0006H         SYMBOL        add
  C:4FD0H         LINE#         53
  C:4FD0H         LINE#         54
  C:4FD0H         LINE#         55
  C:4FD3H         LINE#         56
  C:4FD6H         LINE#         58
  C:4FDEH         LINE#         59
  C:4FE4H         LINE#         60
  C:4FE8H         LINE#         63
  C:4FEBH         LINE#         64
  C:4FEEH         LINE#         65
  C:4FEFH         LINE#         67
  -------         ENDPROC       _SECTOR_ERASE
  -------         PROC          IAP_DISABLE
  C:52B1H         LINE#         71
  C:52B1H         LINE#         72
  C:52B1H         LINE#         75
  C:52B4H         LINE#         76
  C:52B6H         LINE#         77
  C:52B8H         LINE#         78
  C:52BAH         LINE#         79
  C:52BCH         LINE#         80
  -------         ENDPROC       IAP_DISABLE
  -------         ENDMOD        EEPROM

  -------         MODULE        I2C
  C:0000H         SYMBOL        _ICE_DUMMY_
  D:0080H         PUBLIC        P0
  D:0090H         PUBLIC        P1
  D:00A0H         PUBLIC        P2
  D:00B0H         PUBLIC        P3
  D:00C0H         PUBLIC        P4
  D:00C8H         PUBLIC        P5
  D:00A8H         PUBLIC        IE
  C:51B3H         PUBLIC        Start
  D:00B8H         PUBLIC        IP
  D:00D8H         PUBLIC        CCON
  C:51F4H         PUBLIC        Stop
  C:5208H         PUBLIC        _writeData
  D:0098H         PUBLIC        SCON
  C:5034H         PUBLIC        Readbyte
  D:0088H         PUBLIC        TCON
  C:47BCH         PUBLIC        _ReadDataStr
BL51 BANKED LINKER/LOCATER V6.05                                                      05/24/2012  09:37:58  PAGE 12


  C:4F49H         PUBLIC        _Delay_us
  D:00E0H         PUBLIC        ACC
  B:0080H.5       PUBLIC        SDA
  C:51C9H         PUBLIC        _WriteACK
  B:0080H.4       PUBLIC        SCL
  C:4DCDH         PUBLIC        _writebyte
  C:4CB2H         PUBLIC        _writeDataStr
  C:4F1DH         PUBLIC        WaitACK
  C:4FF2H         PUBLIC        _ReadData
  D:00D0H         PUBLIC        PSW
  C:4F44H         SYMBOL        L?0035
  -------         PROC          L?0034
  -------         ENDPROC       L?0034
  C:4F44H         SYMBOL        L?0035
  -------         PROC          _DELAY_US
  D:0007H         SYMBOL        cnt
  -------         DO            
  D:0006H         SYMBOL        i
  -------         ENDDO         
  C:4F49H         LINE#         39
  C:4F49H         LINE#         40
  C:4F49H         LINE#         42
  C:4F50H         LINE#         43
  C:4F50H         LINE#         44
  C:4F51H         LINE#         45
  C:4F52H         LINE#         46
  C:4F53H         LINE#         47
  C:4F54H         LINE#         48
  C:4F55H         LINE#         49
  C:4F56H         LINE#         50
  C:4F57H         LINE#         51
  C:4F58H         LINE#         52
  C:4F59H         LINE#         55
  C:4F5AH         LINE#         56
  C:4F5BH         LINE#         57
  C:4F5CH         LINE#         58
  C:4F5DH         LINE#         59
  C:4F5EH         LINE#         60
  C:4F5FH         LINE#         61
  C:4F60H         LINE#         62
  C:4F61H         LINE#         63
  C:4F62H         LINE#         65
  C:4F65H         LINE#         68
  -------         ENDPROC       _DELAY_US
  -------         PROC          START
  C:51B3H         LINE#         73
  C:51B3H         LINE#         74
  C:51B3H         LINE#         75
  C:51B5H         LINE#         76
  C:51BAH         LINE#         78
  C:51BCH         LINE#         79
  C:51BCH         LINE#         80
  C:51BCH         LINE#         81
  C:51BFH         LINE#         82
  C:51C1H         LINE#         83
  C:51C4H         LINE#         84
  C:51C6H         LINE#         85
BL51 BANKED LINKER/LOCATER V6.05                                                      05/24/2012  09:37:58  PAGE 13


  -------         ENDPROC       START
  -------         PROC          STOP
  C:51F4H         LINE#         91
  C:51F4H         LINE#         92
  C:51F4H         LINE#         93
  C:51F6H         LINE#         94
  C:51FBH         LINE#         95
  C:51FDH         LINE#         97
  C:51FDH         LINE#         98
  C:51FDH         LINE#         99
  C:5200H         LINE#         100
  C:5202H         LINE#         101
  C:5205H         LINE#         102
  C:5207H         LINE#         104
  -------         ENDPROC       STOP
  -------         PROC          _WRITEACK
  D:0005H         SYMBOL        ack
  C:51C9H         LINE#         108
  C:51CBH         LINE#         109
  C:51CBH         LINE#         111
  C:51CDH         LINE#         112
  C:51D2H         LINE#         113
  C:51D7H         LINE#         114
  C:51D7H         LINE#         115
  C:51D7H         LINE#         116
  C:51DAH         LINE#         117
  C:51DCH         LINE#         118
  -------         ENDPROC       _WRITEACK
  -------         PROC          WAITACK
  -------         DO            
  D:0004H         SYMBOL        errtime
  -------         ENDDO         
  C:4F1DH         LINE#         123
  C:4F1DH         LINE#         124
  C:4F1DH         LINE#         125
  C:4F21H         LINE#         126
  C:4F23H         LINE#         127
  C:4F25H         LINE#         128
  C:4F25H         LINE#         129
  C:4F25H         LINE#         130
  C:4F28H         LINE#         131
  C:4F2BH         LINE#         132
  C:4F30H         LINE#         133
  C:4F34H         LINE#         134
  C:4F34H         LINE#         135
  C:4F37H         LINE#         136
  C:4F3AH         LINE#         138
  C:4F3AH         LINE#         139
  C:4F3AH         LINE#         140
  C:4F3CH         LINE#         141
  C:4F41H         LINE#         143
  -------         ENDPROC       WAITACK
  C:4DC8H         SYMBOL        L?0037
  -------         PROC          L?0036
  -------         ENDPROC       L?0036
  C:4DC8H         SYMBOL        L?0037
  -------         PROC          _WRITEBYTE
BL51 BANKED LINKER/LOCATER V6.05                                                      05/24/2012  09:37:58  PAGE 14


  D:0005H         SYMBOL        wdata
  -------         DO            
  D:0004H         SYMBOL        i
  -------         ENDDO         
  C:4DCDH         LINE#         148
  C:4DCFH         LINE#         149
  C:4DCFH         LINE#         151
  C:4DD1H         LINE#         152
  C:4DD3H         LINE#         153
  C:4DD3H         LINE#         154
  C:4DD8H         LINE#         155
  C:4DE0H         LINE#         156
  C:4DE2H         LINE#         157
  C:4DE6H         LINE#         158
  C:4DE6H         LINE#         159
  C:4DE6H         LINE#         160
  C:4DE9H         LINE#         161
  C:4DEBH         LINE#         162
  C:4DF0H         LINE#         163
  C:4DF2H         LINE#         164
  -------         ENDPROC       _WRITEBYTE
  -------         PROC          READBYTE
  -------         DO            
  D:0004H         SYMBOL        i
  D:0005H         SYMBOL        bytedata
  -------         ENDDO         
  C:5034H         LINE#         170
  C:5034H         LINE#         171
  C:5034H         LINE#         173
  C:5036H         LINE#         174
  C:5038H         LINE#         175
  C:5038H         LINE#         176
  C:503AH         LINE#         177
  C:503EH         LINE#         178
  C:5044H         LINE#         179
  C:5046H         LINE#         180
  C:504BH         LINE#         181
  C:5050H         LINE#         182
  C:5052H         LINE#         183
  -------         ENDPROC       READBYTE
  -------         PROC          _WRITEDATA
  D:0002H         SYMBOL        address
  D:0003H         SYMBOL        mdata
  C:5208H         LINE#         187
  C:520CH         LINE#         188
  C:520CH         LINE#         189
  C:520CH         LINE#         190
  C:520FH         LINE#         191
  C:5214H         LINE#         192
  C:5219H         LINE#         193
  -------         ENDPROC       _WRITEDATA
  -------         PROC          _WRITEDATASTR
  X:0344H         SYMBOL        address
  X:0345H         SYMBOL        count
  D:0001H         SYMBOL        buff
  -------         DO            
  X:0346H         SYMBOL        i
BL51 BANKED LINKER/LOCATER V6.05                                                      05/24/2012  09:37:58  PAGE 15


  -------         ENDDO         
  C:4CB2H         LINE#         199
  C:4CB8H         LINE#         200
  C:4CB8H         LINE#         202
  C:4CB8H         LINE#         203
  C:4CBBH         LINE#         204
  C:4CC3H         LINE#         205
  C:4CD3H         LINE#         206
  C:4CD3H         LINE#         207
  C:4CDAH         LINE#         208
  C:4CE1H         LINE#         209
  C:4CE9H         LINE#         211
  -------         ENDPROC       _WRITEDATASTR
  -------         PROC          _READDATA
  D:0003H         SYMBOL        address
  -------         DO            
  D:0004H         SYMBOL        rdata
  -------         ENDDO         
  C:4FF2H         LINE#         218
  C:4FF4H         LINE#         219
  C:4FF4H         LINE#         220
  C:4FF4H         LINE#         221
  C:4FF7H         LINE#         222
  C:4FFCH         LINE#         223
  C:4FFFH         LINE#         224
  C:5004H         LINE#         225
  C:5009H         LINE#         226
  C:500EH         LINE#         227
  C:5011H         LINE#         228
  C:5013H         LINE#         229
  -------         ENDPROC       _READDATA
  -------         PROC          _READDATASTR
  X:0341H         SYMBOL        address
  X:0342H         SYMBOL        count
  X:0343H         SYMBOL        buff
  -------         DO            
  X:0346H         SYMBOL        i
  -------         ENDDO         
  C:47BCH         LINE#         231
  C:47CBH         LINE#         232
  C:47CBH         LINE#         233
  C:47CBH         LINE#         234
  C:47CEH         LINE#         235
  C:47D6H         LINE#         236
  C:47D9H         LINE#         237
  C:47DEH         LINE#         238
  C:47F0H         LINE#         239
  C:47F0H         LINE#         240
  C:480AH         LINE#         241
  C:481AH         LINE#         242
  C:4822H         LINE#         243
  C:4827H         LINE#         244
  -------         ENDPROC       _READDATASTR
  -------         ENDMOD        I2C

  -------         MODULE        MAIN
  C:0000H         SYMBOL        _ICE_DUMMY_
BL51 BANKED LINKER/LOCATER V6.05                                                      05/24/2012  09:37:58  PAGE 16


  D:0092H         PUBLIC        P1M0
  C:4E24H         PUBLIC        _DispatchMessage
  D:0096H         PUBLIC        P2M0
  D:0091H         PUBLIC        P1M1
  D:0080H         PUBLIC        P0
  D:0095H         PUBLIC        P2M1
  D:0090H         PUBLIC        P1
  D:00A0H         PUBLIC        P2
  B:0090H.7       PUBLIC        POWER_EN
  D:00CAH         PUBLIC        P5M0
  D:00B0H         PUBLIC        P3
  D:00C9H         PUBLIC        P5M1
  D:00C0H         PUBLIC        P4
  D:00C8H         PUBLIC        P5
  B:00C8H.3       PUBLIC        GB_FZ
  D:00F9H         PUBLIC        CH
  C:5297H         PUBLIC        LedStateFlash
  B:00A8H.5       PUBLIC        EADC
  D:00A8H         PUBLIC        IE
  D:00E9H         PUBLIC        CL
  D:00FAH         PUBLIC        CCAP0H
  D:00EAH         PUBLIC        CCAP0L
  B:00D8H.6       PUBLIC        CR
  C:4316H         PUBLIC        Init
  D:00DAH         PUBLIC        CCAPM0
  D:00B8H         PUBLIC        IP
  C:4888H         PUBLIC        MainTask
  X:0000H         PUBLIC        uiIsrTimerCount
  D:00D9H         PUBLIC        CMOD
  D:00D8H         PUBLIC        CCON
  B:0090H.4       PUBLIC        SS
  C:50E9H         PUBLIC        main
  B:00C0H.6       PUBLIC        MP3_RST
  C:52BDH         PUBLIC        Mp3Rst
  B:0025H.0       PUBLIC        bPowerEnState
  B:00A8H.6       PUBLIC        ELVD
  C:52E7H         PUBLIC        LedInit
  D:00BBH         PUBLIC        P4SW
  D:0098H         PUBLIC        SCON
  D:0088H         PUBLIC        TCON
  C:0016H         PUBLIC        AdcInt
  C:48D8H         PUBLIC        SaveParameter
  B:0080H.2       PUBLIC        DE0
  B:0080H.7       PUBLIC        LED_STATE
  X:0002H         PUBLIC        stLocalControl
  C:3F52H         PUBLIC        ParameterInit
  D:00AFH         PUBLIC        IE2
  B:0080H.6       PUBLIC        LED_POWER
  B:0080H.1       PUBLIC        RE0
  D:00E0H         PUBLIC        ACC
  B:00A8H.3       PUBLIC        ET1
  I:003AH         PUBLIC        byMainCmdQ
  D:008DH         PUBLIC        TH1
  C:4E7EH         PUBLIC        IoInit
  B:00C8H.0       PUBLIC        KBC
  B:00C8H.1       PUBLIC        KBD
  C:5139H         PUBLIC        _Delayms
BL51 BANKED LINKER/LOCATER V6.05                                                      05/24/2012  09:37:58  PAGE 17


  C:001EH         PUBLIC        LvdInt
  B:00A0H.5       PUBLIC        KGB
  D:00C1H         PUBLIC        WDT_CONTR
  X:0051H         PUBLIC        byMallocMem
  C:0006H         PUBLIC        SpiInt
  C:000EH         PUBLIC        TIMER1Int
  C:52D5H         PUBLIC        _GetMessage
  B:0025H.1       PUBLIC        bPCState
  D:00D0H         PUBLIC        PSW
  B:0025H.2       PUBLIC        bLedState
  -------         PROC          TIMER1INT
  C:000EH         LINE#         43
  C:000EH         LINE#         45
  C:0010H         LINE#         46
  -------         ENDPROC       TIMER1INT
  -------         PROC          ADCINT
  C:0016H         LINE#         49
  C:0016H         LINE#         51
  C:0018H         LINE#         52
  -------         ENDPROC       ADCINT
  -------         PROC          LVDINT
  C:001EH         LINE#         54
  C:001EH         LINE#         56
  C:0020H         LINE#         57
  -------         ENDPROC       LVDINT
  -------         PROC          SPIINT
  C:0006H         LINE#         66
  C:0006H         LINE#         68
  C:0009H         LINE#         69
  -------         ENDPROC       SPIINT
  -------         PROC          MP3RST
  C:52BDH         LINE#         74
  C:52BDH         LINE#         75
  C:52BDH         LINE#         76
  C:52BFH         LINE#         77
  C:52C6H         LINE#         78
  C:52C8H         LINE#         79
  -------         ENDPROC       MP3RST
  -------         PROC          _DELAYMS
  D:0006H         SYMBOL        ms
  -------         DO            
  D:0004H         SYMBOL        i
  -------         ENDDO         
  C:5139H         LINE#         88
  C:5139H         LINE#         89
  C:5139H         LINE#         91
  C:513DH         LINE#         92
  C:5151H         LINE#         93
  -------         ENDPROC       _DELAYMS
  -------         PROC          PARAMETERINIT
  -------         DO            
  X:0341H         SYMBOL        byTemp
  X:0342H         SYMBOL        byAddrTemp
  X:0344H         SYMBOL        pbyData
  -------         ENDDO         
  C:3F52H         LINE#         110
  C:3F52H         LINE#         111
BL51 BANKED LINKER/LOCATER V6.05                                                      05/24/2012  09:37:58  PAGE 18


  C:3F52H         LINE#         112
  C:3F58H         LINE#         113
  C:3F5FH         LINE#         114
  C:3F6BH         LINE#         117
  C:3F77H         LINE#         118
  C:3F7AH         LINE#         119
  C:3F7AH         LINE#         120
  C:3F87H         LINE#         121
  C:3F87H         LINE#         122
  C:3FA9H         LINE#         123
  C:3FABH         LINE#         124
  C:3FABH         LINE#         126
  C:3FABH         LINE#         127
  C:3FB1H         LINE#         128
  C:3FB5H         LINE#         129
  C:3FB9H         LINE#         130
  C:3FBBH         LINE#         131
  C:3FC2H         LINE#         132
  C:3FC8H         LINE#         133
  C:3FCFH         LINE#         134
  C:3FDBH         LINE#         135
  C:3FE1H         LINE#         136
  C:3FEBH         LINE#         137
  C:3FEBH         LINE#         138
  C:400DH         LINE#         139
  C:400FH         LINE#         140
  C:400FH         LINE#         142
  -------         ENDPROC       PARAMETERINIT
  -------         PROC          SAVEPARAMETER
  -------         DO            
  X:0344H         SYMBOL        byTemp
  X:0345H         SYMBOL        byAddrTemp
  X:0347H         SYMBOL        pbyData
  -------         ENDDO         
  C:48D8H         LINE#         144
  C:48D8H         LINE#         145
  C:48D8H         LINE#         146
  C:48DEH         LINE#         147
  C:48E5H         LINE#         148
  C:48F1H         LINE#         149
  C:48F7H         LINE#         150
  C:4901H         LINE#         151
  C:4901H         LINE#         152
  C:4923H         LINE#         153
  C:4925H         LINE#         154
  -------         ENDPROC       SAVEPARAMETER
  -------         PROC          IOINIT
  C:4E7EH         LINE#         170
  C:4E7EH         LINE#         171
  C:4E7EH         LINE#         176
  C:4E81H         LINE#         177
  C:4E84H         LINE#         180
  C:4E87H         LINE#         181
  C:4E8AH         LINE#         184
  C:4E8CH         LINE#         185
  C:4E8EH         LINE#         186
  C:4E90H         LINE#         187
BL51 BANKED LINKER/LOCATER V6.05                                                      05/24/2012  09:37:58  PAGE 19


  C:4E92H         LINE#         189
  C:4E94H         LINE#         190
  C:4E96H         LINE#         193
  C:4E99H         LINE#         194
  C:4E9CH         LINE#         195
  C:4E9EH         LINE#         198
  C:4EA1H         LINE#         199
  C:4EA4H         LINE#         200
  C:4EA6H         LINE#         201
  C:4EA8H         LINE#         202
  -------         ENDPROC       IOINIT
  -------         PROC          INIT
  C:4316H         LINE#         218
  C:4316H         LINE#         219
  C:4316H         LINE#         221
  C:4325H         LINE#         223
  C:432EH         LINE#         224
  C:4334H         LINE#         225
  C:4338H         LINE#         240
  C:433BH         LINE#         241
  C:433DH         LINE#         242
  C:433FH         LINE#         243
  C:4341H         LINE#         244
  C:434AH         LINE#         245
  C:434DH         LINE#         247
  C:4350H         LINE#         250
  C:4352H         LINE#         253
  C:4355H         LINE#         256
  C:4358H         LINE#         259
  C:435BH         LINE#         262
  C:435EH         LINE#         264
  C:4361H         LINE#         266
  C:4364H         LINE#         269
  C:4367H         LINE#         270
  C:436AH         LINE#         272
  C:4374H         LINE#         274
  C:437FH         LINE#         277
  C:438CH         LINE#         282
  C:4392H         LINE#         284
  C:4397H         LINE#         285
  -------         ENDPROC       INIT
  -------         PROC          _GETMESSAGE
  D:0001H         SYMBOL        Msg
  C:52D5H         LINE#         302
  C:52D5H         LINE#         303
  C:52D5H         LINE#         304
  -------         ENDPROC       _GETMESSAGE
  -------         PROC          _DISPATCHMESSAGE
  D:0007H         SYMBOL        Msg
  C:4E24H         LINE#         321
  C:4E24H         LINE#         322
  C:4E24H         LINE#         323
  C:4E3FH         LINE#         324
  C:4E3FH         LINE#         325
  C:4E3FH         LINE#         326
  C:4E42H         LINE#         327
  C:4E42H         LINE#         328
BL51 BANKED LINKER/LOCATER V6.05                                                      05/24/2012  09:37:58  PAGE 20


  C:4E42H         LINE#         329
  C:4E45H         LINE#         330
  C:4E45H         LINE#         338
  C:4E45H         LINE#         339
  C:4E48H         LINE#         340
  C:4E48H         LINE#         341
  C:4E48H         LINE#         342
  C:4E4BH         LINE#         343
  C:4E4BH         LINE#         345
  C:4E4BH         LINE#         346
  C:4E4EH         LINE#         347
  C:4E4EH         LINE#         352
  C:4E4EH         LINE#         353
  C:4E51H         LINE#         354
  C:4E51H         LINE#         355
  C:4E51H         LINE#         357
  -------         ENDPROC       _DISPATCHMESSAGE
  -------         PROC          MAINTASK
  -------         DO            
  D:0039H         SYMBOL        Msg
  -------         ENDDO         
  C:4888H         LINE#         373
  C:4888H         LINE#         374
  C:4888H         LINE#         378
  C:488BH         LINE#         381
  C:4892H         LINE#         384
  C:489EH         LINE#         386
  C:48AAH         LINE#         387
  C:48B6H         LINE#         388
  C:48C2H         LINE#         391
  C:48C2H         LINE#         392
  C:48C2H         LINE#         393
  C:48CBH         LINE#         394
  C:48D0H         LINE#         395
  C:48D6H         LINE#         396
  -------         ENDPROC       MAINTASK
  -------         PROC          MAIN
  C:50E9H         LINE#         414
  C:50E9H         LINE#         415
  C:50E9H         LINE#         416
  C:50ECH         LINE#         417
  C:50F3H         LINE#         420
  C:50F6H         LINE#         424
  C:5101H         LINE#         427
  C:5101H         LINE#         428
  C:5101H         LINE#         429
  C:5102H         LINE#         430
  -------         ENDPROC       MAIN
  -------         PROC          LEDSTATEFLASH
  C:5297H         LINE#         435
  C:5297H         LINE#         436
  C:5297H         LINE#         437
  C:529AH         LINE#         438
  C:529AH         LINE#         439
  C:529CH         LINE#         440
  C:529EH         LINE#         441
  C:529FH         LINE#         443
BL51 BANKED LINKER/LOCATER V6.05                                                      05/24/2012  09:37:58  PAGE 21


  C:529FH         LINE#         444
  C:52A1H         LINE#         445
  C:52A3H         LINE#         446
  C:52A3H         LINE#         447
  -------         ENDPROC       LEDSTATEFLASH
  -------         PROC          LEDINIT
  C:52E7H         LINE#         449
  C:52E7H         LINE#         450
  C:52E7H         LINE#         452
  C:52E9H         LINE#         453
  C:52EBH         LINE#         455
  C:52EDH         LINE#         456
  -------         ENDPROC       LEDINIT
  -------         ENDMOD        MAIN

  -------         MODULE        PCF8563
  C:0000H         SYMBOL        _ICE_DUMMY_
  D:0080H         PUBLIC        P0
  D:0090H         PUBLIC        P1
  D:00A0H         PUBLIC        P2
  D:00B0H         PUBLIC        P3
  D:00C0H         PUBLIC        P4
  D:00C8H         PUBLIC        P5
  C:4D5DH         PUBLIC        P8563_Read
  C:511FH         PUBLIC        P8563_settime
  D:00A8H         PUBLIC        IE
  D:00B8H         PUBLIC        IP
  D:00D8H         PUBLIC        CCON
  D:0098H         PUBLIC        SCON
  D:0088H         PUBLIC        TCON
  C:5104H         PUBLIC        P8563_init
  D:00E0H         PUBLIC        ACC
  X:0355H         PUBLIC        byMinute
  C:3BCBH         PUBLIC        P8563Manager
  X:0356H         PUBLIC        stTime
  D:00D0H         PUBLIC        PSW
  C:0026H         PUBLIC        P8563_gettime
  -------         PROC          P8563_READ
  C:4D5DH         LINE#         38
  C:4D5DH         LINE#         39
  C:4D5DH         LINE#         40
  C:4D6AH         LINE#         41
  C:4D77H         LINE#         43
  C:4D7EH         LINE#         44
  C:4D83H         LINE#         45
  C:4D88H         LINE#         46
  C:4D8DH         LINE#         47
  C:4D92H         LINE#         50
  -------         ENDPROC       P8563_READ
  -------         PROC          P8563_GETTIME
  C:0026H         LINE#         54
  C:0026H         LINE#         55
  C:0026H         LINE#         56
  -------         ENDPROC       P8563_GETTIME
  -------         PROC          P8563_SETTIME
  C:511FH         LINE#         63
  C:511FH         LINE#         64
BL51 BANKED LINKER/LOCATER V6.05                                                      05/24/2012  09:37:58  PAGE 22


  C:511FH         LINE#         65
  C:512CH         LINE#         66
  -------         ENDPROC       P8563_SETTIME
  -------         PROC          P8563_INIT
  C:5104H         LINE#         71
  C:5104H         LINE#         72
  C:5104H         LINE#         73
  C:510AH         LINE#         74
  C:5111H         LINE#         75
  C:5118H         LINE#         76
  -------         ENDPROC       P8563_INIT
  -------         PROC          P8563MANAGER
  C:3BCBH         LINE#         80
  C:3BCBH         LINE#         81
  C:3BCBH         LINE#         83
  C:3BD2H         LINE#         84
  C:3BD9H         LINE#         85
  C:3BE0H         LINE#         86
  C:3BE7H         LINE#         87
  C:3BEAH         LINE#         88
  C:3BF3H         LINE#         89
  C:3BF9H         LINE#         90
  C:3BFCH         LINE#         91
  C:3C04H         LINE#         92
  C:3C08H         LINE#         93
  C:3C10H         LINE#         94
  C:3C18H         LINE#         95
  C:3C20H         LINE#         96
  C:3C29H         LINE#         97
  C:3C29H         LINE#         98
  C:3C29H         LINE#         99
  C:3C30H         LINE#         100
  C:3C33H         LINE#         101
  C:3C3FH         LINE#         102
  C:3C3FH         LINE#         103
  C:3C44H         LINE#         104
  C:3C49H         LINE#         106
  C:3C50H         LINE#         107
  C:3C55H         LINE#         109
  C:3C5CH         LINE#         110
  C:3C61H         LINE#         112
  C:3C68H         LINE#         113
  C:3C6DH         LINE#         120
  C:3C74H         LINE#         121
  C:3C79H         LINE#         124
  C:3C83H         LINE#         126
  C:3C8CH         LINE#         127
  C:3C92H         LINE#         128
  C:3C95H         LINE#         129
  C:3C9DH         LINE#         130
  C:3CA1H         LINE#         131
  C:3CA9H         LINE#         132
  C:3CB1H         LINE#         133
  C:3CB4H         LINE#         134
  C:3CBDH         LINE#         135
  C:3CBDH         LINE#         137
  -------         ENDPROC       P8563MANAGER
BL51 BANKED LINKER/LOCATER V6.05                                                      05/24/2012  09:37:58  PAGE 23


  -------         ENDMOD        PCF8563

  -------         MODULE        SINGLEBUS
  C:0000H         SYMBOL        _ICE_DUMMY_
  C:5072H         PUBLIC        TimerOutManager
  D:0008H         PUBLIC        byBus0DisableCount
  X:02BEH         PUBLIC        byBus1DisableCount
  D:0080H         PUBLIC        P0
  D:00B2H         PUBLIC        P3M0
  D:0090H         PUBLIC        P1
  D:00B1H         PUBLIC        P3M1
  D:00A0H         PUBLIC        P2
  D:00B0H         PUBLIC        P3
  D:00C0H         PUBLIC        P4
  D:00C8H         PUBLIC        P5
  B:00A8H.7       PUBLIC        EA
  B:0020H.2       PUBLIC        bBus0Enable
  B:00C8H.3       PUBLIC        GB_FZ
  B:0021H.2       PUBLIC        bBus1Enable
  C:4AADH         PUBLIC        _SaveCallAddr
  D:00A8H         PUBLIC        IE
  B:00B0H.5       PUBLIC        Bus0SendPin
  B:00B0H.4       PUBLIC        Bus1SendPin
  D:0009H         PUBLIC        byBus0TxTail
  C:2ADCH         PUBLIC        _RemoveCallNod
  X:02BFH         PUBLIC        byBus1TxTail
  C:4974H         PUBLIC        _SaveIndicationData
  B:0020H.1       PUBLIC        bBus0OnRec
  D:00B8H         PUBLIC        IP
  B:0021H.1       PUBLIC        bBus1OnRec
  B:0020H.5       PUBLIC        bBus0OnSendFreq
  B:0021H.5       PUBLIC        bBus1OnSendFreq
  C:50B0H         PUBLIC        Bus1Manager
  B:00B0H.2       PUBLIC        Bus0RecPin
  D:000AH         PUBLIC        byBus0RecTimeOut
  B:00B0H.3       PUBLIC        Bus1RecPin
  X:02C0H         PUBLIC        byBus1RecTimeOut
  C:0019H         PUBLIC        StartVoicePlay
  D:00D8H         PUBLIC        CCON
  C:5277H         PUBLIC        Bus0RecInt
  C:50CDH         PUBLIC        Bus1RecInt
  C:4926H         PUBLIC        SingleBusInit
  B:0020H.4       PUBLIC        bBus0OnSendBit
  C:14F1H         PUBLIC        _AddCallNod
  B:0021H.4       PUBLIC        bBus1OnSendBit
  B:0022H.2       PUBLIC        bBus0SendFinish
  B:0023H.2       PUBLIC        bBus1SendFinish
  D:0098H         PUBLIC        SCON
  B:0022H.1       PUBLIC        bBus0RecBit9
  D:0089H         PUBLIC        TMOD
  D:0088H         PUBLIC        TCON
  B:0023H.1       PUBLIC        bBus1RecBit9
  C:2E19H         PUBLIC        TimerOutDeal
  C:000AH         PUBLIC        StopVoicePlay
  B:0088H.1       PUBLIC        IE0
  B:0088H.3       PUBLIC        IE1
  B:0022H.0       PUBLIC        bBus0RecFinish
BL51 BANKED LINKER/LOCATER V6.05                                                      05/24/2012  09:37:58  PAGE 24


  B:0023H.0       PUBLIC        bBus1RecFinish
  D:008EH         PUBLIC        AUXR
  D:000BH         PUBLIC        byBus0SendData
  X:02C1H         PUBLIC        byBus1SendData
  C:218AH         PUBLIC        Bus0SendFinishDeal
  D:00E0H         PUBLIC        ACC
  C:5053H         PUBLIC        Bus1SendFinishDeal
  C:4024H         PUBLIC        _AddrCompare
  B:00A8H.1       PUBLIC        ET0
  B:0088H.5       PUBLIC        TF0
  B:0020H.7       PUBLIC        bBus0Error
  D:008CH         PUBLIC        TH0
  B:0021H.7       PUBLIC        bBus1Error
  B:0088H.0       PUBLIC        IT0
  B:00A8H.0       PUBLIC        EX0
  B:0088H.2       PUBLIC        IT1
  B:00A8H.2       PUBLIC        EX1
  B:00C8H.0       PUBLIC        KBC
  D:008AH         PUBLIC        TL0
  D:0012H         PUBLIC        byBus0RecData
  B:00C8H.1       PUBLIC        KBD
  X:02C8H         PUBLIC        byBus1RecData
  D:0019H         PUBLIC        byBus0SendCount
  X:02CFH         PUBLIC        byBus1SendCount
  B:00A0H.5       PUBLIC        KGB
  B:00B8H.1       PUBLIC        PT0
  B:0088H.4       PUBLIC        TR0
  X:02D0H         PUBLIC        byBus0TxQ
  X:0317H         PUBLIC        byBus1TxQ
  B:0020H.6       PUBLIC        bBus0SendError
  B:0021H.6       PUBLIC        bBus1SendError
  C:0E3DH         PUBLIC        Timer0Int
  D:001AH         PUBLIC        byBus0RecCount
  X:033BH         PUBLIC        byBus1RecCount
  D:009BH         PUBLIC        S2BUF
  D:001BH         PUBLIC        byBus0SendBuf
  X:033CH         PUBLIC        byBus1SendBuf
  D:009AH         PUBLIC        S2CON
  C:4BFAH         PUBLIC        VoiceChannelCtx
  C:464CH         PUBLIC        _DirAddrCompare
  C:4E52H         PUBLIC        BusManager
  B:0022H.4       PUBLIC        bBus0SendBit
  B:0020H.0       PUBLIC        bBus0StartRec
  B:0023H.4       PUBLIC        bBus1SendBit
  B:0021H.0       PUBLIC        bBus1StartRec
  D:0020H         PUBLIC        byBus0State0
  C:4297H         PUBLIC        _Bus0OutputData
  D:0021H         PUBLIC        byBus1State0
  D:001CH         PUBLIC        byBus0RecSendCount
  D:0022H         PUBLIC        byBus0State1
  C:40D1H         PUBLIC        _Bus1OutputData
  X:033DH         PUBLIC        byBus1RecSendCount
  D:0023H         PUBLIC        byBus1State1
  C:004EH         PUBLIC        Bus0RecDeal
  C:4A0CH         PUBLIC        Bus1RecDeal
  C:3356H         PUBLIC        RestartIndication
  D:001DH         PUBLIC        byBus0RecBuf
BL51 BANKED LINKER/LOCATER V6.05                                                      05/24/2012  09:37:58  PAGE 25


  X:033EH         PUBLIC        byBus1RecBuf
  B:0020H.3       PUBLIC        bBus0ReqSend
  B:0021H.3       PUBLIC        bBus1ReqSend
  B:0022H.3       PUBLIC        bBus0Disable
  B:0023H.3       PUBLIC        bBus1Disable
  D:001EH         PUBLIC        byBus0TxHead
  D:00D0H         PUBLIC        PSW
  C:525BH         PUBLIC        _MakeCH0TimerOut
  X:033FH         PUBLIC        byBus1TxHead
  D:001FH         PUBLIC        byBus0SendStopCount
  B:0022H.5       PUBLIC        bBus0RecBit
  C:51E9H         PUBLIC        _MakeCH1TimerOut
  X:0340H         PUBLIC        byBus1SendStopCount
  B:0023H.5       PUBLIC        bBus1RecBit
  -------         PROC          SINGLEBUSINIT
  C:4926H         LINE#         115
  C:4926H         LINE#         116
  C:4926H         LINE#         119
  C:4929H         LINE#         120
  C:492CH         LINE#         124
  C:492FH         LINE#         125
  C:4932H         LINE#         130
  C:4934H         LINE#         131
  C:4936H         LINE#         132
  C:4938H         LINE#         133
  C:493AH         LINE#         135
  C:493DH         LINE#         136
  C:4940H         LINE#         138
  C:4943H         LINE#         139
  C:4946H         LINE#         140
  C:4948H         LINE#         141
  C:494BH         LINE#         142
  C:494DH         LINE#         143
  C:494FH         LINE#         145
  C:4952H         LINE#         146
  C:4958H         LINE#         148
  C:495AH         LINE#         149
  C:495CH         LINE#         150
  C:495EH         LINE#         151
  C:4960H         LINE#         152
  C:4962H         LINE#         154
  C:4965H         LINE#         155
  C:4965H         LINE#         156
  C:4967H         LINE#         157
  C:4969H         LINE#         159
  C:4969H         LINE#         160
  C:496BH         LINE#         161
  C:496BH         LINE#         162
  C:496EH         LINE#         163
  C:496EH         LINE#         164
  C:4970H         LINE#         165
  C:4971H         LINE#         167
  C:4971H         LINE#         168
  C:4973H         LINE#         169
  C:4973H         LINE#         171
  -------         ENDPROC       SINGLEBUSINIT
  -------         PROC          BUS0RECINT
BL51 BANKED LINKER/LOCATER V6.05                                                      05/24/2012  09:37:58  PAGE 26


  C:5277H         LINE#         189
  C:5279H         LINE#         191
  C:527DH         LINE#         192
  C:527FH         LINE#         193
  C:5281H         LINE#         194
  C:5284H         LINE#         195
  -------         ENDPROC       BUS0RECINT
  -------         PROC          BUS1RECINT
  C:50CDH         LINE#         212
  C:50D5H         LINE#         214
  C:50D7H         LINE#         215
  C:50D9H         LINE#         216
  C:50DBH         LINE#         217
  C:50E0H         LINE#         218
  -------         ENDPROC       BUS1RECINT
  -------         PROC          TIMER0INT
  C:0E3DH         LINE#         237
  C:0E5AH         LINE#         240
  C:0E5CH         LINE#         241
  C:0E5FH         LINE#         242
  C:0E62H         LINE#         243
  C:0E64H         LINE#         245
  C:0E68H         LINE#         246
  C:0E6CH         LINE#         248
  C:0E6FH         LINE#         249
  C:0E6FH         LINE#         250
  C:0E75H         LINE#         251
  C:0E7EH         LINE#         252
  C:0E7EH         LINE#         253
  C:0E80H         LINE#         254
  C:0E82H         LINE#         255
  C:0E85H         LINE#         256
  C:0E85H         LINE#         257
  C:0E8BH         LINE#         258
  C:0E8BH         LINE#         259
  C:0E8EH         LINE#         260
  C:0E90H         LINE#         261
  C:0E92H         LINE#         262
  C:0E92H         LINE#         263
  C:0E95H         LINE#         264
  C:0E98H         LINE#         265
  C:0E98H         LINE#         266
  C:0E9AH         LINE#         268
  C:0E9AH         LINE#         269
  C:0E9CH         LINE#         270
  C:0E9CH         LINE#         271
  C:0E9CH         LINE#         272
  C:0E9FH         LINE#         273
  C:0EA5H         LINE#         274
  C:0EA5H         LINE#         275
  C:0EABH         LINE#         276
  C:0EB4H         LINE#         277
  C:0EB4H         LINE#         278
  C:0EB7H         LINE#         279
  C:0EB9H         LINE#         280
  C:0EC2H         LINE#         281
  C:0EC2H         LINE#         282
BL51 BANKED LINKER/LOCATER V6.05                                                      05/24/2012  09:37:58  PAGE 27


  C:0EC4H         LINE#         283
  C:0EC7H         LINE#         284
  C:0EC7H         LINE#         285
  C:0ED3H         LINE#         286
  C:0ED3H         LINE#         287
  C:0ED6H         LINE#         288
  C:0ED9H         LINE#         289
  C:0EDBH         LINE#         291
  C:0EDBH         LINE#         292
  C:0EDEH         LINE#         293
  C:0EE8H         LINE#         294
  C:0EEEH         LINE#         295
  C:0EF5H         LINE#         296
  C:0EF5H         LINE#         297
  C:0EF8H         LINE#         298
  C:0EFEH         LINE#         299
  C:0EFEH         LINE#         300
  C:0F00H         LINE#         301
  C:0F00H         LINE#         302
  C:0F03H         LINE#         303
  C:0F06H         LINE#         304
  C:0F08H         LINE#         305
  C:0F08H         LINE#         306
  C:0F08H         LINE#         307
  C:0F0BH         LINE#         308
  C:0F0FH         LINE#         309
  C:0F11H         LINE#         311
  C:0F11H         LINE#         312
  C:0F13H         LINE#         313
  C:0F19H         LINE#         314
  C:0F19H         LINE#         315
  C:0F1CH         LINE#         316
  C:0F1EH         LINE#         317
  C:0F20H         LINE#         318
  C:0F20H         LINE#         319
  C:0F23H         LINE#         320
  C:0F23H         LINE#         321
  C:0F25H         LINE#         322
  C:0F28H         LINE#         323
  C:0F28H         LINE#         324
  C:0F2CH         LINE#         325
  C:0F2EH         LINE#         327
  C:0F2EH         LINE#         328
  C:0F34H         LINE#         329
  C:0F37H         LINE#         330
  C:0F37H         LINE#         331
  C:0F3AH         LINE#         332
  C:0F3AH         LINE#         333
  C:0F3AH         LINE#         334
  C:0F3AH         LINE#         335
  C:0F3AH         LINE#         337
  C:0F3DH         LINE#         338
  C:0F3DH         LINE#         339
  C:0F44H         LINE#         340
  C:0F4EH         LINE#         341
  C:0F4EH         LINE#         342
  C:0F50H         LINE#         343
BL51 BANKED LINKER/LOCATER V6.05                                                      05/24/2012  09:37:58  PAGE 28


  C:0F51H         LINE#         344
  C:0F54H         LINE#         345
  C:0F54H         LINE#         346
  C:0F5AH         LINE#         347
  C:0F5AH         LINE#         348
  C:0F5DH         LINE#         349
  C:0F5FH         LINE#         350
  C:0F61H         LINE#         351
  C:0F61H         LINE#         352
  C:0F67H         LINE#         353
  C:0F6BH         LINE#         354
  C:0F6BH         LINE#         355
  C:0F6EH         LINE#         357
  C:0F6EH         LINE#         358
  C:0F70H         LINE#         359
  C:0F70H         LINE#         360
  C:0F70H         LINE#         361
  C:0F73H         LINE#         362
  C:0F79H         LINE#         363
  C:0F79H         LINE#         364
  C:0F80H         LINE#         365
  C:0F8BH         LINE#         366
  C:0F8BH         LINE#         367
  C:0F8FH         LINE#         368
  C:0F92H         LINE#         369
  C:0F9DH         LINE#         370
  C:0F9DH         LINE#         371
  C:0F9FH         LINE#         372
  C:0FA2H         LINE#         373
  C:0FA2H         LINE#         374
  C:0FB1H         LINE#         375
  C:0FB1H         LINE#         376
  C:0FB6H         LINE#         377
  C:0FBDH         LINE#         378
  C:0FBFH         LINE#         380
  C:0FBFH         LINE#         381
  C:0FC5H         LINE#         382
  C:0FDDH         LINE#         383
  C:0FE4H         LINE#         384
  C:0FEDH         LINE#         385
  C:0FEDH         LINE#         386
  C:0FF1H         LINE#         387
  C:0FF7H         LINE#         388
  C:0FF7H         LINE#         389
  C:0FF9H         LINE#         390
  C:0FF9H         LINE#         391
  C:0FFEH         LINE#         392
  C:1004H         LINE#         393
  C:1006H         LINE#         394
  C:1006H         LINE#         395
  C:1006H         LINE#         396
  C:100CH         LINE#         397
  C:1010H         LINE#         398
  C:1012H         LINE#         400
  C:1012H         LINE#         401
  C:1014H         LINE#         402
  C:101AH         LINE#         403
BL51 BANKED LINKER/LOCATER V6.05                                                      05/24/2012  09:37:58  PAGE 29


  C:101AH         LINE#         404
  C:101DH         LINE#         405
  C:101FH         LINE#         406
  C:1021H         LINE#         407
  C:1021H         LINE#         408
  C:1026H         LINE#         409
  C:1026H         LINE#         410
  C:1028H         LINE#         411
  C:102BH         LINE#         412
  C:102BH         LINE#         413
  C:102FH         LINE#         414
  C:1031H         LINE#         416
  C:1031H         LINE#         417
  C:1039H         LINE#         418
  C:103CH         LINE#         419
  C:103CH         LINE#         420
  C:1040H         LINE#         421
  C:1040H         LINE#         422
  C:1040H         LINE#         423
  C:1040H         LINE#         424
  C:1040H         LINE#         427
  C:1048H         LINE#         428
  C:1048H         LINE#         429
  C:104BH         LINE#         430
  C:104BH         LINE#         431
  C:104DH         LINE#         432
  C:104FH         LINE#         433
  C:1051H         LINE#         434
  C:1054H         LINE#         435
  C:105EH         LINE#         436
  C:1060H         LINE#         437
  C:1063H         LINE#         439
  C:1063H         LINE#         440
  C:1066H         LINE#         441
  C:1068H         LINE#         442
  C:106BH         LINE#         443
  C:106BH         LINE#         444
  C:106BH         LINE#         445
  C:106BH         LINE#         446
  C:106EH         LINE#         447
  C:1074H         LINE#         448
  C:1074H         LINE#         449
  C:107CH         LINE#         450
  C:107CH         LINE#         451
  C:1082H         LINE#         452
  C:1088H         LINE#         453
  C:1088H         LINE#         454
  C:108BH         LINE#         455
  C:108DH         LINE#         456
  C:1095H         LINE#         457
  C:1095H         LINE#         459
  C:109EH         LINE#         460
  C:10A2H         LINE#         461
  C:10A4H         LINE#         462
  C:10A7H         LINE#         463
  C:10A7H         LINE#         464
  C:10A9H         LINE#         465
BL51 BANKED LINKER/LOCATER V6.05                                                      05/24/2012  09:37:58  PAGE 30


  C:10ABH         LINE#         466
  C:10ADH         LINE#         467
  C:10B5H         LINE#         468
  C:10B5H         LINE#         469
  C:10B7H         LINE#         470
  C:10B9H         LINE#         471
  C:10C2H         LINE#         472
  C:10C2H         LINE#         473
  C:10C5H         LINE#         474
  C:10C8H         LINE#         475
  C:10CBH         LINE#         476
  C:10CEH         LINE#         477
  C:10D1H         LINE#         478
  C:10D3H         LINE#         480
  C:10D3H         LINE#         481
  C:10D6H         LINE#         482
  C:10D8H         LINE#         483
  C:10D8H         LINE#         484
  C:10DCH         LINE#         485
  C:10DEH         LINE#         487
  C:10DEH         LINE#         488
  C:10E3H         LINE#         489
  C:10E3H         LINE#         490
  C:10E5H         LINE#         491
  C:10E7H         LINE#         492
  C:10E9H         LINE#         494
  C:10E9H         LINE#         495
  C:10EBH         LINE#         496
  C:10EDH         LINE#         497
  C:10EDH         LINE#         498
  C:10F3H         LINE#         499
  C:10F3H         LINE#         500
  C:10F3H         LINE#         501
  C:10F5H         LINE#         503
  C:10F5H         LINE#         504
  C:10F8H         LINE#         505
  C:10FBH         LINE#         506
  C:10FDH         LINE#         507
  C:10FFH         LINE#         508
  C:1102H         LINE#         509
  C:1102H         LINE#         510
  C:1102H         LINE#         512
  C:110AH         LINE#         513
  C:110AH         LINE#         514
  C:110DH         LINE#         515
  C:110DH         LINE#         516
  C:110FH         LINE#         517
  C:1111H         LINE#         518
  C:1115H         LINE#         519
  C:1118H         LINE#         520
  C:112CH         LINE#         521
  C:112EH         LINE#         522
  C:1131H         LINE#         524
  C:1131H         LINE#         525
  C:1134H         LINE#         526
  C:1136H         LINE#         527
  C:113DH         LINE#         528
BL51 BANKED LINKER/LOCATER V6.05                                                      05/24/2012  09:37:58  PAGE 31


  C:113DH         LINE#         529
  C:113DH         LINE#         530
  C:113DH         LINE#         531
  C:1140H         LINE#         532
  C:1146H         LINE#         533
  C:1146H         LINE#         534
  C:1151H         LINE#         535
  C:1151H         LINE#         536
  C:1158H         LINE#         537
  C:1163H         LINE#         538
  C:1163H         LINE#         539
  C:1167H         LINE#         540
  C:116AH         LINE#         541
  C:1171H         LINE#         542
  C:1171H         LINE#         543
  C:117CH         LINE#         544
  C:1180H         LINE#         545
  C:1182H         LINE#         546
  C:1185H         LINE#         547
  C:1185H         LINE#         548
  C:1187H         LINE#         549
  C:1189H         LINE#         550
  C:118BH         LINE#         551
  C:1195H         LINE#         552
  C:1195H         LINE#         553
  C:1197H         LINE#         554
  C:119DH         LINE#         555
  C:11A6H         LINE#         556
  C:11A6H         LINE#         557
  C:11AAH         LINE#         558
  C:11ADH         LINE#         559
  C:11B3H         LINE#         560
  C:11B6H         LINE#         561
  C:11BCH         LINE#         562
  C:11BEH         LINE#         564
  C:11BEH         LINE#         565
  C:11C4H         LINE#         566
  C:11C6H         LINE#         567
  C:11C6H         LINE#         568
  C:11CAH         LINE#         569
  C:11CCH         LINE#         571
  C:11CCH         LINE#         572
  C:11D4H         LINE#         573
  C:11D4H         LINE#         574
  C:11D6H         LINE#         575
  C:11D8H         LINE#         576
  C:11DAH         LINE#         578
  C:11DAH         LINE#         579
  C:11DCH         LINE#         580
  C:11DEH         LINE#         581
  C:11DEH         LINE#         582
  C:11E5H         LINE#         583
  C:11E5H         LINE#         584
  C:11E5H         LINE#         585
  C:11E7H         LINE#         587
  C:11E7H         LINE#         588
  C:11EAH         LINE#         589
BL51 BANKED LINKER/LOCATER V6.05                                                      05/24/2012  09:37:58  PAGE 32


  C:11F1H         LINE#         590
  C:11F3H         LINE#         591
  C:11F5H         LINE#         592
  C:11FBH         LINE#         593
  C:11FBH         LINE#         594
  C:11FBH         LINE#         597
  C:1201H         LINE#         598
  C:1201H         LINE#         599
  C:1205H         LINE#         600
  C:1205H         LINE#         601
  C:1208H         LINE#         602
  C:1208H         LINE#         603
  C:120AH         LINE#         604
  C:120AH         LINE#         605
  C:120AH         LINE#         606
  C:120DH         LINE#         607
  C:120DH         LINE#         608
  C:120FH         LINE#         609
  C:1212H         LINE#         610
  C:1212H         LINE#         611
  C:1214H         LINE#         612
  C:1218H         LINE#         613
  C:121BH         LINE#         614
  C:121BH         LINE#         615
  C:121BH         LINE#         616
  C:121BH         LINE#         618
  C:1221H         LINE#         619
  C:1221H         LINE#         620
  C:1227H         LINE#         621
  C:1227H         LINE#         622
  C:122BH         LINE#         623
  C:122BH         LINE#         624
  C:122DH         LINE#         625
  C:122DH         LINE#         626
  C:122DH         LINE#         627
  C:1230H         LINE#         628
  C:1230H         LINE#         629
  C:1232H         LINE#         630
  C:1235H         LINE#         631
  C:1235H         LINE#         632
  C:1237H         LINE#         633
  C:123BH         LINE#         634
  C:1241H         LINE#         635
  C:1241H         LINE#         636
  C:1241H         LINE#         637
  C:1241H         LINE#         640
  C:1245H         LINE#         641
  C:1245H         LINE#         642
  C:1248H         LINE#         643
  C:1248H         LINE#         644
  C:124BH         LINE#         645
  C:124BH         LINE#         646
  C:124BH         LINE#         647
  C:124FH         LINE#         648
  C:124FH         LINE#         649
  C:1252H         LINE#         650
  C:1252H         LINE#         651
BL51 BANKED LINKER/LOCATER V6.05                                                      05/24/2012  09:37:58  PAGE 33


  C:1254H         LINE#         652
  C:1254H         LINE#         653
  C:1254H         LINE#         656
  C:125AH         LINE#         657
  C:125AH         LINE#         658
  C:125EH         LINE#         659
  C:125EH         LINE#         660
  C:1265H         LINE#         661
  C:1265H         LINE#         662
  C:1265H         LINE#         663
  C:126BH         LINE#         664
  C:126BH         LINE#         665
  C:126FH         LINE#         666
  C:126FH         LINE#         667
  C:1271H         LINE#         668
  C:1271H         LINE#         669
  C:1271H         LINE#         672
  C:127AH         LINE#         673
  C:127AH         LINE#         674
  C:127DH         LINE#         675
  C:127DH         LINE#         676
  C:127FH         LINE#         677
  C:127FH         LINE#         678
  C:1282H         LINE#         680
  C:1282H         LINE#         681
  C:128BH         LINE#         682
  C:128BH         LINE#         683
  C:12AFH         LINE#         684
  C:12AFH         LINE#         685
  C:12BDH         LINE#         686
  C:12CDH         LINE#         687
  C:12DBH         LINE#         688
  C:12ECH         LINE#         689
  C:12FAH         LINE#         690
  C:130BH         LINE#         691
  C:1319H         LINE#         692
  C:132AH         LINE#         693
  C:1338H         LINE#         694
  C:1349H         LINE#         695
  C:1357H         LINE#         696
  C:1368H         LINE#         697
  C:1376H         LINE#         698
  C:1387H         LINE#         699
  C:138AH         LINE#         701
  C:138CH         LINE#         703
  C:138CH         LINE#         704
  C:1392H         LINE#         705
  C:1392H         LINE#         706
  C:1392H         LINE#         707
  C:1392H         LINE#         708
  C:1392H         LINE#         710
  C:139BH         LINE#         711
  C:139BH         LINE#         712
  C:139EH         LINE#         713
  C:139EH         LINE#         714
  C:13A0H         LINE#         715
  C:13A0H         LINE#         716
BL51 BANKED LINKER/LOCATER V6.05                                                      05/24/2012  09:37:58  PAGE 34


  C:13A3H         LINE#         718
  C:13A3H         LINE#         719
  C:13ACH         LINE#         720
  C:13ACH         LINE#         721
  C:13D4H         LINE#         722
  C:13D4H         LINE#         723
  C:13E3H         LINE#         724
  C:13F6H         LINE#         725
  C:1406H         LINE#         726
  C:1419H         LINE#         727
  C:1429H         LINE#         728
  C:143CH         LINE#         729
  C:144CH         LINE#         730
  C:145FH         LINE#         731
  C:146FH         LINE#         732
  C:1482H         LINE#         733
  C:1492H         LINE#         734
  C:14A5H         LINE#         735
  C:14B5H         LINE#         736
  C:14C8H         LINE#         737
  C:14CBH         LINE#         738
  C:14CDH         LINE#         740
  C:14CDH         LINE#         741
  C:14D6H         LINE#         742
  C:14D6H         LINE#         743
  C:14D6H         LINE#         744
  C:14D6H         LINE#         745
  C:14D6H         LINE#         746
  -------         ENDPROC       TIMER0INT
  C:4AA7H         SYMBOL        L?0573
  -------         PROC          L?0572
  -------         ENDPROC       L?0572
  C:4AA7H         SYMBOL        L?0573
  -------         PROC          _SAVECALLADDR
  D:0001H         SYMBOL        pstBusFreq
  C:4AADH         LINE#         764
  C:4AADH         LINE#         765
  C:4AADH         LINE#         766
  C:4AB4H         LINE#         767
  C:4ABEH         LINE#         768
  C:4AC8H         LINE#         770
  C:4AD2H         LINE#         771
  C:4ADCH         LINE#         772
  C:4AE6H         LINE#         773
  -------         ENDPROC       _SAVECALLADDR
  C:4010H         SYMBOL        L?0571
  -------         PROC          L?0570
  -------         ENDPROC       L?0570
  C:4010H         SYMBOL        L?0571
  -------         PROC          _ADDRCOMPARE
  X:0344H         SYMBOL        pAddrA
  X:0347H         SYMBOL        pAddrB
  C:4024H         LINE#         790
  C:402FH         LINE#         791
  C:402FH         LINE#         793
  C:4057H         LINE#         794
  C:4057H         LINE#         795
BL51 BANKED LINKER/LOCATER V6.05                                                      05/24/2012  09:37:58  PAGE 35


  C:4059H         LINE#         796
  C:4059H         LINE#         798
  C:4087H         LINE#         799
  C:4087H         LINE#         800
  C:4089H         LINE#         801
  C:4089H         LINE#         803
  C:40B7H         LINE#         804
  C:40B7H         LINE#         805
  C:40B9H         LINE#         806
  C:40B9H         LINE#         808
  C:40BAH         LINE#         810
  -------         ENDPROC       _ADDRCOMPARE
  -------         PROC          _DIRADDRCOMPARE
  X:035CH         SYMBOL        pAddrA
  X:035FH         SYMBOL        pAddrB
  C:464CH         LINE#         827
  C:4657H         LINE#         828
  C:4657H         LINE#         829
  C:4675H         LINE#         830
  C:4675H         LINE#         831
  C:4677H         LINE#         832
  C:4677H         LINE#         833
  C:469DH         LINE#         834
  C:469DH         LINE#         835
  C:469FH         LINE#         836
  C:469FH         LINE#         837
  C:46C5H         LINE#         838
  C:46C5H         LINE#         839
  C:46C7H         LINE#         840
  C:46C7H         LINE#         841
  C:46C8H         LINE#         842
  -------         ENDPROC       _DIRADDRCOMPARE
  C:4288H         SYMBOL        L?0563
  C:428DH         SYMBOL        L?0564
  C:4290H         SYMBOL        L?0565
  -------         PROC          L?0562
  -------         ENDPROC       L?0562
  C:4288H         SYMBOL        L?0563
  C:428DH         SYMBOL        L?0564
  C:4290H         SYMBOL        L?0565
  -------         PROC          _BUS0OUTPUTDATA
  X:0347H         SYMBOL        pbyData
  -------         DO            
  X:034AH         SYMBOL        byTemp
  -------         ENDDO         
  C:4297H         LINE#         858
  C:42A2H         LINE#         859
  C:42A2H         LINE#         860
  C:42A6H         LINE#         862
  C:42AAH         LINE#         863
  C:42C8H         LINE#         864
  C:42C8H         LINE#         865
  C:42CDH         LINE#         866
  C:42D0H         LINE#         867
  C:42D0H         LINE#         868
  C:42DAH         LINE#         869
  C:42DAH         LINE#         870
BL51 BANKED LINKER/LOCATER V6.05                                                      05/24/2012  09:37:58  PAGE 36


  C:42FBH         LINE#         871
  C:430CH         LINE#         872
  C:430EH         LINE#         873
  C:4313H         LINE#         874
  C:4315H         LINE#         875
  -------         ENDPROC       _BUS0OUTPUTDATA
  C:40C4H         SYMBOL        L?0567
  C:40C5H         SYMBOL        L?0568
  C:40CAH         SYMBOL        L?0569
  -------         PROC          L?0566
  -------         ENDPROC       L?0566
  C:40C4H         SYMBOL        L?0567
  C:40C5H         SYMBOL        L?0568
  C:40CAH         SYMBOL        L?0569
  -------         PROC          _BUS1OUTPUTDATA
  X:0344H         SYMBOL        pbyData
  -------         DO            
  X:0347H         SYMBOL        byTemp
  -------         ENDDO         
  C:40D1H         LINE#         892
  C:40DCH         LINE#         893
  C:40DCH         LINE#         894
  C:40E0H         LINE#         896
  C:40E4H         LINE#         897
  C:4108H         LINE#         898
  C:4108H         LINE#         899
  C:410DH         LINE#         900
  C:4110H         LINE#         901
  C:4110H         LINE#         902
  C:411AH         LINE#         903
  C:411AH         LINE#         904
  C:413EH         LINE#         905
  C:4151H         LINE#         906
  C:4153H         LINE#         907
  C:4158H         LINE#         908
  C:415AH         LINE#         909
  -------         ENDPROC       _BUS1OUTPUTDATA
  C:5255H         SYMBOL        L?0575
  -------         PROC          L?0574
  -------         ENDPROC       L?0574
  C:5255H         SYMBOL        L?0575
  -------         PROC          _MAKECH0TIMEROUT
  D:0007H         SYMBOL        byTimerOut
  D:0005H         SYMBOL        byTimerOutCount
  C:525BH         LINE#         926
  C:525BH         LINE#         927
  C:525BH         LINE#         928
  C:5260H         LINE#         929
  C:5262H         LINE#         930
  C:5265H         LINE#         931
  -------         ENDPROC       _MAKECH0TIMEROUT
  -------         PROC          L?0578
  -------         ENDPROC       L?0578
  -------         PROC          _MAKECH1TIMEROUT
  D:0007H         SYMBOL        byTimerOut
  D:0005H         SYMBOL        byTimerOutCount
  C:51E9H         LINE#         947
BL51 BANKED LINKER/LOCATER V6.05                                                      05/24/2012  09:37:58  PAGE 37


  C:51E9H         LINE#         948
  C:51E9H         LINE#         949
  C:51EEH         LINE#         950
  C:51F0H         LINE#         951
  C:51F3H         LINE#         952
  -------         ENDPROC       _MAKECH1TIMEROUT
  -------         PROC          _ADDCALLNOD
  X:0344H         SYMBOL        pstBusFreq
  -------         DO            
  X:0347H         SYMBOL        pstNodTemp
  X:034AH         SYMBOL        pstCallNod
  -------         ENDDO         
  C:14F1H         LINE#         970
  C:14FCH         LINE#         971
  C:14FCH         LINE#         975
  C:1509H         LINE#         976
  C:1509H         LINE#         980
  C:1520H         LINE#         982
  C:1523H         LINE#         983
  C:1523H         LINE#         984
  C:1525H         LINE#         985
  C:1525H         LINE#         986
  C:1543H         LINE#         987
  C:1567H         LINE#         988
  C:158BH         LINE#         989
  C:15B1H         LINE#         990
  C:15DFH         LINE#         991
  C:15FCH         LINE#         992
  C:160EH         LINE#         994
  C:1611H         LINE#         995
  C:1611H         LINE#         997
  C:161DH         LINE#         998
  C:162BH         LINE#         999
  C:162BH         LINE#         1000
  C:16C1H         LINE#         1004
  C:16C1H         LINE#         1005
  C:16C4H         LINE#         1006
  C:16C4H         LINE#         1007
  C:16E4H         LINE#         1008
  C:16E7H         LINE#         1010
  C:16FDH         LINE#         1012
  C:172BH         LINE#         1013
  C:172BH         LINE#         1014
  C:1743H         LINE#         1016
  C:1746H         LINE#         1017
  C:1746H         LINE#         1018
  C:1748H         LINE#         1019
  C:1748H         LINE#         1020
  C:1766H         LINE#         1021
  C:178AH         LINE#         1022
  C:17AEH         LINE#         1023
  C:17D4H         LINE#         1024
  C:1802H         LINE#         1025
  C:181FH         LINE#         1026
  C:1837H         LINE#         1027
  C:1840H         LINE#         1028
  C:1848H         LINE#         1029
BL51 BANKED LINKER/LOCATER V6.05                                                      05/24/2012  09:37:58  PAGE 38


  C:1852H         LINE#         1030
  C:1852H         LINE#         1031
  C:1863H         LINE#         1032
  C:1863H         LINE#         1033
  C:1866H         LINE#         1034
  C:1866H         LINE#         1036
  C:1873H         LINE#         1037
  C:1881H         LINE#         1038
  C:1881H         LINE#         1039
  C:18ACH         LINE#         1040
  C:18ACH         LINE#         1041
  C:18C1H         LINE#         1042
  C:18C3H         LINE#         1044
  C:18C3H         LINE#         1045
  C:18DBH         LINE#         1047
  C:18DEH         LINE#         1048
  C:18DEH         LINE#         1049
  C:18E0H         LINE#         1050
  C:18E0H         LINE#         1051
  C:18FEH         LINE#         1052
  C:1922H         LINE#         1053
  C:1946H         LINE#         1054
  C:196CH         LINE#         1055
  C:1998H         LINE#         1056
  C:19C0H         LINE#         1057
  C:19D8H         LINE#         1058
  C:19FFH         LINE#         1059
  C:1A17H         LINE#         1060
  C:1A35H         LINE#         1061
  C:1A35H         LINE#         1062
  C:1A3FH         LINE#         1063
  C:1A3FH         LINE#         1064
  C:1A42H         LINE#         1065
  C:1A42H         LINE#         1066
  C:1A42H         LINE#         1068
  C:1A50H         LINE#         1069
  C:1A50H         LINE#         1070
  C:1A67H         LINE#         1072
  C:1A6AH         LINE#         1073
  C:1A6AH         LINE#         1074
  C:1A6CH         LINE#         1075
  C:1A6CH         LINE#         1076
  C:1A8AH         LINE#         1077
  C:1AAEH         LINE#         1078
  C:1AD2H         LINE#         1079
  C:1AF8H         LINE#         1080
  C:1B24H         LINE#         1081
  C:1B45H         LINE#         1082
  C:1B4EH         LINE#         1083
  C:1B57H         LINE#         1084
  C:1B61H         LINE#         1085
  C:1B67H         LINE#         1086
  C:1B6AH         LINE#         1087
  C:1B6AH         LINE#         1088
  C:1B6CH         LINE#         1089
  -------         ENDPROC       _ADDCALLNOD
  C:2AD5H         SYMBOL        L?0577
BL51 BANKED LINKER/LOCATER V6.05                                                      05/24/2012  09:37:58  PAGE 39


  -------         PROC          L?0576
  -------         ENDPROC       L?0576
  C:2AD5H         SYMBOL        L?0577
  -------         PROC          _REMOVECALLNOD
  X:0344H         SYMBOL        pstBusFreq
  -------         DO            
  X:0347H         SYMBOL        pstCallNod
  -------         ENDDO         
  C:2ADCH         LINE#         1105
  C:2AE7H         LINE#         1106
  C:2AE7H         LINE#         1110
  C:2AFEH         LINE#         1111
  C:2B04H         LINE#         1112
  C:2B04H         LINE#         1114
  C:2B04H         LINE#         1116
  C:2B4BH         LINE#         1120
  C:2B4BH         LINE#         1121
  C:2B4EH         LINE#         1122
  C:2B51H         LINE#         1124
  C:2B51H         LINE#         1125
  C:2BB5H         LINE#         1130
  C:2BB5H         LINE#         1131
  C:2BD0H         LINE#         1132
  C:2BD0H         LINE#         1133
  C:2BD0H         LINE#         1134
  C:2C72H         LINE#         1138
  C:2C72H         LINE#         1139
  C:2C7CH         LINE#         1140
  C:2C7CH         LINE#         1142
  C:2C88H         LINE#         1143
  C:2C8FH         LINE#         1146
  C:2C8FH         LINE#         1148
  C:2C8FH         LINE#         1149
  C:2CABH         LINE#         1150
  C:2CBAH         LINE#         1151
  C:2CC1H         LINE#         1154
  C:2CC1H         LINE#         1155
  C:2CC1H         LINE#         1157
  C:2CC4H         LINE#         1158
  C:2CD2H         LINE#         1159
  C:2CD2H         LINE#         1160
  C:2D77H         LINE#         1164
  C:2D77H         LINE#         1165
  C:2D81H         LINE#         1166
  C:2D81H         LINE#         1167
  C:2D94H         LINE#         1168
  C:2DA0H         LINE#         1169
  C:2DA2H         LINE#         1171
  C:2DA2H         LINE#         1172
  C:2DCAH         LINE#         1173
  C:2DE7H         LINE#         1174
  C:2DE7H         LINE#         1175
  C:2DF5H         LINE#         1178
  C:2DF5H         LINE#         1179
  C:2E15H         LINE#         1180
  C:2E18H         LINE#         1181
  -------         ENDPROC       _REMOVECALLNOD
BL51 BANKED LINKER/LOCATER V6.05                                                      05/24/2012  09:37:58  PAGE 40


  -------         PROC          _SAVEINDICATIONDATA
  D:0001H         SYMBOL        pstBusFreq
  D:0005H         SYMBOL        byFirstNod
  C:4974H         LINE#         1230
  C:4974H         LINE#         1231
  C:4974H         LINE#         1233
  C:497BH         LINE#         1234
  C:4985H         LINE#         1235
  C:498FH         LINE#         1236
  C:4999H         LINE#         1237
  C:499DH         LINE#         1238
  C:49A0H         LINE#         1239
  C:49A0H         LINE#         1240
  C:49A3H         LINE#         1241
  C:49A5H         LINE#         1243
  C:49A5H         LINE#         1244
  C:49C0H         LINE#         1245
  C:49C0H         LINE#         1246
  -------         ENDPROC       _SAVEINDICATIONDATA
  -------         PROC          STOPVOICEPLAY
  C:000AH         LINE#         1264
  C:000AH         LINE#         1265
  C:000AH         LINE#         1267
  -------         ENDPROC       STOPVOICEPLAY
  -------         PROC          STARTVOICEPLAY
  C:0019H         LINE#         1283
  C:0019H         LINE#         1284
  C:0019H         LINE#         1287
  -------         ENDPROC       STARTVOICEPLAY
  C:4BF6H         SYMBOL        L?0580
  -------         PROC          L?0579
  -------         ENDPROC       L?0579
  C:4BF6H         SYMBOL        L?0580
  -------         PROC          VOICECHANNELCTX
  C:4BFAH         LINE#         1303
  C:4BFAH         LINE#         1304
  C:4BFAH         LINE#         1338
  C:4C07H         LINE#         1339
  C:4C07H         LINE#         1340
  C:4C09H         LINE#         1341
  C:4C0BH         LINE#         1342
  C:4C0DH         LINE#         1343
  C:4C0FH         LINE#         1344
  C:4C10H         LINE#         1346
  C:4C10H         LINE#         1347
  C:4C14H         LINE#         1348
  C:4C14H         LINE#         1349
  C:4C16H         LINE#         1350
  C:4C18H         LINE#         1351
  C:4C1AH         LINE#         1352
  C:4C1CH         LINE#         1353
  C:4C1DH         LINE#         1356
  C:4C1DH         LINE#         1357
  C:4C24H         LINE#         1358
  C:4C24H         LINE#         1359
  C:4C26H         LINE#         1360
  C:4C28H         LINE#         1361
BL51 BANKED LINKER/LOCATER V6.05                                                      05/24/2012  09:37:58  PAGE 41


  C:4C2AH         LINE#         1362
  C:4C2CH         LINE#         1363
  C:4C2DH         LINE#         1365
  C:4C2DH         LINE#         1367
  C:4C2FH         LINE#         1368
  C:4C31H         LINE#         1369
  C:4C33H         LINE#         1370
  C:4C35H         LINE#         1371
  C:4C35H         LINE#         1372
  C:4C35H         LINE#         1373
  C:4C35H         LINE#         1374
  -------         ENDPROC       VOICECHANNELCTX
  -------         PROC          RESTARTINDICATION
  -------         DO            
  X:0344H         SYMBOL        pstNod
  C:3372H         SYMBOL        FeltchFirst
  -------         ENDDO         
  C:3356H         LINE#         1390
  C:3356H         LINE#         1391
  C:3356H         LINE#         1394
  C:3367H         LINE#         1395
  C:3367H         LINE#         1397
  C:3367H         LINE#         1399
  C:3372H         LINE#         1400
  C:3372H         LINE#         1401
  C:3372H         LINE#         1403
  C:3389H         LINE#         1404
  C:338CH         LINE#         1405
  C:338CH         LINE#         1407
  C:339DH         LINE#         1408
  C:339DH         LINE#         1409
  C:339DH         LINE#         1410
  C:339DH         LINE#         1411
  C:33A0H         LINE#         1413
  C:33A0H         LINE#         1414
  C:33B2H         LINE#         1415
  C:33BCH         LINE#         1416
  C:33C6H         LINE#         1417
  C:33CAH         LINE#         1418
  C:33D4H         LINE#         1419
  C:33D5H         LINE#         1420
  C:33D5H         LINE#         1421
  C:33E0H         LINE#         1422
  C:33E0H         LINE#         1423
  C:33F7H         LINE#         1424
  C:33FFH         LINE#         1425
  C:33FFH         LINE#         1426
  C:3402H         LINE#         1428
  C:3402H         LINE#         1430
  C:3402H         LINE#         1432
  C:3419H         LINE#         1433
  C:341CH         LINE#         1434
  C:341CH         LINE#         1435
  C:342DH         LINE#         1436
  C:342DH         LINE#         1437
  C:3431H         LINE#         1438
  C:343CH         LINE#         1439
BL51 BANKED LINKER/LOCATER V6.05                                                      05/24/2012  09:37:58  PAGE 42


  C:343CH         LINE#         1441
  C:343CH         LINE#         1443
  C:343CH         LINE#         1444
  C:3453H         LINE#         1445
  C:3459H         LINE#         1446
  C:3459H         LINE#         1447
  C:3459H         LINE#         1448
  C:3459H         LINE#         1450
  C:3459H         LINE#         1451
  C:347AH         LINE#         1453
  C:347AH         LINE#         1454
  C:3481H         LINE#         1455
  C:348BH         LINE#         1456
  C:3495H         LINE#         1457
  C:3499H         LINE#         1458
  C:349CH         LINE#         1459
  C:349DH         LINE#         1460
  C:349DH         LINE#         1461
  C:34A3H         LINE#         1462
  C:34A3H         LINE#         1463
  C:34BAH         LINE#         1464
  C:34C5H         LINE#         1465
  C:34CFH         LINE#         1466
  C:34CFH         LINE#         1468
  C:34CFH         LINE#         1470
  C:34CFH         LINE#         1471
  C:34CFH         LINE#         1472
  C:34CFH         LINE#         1473
  C:34CFH         LINE#         1474
  C:34CFH         LINE#         1475
  C:34CFH         LINE#         1476
  -------         ENDPROC       RESTARTINDICATION
  -------         PROC          BUS0RECDEAL
  -------         DO            
  X:02BBH         SYMBOL        byTemp
  X:02BCH         SYMBOL        byCmd
  X:02BDH         SYMBOL        byPriority
  X:0341H         SYMBOL        pstDataFreq
  -------         ENDDO         
  C:004EH         LINE#         1492
  C:004EH         LINE#         1493
  C:004EH         LINE#         1499
  C:0051H         LINE#         1501
  C:0055H         LINE#         1502
  C:0068H         LINE#         1503
  C:006AH         LINE#         1504
  C:006FH         LINE#         1509
  C:0078H         LINE#         1514
  C:00E6H         LINE#         1515
  C:00E6H         LINE#         1516
  C:00E6H         LINE#         1517
  C:00EEH         LINE#         1518
  C:00F6H         LINE#         1519
  C:00FEH         LINE#         1520
  C:0104H         LINE#         1521
  C:010BH         LINE#         1522
  C:010BH         LINE#         1523
BL51 BANKED LINKER/LOCATER V6.05                                                      05/24/2012  09:37:58  PAGE 43


  C:0111H         LINE#         1524
  C:0113H         LINE#         1526
  C:0113H         LINE#         1527
  C:0118H         LINE#         1528
  C:0118H         LINE#         1530
  C:011BH         LINE#         1531
  C:011BH         LINE#         1532
  C:0122H         LINE#         1533
  C:0122H         LINE#         1535
  C:0126H         LINE#         1536
  C:0126H         LINE#         1537
  C:0126H         LINE#         1538
  C:0129H         LINE#         1540
  C:0129H         LINE#         1541
  C:0133H         LINE#         1542
  C:0133H         LINE#         1543
  C:0134H         LINE#         1544
  C:0136H         LINE#         1545
  C:0144H         LINE#         1546
  C:0154H         LINE#         1548
  C:016BH         LINE#         1549
  C:018CH         LINE#         1550
  C:01A3H         LINE#         1551
  C:01ADH         LINE#         1552
  C:01D4H         LINE#         1553
  C:01F3H         LINE#         1555
  C:0206H         LINE#         1556
  C:020BH         LINE#         1557
  C:020EH         LINE#         1558
  C:0213H         LINE#         1560
  C:0218H         LINE#         1561
  C:0218H         LINE#         1562
  C:021BH         LINE#         1563
  C:021BH         LINE#         1564
  C:021BH         LINE#         1565
  C:021BH         LINE#         1566
  C:021BH         LINE#         1567
  C:0231H         LINE#         1569
  C:0231H         LINE#         1571
  C:0231H         LINE#         1573
  C:0239H         LINE#         1574
  C:0243H         LINE#         1575
  C:0251H         LINE#         1576
  C:0256H         LINE#         1577
  C:0256H         LINE#         1579
  C:0256H         LINE#         1582
  C:025EH         LINE#         1583
  C:0266H         LINE#         1584
  C:026EH         LINE#         1585
  C:0278H         LINE#         1586
  C:0280H         LINE#         1587
  C:0288H         LINE#         1588
  C:028FH         LINE#         1589
  C:0292H         LINE#         1590
  C:02A3H         LINE#         1591
  C:02A3H         LINE#         1593
  C:02A3H         LINE#         1595
BL51 BANKED LINKER/LOCATER V6.05                                                      05/24/2012  09:37:58  PAGE 44


  C:02AAH         LINE#         1596
  C:02AAH         LINE#         1597
  C:02B5H         LINE#         1598
  C:02B5H         LINE#         1599
  C:02BFH         LINE#         1600
  C:02BFH         LINE#         1602
  C:02BFH         LINE#         1603
  C:02C4H         LINE#         1604
  C:02CFH         LINE#         1605
  C:02CFH         LINE#         1606
  C:02CFH         LINE#         1607
  C:02CFH         LINE#         1608
  C:02CFH         LINE#         1609
  C:02D2H         LINE#         1611
  C:02D2H         LINE#         1612
  C:02DAH         LINE#         1613
  C:02DAH         LINE#         1614
  C:02E4H         LINE#         1615
  C:02E4H         LINE#         1617
  C:02E4H         LINE#         1618
  C:02ECH         LINE#         1619
  C:02F4H         LINE#         1620
  C:02FCH         LINE#         1621
  C:0300H         LINE#         1622
  C:030BH         LINE#         1623
  C:0316H         LINE#         1624
  C:0316H         LINE#         1626
  C:0316H         LINE#         1627
  C:0316H         LINE#         1628
  C:0316H         LINE#         1629
  C:0318H         LINE#         1631
  C:0318H         LINE#         1633
  C:0318H         LINE#         1636
  C:0322H         LINE#         1637
  C:0322H         LINE#         1639
  C:0322H         LINE#         1640
  C:0337H         LINE#         1641
  C:0345H         LINE#         1643
  C:0354H         LINE#         1645
  C:0364H         LINE#         1647
  C:0368H         LINE#         1648
  C:0378H         LINE#         1650
  C:0383H         LINE#         1651
  C:0383H         LINE#         1652
  C:038BH         LINE#         1653
  C:0396H         LINE#         1654
  C:039CH         LINE#         1655
  C:039FH         LINE#         1657
  C:039FH         LINE#         1658
  C:039FH         LINE#         1659
  C:039FH         LINE#         1660
  C:039FH         LINE#         1661
  C:039FH         LINE#         1662
  C:039FH         LINE#         1663
  C:039FH         LINE#         1664
  C:03B5H         LINE#         1666
  C:03B5H         LINE#         1668
BL51 BANKED LINKER/LOCATER V6.05                                                      05/24/2012  09:37:58  PAGE 45


  C:03B5H         LINE#         1669
  C:03DCH         LINE#         1672
  C:03DCH         LINE#         1673
  C:03E6H         LINE#         1674
  C:03E6H         LINE#         1675
  C:03E7H         LINE#         1676
  C:03E9H         LINE#         1677
  C:03F7H         LINE#         1678
  C:0407H         LINE#         1680
  C:0428H         LINE#         1681
  C:0442H         LINE#         1682
  C:0442H         LINE#         1683
  C:0442H         LINE#         1684
  C:0442H         LINE#         1685
  C:0442H         LINE#         1686
  C:0442H         LINE#         1687
  C:0442H         LINE#         1688
  C:0442H         LINE#         1689
  C:0442H         LINE#         1690
  C:0444H         LINE#         1692
  C:0444H         LINE#         1693
  C:044EH         LINE#         1694
  C:044EH         LINE#         1695
  C:044FH         LINE#         1696
  C:0451H         LINE#         1697
  C:045FH         LINE#         1698
  C:046FH         LINE#         1700
  C:0490H         LINE#         1701
  C:04B1H         LINE#         1702
  C:04C8H         LINE#         1703
  C:04D2H         LINE#         1704
  C:04F9H         LINE#         1705
  C:0518H         LINE#         1706
  C:052BH         LINE#         1707
  C:0530H         LINE#         1708
  C:0533H         LINE#         1709
  C:0538H         LINE#         1710
  C:0538H         LINE#         1712
  C:053CH         LINE#         1713
  C:053FH         LINE#         1714
  C:0589H         LINE#         1719
  C:0589H         LINE#         1720
  C:0593H         LINE#         1721
  C:0593H         LINE#         1723
  C:0593H         LINE#         1725
  C:0598H         LINE#         1726
  C:05A3H         LINE#         1727
  C:05A3H         LINE#         1728
  C:05ADH         LINE#         1729
  C:05ADH         LINE#         1730
  C:05ADH         LINE#         1731
  C:05AEH         LINE#         1732
  C:05AEH         LINE#         1733
  C:05AEH         LINE#         1734
  C:05AEH         LINE#         1735
  C:05AEH         LINE#         1736
  C:05B8H         LINE#         1737
BL51 BANKED LINKER/LOCATER V6.05                                                      05/24/2012  09:37:58  PAGE 46


  C:05B8H         LINE#         1738
  C:05B8H         LINE#         1739
  C:05B8H         LINE#         1742
  C:05BBH         LINE#         1743
  C:05C3H         LINE#         1747
  C:05C9H         LINE#         1748
  C:05CCH         LINE#         1750
  C:05D3H         LINE#         1751
  C:05D7H         LINE#         1752
  C:05D7H         LINE#         1753
  C:05D9H         LINE#         1759
  C:05D9H         LINE#         1760
  C:05DCH         LINE#         1762
  C:05DFH         LINE#         1763
  C:05DFH         LINE#         1766
  C:05E1H         LINE#         1767
  C:05E3H         LINE#         1768
  C:05E3H         LINE#         1769
  C:05EDH         LINE#         1770
  C:05EDH         LINE#         1771
  C:05EDH         LINE#         1772
  C:05EDH         LINE#         1774
  C:05F4H         LINE#         1775
  C:05F8H         LINE#         1776
  C:05F8H         LINE#         1777
  C:05FAH         LINE#         1782
  C:05FAH         LINE#         1783
  C:05FDH         LINE#         1786
  C:0600H         LINE#         1787
  C:0600H         LINE#         1790
  C:0603H         LINE#         1793
  C:0607H         LINE#         1794
  C:060AH         LINE#         1795
  C:060AH         LINE#         1796
  C:0611H         LINE#         1797
  C:0611H         LINE#         1798
  C:0619H         LINE#         1799
  C:0621H         LINE#         1800
  C:0629H         LINE#         1801
  C:062DH         LINE#         1802
  C:0631H         LINE#         1803
  C:0633H         LINE#         1804
  C:0634H         LINE#         1805
  C:0634H         LINE#         1806
  C:0637H         LINE#         1807
  C:0637H         LINE#         1809
  C:063CH         LINE#         1810
  C:063CH         LINE#         1812
  C:0643H         LINE#         1814
  C:0646H         LINE#         1828
  C:064AH         LINE#         1830
  C:064DH         LINE#         1831
  C:0651H         LINE#         1832
  C:0654H         LINE#         1834
  C:0654H         LINE#         1835
  C:065BH         LINE#         1836
  C:065BH         LINE#         1837
BL51 BANKED LINKER/LOCATER V6.05                                                      05/24/2012  09:37:58  PAGE 47


  C:0663H         LINE#         1838
  C:066BH         LINE#         1839
  C:0673H         LINE#         1840
  C:0677H         LINE#         1841
  C:067BH         LINE#         1842
  C:067DH         LINE#         1843
  C:067EH         LINE#         1844
  C:067EH         LINE#         1845
  C:0681H         LINE#         1846
  C:0681H         LINE#         1848
  C:0689H         LINE#         1849
  C:0689H         LINE#         1851
  C:0690H         LINE#         1852
  C:0692H         LINE#         1857
  C:0692H         LINE#         1858
  C:0695H         LINE#         1862
  C:0698H         LINE#         1864
  C:069FH         LINE#         1865
  C:06A7H         LINE#         1866
  C:06A7H         LINE#         1867
  C:06ACH         LINE#         1868
  C:06AFH         LINE#         1870
  C:06B9H         LINE#         1871
  C:06B9H         LINE#         1873
  C:06DDH         LINE#         1876
  C:06DDH         LINE#         1877
  C:06E7H         LINE#         1878
  C:06ECH         LINE#         1879
  C:06EDH         LINE#         1881
  C:06EDH         LINE#         1882
  C:06F7H         LINE#         1883
  C:06F7H         LINE#         1884
  C:06F8H         LINE#         1885
  C:06FAH         LINE#         1886
  C:0708H         LINE#         1887
  C:0718H         LINE#         1888
  C:0739H         LINE#         1889
  C:075AH         LINE#         1890
  C:0771H         LINE#         1891
  C:077BH         LINE#         1892
  C:077BH         LINE#         1893
  C:077BH         LINE#         1894
  C:077BH         LINE#         1895
  C:077BH         LINE#         1896
  C:077BH         LINE#         1897
  C:077BH         LINE#         1898
  C:077BH         LINE#         1899
  C:077EH         LINE#         1900
  C:0782H         LINE#         1901
  C:0784H         LINE#         1902
  C:0784H         LINE#         1903
  C:0784H         LINE#         1904
  C:0784H         LINE#         1905
  C:078BH         LINE#         1906
  C:078BH         LINE#         1907
  C:0793H         LINE#         1908
  C:079BH         LINE#         1909
BL51 BANKED LINKER/LOCATER V6.05                                                      05/24/2012  09:37:58  PAGE 48


  C:07A3H         LINE#         1910
  C:07A7H         LINE#         1911
  C:07ABH         LINE#         1912
  C:07ADH         LINE#         1913
  C:07AEH         LINE#         1914
  C:07AEH         LINE#         1915
  C:07B1H         LINE#         1916
  C:07B1H         LINE#         1918
  C:07B1H         LINE#         1921
  C:07B4H         LINE#         1924
  C:07BBH         LINE#         1930
  C:07C1H         LINE#         1931
  C:07C4H         LINE#         1934
  C:07C7H         LINE#         1936
  C:07CEH         LINE#         1937
  C:07CEH         LINE#         1938
  C:07CEH         LINE#         1940
  C:07CEH         LINE#         1946
  C:07CEH         LINE#         1947
  C:07D1H         LINE#         1950
  C:07D1H         LINE#         1952
  C:07D4H         LINE#         1954
  C:07DEH         LINE#         1955
  C:07DEH         LINE#         1956
  C:07DFH         LINE#         1957
  C:07E1H         LINE#         1958
  C:07EFH         LINE#         1959
  C:07FFH         LINE#         1961
  C:0820H         LINE#         1962
  C:0841H         LINE#         1963
  C:0854H         LINE#         1964
  C:085EH         LINE#         1965
  C:0885H         LINE#         1966
  C:08A4H         LINE#         1967
  C:08B7H         LINE#         1968
  C:08BCH         LINE#         1969
  C:08BFH         LINE#         1970
  C:08C4H         LINE#         1974
  C:08CFH         LINE#         1975
  C:08CFH         LINE#         1976
  C:08D2H         LINE#         1977
  C:08D2H         LINE#         1978
  C:08D2H         LINE#         1979
  C:08D2H         LINE#         1980
  C:08D9H         LINE#         1982
  C:08E3H         LINE#         1983
  C:08E3H         LINE#         1985
  C:08F1H         LINE#         1986
  C:08F1H         LINE#         1987
  C:08F5H         LINE#         1988
  C:0902H         LINE#         1989
  C:0902H         LINE#         1990
  C:0902H         LINE#         1993
  C:0905H         LINE#         1995
  C:090BH         LINE#         1997
  C:0915H         LINE#         1998
  C:0915H         LINE#         1999
BL51 BANKED LINKER/LOCATER V6.05                                                      05/24/2012  09:37:58  PAGE 49


  C:0916H         LINE#         2000
  C:0918H         LINE#         2001
  C:0926H         LINE#         2002
  C:0936H         LINE#         2004
  C:0957H         LINE#         2005
  C:0978H         LINE#         2006
  C:098BH         LINE#         2007
  C:0995H         LINE#         2008
  C:09BCH         LINE#         2009
  C:09DBH         LINE#         2010
  C:09EEH         LINE#         2011
  C:09F3H         LINE#         2012
  C:09F6H         LINE#         2013
  C:09FBH         LINE#         2015
  C:0A05H         LINE#         2016
  C:0A05H         LINE#         2017
  C:0A0BH         LINE#         2019
  C:0A15H         LINE#         2020
  C:0A1EH         LINE#         2021
  C:0A1EH         LINE#         2022
  C:0A1EH         LINE#         2023
  C:0A1EH         LINE#         2024
  C:0A23H         LINE#         2025
  C:0A2BH         LINE#         2026
  C:0A33H         LINE#         2027
  C:0A46H         LINE#         2028
  C:0A49H         LINE#         2029
  C:0A49H         LINE#         2031
  C:0A49H         LINE#         2032
  C:0A5CH         LINE#         2033
  C:0A5CH         LINE#         2034
  C:0A5CH         LINE#         2035
  C:0A5CH         LINE#         2036
  C:0A63H         LINE#         2038
  C:0A68H         LINE#         2040
  C:0A6AH         LINE#         2043
  C:0A6AH         LINE#         2044
  C:0A6AH         LINE#         2046
  C:0A6AH         LINE#         2047
  C:0A6FH         LINE#         2048
  C:0A72H         LINE#         2049
  C:0A74H         LINE#         2053
  C:0A74H         LINE#         2054
  C:0A74H         LINE#         2055
  C:0A74H         LINE#         2057
  C:0A7CH         LINE#         2058
  C:0A7CH         LINE#         2059
  C:0A83H         LINE#         2061
  C:0A88H         LINE#         2062
  C:0AB4H         LINE#         2063
  C:0AB4H         LINE#         2064
  C:0AB4H         LINE#         2065
  C:0AB4H         LINE#         2066
  C:0AB4H         LINE#         2067
  C:0AB4H         LINE#         2068
  C:0AB4H         LINE#         2069
  C:0AB4H         LINE#         2070
BL51 BANKED LINKER/LOCATER V6.05                                                      05/24/2012  09:37:58  PAGE 50


  C:0AB4H         LINE#         2071
  C:0AB4H         LINE#         2072
  C:0AB4H         LINE#         2073
  C:0AB4H         LINE#         2074
  C:0AB4H         LINE#         2075
  C:0ABBH         LINE#         2076
  C:0ABDH         LINE#         2077
  C:0ABDH         LINE#         2078
  C:0ABDH         LINE#         2079
  C:0ABDH         LINE#         2081
  C:0ABDH         LINE#         2084
  C:0ABDH         LINE#         2086
  C:0ABDH         LINE#         2088
  C:0AC2H         LINE#         2090
  C:0ACCH         LINE#         2091
  C:0ACCH         LINE#         2092
  C:0ACCH         LINE#         2093
  C:0ACCH         LINE#         2094
  C:0AF0H         LINE#         2097
  C:0AF0H         LINE#         2098
  C:0AF7H         LINE#         2100
  C:0AFCH         LINE#         2101
  C:0B08H         LINE#         2102
  C:0B08H         LINE#         2103
  C:0B08H         LINE#         2104
  C:0B0AH         LINE#         2106
  C:0B0AH         LINE#         2107
  C:0B2EH         LINE#         2110
  C:0B2EH         LINE#         2112
  C:0B35H         LINE#         2114
  C:0B3AH         LINE#         2115
  C:0B50H         LINE#         2116
  C:0B50H         LINE#         2117
  C:0B56H         LINE#         2118
  C:0B57H         LINE#         2120
  C:0B57H         LINE#         2121
  C:0B57H         LINE#         2122
  C:0B61H         LINE#         2123
  C:0B61H         LINE#         2124
  C:0B62H         LINE#         2125
  C:0B64H         LINE#         2126
  C:0B72H         LINE#         2127
  C:0B82H         LINE#         2129
  C:0B99H         LINE#         2130
  C:0BA3H         LINE#         2131
  C:0BADH         LINE#         2132
  C:0BCEH         LINE#         2133
  C:0BD9H         LINE#         2134
  C:0BD9H         LINE#         2136
  C:0BD9H         LINE#         2137
  C:0BD9H         LINE#         2138
  C:0BD9H         LINE#         2139
  C:0BD9H         LINE#         2140
  C:0BDCH         LINE#         2142
  C:0BDCH         LINE#         2143
  C:0BDCH         LINE#         2144
  C:0BE6H         LINE#         2145
BL51 BANKED LINKER/LOCATER V6.05                                                      05/24/2012  09:37:58  PAGE 51


  C:0BE6H         LINE#         2146
  C:0BE7H         LINE#         2147
  C:0BE9H         LINE#         2148
  C:0BF7H         LINE#         2149
  C:0C07H         LINE#         2151
  C:0C1EH         LINE#         2152
  C:0C28H         LINE#         2153
  C:0C49H         LINE#         2154
  C:0C60H         LINE#         2155
  C:0C6AH         LINE#         2156
  C:0C6AH         LINE#         2157
  C:0C6AH         LINE#         2159
  C:0C6AH         LINE#         2160
  C:0C6AH         LINE#         2161
  C:0C6AH         LINE#         2162
  C:0C6AH         LINE#         2163
  C:0C6DH         LINE#         2165
  C:0C6DH         LINE#         2166
  C:0C77H         LINE#         2167
  C:0C77H         LINE#         2168
  C:0C78H         LINE#         2169
  C:0C7AH         LINE#         2170
  C:0C88H         LINE#         2171
  C:0C98H         LINE#         2172
  C:0CB9H         LINE#         2173
  C:0CD2H         LINE#         2174
  C:0CE9H         LINE#         2175
  C:0CF3H         LINE#         2176
  C:0CFDH         LINE#         2177
  C:0D07H         LINE#         2178
  C:0D11H         LINE#         2179
  C:0D1BH         LINE#         2180
  C:0D25H         LINE#         2181
  C:0D25H         LINE#         2182
  C:0D25H         LINE#         2184
  C:0D25H         LINE#         2185
  C:0D25H         LINE#         2186
  C:0D25H         LINE#         2187
  C:0D25H         LINE#         2188
  C:0D28H         LINE#         2190
  C:0D28H         LINE#         2191
  C:0D32H         LINE#         2192
  C:0D32H         LINE#         2193
  C:0D33H         LINE#         2194
  C:0D35H         LINE#         2195
  C:0D43H         LINE#         2196
  C:0D53H         LINE#         2197
  C:0D74H         LINE#         2198
  C:0D8DH         LINE#         2199
  C:0DA4H         LINE#         2200
  C:0DAEH         LINE#         2201
  C:0DB8H         LINE#         2202
  C:0DC2H         LINE#         2203
  C:0DCCH         LINE#         2204
  C:0DD6H         LINE#         2206
  C:0DFDH         LINE#         2207
  C:0E1CH         LINE#         2209
BL51 BANKED LINKER/LOCATER V6.05                                                      05/24/2012  09:37:58  PAGE 52


  C:0E2FH         LINE#         2210
  C:0E34H         LINE#         2211
  C:0E37H         LINE#         2212
  C:0E3CH         LINE#         2213
  C:0E3CH         LINE#         2215
  C:0E3CH         LINE#         2216
  C:0E3CH         LINE#         2217
  C:0E3CH         LINE#         2218
  -------         ENDPROC       BUS0RECDEAL
  -------         PROC          BUS0SENDFINISHDEAL
  -------         DO            
  X:0341H         SYMBOL        pstDataFreq
  -------         ENDDO         
  C:218AH         LINE#         2236
  C:218AH         LINE#         2237
  C:218AH         LINE#         2239
  C:218EH         LINE#         2240
  C:2190H         LINE#         2241
  C:21A3H         LINE#         2242
  C:21A8H         LINE#         2246
  C:21B1H         LINE#         2251
  C:2231H         LINE#         2252
  C:2231H         LINE#         2253
  C:2231H         LINE#         2254
  C:223BH         LINE#         2255
  C:223BH         LINE#         2256
  C:223EH         LINE#         2257
  C:2247H         LINE#         2258
  C:2248H         LINE#         2260
  C:2248H         LINE#         2262
  C:2248H         LINE#         2264
  C:2248H         LINE#         2265
  C:2248H         LINE#         2266
  C:2248H         LINE#         2268
  C:2248H         LINE#         2269
  C:2248H         LINE#         2270
  C:224BH         LINE#         2271
  C:224BH         LINE#         2272
  C:2252H         LINE#         2273
  C:225AH         LINE#         2274
  C:225AH         LINE#         2275
  C:225AH         LINE#         2276
  C:225AH         LINE#         2278
  C:2265H         LINE#         2280
  C:2265H         LINE#         2281
  C:226FH         LINE#         2282
  C:226FH         LINE#         2284
  C:226FH         LINE#         2285
  C:2274H         LINE#         2286
  C:227FH         LINE#         2287
  C:227FH         LINE#         2288
  C:2289H         LINE#         2289
  C:2289H         LINE#         2290
  C:228AH         LINE#         2292
  C:228AH         LINE#         2293
  C:2290H         LINE#         2301
  C:2293H         LINE#         2303
BL51 BANKED LINKER/LOCATER V6.05                                                      05/24/2012  09:37:58  PAGE 53


  C:2296H         LINE#         2305
  C:229AH         LINE#         2306
  C:229AH         LINE#         2307
  C:229DH         LINE#         2308
  C:229DH         LINE#         2310
  C:22A9H         LINE#         2312
  C:22AFH         LINE#         2318
  C:22AFH         LINE#         2319
  C:22B2H         LINE#         2322
  C:22B5H         LINE#         2324
  C:22B5H         LINE#         2325
  C:22B8H         LINE#         2326
  C:22B8H         LINE#         2327
  C:22B8H         LINE#         2333
  C:22B8H         LINE#         2334
  C:22BBH         LINE#         2337
  C:22BBH         LINE#         2339
  C:22BEH         LINE#         2341
  C:22C9H         LINE#         2342
  C:22C9H         LINE#         2343
  C:22C9H         LINE#         2344
  C:22C9H         LINE#         2345
  C:22CCH         LINE#         2346
  C:22CCH         LINE#         2348
  C:22CCH         LINE#         2349
  C:22CFH         LINE#         2351
  C:22D5H         LINE#         2353
  C:22D8H         LINE#         2354
  C:22DBH         LINE#         2355
  C:22DEH         LINE#         2356
  C:22DEH         LINE#         2358
  C:22DEH         LINE#         2359
  C:22E1H         LINE#         2361
  C:22E7H         LINE#         2363
  C:22EAH         LINE#         2364
  C:22EDH         LINE#         2365
  C:22F0H         LINE#         2366
  C:22F0H         LINE#         2368
  C:22F7H         LINE#         2370
  C:22FAH         LINE#         2371
  C:2301H         LINE#         2373
  C:230EH         LINE#         2374
  C:230EH         LINE#         2376
  C:231FH         LINE#         2377
  C:231FH         LINE#         2378
  C:2323H         LINE#         2379
  C:2330H         LINE#         2380
  C:2330H         LINE#         2381
  C:2330H         LINE#         2382
  C:2330H         LINE#         2383
  C:2330H         LINE#         2384
  C:2330H         LINE#         2385
  C:2330H         LINE#         2386
  C:2330H         LINE#         2388
  C:2338H         LINE#         2391
  C:233BH         LINE#         2392
  C:233EH         LINE#         2393
BL51 BANKED LINKER/LOCATER V6.05                                                      05/24/2012  09:37:58  PAGE 54


  C:2377H         LINE#         2398
  C:2377H         LINE#         2399
  C:237DH         LINE#         2405
  C:237DH         LINE#         2406
  C:2380H         LINE#         2409
  C:2380H         LINE#         2411
  C:2383H         LINE#         2413
  C:238BH         LINE#         2414
  C:238BH         LINE#         2415
  C:238EH         LINE#         2416
  C:238EH         LINE#         2417
  C:238EH         LINE#         2418
  C:2397H         LINE#         2419
  C:2399H         LINE#         2420
  C:239CH         LINE#         2421
  C:239CH         LINE#         2422
  C:23A3H         LINE#         2423
  C:23A3H         LINE#         2424
  C:23A6H         LINE#         2427
  C:23B9H         LINE#         2429
  C:23BEH         LINE#         2430
  C:23C0H         LINE#         2431
  C:23C2H         LINE#         2432
  C:23C4H         LINE#         2433
  C:23C6H         LINE#         2434
  C:23C8H         LINE#         2436
  C:23CFH         LINE#         2440
  C:23D5H         LINE#         2442
  C:23DBH         LINE#         2444
  C:23DEH         LINE#         2446
  C:23E5H         LINE#         2448
  C:23F0H         LINE#         2449
  C:23F0H         LINE#         2451
  C:23F3H         LINE#         2452
  C:23F3H         LINE#         2453
  C:23F3H         LINE#         2455
  C:23F3H         LINE#         2456
  C:23FBH         LINE#         2457
  C:2403H         LINE#         2458
  C:240BH         LINE#         2459
  C:240FH         LINE#         2460
  C:2417H         LINE#         2461
  C:241FH         LINE#         2462
  C:2426H         LINE#         2463
  C:2426H         LINE#         2464
  C:2426H         LINE#         2465
  C:2428H         LINE#         2467
  C:2428H         LINE#         2468
  C:242FH         LINE#         2470
  C:2439H         LINE#         2471
  C:2439H         LINE#         2473
  C:2447H         LINE#         2474
  C:2447H         LINE#         2475
  C:244BH         LINE#         2476
  C:2458H         LINE#         2477
  C:2458H         LINE#         2478
  C:2458H         LINE#         2481
BL51 BANKED LINKER/LOCATER V6.05                                                      05/24/2012  09:37:58  PAGE 55


  C:245BH         LINE#         2483
  C:2461H         LINE#         2484
  C:246BH         LINE#         2485
  C:246BH         LINE#         2486
  C:2471H         LINE#         2488
  C:247BH         LINE#         2489
  C:247BH         LINE#         2490
  C:247BH         LINE#         2491
  C:247EH         LINE#         2493
  C:247EH         LINE#         2494
  C:247EH         LINE#         2495
  C:247EH         LINE#         2496
  C:247EH         LINE#         2497
  C:2488H         LINE#         2498
  C:2488H         LINE#         2499
  C:2489H         LINE#         2500
  C:248BH         LINE#         2501
  C:2499H         LINE#         2502
  C:24A9H         LINE#         2504
  C:24CAH         LINE#         2505
  C:24E3H         LINE#         2506
  C:24EDH         LINE#         2507
  C:2514H         LINE#         2508
  C:2533H         LINE#         2510
  C:2546H         LINE#         2511
  C:254BH         LINE#         2512
  C:254EH         LINE#         2513
  C:2553H         LINE#         2514
  C:2554H         LINE#         2515
  C:2554H         LINE#         2516
  C:2554H         LINE#         2517
  C:2554H         LINE#         2518
  C:2554H         LINE#         2519
  C:255BH         LINE#         2520
  C:255BH         LINE#         2521
  C:2562H         LINE#         2522
  C:2565H         LINE#         2523
  C:2565H         LINE#         2525
  C:256BH         LINE#         2526
  C:256EH         LINE#         2528
  C:2575H         LINE#         2529
  C:2579H         LINE#         2530
  C:2579H         LINE#         2531
  C:257BH         LINE#         2537
  C:257BH         LINE#         2538
  C:257EH         LINE#         2541
  C:2581H         LINE#         2542
  C:2581H         LINE#         2545
  C:2584H         LINE#         2548
  C:2588H         LINE#         2549
  C:258AH         LINE#         2550
  C:258AH         LINE#         2551
  C:2594H         LINE#         2552
  C:2594H         LINE#         2553
  C:2594H         LINE#         2554
  C:2594H         LINE#         2556
  C:259BH         LINE#         2557
BL51 BANKED LINKER/LOCATER V6.05                                                      05/24/2012  09:37:58  PAGE 56


  C:259FH         LINE#         2558
  C:259FH         LINE#         2559
  C:25A1H         LINE#         2565
  C:25A1H         LINE#         2566
  C:25A4H         LINE#         2569
  C:25A7H         LINE#         2570
  C:25A7H         LINE#         2573
  C:25AAH         LINE#         2576
  C:25B1H         LINE#         2577
  C:25B1H         LINE#         2578
  C:25B1H         LINE#         2579
  C:25B1H         LINE#         2580
  C:25B1H         LINE#         2581
  C:25B1H         LINE#         2582
  C:25B1H         LINE#         2585
  C:25B4H         LINE#         2587
  C:25B4H         LINE#         2588
  C:25B4H         LINE#         2589
  C:25B4H         LINE#         2591
  C:25B4H         LINE#         2592
  C:25B6H         LINE#         2593
  C:25B6H         LINE#         2594
  C:25B6H         LINE#         2595
  C:25B6H         LINE#         2596
  C:25B6H         LINE#         2597
  C:25C7H         LINE#         2598
  C:25C7H         LINE#         2599
  C:25CEH         LINE#         2600
  C:25D1H         LINE#         2602
  C:25D1H         LINE#         2605
  C:25DBH         LINE#         2607
  C:25E3H         LINE#         2608
  C:25EBH         LINE#         2609
  C:25F3H         LINE#         2611
  C:25F9H         LINE#         2612
  C:25F9H         LINE#         2613
  C:25FAH         LINE#         2614
  C:25FAH         LINE#         2615
  C:25FAH         LINE#         2616
  C:25FAH         LINE#         2617
  C:2601H         LINE#         2618
  C:2601H         LINE#         2619
  C:2609H         LINE#         2620
  C:2611H         LINE#         2621
  C:2619H         LINE#         2622
  C:261BH         LINE#         2623
  C:261BH         LINE#         2624
  C:261BH         LINE#         2625
  C:261BH         LINE#         2626
  C:261EH         LINE#         2627
  C:2625H         LINE#         2628
  C:2627H         LINE#         2629
  C:2627H         LINE#         2631
  C:2627H         LINE#         2634
  C:262AH         LINE#         2637
  C:2631H         LINE#         2643
  C:2639H         LINE#         2646
BL51 BANKED LINKER/LOCATER V6.05                                                      05/24/2012  09:37:58  PAGE 57


  C:263FH         LINE#         2647
  C:2642H         LINE#         2650
  C:2645H         LINE#         2652
  C:264CH         LINE#         2654
  C:2655H         LINE#         2655
  C:265AH         LINE#         2656
  C:265AH         LINE#         2657
  C:265AH         LINE#         2658
  C:265AH         LINE#         2661
  C:2664H         LINE#         2664
  C:266AH         LINE#         2665
  C:266BH         LINE#         2667
  C:266BH         LINE#         2668
  C:2671H         LINE#         2669
  C:2677H         LINE#         2671
  C:2682H         LINE#         2672
  C:2682H         LINE#         2673
  C:268CH         LINE#         2674
  C:26C2H         LINE#         2675
  C:26C2H         LINE#         2676
  C:26C2H         LINE#         2677
  C:26CCH         LINE#         2678
  C:26CEH         LINE#         2679
  C:26CEH         LINE#         2680
  C:26D8H         LINE#         2681
  C:26DAH         LINE#         2682
  C:26DAH         LINE#         2683
  C:26E4H         LINE#         2684
  C:26E6H         LINE#         2685
  C:26E6H         LINE#         2686
  C:26EBH         LINE#         2687
  C:26EDH         LINE#         2688
  C:26EDH         LINE#         2689
  C:26F7H         LINE#         2690
  C:26F9H         LINE#         2691
  C:26F9H         LINE#         2692
  C:26FEH         LINE#         2693
  C:2700H         LINE#         2694
  C:2700H         LINE#         2695
  C:270AH         LINE#         2696
  C:270CH         LINE#         2697
  C:270CH         LINE#         2698
  C:2711H         LINE#         2699
  C:2713H         LINE#         2700
  C:2713H         LINE#         2701
  C:271CH         LINE#         2702
  C:271CH         LINE#         2703
  C:271CH         LINE#         2705
  C:271CH         LINE#         2707
  C:271FH         LINE#         2708
  C:2722H         LINE#         2709
  C:2722H         LINE#         2711
  C:2729H         LINE#         2712
  C:2729H         LINE#         2717
  C:272BH         LINE#         2720
  C:272BH         LINE#         2721
  C:2731H         LINE#         2722
BL51 BANKED LINKER/LOCATER V6.05                                                      05/24/2012  09:37:58  PAGE 58


  C:2734H         LINE#         2724
  C:273BH         LINE#         2725
  C:273BH         LINE#         2726
  C:2745H         LINE#         2727
  C:2745H         LINE#         2728
  C:274CH         LINE#         2729
  C:2755H         LINE#         2730
  C:2755H         LINE#         2732
  C:2755H         LINE#         2733
  C:2757H         LINE#         2734
  C:275AH         LINE#         2735
  C:275CH         LINE#         2736
  C:275CH         LINE#         2737
  C:275CH         LINE#         2738
  C:275CH         LINE#         2740
  C:275CH         LINE#         2741
  -------         ENDPROC       BUS0SENDFINISHDEAL
  -------         PROC          BUSMANAGER
  C:4E52H         LINE#         2757
  C:4E52H         LINE#         2758
  C:4E52H         LINE#         2759
  C:4E52H         LINE#         2760
  C:4E52H         LINE#         2761
  C:4E55H         LINE#         2762
  C:4E55H         LINE#         2763
  C:4E5CH         LINE#         2764
  C:4E5CH         LINE#         2765
  C:4E5FH         LINE#         2766
  C:4E5FH         LINE#         2767
  C:4E66H         LINE#         2768
  C:4E66H         LINE#         2769
  C:4E69H         LINE#         2770
  C:4E69H         LINE#         2771
  C:4E70H         LINE#         2772
  C:4E70H         LINE#         2773
  C:4E73H         LINE#         2774
  C:4E73H         LINE#         2775
  C:4E75H         LINE#         2777
  C:4E75H         LINE#         2779
  C:4E7CH         LINE#         2781
  -------         ENDPROC       BUSMANAGER
  -------         PROC          BUS1RECDEAL
  C:4A0CH         LINE#         2802
  C:4A0CH         LINE#         2803
  C:4A0CH         LINE#         2805
  C:4A10H         LINE#         2806
  C:4A23H         LINE#         2807
  C:4A25H         LINE#         2808
  C:4A2AH         LINE#         2817
  C:4A32H         LINE#         2818
  C:4A32H         LINE#         2819
  C:4A32H         LINE#         2820
  C:4A3DH         LINE#         2821
  C:4A3DH         LINE#         2822
  C:4A41H         LINE#         2823
  C:4A41H         LINE#         2825
  C:4A46H         LINE#         2826
BL51 BANKED LINKER/LOCATER V6.05                                                      05/24/2012  09:37:58  PAGE 59


  C:4A4CH         LINE#         2827
  C:4A4CH         LINE#         2828
  C:4A56H         LINE#         2829
  C:4A56H         LINE#         2830
  C:4A56H         LINE#         2831
  C:4A56H         LINE#         2832
  C:4A56H         LINE#         2834
  C:4A56H         LINE#         2835
  C:4A56H         LINE#         2836
  C:4A56H         LINE#         2837
  -------         ENDPROC       BUS1RECDEAL
  -------         PROC          BUS1SENDFINISHDEAL
  C:5053H         LINE#         2855
  C:5053H         LINE#         2856
  C:5053H         LINE#         2858
  C:5057H         LINE#         2859
  C:5059H         LINE#         2860
  C:506CH         LINE#         2861
  C:5071H         LINE#         2868
  -------         ENDPROC       BUS1SENDFINISHDEAL
  -------         PROC          BUS1MANAGER
  C:50B0H         LINE#         2884
  C:50B0H         LINE#         2885
  C:50B0H         LINE#         2886
  C:50B0H         LINE#         2887
  C:50B0H         LINE#         2888
  C:50B3H         LINE#         2889
  C:50B3H         LINE#         2890
  C:50BAH         LINE#         2891
  C:50BAH         LINE#         2892
  C:50BDH         LINE#         2893
  C:50BDH         LINE#         2894
  C:50C4H         LINE#         2895
  C:50C4H         LINE#         2896
  C:50CBH         LINE#         2897
  -------         ENDPROC       BUS1MANAGER
  -------         PROC          TIMEROUTDEAL
  -------         DO            
  C:2E31H         SYMBOL        CH0TimerOutDeal
  C:2EE1H         SYMBOL        CH1TimerOutDeal
  -------         ENDDO         
  C:2E19H         LINE#         2915
  C:2E19H         LINE#         2916
  C:2E19H         LINE#         2919
  C:2E22H         LINE#         2920
  C:2E22H         LINE#         2921
  C:2E24H         LINE#         2922
  C:2E2AH         LINE#         2923
  C:2E2AH         LINE#         2924
  C:2E31H         LINE#         2925
  C:2E31H         LINE#         2926
  C:2E31H         LINE#         2927
  C:2E38H         LINE#         2928
  C:2E38H         LINE#         2929
  C:2E3DH         LINE#         2930
  C:2E3FH         LINE#         2931
  C:2E41H         LINE#         2932
BL51 BANKED LINKER/LOCATER V6.05                                                      05/24/2012  09:37:58  PAGE 60


  C:2E43H         LINE#         2933
  C:2E43H         LINE#         2934
  C:2E43H         LINE#         2935
  C:2E43H         LINE#         2936
  C:2E46H         LINE#         2938
  C:2E53H         LINE#         2939
  C:2E59H         LINE#         2941
  C:2E5BH         LINE#         2942
  C:2E63H         LINE#         2944
  C:2E63H         LINE#         2945
  C:2E75H         LINE#         2947
  C:2E75H         LINE#         2948
  C:2E7AH         LINE#         2949
  C:2E7FH         LINE#         2951
  C:2E7FH         LINE#         2952
  C:2E87H         LINE#         2953
  C:2E8FH         LINE#         2954
  C:2E97H         LINE#         2955
  C:2E9BH         LINE#         2956
  C:2EA3H         LINE#         2957
  C:2EABH         LINE#         2958
  C:2EB2H         LINE#         2959
  C:2EB5H         LINE#         2960
  C:2EB7H         LINE#         2961
  C:2EBEH         LINE#         2962
  C:2EBEH         LINE#         2977
  C:2EBEH         LINE#         2978
  C:2EC0H         LINE#         2980
  C:2EC0H         LINE#         2981
  C:2EC6H         LINE#         2982
  C:2ECCH         LINE#         2983
  C:2ECCH         LINE#         2985
  C:2ECCH         LINE#         2986
  C:2ED2H         LINE#         2987
  C:2ED2H         LINE#         2988
  C:2ED2H         LINE#         2989
  C:2ED2H         LINE#         2990
  C:2ED2H         LINE#         2992
  C:2ED8H         LINE#         2993
  C:2ED8H         LINE#         2994
  C:2EDAH         LINE#         2995
  C:2EDDH         LINE#         2996
  C:2EDDH         LINE#         2997
  C:2EE1H         LINE#         2998
  C:2EE1H         LINE#         2999
  C:2EE1H         LINE#         3000
  C:2EE9H         LINE#         3001
  C:2EF1H         LINE#         3002
  C:2EF9H         LINE#         3003
  C:2EFDH         LINE#         3004
  C:2F05H         LINE#         3005
  C:2F0DH         LINE#         3006
  C:2F14H         LINE#         3007
  C:2F17H         LINE#         3008
  C:2F19H         LINE#         3010
  C:2F19H         LINE#         3011
  C:2F1FH         LINE#         3012
BL51 BANKED LINKER/LOCATER V6.05                                                      05/24/2012  09:37:58  PAGE 61


  C:2F22H         LINE#         3014
  C:2F22H         LINE#         3015
  C:2F28H         LINE#         3016
  C:2F28H         LINE#         3017
  C:2F28H         LINE#         3018
  C:2F28H         LINE#         3019
  C:2F28H         LINE#         3023
  C:2F2EH         LINE#         3024
  C:2F2EH         LINE#         3025
  C:2F32H         LINE#         3026
  C:2F32H         LINE#         3027
  C:2F39H         LINE#         3028
  C:2F39H         LINE#         3029
  C:2F3FH         LINE#         3031
  C:2F49H         LINE#         3033
  C:2F50H         LINE#         3034
  C:2F50H         LINE#         3035
  C:2F53H         LINE#         3036
  C:2F53H         LINE#         3037
  C:2F53H         LINE#         3038
  C:2F53H         LINE#         3039
  C:2F53H         LINE#         3041
  C:2F59H         LINE#         3042
  C:2F59H         LINE#         3043
  C:2F5DH         LINE#         3044
  C:2F5DH         LINE#         3045
  C:2F67H         LINE#         3046
  C:2F67H         LINE#         3047
  C:2F67H         LINE#         3050
  C:2F6DH         LINE#         3051
  C:2F6DH         LINE#         3052
  C:2F71H         LINE#         3053
  C:2F71H         LINE#         3054
  C:2F74H         LINE#         3055
  C:2F74H         LINE#         3056
  C:2F74H         LINE#         3060
  C:2F7AH         LINE#         3061
  C:2F7AH         LINE#         3062
  C:2F7EH         LINE#         3063
  C:2F7EH         LINE#         3064
  C:2F88H         LINE#         3065
  C:2F90H         LINE#         3066
  C:2F98H         LINE#         3067
  C:2FA0H         LINE#         3068
  C:2FA3H         LINE#         3069
  C:2FA3H         LINE#         3070
  C:2FA3H         LINE#         3071
  C:2FA3H         LINE#         3072
  C:2FA6H         LINE#         3073
  C:2FA6H         LINE#         3074
  C:2FA6H         LINE#         3077
  C:2FB0H         LINE#         3078
  C:2FB0H         LINE#         3079
  C:2FBEH         LINE#         3080
  C:2FBEH         LINE#         3081
  C:2FC7H         LINE#         3082
  C:2FCDH         LINE#         3084
BL51 BANKED LINKER/LOCATER V6.05                                                      05/24/2012  09:37:58  PAGE 62


  C:2FCDH         LINE#         3085
  C:2FCDH         LINE#         3088
  C:2FD3H         LINE#         3089
  C:2FD3H         LINE#         3090
  C:2FD7H         LINE#         3091
  C:2FD7H         LINE#         3092
  C:2FEDH         LINE#         3093
  C:2FEDH         LINE#         3094
  C:2FEDH         LINE#         3096
  -------         ENDPROC       TIMEROUTDEAL
  -------         PROC          TIMEROUTMANAGER
  C:5072H         LINE#         3112
  C:5072H         LINE#         3113
  C:5072H         LINE#         3114
  C:5072H         LINE#         3115
  C:5072H         LINE#         3116
  C:5079H         LINE#         3117
  C:507FH         LINE#         3118
  C:507FH         LINE#         3119
  C:5086H         LINE#         3120
  C:5088H         LINE#         3122
  C:5088H         LINE#         3123
  C:508FH         LINE#         3124
  C:508FH         LINE#         3126
  -------         ENDPROC       TIMEROUTMANAGER
  -------         ENDMOD        SINGLEBUS

  -------         MODULE        UART
  C:0000H         SYMBOL        _ICE_DUMMY_
  D:0080H         PUBLIC        P0
  D:0090H         PUBLIC        P1
  D:00A0H         PUBLIC        P2
  B:0024H.2       PUBLIC        bUsart1RecError2
  D:00B0H         PUBLIC        P3
  B:0024H.3       PUBLIC        bUsart1RecError3
  D:00C0H         PUBLIC        P4
  D:00C8H         PUBLIC        P5
  B:00A8H.7       PUBLIC        EA
  X:017DH         PUBLIC        stUsartCfg
  D:00A8H         PUBLIC        IE
  C:4745H         PUBLIC        _CheckPsk
  D:00DAH         PUBLIC        CCAPM0
  B:00A8H.4       PUBLIC        ES
  D:00B8H         PUBLIC        IP
  B:0098H.0       PUBLIC        RI
  B:0098H.1       PUBLIC        TI
  D:00D8H         PUBLIC        CCON
  B:0024H.1       PUBLIC        bUsart1RecFinish
  C:39BEH         PUBLIC        UsartRecErrHandle
  D:0099H         PUBLIC        SBUF
  D:0087H         PUBLIC        PCON
  D:0098H         PUBLIC        SCON
  D:0089H         PUBLIC        TMOD
  D:0088H         PUBLIC        TCON
  B:0080H.2       PUBLIC        DE0
  C:3DAAH         PUBLIC        _UsartSndEnter
  C:3E7EH         PUBLIC        _UsartSndResult
BL51 BANKED LINKER/LOCATER V6.05                                                      05/24/2012  09:37:58  PAGE 63


  D:00AFH         PUBLIC        IE2
  D:008EH         PUBLIC        AUXR
  D:00C7H         PUBLIC        IAP_CONTR
  C:3CC0H         PUBLIC        _UsartSndError
  D:00E0H         PUBLIC        ACC
  B:00A8H.1       PUBLIC        ET0
  B:0088H.7       PUBLIC        TF1
  D:008DH         PUBLIC        TH1
  B:00A8H.0       PUBLIC        EX0
  C:389DH         PUBLIC        _UsartSndCmd
  D:008BH         PUBLIC        TL1
  C:5230H         PUBLIC        _UsartSendbyte
  B:0088H.4       PUBLIC        TR0
  B:0088H.6       PUBLIC        TR1
  C:1B6DH         PUBLIC        Usart1RecDeal
  C:4544H         PUBLIC        Usart0Init
  C:4C36H         PUBLIC        Usart1Init
  X:019BH         PUBLIC        byUsart1RecBuf
  C:5014H         PUBLIC        _uart_send_byte
  D:009BH         PUBLIC        S2BUF
  B:0098H.4       PUBLIC        REN
  X:02A7H         PUBLIC        byUsart1SndBuf
  D:009AH         PUBLIC        S2CON
  C:3778H         PUBLIC        _Usart1SndData
  D:009CH         PUBLIC        BRT
  C:45E9H         PUBLIC        _GetPskCrc
  C:415BH         PUBLIC        UART0
  C:34D0H         PUBLIC        UART1
  C:3AC8H         PUBLIC        _UsartSndResult1
  C:3640H         PUBLIC        _UsartSndResult3
  D:0024H         PUBLIC        byUsartState
  D:00D0H         PUBLIC        PSW
  -------         PROC          USART0INIT
  C:4544H         LINE#         111
  C:4544H         LINE#         112
  C:4544H         LINE#         113
  C:4546H         LINE#         115
  C:454DH         LINE#         116
  C:4555H         LINE#         117
  C:4558H         LINE#         118
  C:455CH         LINE#         119
  C:4560H         LINE#         120
  C:4562H         LINE#         121
  C:4564H         LINE#         122
  C:4570H         LINE#         124
  C:4573H         LINE#         126
  C:4576H         LINE#         127
  C:4579H         LINE#         131
  C:4589H         LINE#         132
  C:4589H         LINE#         133
  C:458CH         LINE#         134
  C:4598H         LINE#         135
  C:459AH         LINE#         138
  C:459AH         LINE#         139
  C:459DH         LINE#         140
  C:45B8H         LINE#         141
  C:45B8H         LINE#         144
BL51 BANKED LINKER/LOCATER V6.05                                                      05/24/2012  09:37:58  PAGE 64


  C:45BBH         LINE#         145
  C:45BEH         LINE#         147
  C:45C0H         LINE#         148
  C:45C2H         LINE#         151
  C:45C4H         LINE#         152
  C:45C6H         LINE#         153
  C:45C8H         LINE#         154
  C:45CAH         LINE#         155
  -------         ENDPROC       USART0INIT
  -------         PROC          USART1INIT
  C:4C36H         LINE#         158
  C:4C36H         LINE#         159
  C:4C36H         LINE#         162
  C:4C40H         LINE#         163
  C:4C48H         LINE#         164
  C:4C4BH         LINE#         165
  C:4C4FH         LINE#         166
  C:4C53H         LINE#         167
  C:4C55H         LINE#         168
  C:4C57H         LINE#         169
  C:4C63H         LINE#         171
  C:4C66H         LINE#         172
  C:4C69H         LINE#         173
  C:4C6CH         LINE#         174
  C:4C6FH         LINE#         175
  C:4C72H         LINE#         177
  C:4C75H         LINE#         178
  -------         ENDPROC       USART1INIT
  -------         PROC          UART0
  C:415BH         LINE#         195
  C:416EH         LINE#         197
  C:4171H         LINE#         198
  C:4171H         LINE#         199
  C:4173H         LINE#         200
  C:4175H         LINE#         202
  C:4178H         LINE#         203
  C:4178H         LINE#         204
  C:417AH         LINE#         205
  C:4188H         LINE#         206
  C:4196H         LINE#         207
  C:41A0H         LINE#         208
  C:41A0H         LINE#         209
  C:41B9H         LINE#         211
  C:41BBH         LINE#         213
  C:41BBH         LINE#         215
  C:41CDH         LINE#         216
  C:41CDH         LINE#         218
  C:41D1H         LINE#         219
  C:41DAH         LINE#         220
  C:41DAH         LINE#         222
  C:41DDH         LINE#         223
  C:41DFH         LINE#         225
  C:41E2H         LINE#         226
  C:41E2H         LINE#         227
  C:41E2H         LINE#         228
  C:41E2H         LINE#         229
  -------         ENDPROC       UART0
BL51 BANKED LINKER/LOCATER V6.05                                                      05/24/2012  09:37:58  PAGE 65


  -------         PROC          UART1
  -------         DO            
  D:0007H         SYMBOL        byTemp
  -------         ENDDO         
  C:34D0H         LINE#         248
  C:34E9H         LINE#         315
  C:34F1H         LINE#         316
  C:34F1H         LINE#         317
  C:34F4H         LINE#         318
  C:34F6H         LINE#         331
  C:34FCH         LINE#         332
  C:3514H         LINE#         333
  C:352BH         LINE#         334
  C:352BH         LINE#         335
  C:352BH         LINE#         336
  C:352FH         LINE#         337
  C:352FH         LINE#         338
  C:3535H         LINE#         340
  C:353BH         LINE#         341
  C:353EH         LINE#         343
  C:353EH         LINE#         344
  C:3542H         LINE#         345
  C:3542H         LINE#         346
  C:3545H         LINE#         347
  C:3545H         LINE#         348
  C:3550H         LINE#         349
  C:3550H         LINE#         350
  C:3556H         LINE#         351
  C:355BH         LINE#         352
  C:355BH         LINE#         353
  C:355DH         LINE#         354
  C:355DH         LINE#         355
  C:3563H         LINE#         356
  C:3568H         LINE#         357
  C:3568H         LINE#         358
  C:3570H         LINE#         359
  C:3572H         LINE#         360
  C:3575H         LINE#         361
  C:3575H         LINE#         363
  C:3584H         LINE#         364
  C:3594H         LINE#         365
  C:3594H         LINE#         366
  C:3597H         LINE#         367
  C:35A5H         LINE#         368
  C:35A7H         LINE#         370
  C:35A7H         LINE#         371
  C:35A9H         LINE#         372
  C:35AAH         LINE#         373
  C:35AAH         LINE#         374
  C:35AAH         LINE#         375
  C:35ACH         LINE#         376
  C:35ACH         LINE#         377
  C:35BAH         LINE#         378
  C:35BAH         LINE#         379
  C:35BEH         LINE#         380
  C:35BEH         LINE#         381
  C:35C0H         LINE#         382
BL51 BANKED LINKER/LOCATER V6.05                                                      05/24/2012  09:37:58  PAGE 66


  C:35C0H         LINE#         383
  C:35C5H         LINE#         384
  C:35C6H         LINE#         385
  C:35C6H         LINE#         386
  C:35C8H         LINE#         387
  C:35C8H         LINE#         388
  C:35CDH         LINE#         389
  C:35D1H         LINE#         390
  C:35D1H         LINE#         391
  C:35D1H         LINE#         392
  C:35D1H         LINE#         395
  C:35D6H         LINE#         396
  C:35D6H         LINE#         397
  C:35D9H         LINE#         398
  C:35E7H         LINE#         399
  C:35F5H         LINE#         400
  C:35FFH         LINE#         401
  C:35FFH         LINE#         403
  C:3618H         LINE#         404
  C:361AH         LINE#         406
  C:361AH         LINE#         407
  C:3621H         LINE#         408
  C:3621H         LINE#         410
  C:3624H         LINE#         411
  C:3629H         LINE#         412
  C:3629H         LINE#         414
  C:3629H         LINE#         415
  C:3629H         LINE#         416
  -------         ENDPROC       UART1
  -------         PROC          L?0203
  -------         ENDPROC       L?0203
  -------         PROC          _GETPSKCRC
  X:034DH         SYMBOL        pstDataFreq
  -------         DO            
  X:0350H         SYMBOL        pbyData
  X:0353H         SYMBOL        uiLen
  D:0005H         SYMBOL        byCrc
  -------         ENDDO         
  C:45E9H         LINE#         432
  C:45F4H         LINE#         433
  C:45F4H         LINE#         436
  C:45F6H         LINE#         438
  C:4606H         LINE#         439
  C:4624H         LINE#         440
  C:4632H         LINE#         441
  C:4632H         LINE#         442
  C:4647H         LINE#         443
  C:4649H         LINE#         444
  C:464BH         LINE#         445
  -------         ENDPROC       _GETPSKCRC
  -------         PROC          _CHECKPSK
  X:0344H         SYMBOL        pstDataFreq
  -------         DO            
  X:0347H         SYMBOL        pbyData
  X:034AH         SYMBOL        uiLen
  D:0005H         SYMBOL        byCrc
  -------         ENDDO         
BL51 BANKED LINKER/LOCATER V6.05                                                      05/24/2012  09:37:58  PAGE 67


  C:4745H         LINE#         461
  C:4750H         LINE#         462
  C:4750H         LINE#         465
  C:4752H         LINE#         467
  C:4762H         LINE#         468
  C:4780H         LINE#         469
  C:478EH         LINE#         470
  C:478EH         LINE#         471
  C:47A3H         LINE#         472
  C:47A5H         LINE#         473
  C:47B6H         LINE#         474
  C:47B6H         LINE#         475
  C:47B9H         LINE#         476
  C:47B9H         LINE#         477
  C:47BBH         LINE#         478
  -------         ENDPROC       _CHECKPSK
  -------         PROC          _USARTSNDCMD
  D:0007H         SYMBOL        Cmd
  D:0005H         SYMBOL        byLen
  X:0347H         SYMBOL        pData
  -------         DO            
  X:034AH         SYMBOL        pstDataFreq
  -------         ENDDO         
  C:389DH         LINE#         498
  C:38A8H         LINE#         499
  C:38A8H         LINE#         501
  C:38B2H         LINE#         502
  C:38B2H         LINE#         503
  C:38B3H         LINE#         504
  C:38B5H         LINE#         505
  C:38C3H         LINE#         507
  C:38D3H         LINE#         508
  C:38EAH         LINE#         509
  C:38F4H         LINE#         510
  C:38FEH         LINE#         511
  C:3905H         LINE#         512
  C:390CH         LINE#         513
  C:3913H         LINE#         514
  C:391AH         LINE#         515
  C:3925H         LINE#         516
  C:3928H         LINE#         517
  C:3928H         LINE#         518
  C:394CH         LINE#         519
  C:394CH         LINE#         520
  C:397EH         LINE#         521
  C:399DH         LINE#         523
  C:39B0H         LINE#         524
  C:39B5H         LINE#         526
  C:39B8H         LINE#         527
  C:39BDH         LINE#         528
  -------         ENDPROC       _USARTSNDCMD
  -------         PROC          _USARTSNDENTER
  D:0007H         SYMBOL        byOriginalCmd
  D:0005H         SYMBOL        byData
  -------         DO            
  X:0344H         SYMBOL        pstDataFreq
  -------         ENDDO         
BL51 BANKED LINKER/LOCATER V6.05                                                      05/24/2012  09:37:58  PAGE 68


  C:3DAAH         LINE#         548
  C:3DAAH         LINE#         549
  C:3DAAH         LINE#         551
  C:3DB4H         LINE#         552
  C:3DB4H         LINE#         553
  C:3DB5H         LINE#         554
  C:3DB7H         LINE#         555
  C:3DC5H         LINE#         557
  C:3DD5H         LINE#         558
  C:3DECH         LINE#         559
  C:3DF6H         LINE#         560
  C:3E00H         LINE#         561
  C:3E07H         LINE#         562
  C:3E0EH         LINE#         563
  C:3E15H         LINE#         564
  C:3E17H         LINE#         565
  C:3E17H         LINE#         566
  C:3E17H         LINE#         567
  C:3E17H         LINE#         568
  C:3E3EH         LINE#         569
  C:3E5DH         LINE#         571
  C:3E70H         LINE#         572
  C:3E75H         LINE#         574
  C:3E78H         LINE#         575
  C:3E7DH         LINE#         576
  -------         ENDPROC       _USARTSNDENTER
  -------         PROC          _USARTSNDRESULT
  D:0007H         SYMBOL        byOriginalCmd
  D:0005H         SYMBOL        byData
  -------         DO            
  X:0344H         SYMBOL        pstDataFreq
  -------         ENDDO         
  C:3E7EH         LINE#         594
  C:3E7EH         LINE#         595
  C:3E7EH         LINE#         598
  C:3E88H         LINE#         599
  C:3E88H         LINE#         600
  C:3E89H         LINE#         601
  C:3E8BH         LINE#         602
  C:3E99H         LINE#         604
  C:3EA9H         LINE#         605
  C:3EC0H         LINE#         606
  C:3ECAH         LINE#         607
  C:3ED4H         LINE#         608
  C:3EDBH         LINE#         609
  C:3EE2H         LINE#         610
  C:3EE9H         LINE#         611
  C:3EEBH         LINE#         612
  C:3EEBH         LINE#         613
  C:3EEBH         LINE#         614
  C:3EEBH         LINE#         615
  C:3F12H         LINE#         616
  C:3F31H         LINE#         617
  C:3F44H         LINE#         618
  C:3F49H         LINE#         620
  C:3F4CH         LINE#         621
  C:3F51H         LINE#         622
BL51 BANKED LINKER/LOCATER V6.05                                                      05/24/2012  09:37:58  PAGE 69


  -------         ENDPROC       _USARTSNDRESULT
  -------         PROC          _USARTSNDRESULT1
  X:0344H         SYMBOL        byOriginalCmd
  D:0005H         SYMBOL        byData0
  D:0007H         SYMBOL        byData1
  -------         DO            
  X:0345H         SYMBOL        pstDataFreq
  -------         ENDDO         
  C:3AC8H         LINE#         642
  C:3ACFH         LINE#         643
  C:3ACFH         LINE#         646
  C:3AD9H         LINE#         647
  C:3AD9H         LINE#         648
  C:3ADAH         LINE#         649
  C:3ADCH         LINE#         650
  C:3AEAH         LINE#         652
  C:3AFAH         LINE#         653
  C:3B11H         LINE#         654
  C:3B1BH         LINE#         655
  C:3B25H         LINE#         656
  C:3B2CH         LINE#         657
  C:3B33H         LINE#         658
  C:3B3AH         LINE#         659
  C:3B42H         LINE#         660
  C:3B4CH         LINE#         661
  C:3B56H         LINE#         662
  C:3B5DH         LINE#         663
  C:3B64H         LINE#         664
  C:3B8BH         LINE#         665
  C:3BAAH         LINE#         667
  C:3BBDH         LINE#         668
  C:3BC2H         LINE#         670
  C:3BC5H         LINE#         671
  C:3BCAH         LINE#         673
  -------         ENDPROC       _USARTSNDRESULT1
  -------         PROC          _USARTSNDRESULT3
  D:0004H         SYMBOL        byOriginalCmd
  D:0005H         SYMBOL        byData0
  X:0346H         SYMBOL        byData
  X:0349H         SYMBOL        byLen
  -------         DO            
  X:034AH         SYMBOL        pstDataFreq
  -------         ENDDO         
  C:3640H         LINE#         693
  C:364DH         LINE#         694
  C:364DH         LINE#         697
  C:3657H         LINE#         698
  C:3657H         LINE#         699
  C:3658H         LINE#         700
  C:365AH         LINE#         702
  C:3668H         LINE#         704
  C:3678H         LINE#         705
  C:368FH         LINE#         706
  C:3699H         LINE#         707
  C:36A3H         LINE#         708
  C:36AAH         LINE#         709
  C:36B1H         LINE#         710
BL51 BANKED LINKER/LOCATER V6.05                                                      05/24/2012  09:37:58  PAGE 70


  C:36B8H         LINE#         711
  C:36C0H         LINE#         712
  C:36D1H         LINE#         713
  C:36D8H         LINE#         714
  C:36DFH         LINE#         715
  C:3706H         LINE#         716
  C:3738H         LINE#         717
  C:3757H         LINE#         719
  C:376AH         LINE#         720
  C:376FH         LINE#         722
  C:3772H         LINE#         723
  C:3777H         LINE#         725
  -------         ENDPROC       _USARTSNDRESULT3
  -------         PROC          _USARTSNDERROR
  D:0007H         SYMBOL        byData
  -------         DO            
  X:0362H         SYMBOL        pstDataFreq
  -------         ENDDO         
  C:3CC0H         LINE#         743
  C:3CC0H         LINE#         744
  C:3CC0H         LINE#         747
  C:3CCAH         LINE#         748
  C:3CCAH         LINE#         749
  C:3CCBH         LINE#         750
  C:3CCDH         LINE#         752
  C:3CDBH         LINE#         754
  C:3CEBH         LINE#         755
  C:3D02H         LINE#         756
  C:3D0CH         LINE#         757
  C:3D16H         LINE#         758
  C:3D1DH         LINE#         759
  C:3D24H         LINE#         760
  C:3D2BH         LINE#         761
  C:3D32H         LINE#         762
  C:3D3CH         LINE#         763
  C:3D43H         LINE#         765
  C:3D6AH         LINE#         766
  C:3D89H         LINE#         768
  C:3D9CH         LINE#         769
  C:3DA1H         LINE#         771
  C:3DA4H         LINE#         772
  C:3DA9H         LINE#         773
  -------         ENDPROC       _USARTSNDERROR
  -------         PROC          _USARTSENDBYTE
  D:0007H         SYMBOL        dat
  C:5230H         LINE#         778
  C:5230H         LINE#         779
  C:5230H         LINE#         780
  C:5238H         LINE#         781
  C:523DH         LINE#         783
  C:5240H         LINE#         784
  C:5242H         LINE#         785
  -------         ENDPROC       _USARTSENDBYTE
  -------         PROC          USART1RECDEAL
  -------         DO            
  X:0341H         SYMBOL        pstDataFreq
  -------         ENDDO         
BL51 BANKED LINKER/LOCATER V6.05                                                      05/24/2012  09:37:58  PAGE 71


  C:1B6DH         LINE#         802
  C:1B6DH         LINE#         803
  C:1B6DH         LINE#         804
  C:1B7EH         LINE#         805
  C:1B80H         LINE#         807
  C:1B89H         LINE#         808
  C:1B89H         LINE#         810
  C:1B95H         LINE#         811
  C:1B95H         LINE#         813
  C:1B95H         LINE#         817
  C:1B98H         LINE#         818
  C:1B9EH         LINE#         821
  C:1BA3H         LINE#         823
  C:1BB4H         LINE#         824
  C:1C24H         LINE#         825
  C:1C24H         LINE#         826
  C:1C24H         LINE#         827
  C:1C37H         LINE#         830
  C:1C62H         LINE#         833
  C:1C62H         LINE#         834
  C:1C64H         LINE#         835
  C:1C66H         LINE#         836
  C:1C66H         LINE#         837
  C:1C69H         LINE#         838
  C:1C7CH         LINE#         839
  C:1C8FH         LINE#         840
  C:1C95H         LINE#         841
  C:1C9EH         LINE#         842
  C:1CA2H         LINE#         843
  C:1CA5H         LINE#         844
  C:1CA5H         LINE#         845
  C:1CCCH         LINE#         846
  C:1CCCH         LINE#         847
  C:1CD3H         LINE#         848
  C:1CDDH         LINE#         849
  C:1CDDH         LINE#         850
  C:1CDEH         LINE#         851
  C:1CE0H         LINE#         853
  C:1CE3H         LINE#         854
  C:1CE5H         LINE#         855
  C:1CE7H         LINE#         856
  C:1CE9H         LINE#         857
  C:1CEBH         LINE#         858
  C:1CEDH         LINE#         859
  C:1CF0H         LINE#         860
  C:1CF2H         LINE#         861
  C:1CF2H         LINE#         863
  C:1CF2H         LINE#         864
  C:1CF8H         LINE#         865
  C:1D07H         LINE#         866
  C:1D07H         LINE#         867
  C:1D07H         LINE#         868
  C:1D07H         LINE#         869
  C:1D07H         LINE#         870
  C:1D0AH         LINE#         871
  C:1D0AH         LINE#         872
  C:1D0AH         LINE#         873
BL51 BANKED LINKER/LOCATER V6.05                                                      05/24/2012  09:37:58  PAGE 72


  C:1D14H         LINE#         874
  C:1D14H         LINE#         875
  C:1D1BH         LINE#         876
  C:1D1DH         LINE#         878
  C:1D1FH         LINE#         902
  C:1D29H         LINE#         903
  C:1D47H         LINE#         904
  C:1D4CH         LINE#         905
  C:1D4EH         LINE#         906
  C:1D54H         LINE#         922
  C:1D5EH         LINE#         923
  C:1D68H         LINE#         924
  C:1D72H         LINE#         926
  C:1D76H         LINE#         927
  C:1D77H         LINE#         929
  C:1D77H         LINE#         930
  C:1D77H         LINE#         931
  C:1D77H         LINE#         932
  C:1D77H         LINE#         933
  C:1D7EH         LINE#         934
  C:1D7EH         LINE#         935
  C:1D92H         LINE#         936
  C:1D95H         LINE#         937
  C:1D95H         LINE#         943
  C:1D95H         LINE#         944
  C:1D95H         LINE#         945
  C:1D95H         LINE#         946
  C:1D95H         LINE#         947
  C:1DA8H         LINE#         948
  C:1DBDH         LINE#         949
  C:1DBEH         LINE#         950
  C:1DBEH         LINE#         951
  C:1DC0H         LINE#         952
  C:1DC0H         LINE#         953
  C:1DC7H         LINE#         954
  C:1DC7H         LINE#         955
  C:1DCBH         LINE#         956
  C:1DCEH         LINE#         958
  C:1DCEH         LINE#         959
  C:1DE1H         LINE#         960
  C:1DE7H         LINE#         961
  C:1E04H         LINE#         962
  C:1E04H         LINE#         963
  C:1E04H         LINE#         964
  C:1E07H         LINE#         965
  C:1E07H         LINE#         966
  C:1E15H         LINE#         967
  C:1E15H         LINE#         968
  C:1E18H         LINE#         969
  C:1E1BH         LINE#         970
  C:1E1BH         LINE#         972
  C:1E22H         LINE#         973
  C:1E22H         LINE#         974
  C:1E23H         LINE#         975
  C:1E25H         LINE#         977
  C:1E2FH         LINE#         978
  C:1E2FH         LINE#         979
BL51 BANKED LINKER/LOCATER V6.05                                                      05/24/2012  09:37:58  PAGE 73


  C:1EB3H         LINE#         991
  C:1EB3H         LINE#         1000
  C:1EBAH         LINE#         1001
  C:1EBEH         LINE#         1002
  C:1EC1H         LINE#         1003
  C:1EC1H         LINE#         1004
  C:1EC1H         LINE#         1006
  C:1ECBH         LINE#         1007
  C:1ECBH         LINE#         1008
  C:1F4FH         LINE#         1022
  C:1F4FH         LINE#         1031
  C:1F56H         LINE#         1032
  C:1F5AH         LINE#         1033
  C:1F5DH         LINE#         1035
  C:1F5DH         LINE#         1036
  C:1F5DH         LINE#         1039
  C:1F61H         LINE#         1040
  C:1F64H         LINE#         1042
  C:1F64H         LINE#         1043
  C:1F6FH         LINE#         1044
  C:1F6FH         LINE#         1045
  C:1F77H         LINE#         1046
  C:1F79H         LINE#         1047
  C:1F7CH         LINE#         1048
  C:1F7EH         LINE#         1049
  C:1F88H         LINE#         1050
  C:1F90H         LINE#         1051
  C:1F98H         LINE#         1052
  C:1FA0H         LINE#         1053
  C:1FA4H         LINE#         1054
  C:1FACH         LINE#         1055
  C:1FACH         LINE#         1056
  C:1FACH         LINE#         1057
  C:1FAFH         LINE#         1059
  C:1FB0H         LINE#         1062
  C:1FBAH         LINE#         1063
  C:1FC4H         LINE#         1064
  C:1FC4H         LINE#         1065
  C:1FC7H         LINE#         1067
  C:1FC7H         LINE#         1068
  C:1FCFH         LINE#         1069
  C:1FD7H         LINE#         1070
  C:1FECH         LINE#         1071
  C:1FF6H         LINE#         1072
  C:2000H         LINE#         1073
  C:2000H         LINE#         1074
  C:2003H         LINE#         1075
  C:2003H         LINE#         1076
  C:2003H         LINE#         1077
  C:2003H         LINE#         1078
  C:2003H         LINE#         1079
  C:2003H         LINE#         1080
  C:200BH         LINE#         1081
  C:2020H         LINE#         1082
  C:202AH         LINE#         1083
  C:2034H         LINE#         1084
  C:2034H         LINE#         1085
BL51 BANKED LINKER/LOCATER V6.05                                                      05/24/2012  09:37:58  PAGE 74


  C:2036H         LINE#         1087
  C:2036H         LINE#         1088
  C:203EH         LINE#         1089
  C:2042H         LINE#         1090
  C:2044H         LINE#         1091
  C:2046H         LINE#         1092
  C:2046H         LINE#         1093
  C:2048H         LINE#         1095
  C:2048H         LINE#         1096
  C:2048H         LINE#         1097
  C:2048H         LINE#         1098
  C:2048H         LINE#         1099
  C:2048H         LINE#         1100
  C:2056H         LINE#         1101
  C:2056H         LINE#         1102
  C:205DH         LINE#         1103
  C:2060H         LINE#         1104
  C:2060H         LINE#         1106
  C:2068H         LINE#         1107
  C:206CH         LINE#         1108
  C:206EH         LINE#         1109
  C:2070H         LINE#         1110
  C:2070H         LINE#         1111
  C:2072H         LINE#         1112
  C:2072H         LINE#         1113
  C:2072H         LINE#         1114
  C:207AH         LINE#         1115
  C:2082H         LINE#         1116
  C:2085H         LINE#         1117
  C:208DH         LINE#         1118
  C:2095H         LINE#         1119
  C:209DH         LINE#         1120
  C:20A5H         LINE#         1121
  C:20AEH         LINE#         1122
  C:20AEH         LINE#         1123
  C:20AEH         LINE#         1124
  C:20B7H         LINE#         1125
  C:20B7H         LINE#         1126
  C:20B9H         LINE#         1127
  C:20C3H         LINE#         1129
  C:20CBH         LINE#         1130
  C:20D3H         LINE#         1131
  C:20DBH         LINE#         1132
  C:20DFH         LINE#         1133
  C:20E3H         LINE#         1134
  C:20E5H         LINE#         1135
  C:20E7H         LINE#         1136
  C:20F0H         LINE#         1137
  C:20F2H         LINE#         1138
  C:20F2H         LINE#         1139
  C:20F3H         LINE#         1141
  C:20F3H         LINE#         1142
  C:2102H         LINE#         1143
  C:2102H         LINE#         1144
  C:210AH         LINE#         1145
  C:2112H         LINE#         1146
  C:211AH         LINE#         1147
BL51 BANKED LINKER/LOCATER V6.05                                                      05/24/2012  09:37:58  PAGE 75


  C:211EH         LINE#         1148
  C:2126H         LINE#         1149
  C:212FH         LINE#         1150
  C:2132H         LINE#         1151
  C:2134H         LINE#         1152
  C:2138H         LINE#         1153
  C:213AH         LINE#         1155
  C:213AH         LINE#         1156
  C:2145H         LINE#         1157
  C:2145H         LINE#         1158
  C:214DH         LINE#         1159
  C:2155H         LINE#         1160
  C:215DH         LINE#         1161
  C:2161H         LINE#         1162
  C:2169H         LINE#         1163
  C:2172H         LINE#         1164
  C:2178H         LINE#         1165
  C:2179H         LINE#         1166
  C:217DH         LINE#         1167
  C:217FH         LINE#         1169
  C:217FH         LINE#         1170
  C:2189H         LINE#         1171
  C:2189H         LINE#         1172
  C:2189H         LINE#         1173
  C:2189H         LINE#         1174
  -------         ENDPROC       USART1RECDEAL
  -------         PROC          _USART1SNDDATA
  X:0344H         SYMBOL        pstBusFreq
  -------         DO            
  X:0347H         SYMBOL        pstDataFreq
  -------         ENDDO         
  C:3778H         LINE#         1193
  C:3783H         LINE#         1194
  C:3783H         LINE#         1197
  C:378DH         LINE#         1198
  C:378DH         LINE#         1199
  C:378EH         LINE#         1200
  C:3790H         LINE#         1201
  C:379EH         LINE#         1203
  C:37AEH         LINE#         1204
  C:37D4H         LINE#         1205
  C:3809H         LINE#         1206
  C:382DH         LINE#         1207
  C:3836H         LINE#         1208
  C:385DH         LINE#         1209
  C:387CH         LINE#         1211
  C:388FH         LINE#         1212
  C:3894H         LINE#         1213
  C:3897H         LINE#         1214
  C:389CH         LINE#         1216
  -------         ENDPROC       _USART1SNDDATA
  -------         PROC          _UART_SEND_BYTE
  D:0007H         SYMBOL        SDATA
  C:5014H         LINE#         1220
  C:5014H         LINE#         1221
  C:5014H         LINE#         1223
  C:501EH         LINE#         1224
BL51 BANKED LINKER/LOCATER V6.05                                                      05/24/2012  09:37:58  PAGE 76


  C:501EH         LINE#         1225
  C:501FH         LINE#         1226
  C:5021H         LINE#         1227
  C:5029H         LINE#         1228
  C:502EH         LINE#         1229
  C:5031H         LINE#         1230
  C:5033H         LINE#         1232
  -------         ENDPROC       _UART_SEND_BYTE
  -------         PROC          USARTRECERRHANDLE
  -------         DO            
  D:0001H         SYMBOL        i
  X:0369H         SYMBOL        j
  -------         ENDDO         
  C:39BEH         LINE#         1235
  C:39BEH         LINE#         1236
  C:39BEH         LINE#         1238
  C:39D2H         LINE#         1239
  C:39D2H         LINE#         1240
  C:39E1H         LINE#         1241
  C:39E4H         LINE#         1242
  C:39EBH         LINE#         1243
  C:39EBH         LINE#         1244
  C:39F3H         LINE#         1246
  C:39F3H         LINE#         1248
  C:39F3H         LINE#         1249
  C:3A0CH         LINE#         1250
  C:3A0CH         LINE#         1251
  C:3A2EH         LINE#         1252
  C:3A36H         LINE#         1253
  C:3A48H         LINE#         1254
  C:3A50H         LINE#         1255
  C:3A50H         LINE#         1256
  C:3A5CH         LINE#         1258
  C:3A5CH         LINE#         1259
  C:3A69H         LINE#         1260
  C:3A69H         LINE#         1261
  C:3A74H         LINE#         1262
  C:3A83H         LINE#         1264
  C:3A83H         LINE#         1265
  C:3A8CH         LINE#         1266
  C:3A8CH         LINE#         1267
  C:3A97H         LINE#         1268
  C:3AA9H         LINE#         1269
  C:3AB6H         LINE#         1270
  C:3AB6H         LINE#         1271
  C:3AB9H         LINE#         1273
  C:3AB9H         LINE#         1275
  C:3AB9H         LINE#         1276
  C:3AC7H         LINE#         1278
  C:3AC7H         LINE#         1280
  C:3AC7H         LINE#         1282
  C:3AC7H         LINE#         1283
  -------         ENDPROC       USARTRECERRHANDLE
  -------         ENDMOD        UART

  -------         MODULE        KEY
  C:0000H         SYMBOL        _ICE_DUMMY_
BL51 BANKED LINKER/LOCATER V6.05                                                      05/24/2012  09:37:58  PAGE 77


  D:0080H         PUBLIC        P0
  D:0090H         PUBLIC        P1
  D:00A0H         PUBLIC        P2
  B:0090H.7       PUBLIC        POWER_EN
  D:00B0H         PUBLIC        P3
  D:00C0H         PUBLIC        P4
  D:00C8H         PUBLIC        P5
  B:00A8H.7       PUBLIC        EA
  D:00A8H         PUBLIC        IE
  D:00B8H         PUBLIC        IP
  B:00C0H.3       PUBLIC        POWER_SW
  D:00D8H         PUBLIC        CCON
  D:0098H         PUBLIC        SCON
  D:0088H         PUBLIC        TCON
  B:0080H.7       PUBLIC        LED_STATE
  C:5243H         PUBLIC        KeyDown
  B:0080H.6       PUBLIC        LED_POWER
  D:00E0H         PUBLIC        ACC
  C:4F8AH         PUBLIC        KeyManager
  C:001AH         PUBLIC        KeyUp
  D:00D0H         PUBLIC        PSW
  -------         PROC          KEYMANAGER
  C:4F8AH         LINE#         39
  C:4F8AH         LINE#         40
  C:4F8AH         LINE#         41
  C:4F8CH         LINE#         42
  C:4F8CH         LINE#         43
  C:4F8CH         LINE#         44
  C:4F91H         LINE#         45
  C:4F94H         LINE#         46
  C:4F94H         LINE#         47
  C:4F94H         LINE#         48
  C:4F94H         LINE#         49
  C:4F99H         LINE#         50
  C:4F9CH         LINE#         51
  C:4F9CH         LINE#         52
  C:4F9CH         LINE#         53
  C:4F9CH         LINE#         54
  C:4FA3H         LINE#         56
  C:4FA6H         LINE#         57
  C:4FA6H         LINE#         58
  C:4FABH         LINE#         59
  -------         ENDPROC       KEYMANAGER
  -------         PROC          KEYDOWN
  C:5243H         LINE#         78
  C:5243H         LINE#         79
  C:5243H         LINE#         80
  C:5246H         LINE#         81
  C:5246H         LINE#         82
  C:5248H         LINE#         83
  C:524AH         LINE#         85
  C:524CH         LINE#         87
  C:524EH         LINE#         88
  C:5250H         LINE#         89
  C:5251H         LINE#         91
  C:5251H         LINE#         92
  C:5253H         LINE#         93
BL51 BANKED LINKER/LOCATER V6.05                                                      05/24/2012  09:37:58  PAGE 78


  -------         ENDPROC       KEYDOWN
  -------         PROC          KEYUP
  C:001AH         LINE#         120
  C:001AH         LINE#         121
  C:001AH         LINE#         123
  -------         ENDPROC       KEYUP
  -------         ENDMOD        KEY

  -------         MODULE        OS_CORE
  C:0000H         SYMBOL        _ICE_DUMMY_
  C:516BH         PUBLIC        _OS_TaskSuspend
  D:0080H         PUBLIC        P0
  D:0090H         PUBLIC        P1
  D:00A0H         PUBLIC        P2
  D:00B0H         PUBLIC        P3
  D:00C0H         PUBLIC        P4
  D:00C8H         PUBLIC        P5
  B:00A8H.7       PUBLIC        EA
  C:521CH         PUBLIC        OSSched
  D:00A8H         PUBLIC        IE
  D:00B8H         PUBLIC        IP
  C:52C9H         PUBLIC        _OSTaskSuspend
  D:00D8H         PUBLIC        CCON
  D:0026H         PUBLIC        OSIntNesting
  C:5152H         PUBLIC        _OSTaskResume
  D:0027H         PUBLIC        OSTaskRuning
  D:0098H         PUBLIC        SCON
  D:0088H         PUBLIC        TCON
  C:5266H         PUBLIC        OSInit
  C:482AH         PUBLIC        _OSWait
  D:0028H         PUBLIC        Os_Enter_Sum
  C:5091H         PUBLIC        OSTimeTick
  C:5183H         PUBLIC        OSFindNextRunningTask
  D:0029H         PUBLIC        OSTaskID
  D:00E0H         PUBLIC        ACC
  D:002AH         PUBLIC        OSWaitTick
  C:4FADH         PUBLIC        _OSTimeDly
  C:52DEH         PUBLIC        OSMapTbl
  D:002FH         PUBLIC        OSNextTaskID
  C:4F66H         PUBLIC        OSIntExit
  C:4C76H         PUBLIC        __OSTaskCreate
  D:0030H         PUBLIC        OSTaskCreated
  D:00D0H         PUBLIC        PSW
  -------         PROC          OSINIT
  C:5266H         LINE#         87
  C:5266H         LINE#         89
  C:5269H         LINE#         90
  C:526BH         LINE#         95
  C:526DH         LINE#         96
  C:5270H         LINE#         97
  C:5272H         LINE#         98
  C:5274H         LINE#         99
  -------         ENDPROC       OSINIT
  -------         PROC          __OSTASKCREATE
  D:0001H         SYMBOL        TaskID
  D:0006H         SYMBOL        task
  D:0002H         SYMBOL        ptos
BL51 BANKED LINKER/LOCATER V6.05                                                      05/24/2012  09:37:58  PAGE 79


  C:4C76H         LINE#         119
  C:4C7CH         LINE#         121
  C:4C82H         LINE#         122
  C:4C82H         LINE#         123
  C:4C86H         LINE#         125
  C:4C8FH         LINE#         126
  C:4C8FH         LINE#         127
  C:4C92H         LINE#         128
  C:4C92H         LINE#         129
  C:4C99H         LINE#         130
  C:4C9BH         LINE#         151
  C:4CA4H         LINE#         152
  C:4CA7H         LINE#         153
  C:4CACH         LINE#         154
  C:4CAFH         LINE#         155
  C:4CAFH         LINE#         156
  C:4CB1H         LINE#         157
  -------         ENDPROC       __OSTASKCREATE
  -------         PROC          _OSTASKRESUME
  D:0007H         SYMBOL        TaskID
  C:5152H         LINE#         217
  C:5152H         LINE#         219
  C:5158H         LINE#         220
  C:5158H         LINE#         221
  C:515CH         LINE#         223
  C:5163H         LINE#         234
  C:5168H         LINE#         235
  C:5168H         LINE#         236
  -------         ENDPROC       _OSTASKRESUME
  -------         PROC          _OS_TASKSUSPEND
  D:0007H         SYMBOL        TaskID
  C:516BH         LINE#         254
  C:516BH         LINE#         256
  C:5171H         LINE#         257
  C:5171H         LINE#         258
  C:5175H         LINE#         260
  C:517DH         LINE#         271
  C:5182H         LINE#         272
  C:5182H         LINE#         273
  -------         ENDPROC       _OS_TASKSUSPEND
  -------         PROC          _OSTASKSUSPEND
  D:0007H         SYMBOL        TaskID
  C:52C9H         LINE#         291
  C:52C9H         LINE#         293
  C:52CFH         LINE#         295
  C:52D2H         LINE#         296
  -------         ENDPROC       _OSTASKSUSPEND
  -------         PROC          OSFINDNEXTRUNNINGTASK
  -------         DO            
  D:0007H         SYMBOL        temp
  -------         ENDDO         
  C:5183H         LINE#         314
  C:5183H         LINE#         318
  C:5188H         LINE#         321
  C:518BH         LINE#         322
  C:518BH         LINE#         323
  C:518FH         LINE#         324
BL51 BANKED LINKER/LOCATER V6.05                                                      05/24/2012  09:37:58  PAGE 80


  C:518FH         LINE#         325
  C:518FH         LINE#         326
  C:518FH         LINE#         327
  C:5193H         LINE#         328
  C:519AH         LINE#         351
  -------         ENDPROC       OSFINDNEXTRUNNINGTASK
  -------         PROC          OSINTEXIT
  C:4F66H         LINE#         368
  C:4F66H         LINE#         371
  C:4F6AH         LINE#         373
  C:4F71H         LINE#         374
  C:4F71H         LINE#         375
  C:4F73H         LINE#         376
  C:4F73H         LINE#         377
  C:4F77H         LINE#         378
  C:4F77H         LINE#         379
  C:4F79H         LINE#         380
  C:4F7CH         LINE#         381
  C:4F7FH         LINE#         382
  C:4F82H         LINE#         383
  C:4F82H         LINE#         384
  C:4F87H         LINE#         385
  C:4F89H         LINE#         386
  -------         ENDPROC       OSINTEXIT
  -------         PROC          OSSCHED
  C:521CH         LINE#         403
  C:521CH         LINE#         406
  C:5220H         LINE#         407
  C:5224H         LINE#         408
  C:5224H         LINE#         409
  C:5227H         LINE#         410
  C:522AH         LINE#         411
  C:522AH         LINE#         412
  C:522FH         LINE#         413
  -------         ENDPROC       OSSCHED
  -------         PROC          OSTIMETICK
  -------         DO            
  D:0007H         SYMBOL        i
  -------         ENDDO         
  C:5091H         LINE#         430
  C:5091H         LINE#         434
  C:5093H         LINE#         435
  C:5093H         LINE#         436
  C:509AH         LINE#         437
  C:509AH         LINE#         438
  C:509BH         LINE#         439
  C:50A2H         LINE#         440
  C:50A2H         LINE#         442
  C:50A9H         LINE#         453
  C:50A9H         LINE#         454
  C:50A9H         LINE#         455
  C:50ADH         LINE#         456
  -------         ENDPROC       OSTIMETICK
  -------         PROC          _OSTIMEDLY
  D:0007H         SYMBOL        ticks
  C:4FADH         LINE#         475
  C:4FADH         LINE#         477
BL51 BANKED LINKER/LOCATER V6.05                                                      05/24/2012  09:37:58  PAGE 81


  C:4FB4H         LINE#         478
  C:4FB8H         LINE#         479
  C:4FC0H         LINE#         480
  C:4FC0H         LINE#         481
  C:4FC5H         LINE#         482
  C:4FC8H         LINE#         483
  C:4FCAH         LINE#         484
  C:4FCFH         LINE#         485
  -------         ENDPROC       _OSTIMEDLY
  -------         PROC          _OSWAIT
  D:0007H         SYMBOL        typ
  D:0005H         SYMBOL        ticks
  C:482AH         LINE#         534
  C:482AH         LINE#         536
  C:4831H         LINE#         538
  C:483DH         LINE#         539
  C:483DH         LINE#         540
  C:483DH         LINE#         541
  C:4842H         LINE#         542
  C:4845H         LINE#         543
  C:4845H         LINE#         544
  C:484FH         LINE#         545
  C:4852H         LINE#         546
  C:4852H         LINE#         548
  C:4856H         LINE#         549
  C:485EH         LINE#         550
  C:485EH         LINE#         551
  C:4861H         LINE#         552
  C:4861H         LINE#         553
  C:4866H         LINE#         554
  C:4869H         LINE#         555
  C:486EH         LINE#         556
  C:4876H         LINE#         557
  C:4876H         LINE#         558
  C:4878H         LINE#         559
  C:487BH         LINE#         560
  C:487BH         LINE#         561
  C:487EH         LINE#         562
  C:487EH         LINE#         563
  C:4885H         LINE#         564
  C:4887H         LINE#         565
  C:4887H         LINE#         566
  -------         ENDPROC       _OSWAIT
  -------         ENDMOD        OS_CORE

  -------         MODULE        OS_MEM
  C:0000H         SYMBOL        _ICE_DUMMY_
  D:0080H         PUBLIC        P0
  D:0090H         PUBLIC        P1
  D:00A0H         PUBLIC        P2
  D:00B0H         PUBLIC        P3
  D:00C0H         PUBLIC        P4
  D:00C8H         PUBLIC        P5
  C:0011H         PUBLIC        _UserMemChkErr
  B:00A8H.7       PUBLIC        EA
  D:00A8H         PUBLIC        IE
  D:00B8H         PUBLIC        IP
BL51 BANKED LINKER/LOCATER V6.05                                                      05/24/2012  09:37:58  PAGE 82


  D:00D8H         PUBLIC        CCON
  D:0098H         PUBLIC        SCON
  D:0088H         PUBLIC        TCON
  D:00E0H         PUBLIC        ACC
  C:2FEEH         PUBLIC        _OSMemFree
  X:0367H         SYMBOL        OSFreeMem
  C:4AE7H         PUBLIC        _OSMemInit
  C:31A5H         PUBLIC        _OSMemNew
  D:00D0H         PUBLIC        PSW
  -------         PROC          _USERMEMCHKERR
  X:0000H         SYMBOL        Addr
  C:0011H         LINE#         60
  C:0011H         LINE#         61
  C:0011H         LINE#         62
  C:0011H         LINE#         63
  -------         ENDPROC       _USERMEMCHKERR
  -------         PROC          _OSMEMINIT
  D:0006H         SYMBOL        Addr
  D:0004H         SYMBOL        MemSize
  -------         DO            
  D:0006H         SYMBOL        MemFree
  -------         ENDDO         
  C:4AE7H         LINE#         84
  C:4AE7H         LINE#         85
  C:4AE7H         LINE#         89
  C:4AEBH         LINE#         93
  C:4AF8H         LINE#         94
  C:4AF8H         LINE#         96
  C:4AFCH         LINE#         97
  C:4AFCH         LINE#         98
  C:4B04H         LINE#         99
  C:4B11H         LINE#         100
  C:4B19H         LINE#         101
  C:4B22H         LINE#         102
  C:4B27H         LINE#         103
  C:4B2AH         LINE#         104
  C:4B2AH         LINE#         106
  C:4B2AH         LINE#         107
  C:4B2CH         LINE#         108
  C:4B2CH         LINE#         109
  -------         ENDPROC       _OSMEMINIT
  -------         PROC          _OSMEMNEW
  X:034DH         SYMBOL        Size
  -------         DO            
  X:034FH         SYMBOL        ThisFreeMem
  D:0004H         SYMBOL        Rt
  -------         ENDDO         
  C:31A5H         LINE#         127
  C:31ADH         LINE#         128
  C:31ADH         LINE#         132
  C:31B1H         LINE#         133
  C:31C0H         LINE#         136
  C:31D4H         LINE#         140
  C:31DFH         LINE#         141
  C:31DFH         LINE#         142
  C:31FCH         LINE#         143
  C:31FCH         LINE#         144
BL51 BANKED LINKER/LOCATER V6.05                                                      05/24/2012  09:37:58  PAGE 83


  C:31FCH         LINE#         145
  C:31FCH         LINE#         146
  C:3213H         LINE#         147
  C:3215H         LINE#         148
  C:3223H         LINE#         149
  C:3223H         LINE#         150
  C:3247H         LINE#         151
  C:3247H         LINE#         154
  C:3259H         LINE#         155
  C:3259H         LINE#         156
  C:3277H         LINE#         157
  C:3277H         LINE#         158
  C:328CH         LINE#         159
  C:328CH         LINE#         160
  C:32A8H         LINE#         161
  C:32A8H         LINE#         162
  C:32C4H         LINE#         163
  C:32C8H         LINE#         164
  C:32CAH         LINE#         166
  C:32CAH         LINE#         169
  C:32F8H         LINE#         170
  C:3313H         LINE#         172
  C:3313H         LINE#         174
  C:331EH         LINE#         175
  C:332EH         LINE#         177
  C:3340H         LINE#         178
  C:3345H         LINE#         179
  C:334DH         LINE#         180
  C:334DH         LINE#         182
  C:334DH         LINE#         183
  C:3352H         LINE#         184
  C:3355H         LINE#         185
  C:3355H         LINE#         187
  -------         ENDPROC       _OSMEMNEW
  -------         PROC          _OSMEMFREE
  D:0006H         SYMBOL        Addr
  -------         DO            
  D:0004H         SYMBOL        ThisFreeMem
  X:034AH         SYMBOL        UserMem
  X:034CH         SYMBOL        Size
  -------         ENDDO         
  C:2FEEH         LINE#         211
  C:2FEEH         LINE#         213
  C:2FEEH         LINE#         218
  C:2FF2H         LINE#         220
  C:2FFAH         LINE#         222
  C:3009H         LINE#         225
  C:3034H         LINE#         226
  C:3034H         LINE#         227
  C:3037H         LINE#         228
  C:3043H         LINE#         230
  C:3043H         LINE#         234
  C:3043H         LINE#         235
  C:3043H         LINE#         236
  C:3050H         LINE#         237
  C:3050H         LINE#         238
  C:305DH         LINE#         239
BL51 BANKED LINKER/LOCATER V6.05                                                      05/24/2012  09:37:58  PAGE 84


  C:305FH         LINE#         240
  C:305FH         LINE#         241
  C:306BH         LINE#         242
  C:306BH         LINE#         243
  C:306BH         LINE#         244
  C:306BH         LINE#         246
  C:306FH         LINE#         247
  C:3071H         LINE#         249
  C:3092H         LINE#         250
  C:3092H         LINE#         252
  C:30ACH         LINE#         253
  C:30AFH         LINE#         255
  C:30AFH         LINE#         257
  C:30C9H         LINE#         258
  C:30D4H         LINE#         259
  C:30EEH         LINE#         260
  C:3104H         LINE#         261
  C:3115H         LINE#         262
  C:3119H         LINE#         263
  C:3125H         LINE#         264
  C:3125H         LINE#         265
  C:3130H         LINE#         266
  C:3130H         LINE#         267
  C:3130H         LINE#         269
  C:3152H         LINE#         270
  C:3152H         LINE#         272
  C:316FH         LINE#         273
  C:3188H         LINE#         274
  C:3194H         LINE#         275
  C:3194H         LINE#         276
  C:319FH         LINE#         277
  C:319FH         LINE#         278
  C:319FH         LINE#         279
  C:31A4H         LINE#         281
  -------         ENDPROC       _OSMEMFREE
  -------         ENDMOD        OS_MEM

  -------         MODULE        OS_Q
  C:0000H         SYMBOL        _ICE_DUMMY_
  D:0080H         PUBLIC        P0
  D:0090H         PUBLIC        P1
  D:00A0H         PUBLIC        P2
  D:00B0H         PUBLIC        P3
  D:00C0H         PUBLIC        P4
  D:00C8H         PUBLIC        P5
  B:00A8H.7       PUBLIC        EA
  D:00A8H         PUBLIC        IE
  D:00B8H         PUBLIC        IP
  C:44BCH         PUBLIC        _OSQPost
  D:0081H         PUBLIC        SP
  D:00D8H         PUBLIC        CCON
  D:0098H         PUBLIC        SCON
  D:0088H         PUBLIC        TCON
  D:00E0H         PUBLIC        ACC
  C:4CECH         PUBLIC        _OSQCreate
  D:00D0H         PUBLIC        PSW
  C:41F3H         PUBLIC        _OSQPend
BL51 BANKED LINKER/LOCATER V6.05                                                      05/24/2012  09:37:58  PAGE 85


  -------         PROC          _OSQCREATE
  D:0007H         SYMBOL        Buf
  D:0005H         SYMBOL        SizeOfBuf
  C:4CECH         LINE#         62
  C:4CECH         LINE#         64
  C:4CECH         LINE#         65
  C:4CF0H         LINE#         67
  C:4CF9H         LINE#         68
  C:4CF9H         LINE#         69
  C:4CFCH         LINE#         70
  C:4D03H         LINE#         72
  C:4D09H         LINE#         76
  C:4D0FH         LINE#         77
  C:4D15H         LINE#         80
  C:4D1AH         LINE#         81
  C:4D1DH         LINE#         82
  C:4D1DH         LINE#         84
  C:4D1DH         LINE#         85
  C:4D22H         LINE#         86
  C:4D24H         LINE#         87
  C:4D24H         LINE#         89
  -------         ENDPROC       _OSQCREATE
  -------         PROC          _OSQPEND
  D:0007H         SYMBOL        Ret
  D:0005H         SYMBOL        Buf
  D:0003H         SYMBOL        Tick
  -------         DO            
  D:0007H         SYMBOL        cp
  -------         ENDDO         
  C:41F3H         LINE#         119
  C:41F3H         LINE#         120
  C:41F3H         LINE#         132
  C:41F7H         LINE#         134
  C:4200H         LINE#         139
  C:4202H         LINE#         140
  C:4208H         LINE#         145
  C:4214H         LINE#         157
  C:4219H         LINE#         158
  C:4219H         LINE#         161
  C:421BH         LINE#         162
  C:4221H         LINE#         165
  C:4226H         LINE#         166
  C:4229H         LINE#         169
  C:422FH         LINE#         170
  C:4231H         LINE#         173
  C:4239H         LINE#         174
  C:4239H         LINE#         175
  C:4239H         LINE#         176
  C:4239H         LINE#         177
  C:4239H         LINE#         181
  C:4246H         LINE#         193
  C:424EH         LINE#         194
  C:424EH         LINE#         196
  C:424FH         LINE#         198
  C:4254H         LINE#         199
  C:4260H         LINE#         200
  C:4260H         LINE#         202
BL51 BANKED LINKER/LOCATER V6.05                                                      05/24/2012  09:37:58  PAGE 86


  C:4262H         LINE#         206
  C:4262H         LINE#         208
  C:4268H         LINE#         209
  C:426AH         LINE#         210
  C:4275H         LINE#         214
  C:427AH         LINE#         215
  C:427DH         LINE#         216
  C:427DH         LINE#         218
  C:427DH         LINE#         221
  C:427FH         LINE#         224
  C:4284H         LINE#         225
  C:4286H         LINE#         226
  C:4286H         LINE#         227
  -------         ENDPROC       _OSQPEND
  -------         PROC          _OSQPOST
  D:0007H         SYMBOL        Buf
  D:0005H         SYMBOL        Data
  -------         DO            
  D:0006H         SYMBOL        temp
  D:0005H         SYMBOL        i
  -------         ENDDO         
  C:44BCH         LINE#         307
  C:44BCH         LINE#         308
  C:44BCH         LINE#         318
  C:44C0H         LINE#         322
  C:44CEH         LINE#         326
  C:44CEH         LINE#         329
  C:44D0H         LINE#         330
  C:44D8H         LINE#         333
  C:44E4H         LINE#         334
  C:44EEH         LINE#         335
  C:44EEH         LINE#         337
  C:44F3H         LINE#         341
  C:44F3H         LINE#         344
  C:44FEH         LINE#         345
  C:4500H         LINE#         350
  C:4503H         LINE#         352
  C:4508H         LINE#         353
  C:4508H         LINE#         355
  C:450EH         LINE#         357
  C:4510H         LINE#         358
  C:4510H         LINE#         359
  C:4514H         LINE#         360
  C:4514H         LINE#         361
  C:4514H         LINE#         362
  C:4514H         LINE#         363
  C:4518H         LINE#         364
  C:451DH         LINE#         365
  C:4523H         LINE#         366
  C:4523H         LINE#         368
  C:452FH         LINE#         369
  C:4534H         LINE#         370
  C:4534H         LINE#         406
  C:4534H         LINE#         407
  C:4539H         LINE#         408
  C:453CH         LINE#         409
  C:453CH         LINE#         411
BL51 BANKED LINKER/LOCATER V6.05                                                      05/24/2012  09:37:58  PAGE 87


  C:453CH         LINE#         412
  C:4541H         LINE#         413
  C:4543H         LINE#         414
  C:4543H         LINE#         415
  -------         ENDPROC       _OSQPOST
  -------         ENDMOD        OS_Q

  -------         MODULE        OS_SEM
  C:0000H         SYMBOL        _ICE_DUMMY_
  D:0080H         PUBLIC        P0
  D:0090H         PUBLIC        P1
  D:00A0H         PUBLIC        P2
  D:00B0H         PUBLIC        P3
  D:00C0H         PUBLIC        P4
  D:00C8H         PUBLIC        P5
  D:00A8H         PUBLIC        IE
  D:00B8H         PUBLIC        IP
  D:00D8H         PUBLIC        CCON
  D:0098H         PUBLIC        SCON
  D:0088H         PUBLIC        TCON
  D:00E0H         PUBLIC        ACC
  D:00D0H         PUBLIC        PSW
  -------         ENDMOD        OS_SEM

  -------         MODULE        OS_CPU_C
  C:0000H         SYMBOL        _ICE_DUMMY_
  D:0080H         PUBLIC        P0
  D:0090H         PUBLIC        P1
  D:00A0H         PUBLIC        P2
  D:00B0H         PUBLIC        P3
  C:4EF7H         PUBLIC        _OSTaskStkDel
  D:00C0H         PUBLIC        P4
  D:00C8H         PUBLIC        P5
  B:00A8H.7       PUBLIC        EA
  C:4B71H         PUBLIC        _StkDelA
  C:4BB4H         PUBLIC        _StkDelB
  C:519BH         PUBLIC        _StkDelC
  D:00A8H         PUBLIC        IE
  D:00FAH         PUBLIC        CCAP0H
  D:00EAH         PUBLIC        CCAP0L
  D:00B8H         PUBLIC        IP
  C:4A57H         PUBLIC        OSTickISR
  C:5287H         PUBLIC        OSCPUInit
  D:0081H         PUBLIC        SP
  D:00D8H         PUBLIC        CCON
  D:0031H         PUBLIC        OSTsakStackBotton
  C:4D25H         PUBLIC        UserTickTimer
  D:0098H         PUBLIC        SCON
  D:0088H         PUBLIC        TCON
  D:00E0H         PUBLIC        ACC
  D:0038H         PUBLIC        OSFastSwap
  D:00C1H         PUBLIC        WDT_CONTR
  X:036AH         PUBLIC        timer_i
  D:00D0H         PUBLIC        PSW
  B:00D8H.0       PUBLIC        CCF0
  -------         PROC          OSCPUINIT
  -------         DO            
BL51 BANKED LINKER/LOCATER V6.05                                                      05/24/2012  09:37:58  PAGE 88


  D:0007H         SYMBOL        i
  -------         ENDDO         
  C:5287H         LINE#         81
  C:5287H         LINE#         85
  C:5289H         LINE#         86
  C:5289H         LINE#         87
  C:528FH         LINE#         88
  C:5293H         LINE#         89
  C:5296H         LINE#         91
  -------         ENDPROC       OSCPUINIT
  -------         PROC          _STKDELA
  D:0007H         SYMBOL        TaskID
  -------         DO            
  D:0006H         SYMBOL        cp
  D:0005H         SYMBOL        cp1
  D:0004H         SYMBOL        temp
  D:0007H         SYMBOL        i
  -------         ENDDO         
  C:4B71H         LINE#         203
  C:4B71H         LINE#         204
  C:4B71H         LINE#         209
  C:4B77H         LINE#         210
  C:4B7DH         LINE#         211
  C:4B82H         LINE#         212
  C:4B8BH         LINE#         213
  C:4B8BH         LINE#         214
  C:4B96H         LINE#         215
  C:4B99H         LINE#         216
  C:4B9FH         LINE#         218
  C:4B9FH         LINE#         219
  C:4BABH         LINE#         220
  C:4BADH         LINE#         221
  C:4BB3H         LINE#         222
  -------         ENDPROC       _STKDELA
  -------         PROC          _STKDELB
  D:0007H         SYMBOL        TaskID
  -------         DO            
  D:0005H         SYMBOL        cp
  D:0004H         SYMBOL        cp1
  D:0005H         SYMBOL        temp
  D:0006H         SYMBOL        i
  -------         ENDDO         
  C:4BB4H         LINE#         225
  C:4BB4H         LINE#         226
  C:4BB4H         LINE#         231
  C:4BBBH         LINE#         232
  C:4BC1H         LINE#         233
  C:4BCCH         LINE#         234
  C:4BCEH         LINE#         235
  C:4BCEH         LINE#         237
  C:4BCEH         LINE#         238
  C:4BDAH         LINE#         239
  C:4BDCH         LINE#         240
  C:4BDCH         LINE#         241
  C:4BE2H         LINE#         242
  C:4BEBH         LINE#         243
  C:4BEBH         LINE#         244
BL51 BANKED LINKER/LOCATER V6.05                                                      05/24/2012  09:37:58  PAGE 89


  C:4BF2H         LINE#         245
  C:4BF5H         LINE#         246
  -------         ENDPROC       _STKDELB
  -------         PROC          _STKDELC
  D:0007H         SYMBOL        TaskID
  -------         DO            
  D:0005H         SYMBOL        cp
  -------         ENDDO         
  C:519BH         LINE#         248
  C:519BH         LINE#         249
  C:519BH         LINE#         254
  C:51A1H         LINE#         255
  C:51A7H         LINE#         256
  C:51ACH         LINE#         257
  C:51B0H         LINE#         258
  -------         ENDPROC       _STKDELC
  -------         PROC          _OSTASKSTKDEL
  D:0007H         SYMBOL        TaskID
  -------         DO            
  D:0006H         SYMBOL        temp
  -------         ENDDO         
  C:4EF7H         LINE#         261
  C:4EF7H         LINE#         265
  C:4EF9H         LINE#         266
  C:4EFDH         LINE#         267
  C:4EFDH         LINE#         268
  C:4EFEH         LINE#         269
  C:4F00H         LINE#         270
  C:4F06H         LINE#         271
  C:4F06H         LINE#         272
  C:4F08H         LINE#         273
  C:4F08H         LINE#         274
  C:4F13H         LINE#         275
  C:4F13H         LINE#         276
  C:4F13H         LINE#         277
  C:4F16H         LINE#         278
  C:4F16H         LINE#         279
  C:4F16H         LINE#         280
  C:4F19H         LINE#         281
  C:4F19H         LINE#         282
  C:4F19H         LINE#         283
  C:4F1CH         LINE#         284
  C:4F1CH         LINE#         285
  C:4F1CH         LINE#         286
  C:4F1CH         LINE#         287
  C:4F1CH         LINE#         288
  -------         ENDPROC       _OSTASKSTKDEL
  -------         PROC          OSTICKISR
  C:4A57H         LINE#         347
  C:4A76H         LINE#         356
  C:4A79H         LINE#         366
  C:4A7DH         LINE#         369
  C:4A80H         LINE#         374
  C:4A83H         LINE#         375
  -------         ENDPROC       OSTICKISR
  -------         PROC          USERTICKTIMER
  C:4D25H         LINE#         382
BL51 BANKED LINKER/LOCATER V6.05                                                      05/24/2012  09:37:58  PAGE 90


  C:4D25H         LINE#         383
  C:4D25H         LINE#         388
  C:4D33H         LINE#         389
  C:4D39H         LINE#         390
  C:4D3CH         LINE#         391
  C:4D3EH         LINE#         395
  C:4D41H         LINE#         398
  C:4D47H         LINE#         399
  C:4D47H         LINE#         400
  C:4D49H         LINE#         401
  C:4D49H         LINE#         405
  C:4D4FH         LINE#         406
  C:4D4FH         LINE#         407
  C:4D51H         LINE#         408
  C:4D54H         LINE#         409
  C:4D54H         LINE#         410
  C:4D58H         LINE#         411
  C:4D5CH         LINE#         412
  C:4D5CH         LINE#         413
  C:4D5CH         LINE#         415
  -------         ENDPROC       USERTICKTIMER
  -------         ENDMOD        OS_CPU_C

  -------         MODULE        OS_CPU_A_ASM
  C:52A4H         SEGMENT       ?PR?OSCTXSW?OS_CPU_A
  C:4DF5H         SEGMENT       ?PR?OSINTCTXSW?OS_CPU_A
  C:4D93H         SEGMENT       ?PR?LOADCTX?OS_CPU_A
  C:43A4H         SEGMENT       ?PR?C_OSCTXSW?OS_CPU_A
  C:46C9H         SEGMENT       ?PR?_OSTASKSTKINIT?OS_CPU_A
  I:004AH         SEGMENT       ?STACK
  C:43A4H         PUBLIC        C_OSCTXSW
  C:4D93H         PUBLIC        LOADCTX
  C:52A4H         PUBLIC        OSCTXSW
  C:4DF5H         PUBLIC        OSINTCTXSW
  I:004AH         PUBLIC        STACK
  C:46C9H         PUBLIC        _OSTASKSTKINIT
  C:43F1H         SYMBOL        ?C0001
  C:43C2H         SYMBOL        ?C0002
  C:43C8H         SYMBOL        ?C0003
  C:43E5H         SYMBOL        ?C0004
  C:43EBH         SYMBOL        ?C0005
  C:442AH         SYMBOL        ?C0007
  C:43FBH         SYMBOL        ?C0008
  C:4401H         SYMBOL        ?C0009
  C:442DH         SYMBOL        ?C000R
  C:441FH         SYMBOL        ?C0010
  C:4425H         SYMBOL        ?C0011
  D:00E0H         SYMBOL        ACC
  D:00F0H         SYMBOL        B
  D:0083H         SYMBOL        DPH
  D:0082H         SYMBOL        DPL
  B:00A8H.7       SYMBOL        EA
  C:4D9CH         SYMBOL        LOADCTX_0
  C:4DBEH         SYMBOL        LOADCTX_2
  C:4DC5H         SYMBOL        LOADCTX_3
  C:4E0AH         SYMBOL        OSINTCTXSW_0
  N:0000H         SYMBOL        OS_CPU_A_ASM
BL51 BANKED LINKER/LOCATER V6.05                                                      05/24/2012  09:37:58  PAGE 91


  D:00D0H         SYMBOL        PSW
  D:0081H         SYMBOL        SP
  C:4700H         SYMBOL        STKINIT11
  C:4734H         SYMBOL        STKINIT12
  C:4712H         SYMBOL        STKINIT15
  C:472EH         SYMBOL        STKINIT18
  C:4708H         SYMBOL        STKINIT5
  C:46E3H         SYMBOL        STKINIT8
  C:46C9H         LINE#         137
  C:46CBH         LINE#         138
  C:46CDH         LINE#         142
  C:46CEH         LINE#         143
  C:46D1H         LINE#         144
  C:46D2H         LINE#         145
  C:46D4H         LINE#         173
  C:46D5H         LINE#         174
  C:46D6H         LINE#         175
  C:46D8H         LINE#         176
  C:46DAH         LINE#         179
  C:46DBH         LINE#         180
  C:46DDH         LINE#         181
  C:46DEH         LINE#         182
  C:46DFH         LINE#         184
  C:46E1H         LINE#         185
  C:46E2H         LINE#         186
  C:46E3H         LINE#         191
  C:46E5H         LINE#         192
  C:46E6H         LINE#         193
  C:46E7H         LINE#         195
  C:46E8H         LINE#         197
  C:46EAH         LINE#         200
  C:46ECH         LINE#         203
  C:46EEH         LINE#         204
  C:46F0H         LINE#         205
  C:46F2H         LINE#         207
  C:46F4H         LINE#         208
  C:46F5H         LINE#         209
  C:46F6H         LINE#         210
  C:46F8H         LINE#         211
  C:46F9H         LINE#         212
  C:46FBH         LINE#         213
  C:46FCH         LINE#         214
  C:46FDH         LINE#         215
  C:46FEH         LINE#         217
  C:4700H         LINE#         222
  C:4701H         LINE#         223
  C:4702H         LINE#         224
  C:4703H         LINE#         225
  C:4704H         LINE#         227
  C:4706H         LINE#         229
  C:4708H         LINE#         234
  C:470AH         LINE#         235
  C:470CH         LINE#         236
  C:470DH         LINE#         238
  C:470EH         LINE#         239
  C:470FH         LINE#         240
  C:4711H         LINE#         241
BL51 BANKED LINKER/LOCATER V6.05                                                      05/24/2012  09:37:58  PAGE 92


  C:4712H         LINE#         246
  C:4714H         LINE#         247
  C:4715H         LINE#         248
  C:4716H         LINE#         250
  C:4717H         LINE#         252
  C:4719H         LINE#         255
  C:471BH         LINE#         256
  C:471DH         LINE#         257
  C:471EH         LINE#         258
  C:471FH         LINE#         259
  C:4720H         LINE#         261
  C:4721H         LINE#         262
  C:4723H         LINE#         263
  C:4724H         LINE#         265
  C:4726H         LINE#         266
  C:4727H         LINE#         267
  C:4728H         LINE#         268
  C:4729H         LINE#         269
  C:472AH         LINE#         270
  C:472BH         LINE#         271
  C:472CH         LINE#         273
  C:472EH         LINE#         278
  C:472FH         LINE#         279
  C:4730H         LINE#         280
  C:4731H         LINE#         281
  C:4732H         LINE#         283
  C:4734H         LINE#         287
  C:4736H         LINE#         288
  C:4737H         LINE#         289
  C:4738H         LINE#         290
  C:4739H         LINE#         291
  C:473AH         LINE#         293
  C:473CH         LINE#         294
  C:473DH         LINE#         295
  C:473EH         LINE#         297
  C:4740H         LINE#         298
  C:4741H         LINE#         299
  C:4742H         LINE#         309
  C:4743H         LINE#         310
  C:4744H         LINE#         312
  C:4D93H         LINE#         340
  C:4D95H         LINE#         348
  C:4D97H         LINE#         349
  C:4D9AH         LINE#         350
  C:4D9CH         LINE#         352
  C:4D9FH         LINE#         354
  C:4DA0H         LINE#         355
  C:4DA2H         LINE#         367
  C:4DA4H         LINE#         369
  C:4DA6H         LINE#         370
  C:4DA8H         LINE#         371
  C:4DAAH         LINE#         372
  C:4DACH         LINE#         373
  C:4DAEH         LINE#         374
  C:4DB0H         LINE#         375
  C:4DB2H         LINE#         376
  C:4DB4H         LINE#         377
BL51 BANKED LINKER/LOCATER V6.05                                                      05/24/2012  09:37:58  PAGE 93


  C:4DB6H         LINE#         378
  C:4DB8H         LINE#         379
  C:4DBAH         LINE#         380
  C:4DBCH         LINE#         381
  C:4DBEH         LINE#         384
  C:4DC0H         LINE#         385
  C:4DC3H         LINE#         386
  C:4DC5H         LINE#         388
  C:52A4H         LINE#         415
  C:52A6H         LINE#         417
  C:52A9H         LINE#         418
  C:52ABH         LINE#         420
  C:52ACH         LINE#         421
  C:52AEH         LINE#         434
  C:43A4H         LINE#         457
  C:43A6H         LINE#         460
  C:43A8H         LINE#         466
  C:43A9H         LINE#         468
  C:43ABH         LINE#         469
  C:43ADH         LINE#         470
  C:43AEH         LINE#         471
  C:43AFH         LINE#         472
  C:43B0H         LINE#         474
  C:43B2H         LINE#         475
  C:43B4H         LINE#         476
  C:43B5H         LINE#         477
  C:43B6H         LINE#         478
  C:43B7H         LINE#         480
  C:43B9H         LINE#         481
  C:43BAH         LINE#         482
  C:43BCH         LINE#         483
  C:43BEH         LINE#         489
  C:43BFH         LINE#         490
  C:43C0H         LINE#         491
  C:43C1H         LINE#         492
  C:43C2H         LINE#         494
  C:43C3H         LINE#         495
  C:43C4H         LINE#         496
  C:43C5H         LINE#         497
  C:43C6H         LINE#         498
  C:43C8H         LINE#         501
  C:43CAH         LINE#         502
  C:43CCH         LINE#         503
  C:43CDH         LINE#         504
  C:43CEH         LINE#         505
  C:43CFH         LINE#         507
  C:43D0H         LINE#         508
  C:43D1H         LINE#         510
  C:43D2H         LINE#         511
  C:43D4H         LINE#         516
  C:43D6H         LINE#         517
  C:43D7H         LINE#         518
  C:43D9H         LINE#         519
  C:43DAH         LINE#         520
  C:43DCH         LINE#         522
  C:43DEH         LINE#         523
  C:43E0H         LINE#         524
BL51 BANKED LINKER/LOCATER V6.05                                                      05/24/2012  09:37:58  PAGE 94


  C:43E1H         LINE#         525
  C:43E2H         LINE#         526
  C:43E3H         LINE#         527
  C:43E4H         LINE#         528
  C:43E5H         LINE#         530
  C:43E6H         LINE#         531
  C:43E7H         LINE#         532
  C:43E8H         LINE#         533
  C:43E9H         LINE#         534
  C:43EBH         LINE#         537
  C:43EEH         LINE#         539
  C:43F1H         LINE#         544
  C:43F3H         LINE#         545
  C:43F5H         LINE#         546
  C:43F7H         LINE#         558
  C:43F8H         LINE#         559
  C:43F9H         LINE#         560
  C:43FAH         LINE#         561
  C:43FBH         LINE#         563
  C:43FCH         LINE#         564
  C:43FDH         LINE#         565
  C:43FEH         LINE#         566
  C:43FFH         LINE#         567
  C:4401H         LINE#         570
  C:4403H         LINE#         571
  C:4405H         LINE#         572
  C:4406H         LINE#         573
  C:4407H         LINE#         574
  C:4408H         LINE#         576
  C:4409H         LINE#         577
  C:440AH         LINE#         579
  C:440CH         LINE#         580
  C:440EH         LINE#         581
  C:440FH         LINE#         582
  C:4410H         LINE#         583
  C:4412H         LINE#         589
  C:4414H         LINE#         590
  C:4415H         LINE#         591
  C:4417H         LINE#         592
  C:4419H         LINE#         594
  C:441AH         LINE#         595
  C:441CH         LINE#         596
  C:441EH         LINE#         597
  C:441FH         LINE#         599
  C:4420H         LINE#         600
  C:4421H         LINE#         601
  C:4422H         LINE#         602
  C:4423H         LINE#         603
  C:4425H         LINE#         607
  C:4428H         LINE#         609
  C:442AH         LINE#         613
  C:442DH         LINE#         618
  C:4DF5H         LINE#         642
  C:4DF7H         LINE#         643
  C:4DF9H         LINE#         644
  C:4DFBH         LINE#         647
  C:4DFDH         LINE#         648
BL51 BANKED LINKER/LOCATER V6.05                                                      05/24/2012  09:37:58  PAGE 95


  C:4DFFH         LINE#         649
  C:4E01H         LINE#         651
  C:4E03H         LINE#         652
  C:4E05H         LINE#         653
  C:4E07H         LINE#         654
  C:4E09H         LINE#         655
  C:4E0AH         LINE#         659
  C:4E0CH         LINE#         660
  C:4E0EH         LINE#         661
  C:4E10H         LINE#         663
  C:4E13H         LINE#         664
  C:4E15H         LINE#         666
  C:4E16H         LINE#         667
  C:4E17H         LINE#         668
  C:4E19H         LINE#         689
  C:4E1BH         LINE#         691
  C:4E1DH         LINE#         692
  C:4E1FH         LINE#         693
  C:4E21H         LINE#         694
  C:4E23H         LINE#         695
  -------         ENDMOD        OS_CPU_A_ASM

  -------         MODULE        ?C?COPY
  C:282DH         PUBLIC        ?C?COPY
  -------         ENDMOD        ?C?COPY

  -------         MODULE        ?C?CLDPTR
  C:2853H         PUBLIC        ?C?CLDPTR
  -------         ENDMOD        ?C?CLDPTR

  -------         MODULE        ?C?CLDOPTR
  C:286CH         PUBLIC        ?C?CLDOPTR
  -------         ENDMOD        ?C?CLDOPTR

  -------         MODULE        ?C?CSTPTR
  C:2899H         PUBLIC        ?C?CSTPTR
  -------         ENDMOD        ?C?CSTPTR

  -------         MODULE        ?C?CSTOPTR
  C:28ABH         PUBLIC        ?C?CSTOPTR
  -------         ENDMOD        ?C?CSTOPTR

  -------         MODULE        ?C?UIDIV
  C:28CDH         PUBLIC        ?C?UIDIV
  -------         ENDMOD        ?C?UIDIV

  -------         MODULE        ?C?IILDX
  C:2922H         PUBLIC        ?C?IILDX
  -------         ENDMOD        ?C?IILDX

  -------         MODULE        ?C?ILDIX
  C:2938H         PUBLIC        ?C?ILDIX
  -------         ENDMOD        ?C?ILDIX

  -------         MODULE        ?C?ILDOPTR
  C:294EH         PUBLIC        ?C?ILDOPTR
  -------         ENDMOD        ?C?ILDOPTR
BL51 BANKED LINKER/LOCATER V6.05                                                      05/24/2012  09:37:58  PAGE 96



  -------         MODULE        ?C?ISTOPTR
  C:2986H         PUBLIC        ?C?ISTOPTR
  -------         ENDMOD        ?C?ISTOPTR

  -------         MODULE        ?C?SLDIV
  C:4B2DH         PUBLIC        ?C?SLDIV
  -------         ENDMOD        ?C?SLDIV

  -------         MODULE        ?C?CCASE
  C:29B3H         PUBLIC        ?C?CCASE
  -------         ENDMOD        ?C?CCASE

  -------         MODULE        ?C?MEMSET
  C:29D9H         PUBLIC        ?C?MEMSET
  -------         ENDMOD        ?C?MEMSET

  -------         MODULE        ?C?ULDIV
  C:2A41H         PUBLIC        ?C?ULDIV
  -------         ENDMOD        ?C?ULDIV

*** WARNING L16: UNCALLED SEGMENT, IGNORED FOR OVERLAY PROCESS
    SEGMENT: ?PR?_READDATA?I2C

*** WARNING L16: UNCALLED SEGMENT, IGNORED FOR OVERLAY PROCESS
    SEGMENT: ?PR?P8563_GETTIME?PCF8563

*** WARNING L16: UNCALLED SEGMENT, IGNORED FOR OVERLAY PROCESS
    SEGMENT: ?PR?P8563_INIT?PCF8563

*** WARNING L16: UNCALLED SEGMENT, IGNORED FOR OVERLAY PROCESS
    SEGMENT: ?PR?_DIRADDRCOMPARE?SINGLEBUS

*** WARNING L16: UNCALLED SEGMENT, IGNORED FOR OVERLAY PROCESS
    SEGMENT: ?PR?STOPVOICEPLAY?SINGLEBUS

*** WARNING L16: UNCALLED SEGMENT, IGNORED FOR OVERLAY PROCESS
    SEGMENT: ?PR?STARTVOICEPLAY?SINGLEBUS

*** WARNING L16: UNCALLED SEGMENT, IGNORED FOR OVERLAY PROCESS
    SEGMENT: ?PR?BUS1MANAGER?SINGLEBUS

*** WARNING L16: UNCALLED SEGMENT, IGNORED FOR OVERLAY PROCESS
    SEGMENT: ?PR?_USARTSNDERROR?UART

*** WARNING L16: UNCALLED SEGMENT, IGNORED FOR OVERLAY PROCESS
    SEGMENT: ?PR?_UART_SEND_BYTE?UART

*** WARNING L16: UNCALLED SEGMENT, IGNORED FOR OVERLAY PROCESS
    SEGMENT: ?PR?USARTRECERRHANDLE?UART

*** WARNING L16: UNCALLED SEGMENT, IGNORED FOR OVERLAY PROCESS
    SEGMENT: ?PR?KEYUP?KEY

*** WARNING L16: UNCALLED SEGMENT, IGNORED FOR OVERLAY PROCESS
    SEGMENT: ?PR?_OSTASKSTKDEL?OS_CPU_C

BL51 BANKED LINKER/LOCATER V6.05                                                      05/24/2012  09:37:58  PAGE 97


Program Size: data=75.3 xdata=875 code=21206
LINK/LOCATE RUN COMPLETE.  12 WARNING(S),  0 ERROR(S)
