BL51 BANKED LINKER/LOCATER V6.22                                                        07/10/2019  15:34:23  PAGE 1


BL51 BANKED LINKER/LOCATER V6.22, INVOKED BY:
C:\KEIL\C51\BIN\BL51.EXE EPH1660.obj, GT23.obj, IAP.obj, LCD.obj, main.obj, parameter.obj, SingleBus.obj, SPI.obj, Uart.
>> obj, PCT25VF.obj, 128x80shenti.obj, .\OS_CORE.obj, .\OS_MEM.obj, .\OS_Q.obj, .\OS_SEM.obj, .\OS_CPU_C.obj, .\OS_CPU_A
>> .obj TO CTFJ-DISP-V4-6 RAMSIZE (256) CODE (?CO?PARAMETER (0XAA00))


MEMORY MODEL: LARGE


INPUT MODULES INCLUDED:
  EPH1660.obj (EPH1660)
  GT23.obj (GT23)
  IAP.obj (IAP)
  LCD.obj (LCD)
  main.obj (MAIN)
  parameter.obj (PARAMETER)
  SingleBus.obj (SINGLEBUS)
  SPI.obj (SPI)
  Uart.obj (UART)
  PCT25VF.obj (PCT25VF)
  128x80shenti.obj (128X80SHENTI)
  .\OS_CORE.obj (OS_CORE)
  .\OS_MEM.obj (OS_MEM)
  .\OS_Q.obj (OS_Q)
  .\OS_SEM.obj (OS_SEM)
  .\OS_CPU_C.obj (OS_CPU_C)
  .\OS_CPU_A.obj (OS_CPU_A_ASM)
  C:\KEIL\C51\LIB\C51L.LIB (?C_STARTUP)
  C:\KEIL\C51\LIB\C51L.LIB (?C?COPY)
  C:\KEIL\C51\LIB\C51L.LIB (?C?CLDPTR)
  C:\KEIL\C51\LIB\C51L.LIB (?C?CLDOPTR)
  C:\KEIL\C51\LIB\C51L.LIB (?C?CILDOPTR)
  C:\KEIL\C51\LIB\C51L.LIB (?C?CSTPTR)
  C:\KEIL\C51\LIB\C51L.LIB (?C?CSTOPTR)
  C:\KEIL\C51\LIB\C51L.LIB (?C?IMUL)
  C:\KEIL\C51\LIB\C51L.LIB (?C?UIDIV)
  C:\KEIL\C51\LIB\C51L.LIB (?C?SIDIV)
  C:\KEIL\C51\LIB\C51L.LIB (?C?IILDX)
  C:\KEIL\C51\LIB\C51L.LIB (?C?ILDIX)
  C:\KEIL\C51\LIB\C51L.LIB (?C?ILDOPTR)
  C:\KEIL\C51\LIB\C51L.LIB (?C?ISTOPTR)
  C:\KEIL\C51\LIB\C51L.LIB (?C?LMUL)
  C:\KEIL\C51\LIB\C51L.LIB (?C?SLDIV)
  C:\KEIL\C51\LIB\C51L.LIB (?C?ULCMP)
  C:\KEIL\C51\LIB\C51L.LIB (?C?ULSHR)
  C:\KEIL\C51\LIB\C51L.LIB (?C?LSHL)
  C:\KEIL\C51\LIB\C51L.LIB (?C?LSTXDATA)
  C:\KEIL\C51\LIB\C51L.LIB (?C?LSTKXDATA)
  C:\KEIL\C51\LIB\C51L.LIB (?C?CCASE)
  C:\KEIL\C51\LIB\C51L.LIB (STRCAT)
  C:\KEIL\C51\LIB\C51L.LIB (STRLEN)
  C:\KEIL\C51\LIB\C51L.LIB (?C?MEMSET)
  C:\KEIL\C51\LIB\C51L.LIB (?C_INIT)
  C:\KEIL\C51\LIB\C51L.LIB (?C?ULDIV)


LINK MAP OF MODULE:  CTFJ-DISP-V4-6 (EPH1660)

BL51 BANKED LINKER/LOCATER V6.22                                                      07/10/2019  15:34:23  PAGE 2



            TYPE    BASE      LENGTH    RELOCATION   SEGMENT NAME
            -----------------------------------------------------

            * * * * * * *   D A T A   M E M O R Y   * * * * * * *
            REG     0000H     0008H     ABSOLUTE     "REG BANK 0"
            DATA    0008H     0009H     UNIT         ?DT?OS_CORE
            DATA    0011H     0006H     UNIT         ?DT?OS_CPU_C
            DATA    0017H     0001H     UNIT         ?DT?MAIN
                    0018H     0008H                  *** GAP ***
            DATA    0020H     0001H     BIT_ADDR     ?BA?EPH1660
            DATA    0021H     0007H     BIT_ADDR     ?BA?SINGLEBUS
            BIT     0028H.0   0001H.1   UNIT         ?BI?UART
            BIT     0029H.1   0000H.3   UNIT         ?BI?MAIN
            BIT     0029H.4   0000H.1   UNIT         ?BI?LCD
            BIT     0029H.5   0000H.1   UNIT         _BIT_GROUP_
                    0029H.6   0000H.2                *** GAP ***
            DATA    002AH     003CH     UNIT         ?DT?SINGLEBUS
            IDATA   0066H     0010H     UNIT         ?ID?MAIN
            IDATA   0076H     0002H     UNIT         ?STACK

            * * * * * * *  X D A T A   M E M O R Y  * * * * * * *
            XDATA   0000H     0136H     UNIT         ?XD?UART
            XDATA   0136H     008BH     UNIT         ?XD?GT23
            XDATA   01C1H     0079H     UNIT         ?XD?MAIN
            XDATA   023AH     0060H     UNIT         ?XD?LCD
            XDATA   029AH     0038H     UNIT         _XDATA_GROUP_
            XDATA   02D2H     000FH     UNIT         ?XD?_HIGHSPEED_READ_CONT?PCT25VF
            XDATA   02E1H     000EH     UNIT         ?XD?EPH1660
            XDATA   02EFH     0006H     UNIT         ?XD?_DISPLAY_ASCII_2?LCD
            XDATA   02F5H     0006H     UNIT         ?XD?_AUTO_ADD_INCA?PCT25VF
            XDATA   02FBH     0005H     UNIT         ?XD?_SEND_DATA?MAIN
            XDATA   0300H     0005H     UNIT         ?XD?_BYTE_WRITE?PCT25VF
            XDATA   0305H     0004H     UNIT         ?XD?_GENERATECRC?EPH1660
            XDATA   0309H     0004H     UNIT         ?XD?JEDEC_ID_READ?PCT25VF
            XDATA   030DH     0004H     UNIT         ?XD?_HIGHSPEED_READ?PCT25VF
            XDATA   0311H     0004H     UNIT         ?XD?_BLOCK_ERASE_32K?PCT25VF
            XDATA   0315H     0004H     UNIT         ?XD?_BLOCK_ERASE_64K?PCT25VF
            XDATA   0319H     0002H     UNIT         ?XD?_DISPLAY_HLINE?LCD
            XDATA   031BH     0002H     UNIT         ?XD?_DISPLAY_VLINE?LCD
            XDATA   031DH     0002H     UNIT         ?XD?_AUTO_ADD_INCB?PCT25VF
            XDATA   031FH     0002H     UNIT         ?XD?WAIT_BUSY_AAI?PCT25VF
            XDATA   0321H     0002H     UNIT         ?XD?WREN_CHECK?PCT25VF
            XDATA   0323H     0002H     UNIT         ?XD?WREN_AAI_CHECK?PCT25VF
            XDATA   0325H     0002H     UNIT         ?XD?PCT25VF
            XDATA   0327H     0001H     UNIT         ?XD?OS_CPU_C

            * * * * * * *   C O D E   M E M O R Y   * * * * * * *
            CODE    0000H     0003H     ABSOLUTE     
            CODE    0003H     0003H     ABSOLUTE     
            CODE    0006H     0003H     UNIT         ?PR?EX0INT?MAIN
            CODE    0009H     0001H     UNIT         ?PR?SYSRESET?SINGLEBUS
            CODE    000AH     0001H     UNIT         ?PR?HOLD_LOW?PCT25VF
            CODE    000BH     0003H     ABSOLUTE     
            CODE    000EH     0003H     UNIT         ?PR?TIMER1INT?MAIN
            CODE    0011H     0001H     UNIT         ?PR?UNHOLD?PCT25VF
            CODE    0012H     0001H     UNIT         ?PR?WP_LOW?PCT25VF
BL51 BANKED LINKER/LOCATER V6.22                                                      07/10/2019  15:34:23  PAGE 3


            CODE    0013H     0003H     ABSOLUTE     
            CODE    0016H     0003H     UNIT         ?PR?ADCINT?MAIN
            CODE    0019H     0001H     UNIT         ?PR?UNWP?PCT25VF
                    001AH     0001H                  *** GAP ***
            CODE    001BH     0003H     ABSOLUTE     
            CODE    001EH     0003H     UNIT         ?PR?LVDINT?MAIN
                    0021H     0002H                  *** GAP ***
            CODE    0023H     0003H     ABSOLUTE     
            CODE    0026H     0003H     UNIT         ?PR?CE_HIGH?PCT25VF
                    0029H     0002H                  *** GAP ***
            CODE    002BH     0003H     ABSOLUTE     
                    002EH     0005H                  *** GAP ***
            CODE    0033H     0003H     ABSOLUTE     
                    0036H     0005H                  *** GAP ***
            CODE    003BH     0003H     ABSOLUTE     
            CODE    003EH     000DH     UNIT         ?PR?RD_ID?MAIN
            CODE    004BH     0003H     ABSOLUTE     
            CODE    004EH     3200H     UNIT         ?CO?128X80SHENTI
            CODE    324EH     0A86H     UNIT         ?PR?USART0RECDEAL?UART
            CODE    3CD4H     091CH     UNIT         ?PR?BUS0RECDEAL?SINGLEBUS
            CODE    45F0H     0754H     UNIT         ?PR?SHOWBEDFACEFORM?LCD
            CODE    4D44H     04CEH     UNIT         ?PR?_SHOWITEM?LCD
            CODE    5212H     04B4H     UNIT         ?C?LIB_CODE
            CODE    56C6H     03F7H     UNIT         ?PR?BUS0SENDDEAL?SINGLEBUS
            CODE    5ABDH     03C8H     UNIT         ?PR?SHOWBEDFACE?LCD
            CODE    5E85H     03BBH     UNIT         ?PR?_GET_SIZE_MUL_START_XY?LCD
            CODE    6240H     037AH     UNIT         ?PR?SHOWPATIENTBASEINFO?LCD
            CODE    65BAH     036DH     UNIT         ?PR?MAINTASK?MAIN
            CODE    6927H     0326H     UNIT         ?CO?LCD
            CODE    6C4DH     02F8H     UNIT         ?PR?TIMER0INT?SINGLEBUS
            CODE    6F45H     029DH     UNIT         ?PR?USARTSENDSBNEXTFRAME?SINGLEBUS
            CODE    71E2H     0296H     UNIT         ?PR?_GET_GT23_DATA?GT23
            CODE    7478H     023CH     UNIT         ?PR?UART0?UART
            CODE    76B4H     022AH     UNIT         ?PR?_FLASH_BUFFERWRITE?PCT25VF
            CODE    78DEH     01AAH     UNIT         ?PR?_WRITEAREAHANDLERMUL?LCD
            CODE    7A88H     019BH     UNIT         ?PR?TIMEROUTDEAL?SINGLEBUS
            CODE    7C23H     0173H     UNIT         ?PR?SHOWPOWERUPFACE?LCD
            CODE    7D96H     0165H     UNIT         ?PR?_DISPLAY_ASCII_2?LCD
            CODE    7EFBH     015EH     UNIT         ?PR?FRAM_TEST?PCT25VF
            CODE    8059H     0158H     UNIT         ?CO?EPH1660
            CODE    81B1H     0155H     UNIT         ?PR?_STOREDATACHECK?UART
            CODE    8306H     014FH     UNIT         ?PR?_GETTITLE?LCD
            CODE    8455H     0148H     UNIT         ?PR?_WRITE_CONT?PCT25VF
            CODE    859DH     0131H     UNIT         ?PR?_CRCCHECKDATA?UART
            CODE    86CEH     012CH     UNIT         ?PR?_SHOWCALLFACE?LCD
            CODE    87FAH     0123H     UNIT         ?PR?INITPARAMETER?SINGLEBUS
            CODE    891DH     0122H     UNIT         ?PR?INITSSD1963?LCD
            CODE    8A3FH     011BH     UNIT         ?PR?DISPLAYBLOCK?LCD
            CODE    8B5AH     0118H     UNIT         ?PR?_SECTORDATACOPY?UART
            CODE    8C72H     0115H     UNIT         ?PR?_LCD_FANGDA_DIS_TEXT?LCD
            CODE    8D87H     010FH     UNIT         ?PR?_CHECKFORMDATA?UART
            CODE    8E96H     0106H     UNIT         ?PR?DISPLAYSTRINGLEN?LCD
            CODE    8F9CH     00E3H     UNIT         ?PR?_AAI_WRITE?PCT25VF
            CODE    907FH     00E2H     UNIT         ?PR?_CHECKFACEDATA?UART
            CODE    9161H     00DDH     UNIT         ?PR?DISPLAYSTRING?LCD
            CODE    923EH     00DBH     UNIT         ?PR?_SHOWBROADFACE?LCD
            CODE    9319H     00D2H     UNIT         ?PR?INIT?MAIN
BL51 BANKED LINKER/LOCATER V6.22                                                      07/10/2019  15:34:23  PAGE 4


            CODE    93EBH     00CDH     UNIT         ?PR?_DISPLAY_ASCII?LCD
            CODE    94B8H     00CCH     UNIT         ?PR?_SAVEPARAMETER?SINGLEBUS
            CODE    9584H     00C6H     UNIT         ?PR?_READ_CONT?PCT25VF
            CODE    964AH     00C1H     UNIT         ?PR?SHOWSTARTNUMSET?LCD
            CODE    970BH     00C1H     UNIT         ?PR?SPIINT?SPI
            CODE    97CCH     00BFH     UNIT         ?PR?_FLASH_PAGEWRITE?PCT25VF
            CODE    988BH     00BCH     UNIT         ?PR?_HIGHSPEED_READ_CONT?PCT25VF
            CODE    9947H     00AAH     UNIT         ?PR?TIMEINTERVAL?MAIN
            CODE    99F1H     0098H     UNIT         ?PR?_SET_DISPLAY_AREA?LCD
            CODE    9A89H     0098H     UNIT         ?PR?GET_BASESIZE_MUL?LCD
            CODE    9B21H     0096H     UNIT         ?PR?DISPLAYFRAME?LCD
            CODE    9BB7H     0094H     UNIT         ?PR?_OSQPEND?OS_Q
            CODE    9C4BH     0091H     UNIT         ?PR?_GETCOLOR?LCD
            CODE    9CDCH     008EH     UNIT         ?PR?GET_DOT_NUMBER?LCD
            CODE    9D6AH     008CH     UNIT         ?PR?C_OSCTXSW?OS_CPU_A
            CODE    9DF6H     008CH     UNIT         ?C_C51STARTUP
            CODE    9E82H     008AH     UNIT         ?PR?USARTINIT?UART
            CODE    9F0CH     0088H     UNIT         ?PR?_OSQPOST?OS_Q
            CODE    9F94H     0086H     UNIT         ?PR?_BUS0OUTPUTDATA?SINGLEBUS
            CODE    A01AH     0085H     UNIT         ?PR?_DISPLAY_HLINE?LCD
            CODE    A09FH     007CH     UNIT         ?PR?_OSTASKSTKINIT?OS_CPU_A
            CODE    A11BH     0077H     UNIT         ?PR?_SHOWADDBEDCALLFACE?LCD
            CODE    A192H     0077H     UNIT         ?PR?_CHECKPSK?UART
            CODE    A209H     0074H     UNIT         ?C_INITSEG
            CODE    A27DH     0073H     UNIT         ?PR?ALLDAY?MAIN
            CODE    A2F0H     006EH     UNIT         ?PR?_DISPLAY_VLINE?LCD
            CODE    A35EH     006EH     UNIT         ?PR?_DISPLAYONECHAR?LCD
            CODE    A3CCH     006BH     UNIT         ?PR?_STRCAT?STRCAT
            CODE    A437H     006AH     UNIT         ?PR?DISPLAYDIGITSTRING?LCD
            CODE    A4A1H     006AH     UNIT         ?PR?_SEND_DATA?MAIN
            CODE    A50BH     0065H     UNIT         ?PR?_DIGIT2ASCII?LCD
            CODE    A570H     0065H     UNIT         ?PR?_PARACRCCHECK?SINGLEBUS
            CODE    A5D5H     0063H     UNIT         ?PR?_READPARAMETER?SINGLEBUS
            CODE    A638H     0063H     UNIT         ?PR?_GETPSKCRC?UART
            CODE    A69BH     005EH     UNIT         ?PR?_OSWAIT?OS_CORE
            CODE    A6F9H     0056H     UNIT         ?PR?DIRRFSERIALCOMPARE?MAIN
            CODE    A74FH     0056H     UNIT         ?PR?OSTICKISR?OS_CPU_C
            CODE    A7A5H     0053H     UNIT         ?PR?_AUTO_ADD_INCA_EBSY?PCT25VF
            CODE    A7F8H     0050H     UNIT         ?PR?_BYTE_WRITE?PCT25VF
            CODE    A848H     004FH     UNIT         ?PR?EPH1660MANAGER?EPH1660
            CODE    A897H     004DH     UNIT         ?PR?DISPLAY_ASCII_MUL?LCD
            CODE    A8E4H     004CH     UNIT         ?PR?LCD_CLEAR?LCD
            CODE    A930H     004AH     UNIT         ?PR?_AUTO_ADD_INCA?PCT25VF
            CODE    A97AH     0048H     UNIT         ?PR?JEDEC_ID_READ?PCT25VF
            CODE    A9C2H     003DH     UNIT         ?PR?_BLOCK_ERASE_32K?PCT25VF
                    A9FFH     0001H                  *** GAP ***
            CODE    AA00H     0016H     UNIT         ?CO?PARAMETER
            CODE    AA16H     0048H     UNIT         ?PR?_HIGHSPEED_READ?PCT25VF
            CODE    AA5EH     0048H     UNIT         ?PR?_SECTOR_ERASE?PCT25VF
            CODE    AAA6H     0046H     UNIT         ?PR?CALCPARACRC?SINGLEBUS
            CODE    AAECH     0044H     UNIT         ?C?LDIV
            CODE    AB30H     0043H     UNIT         ?PR?_GENERATECRC?EPH1660
            CODE    AB73H     0043H     UNIT         ?PR?_STKDELA?OS_CPU_C
            CODE    ABB6H     0042H     UNIT         ?PR?_BYTE_PROGRAM?PCT25VF
            CODE    ABF8H     0042H     UNIT         ?PR?_STKDELB?OS_CPU_C
            CODE    AC3AH     0041H     UNIT         ?PR?DISPLAY_DOT?LCD
            CODE    AC7BH     0041H     UNIT         ?PR?_ADDRCOMPARE?SINGLEBUS
BL51 BANKED LINKER/LOCATER V6.22                                                      07/10/2019  15:34:23  PAGE 5


            CODE    ACBCH     0040H     UNIT         ?PR?_GETTITLELENGTH?LCD
            CODE    ACFCH     003FH     UNIT         ?PR?_SHOWTALKFACE?LCD
            CODE    AD3BH     003FH     UNIT         ?PR?SHOWSTARTINFUSIONCALL?LCD
            CODE    AD7AH     003FH     UNIT         ?PR?SHOWSTARTSERVICECALL?LCD
            CODE    ADB9H     003FH     UNIT         ?PR?SHOWSTARTEMERGENCYCALL?LCD
            CODE    ADF8H     003FH     UNIT         ?PR?SHOWSTARTHELPCALL?LCD
            CODE    AE37H     003FH     UNIT         ?PR?_READ?PCT25VF
            CODE    AE76H     003DH     UNIT         ?PR?_BLOCK_ERASE_64K?PCT25VF
            CODE    AEB3H     003CH     UNIT         ?PR?__OSTASKCREATE?OS_CORE
            CODE    AEEFH     003BH     UNIT         ?PR?DISSENDPINBUGFACE?LCD
            CODE    AF2AH     0039H     UNIT         ?PR?_OSQCREATE?OS_Q
            CODE    AF63H     0038H     UNIT         ?PR?_DIRADDRCOMPARE?SINGLEBUS
            CODE    AF9BH     0035H     UNIT         ?PR?_SEND_DATA_BYTE?MAIN
            CODE    AFD0H     0035H     UNIT         ?PR?SINGLEBUSINIT?SINGLEBUS
            CODE    B005H     0035H     UNIT         ?PR?_ISSINGLEITEM?UART
            CODE    B03AH     0034H     UNIT         ?PR?POLL_SO?PCT25VF
            CODE    B06EH     0033H     UNIT         ?PR?LOADCTX?OS_CPU_A
            CODE    B0A1H     002FH     UNIT         ?PR?_SETSCROLLAREA?LCD
            CODE    B0D0H     002FH     UNIT         ?PR?OSINTCTXSW?OS_CPU_A
            CODE    B0FFH     002DH     UNIT         ?PR?WREN_AAI_CHECK?PCT25VF
            CODE    B12CH     002CH     UNIT         ?PR?_AUTO_ADD_INCB_EBSY?PCT25VF
            CODE    B158H     002AH     UNIT         ?PR?_READ_ID?PCT25VF
            CODE    B182H     002AH     UNIT         ?PR?WAIT_BUSY?PCT25VF
            CODE    B1ACH     002AH     UNIT         ?PR?WAIT_BUSY_AAI?PCT25VF
            CODE    B1D6H     0029H     UNIT         ?PR?_SEND_SSD1963_DATA?LCD
            CODE    B1FFH     0028H     UNIT         ?PR?WREN_CHECK?PCT25VF
            CODE    B227H     0026H     UNIT         ?PR?GET_BYTE?PCT25VF
            CODE    B24DH     0026H     UNIT         ?PR?_OSTASKSTKDEL?OS_CPU_C
            CODE    B273H     0024H     UNIT         ?PR?_W25QXX_WRSR?PCT25VF
            CODE    B297H     0024H     UNIT         ?PR?OSINTEXIT?OS_CORE
            CODE    B2BBH     0023H     UNIT         ?PR?_MASTERSPI_SEND_EPH1660_COMMAND?EPH1660
            CODE    B2DEH     0023H     UNIT         ?PR?SST25VF_INIT?PCT25VF
            CODE    B301H     0023H     UNIT         ?PR?_AUTO_ADD_INCB?PCT25VF
            CODE    B324H     0023H     UNIT         ?PR?_OSTIMEDLY?OS_CORE
            CODE    B347H     0022H     UNIT         ?PR?USERTICKTIMER?MAIN
            CODE    B369H     0021H     UNIT         ?PR?DISPLAY_CHINESE_MUL?LCD
            CODE    B38AH     0020H     UNIT         ?PR?BL_OFF?LCD
            CODE    B3AAH     0020H     UNIT         ?PR?BUS0MANAGE?SINGLEBUS
            CODE    B3CAH     001FH     UNIT         ?PR?MAIN?MAIN
            CODE    B3E9H     001FH     UNIT         ?PR?EPH1660MASTERSPI?SPI
            CODE    B408H     001FH     UNIT         ?PR?OSTIMETICK?OS_CORE
            CODE    B427H     001EH     UNIT         ?PR?SHOWCALLSUCCESS?LCD
            CODE    B445H     001EH     UNIT         ?PR?SHOWSTARTRFNUMSET?LCD
            CODE    B463H     001EH     UNIT         ?PR?SHOWRFNUMSETOK?LCD
            CODE    B481H     001EH     UNIT         ?PR?_DELAY_NMS?PCT25VF
            CODE    B49FH     001DH     UNIT         ?PR?MCUMASTERSPI?SPI
            CODE    B4BCH     001CH     UNIT         ?PR?SHOWNUMSETOK?LCD
            CODE    B4D8H     001CH     UNIT         ?PR?_WRSR?PCT25VF
            CODE    B4F4H     001BH     UNIT         ?PR?MASTERSPIINITIEPH1660?EPH1660
            CODE    B50FH     0019H     UNIT         ?PR?_DELAYMS?EPH1660
            CODE    B528H     0019H     UNIT         ?PR?_DISPATCHMESSAGE?MAIN
            CODE    B541H     0019H     UNIT         ?PR?_OSTASKRESUME?OS_CORE
            CODE    B55AH     0018H     UNIT         ?CO?MAIN
            CODE    B572H     0018H     UNIT         ?PR?SST25VF_LOCK?PCT25VF
            CODE    B58AH     0018H     UNIT         ?PR?_OS_TASKSUSPEND?OS_CORE
            CODE    B5A2H     0018H     UNIT         ?PR?OSFINDNEXTRUNNINGTASK?OS_CORE
            CODE    B5BAH     0018H     UNIT         ?PR?_STKDELC?OS_CPU_C
BL51 BANKED LINKER/LOCATER V6.22                                                      07/10/2019  15:34:23  PAGE 6


            CODE    B5D2H     0017H     UNIT         ?PR?RESETEPH1660?EPH1660
            CODE    B5E9H     0017H     UNIT         ?PR?TIMEROUTMANAGER?SINGLEBUS
            CODE    B600H     0017H     UNIT         ?PR?SST25VF_UNLOCK?PCT25VF
            CODE    B617H     0016H     UNIT         ?PR?_IAPWRITEBYTE?IAP
            CODE    B62DH     0015H     UNIT         ?PR?FLASH_LOCK?PCT25VF
            CODE    B642H     0015H     UNIT         ?PR?FLASH_UNLOCK?PCT25VF
            CODE    B657H     0015H     UNIT         ?PR?_DELAY_NUS?PCT25VF
            CODE    B66CH     0015H     UNIT         ?PR?_STRLEN?STRLEN
            CODE    B681H     0014H     UNIT         ?PR?_IAPREADBYTE?IAP
            CODE    B695H     0014H     UNIT         ?PR?OSSCHED?OS_CORE
            CODE    B6A9H     0013H     UNIT         ?PR?_SETSCROLLSTART?LCD
            CODE    B6BCH     0013H     UNIT         ?PR?_SEND_BYTE?PCT25VF
            CODE    B6CFH     0012H     UNIT         ?PR?_IAPERASE?IAP
            CODE    B6E1H     0011H     UNIT         ?PR?SET_VISUALPAGE?LCD
            CODE    B6F2H     0011H     UNIT         ?PR?READ_STATUS_REGISTER?PCT25VF
            CODE    B703H     0011H     UNIT         ?PR?OSINIT?OS_CORE
            CODE    B714H     0010H     UNIT         ?PR?W25QXX_LOCK?PCT25VF
            CODE    B724H     0010H     UNIT         ?PR?OSCPUINIT?OS_CPU_C
            CODE    B734H     000FH     UNIT         ?PR?_SEND_SSD1963_COMMAND?LCD
            CODE    B743H     000FH     UNIT         ?PR?_BCDTOHEX?SINGLEBUS
            CODE    B752H     000FH     UNIT         ?PR?W25QXX_UNLOCK?PCT25VF
            CODE    B761H     000EH     UNIT         ?PR?_SSD1963DATA_16?LCD
            CODE    B76FH     000EH     UNIT         ?PR?BUS0RECINT?SINGLEBUS
            CODE    B77DH     000EH     UNIT         ?PR?WREN?PCT25VF
            CODE    B78BH     000DH     UNIT         ?PR?_SPI_WRITEBYTE?SPI
            CODE    B798H     000DH     UNIT         ?PR?OSCTXSW?OS_CPU_A
            CODE    B7A5H     000CH     UNIT         ?PR?USARTMANAGER?UART
            CODE    B7B1H     000CH     UNIT         ?PR?_OSTASKSUSPEND?OS_CORE
            CODE    B7BDH     000BH     UNIT         ?PR?READ_SSD1963_DATA?LCD
            CODE    B7C8H     000BH     UNIT         ?PR?_MAKECH0TIMEROUT?SINGLEBUS
            CODE    B7D3H     000BH     UNIT         ?PR?EWSR?PCT25VF
            CODE    B7DEH     000BH     UNIT         ?PR?WRDI?PCT25VF
            CODE    B7E9H     000BH     UNIT         ?PR?EBSY?PCT25VF
            CODE    B7F4H     000BH     UNIT         ?PR?DBSY?PCT25VF
            CODE    B7FFH     000BH     UNIT         ?PR?CHIP_ERASE?PCT25VF
            CODE    B80AH     0009H     UNIT         ?CO?OS_CORE
            CODE    B813H     0008H     UNIT         ?PR?REC_GT23_DATA?GT23
            CODE    B81BH     0008H     UNIT         ?PR?DISABLEIAP?IAP
            CODE    B823H     0008H     UNIT         ?PR?BL_ON?LCD
            CODE    B82BH     0007H     UNIT         ?PR?_GETMESSAGE?MAIN
            CODE    B832H     0006H     UNIT         ?PR?_ENABLEIAP?IAP
            CODE    B838H     0006H     UNIT         ?PR?CE_LOW?PCT25VF



OVERLAY MAP OF MODULE:   CTFJ-DISP-V4-6 (EPH1660)


SEGMENT                                             BIT_GROUP          XDATA_GROUP
  +--> CALLED SEGMENT                            START    LENGTH     START    LENGTH
------------------------------------------------------------------------------------
?PR?UART0?UART                                   -----    -----      029AH    0004H

*** NEW ROOT ***************************************************

?PR?OSTICKISR?OS_CPU_C                           -----    -----      -----    -----
  +--> ?PR?USERTICKTIMER?MAIN
BL51 BANKED LINKER/LOCATER V6.22                                                      07/10/2019  15:34:23  PAGE 7


  +--> ?PR?OSTIMETICK?OS_CORE
  +--> ?PR?OSINTEXIT?OS_CORE

?PR?OSTIMETICK?OS_CORE                           -----    -----      -----    -----
  +--> ?CO?OS_CORE
  +--> ?PR?OSSCHED?OS_CORE

?PR?OSSCHED?OS_CORE                              -----    -----      -----    -----
  +--> ?PR?OSFINDNEXTRUNNINGTASK?OS_CORE
  +--> ?PR?OSCTXSW?OS_CPU_A

?PR?OSCTXSW?OS_CPU_A                             -----    -----      -----    -----
  +--> ?CO?OS_CORE
  +--> ?PR?C_OSCTXSW?OS_CPU_A

?PR?C_OSCTXSW?OS_CPU_A                           -----    -----      -----    -----
  +--> ?PR?LOADCTX?OS_CPU_A

?PR?LOADCTX?OS_CPU_A                             -----    -----      -----    -----
  +--> ?CO?OS_CORE

?PR?OSINTEXIT?OS_CORE                            -----    -----      -----    -----
  +--> ?PR?OSFINDNEXTRUNNINGTASK?OS_CORE
  +--> ?PR?OSINTCTXSW?OS_CPU_A

?PR?OSINTCTXSW?OS_CPU_A                          -----    -----      -----    -----
  +--> ?PR?OSCTXSW?OS_CPU_A
  +--> ?CO?OS_CORE
  +--> ?PR?C_OSCTXSW?OS_CPU_A

*** NEW ROOT ***************************************************

?C_C51STARTUP                                    -----    -----      -----    -----
  +--> ?PR?MAIN?MAIN
  +--> ?C_INITSEG

?PR?MAIN?MAIN                                    -----    -----      -----    -----
  +--> ?PR?_DELAYMS?EPH1660
  +--> ?PR?OSINIT?OS_CORE
  +--> ?PR?MAINTASK?MAIN
  +--> ?PR?__OSTASKCREATE?OS_CORE

?PR?OSINIT?OS_CORE                               -----    -----      -----    -----
  +--> ?PR?OSCPUINIT?OS_CPU_C

?PR?MAINTASK?MAIN                                -----    -----      029EH    0001H
  +--> ?PR?INIT?MAIN
  +--> ?PR?_OSQCREATE?OS_Q
  +--> ?PR?BUS0MANAGE?SINGLEBUS
  +--> ?PR?__OSTASKCREATE?OS_CORE
  +--> ?PR?TIMEROUTMANAGER?SINGLEBUS
  +--> ?PR?_GETMESSAGE?MAIN
  +--> ?PR?_DISPATCHMESSAGE?MAIN
  +--> ?PR?USART0RECDEAL?UART
  +--> ?PR?_STOREDATACHECK?UART
  +--> ?PR?_SHOWITEM?LCD
  +--> ?PR?SHOWPATIENTBASEINFO?LCD
BL51 BANKED LINKER/LOCATER V6.22                                                      07/10/2019  15:34:23  PAGE 8


  +--> ?PR?SET_VISUALPAGE?LCD
  +--> ?PR?_SECTORDATACOPY?UART
  +--> ?PR?_WRITE_CONT?PCT25VF
  +--> ?PR?SHOWBEDFACEFORM?LCD
  +--> ?PR?_READ_CONT?PCT25VF

?PR?INIT?MAIN                                    -----    -----      -----    -----
  +--> ?PR?_DELAYMS?EPH1660
  +--> ?PR?MCUMASTERSPI?SPI
  +--> ?PR?INITPARAMETER?SINGLEBUS
  +--> ?PR?USARTINIT?UART
  +--> ?PR?_SEND_DATA_BYTE?MAIN
  +--> ?PR?_READ_ID?PCT25VF
  +--> ?PR?FLASH_LOCK?PCT25VF
  +--> ?PR?SINGLEBUSINIT?SINGLEBUS
  +--> ?PR?INITSSD1963?LCD
  +--> ?PR?SHOWPOWERUPFACE?LCD
  +--> ?PR?_MAKECH0TIMEROUT?SINGLEBUS
  +--> ?PR?SHOWBEDFACE?LCD

?PR?INITPARAMETER?SINGLEBUS                      -----    -----      029FH    0001H
  +--> ?PR?_PARACRCCHECK?SINGLEBUS
  +--> ?PR?_ENABLEIAP?IAP
  +--> ?PR?_IAPREADBYTE?IAP
  +--> ?PR?DISABLEIAP?IAP
  +--> ?CO?PARAMETER
  +--> ?PR?_READPARAMETER?SINGLEBUS
  +--> ?PR?_SAVEPARAMETER?SINGLEBUS

?PR?_PARACRCCHECK?SINGLEBUS                      -----    -----      02A0H    0005H
  +--> ?PR?_ENABLEIAP?IAP
  +--> ?PR?_IAPREADBYTE?IAP
  +--> ?PR?DISABLEIAP?IAP

?PR?_READPARAMETER?SINGLEBUS                     -----    -----      02A0H    0006H
  +--> ?PR?_ENABLEIAP?IAP
  +--> ?PR?_IAPREADBYTE?IAP
  +--> ?PR?DISABLEIAP?IAP

?PR?_SAVEPARAMETER?SINGLEBUS                     -----    -----      02A3H    0006H
  +--> ?PR?_ENABLEIAP?IAP
  +--> ?PR?_IAPERASE?IAP
  +--> ?PR?_IAPWRITEBYTE?IAP
  +--> ?PR?DISABLEIAP?IAP

?PR?_SEND_DATA_BYTE?MAIN                         -----    -----      029FH    0002H
  +--> ?PR?_DELAY_NMS?PCT25VF

?PR?_READ_ID?PCT25VF                             -----    -----      029FH    0002H
  +--> ?PR?CE_LOW?PCT25VF
  +--> ?PR?_SEND_BYTE?PCT25VF
  +--> ?PR?GET_BYTE?PCT25VF
  +--> ?PR?CE_HIGH?PCT25VF

?PR?_SEND_BYTE?PCT25VF                           -----    -----      -----    -----
  +--> ?PR?_SPI_WRITEBYTE?SPI

BL51 BANKED LINKER/LOCATER V6.22                                                      07/10/2019  15:34:23  PAGE 9


?PR?GET_BYTE?PCT25VF                             -----    -----      -----    -----
  +--> ?PR?_SPI_WRITEBYTE?SPI

?PR?FLASH_LOCK?PCT25VF                           -----    -----      -----    -----
  +--> ?PR?W25QXX_LOCK?PCT25VF
  +--> ?PR?SST25VF_LOCK?PCT25VF

?PR?W25QXX_LOCK?PCT25VF                          -----    -----      -----    -----
  +--> ?PR?EWSR?PCT25VF
  +--> ?PR?WAIT_BUSY?PCT25VF
  +--> ?PR?_W25QXX_WRSR?PCT25VF

?PR?EWSR?PCT25VF                                 -----    -----      -----    -----
  +--> ?PR?CE_LOW?PCT25VF
  +--> ?PR?_SEND_BYTE?PCT25VF
  +--> ?PR?CE_HIGH?PCT25VF

?PR?WAIT_BUSY?PCT25VF                            -----    -----      02D0H    0002H
  +--> ?PR?READ_STATUS_REGISTER?PCT25VF
  +--> ?PR?_DELAY_NUS?PCT25VF

?PR?READ_STATUS_REGISTER?PCT25VF                 -----    -----      -----    -----
  +--> ?PR?CE_LOW?PCT25VF
  +--> ?PR?_SEND_BYTE?PCT25VF
  +--> ?PR?GET_BYTE?PCT25VF
  +--> ?PR?CE_HIGH?PCT25VF

?PR?_W25QXX_WRSR?PCT25VF                         -----    -----      02BAH    0002H
  +--> ?PR?CE_LOW?PCT25VF
  +--> ?PR?_SEND_BYTE?PCT25VF
  +--> ?PR?CE_HIGH?PCT25VF

?PR?SST25VF_LOCK?PCT25VF                         -----    -----      -----    -----
  +--> ?PR?EWSR?PCT25VF
  +--> ?PR?_DELAYMS?EPH1660
  +--> ?PR?_WRSR?PCT25VF

?PR?_WRSR?PCT25VF                                -----    -----      02BAH    0002H
  +--> ?PR?CE_LOW?PCT25VF
  +--> ?PR?_SEND_BYTE?PCT25VF
  +--> ?PR?CE_HIGH?PCT25VF

?PR?INITSSD1963?LCD                              -----    -----      -----    -----
  +--> ?PR?_DELAYMS?EPH1660
  +--> ?PR?_SEND_SSD1963_COMMAND?LCD
  +--> ?PR?_SEND_SSD1963_DATA?LCD
  +--> ?PR?_SETSCROLLAREA?LCD

?PR?_SEND_SSD1963_DATA?LCD                       -----    -----      -----    -----
  +--> ?PR?_SEND_SSD1963_COMMAND?LCD

?PR?_SETSCROLLAREA?LCD                           -----    -----      029FH    0002H
  +--> ?PR?_SEND_SSD1963_COMMAND?LCD
  +--> ?PR?_SEND_SSD1963_DATA?LCD

?PR?SHOWPOWERUPFACE?LCD                          -----    -----      -----    -----
  +--> ?PR?LCD_CLEAR?LCD
BL51 BANKED LINKER/LOCATER V6.22                                                      07/10/2019  15:34:23  PAGE 10


  +--> ?PR?GET_DOT_NUMBER?LCD
  +--> ?PR?GET_BASESIZE_MUL?LCD
  +--> ?CO?LCD
  +--> ?PR?DISPLAYSTRING?LCD
  +--> ?PR?_DISPLAYONECHAR?LCD
  +--> ?PR?SET_VISUALPAGE?LCD

?PR?LCD_CLEAR?LCD                                -----    -----      -----    -----
  +--> ?PR?_SET_DISPLAY_AREA?LCD
  +--> ?PR?_SEND_SSD1963_COMMAND?LCD

?PR?_SET_DISPLAY_AREA?LCD                        -----    -----      02B2H    000CH
  +--> ?PR?_SEND_SSD1963_COMMAND?LCD
  +--> ?PR?_SEND_SSD1963_DATA?LCD

?PR?DISPLAYSTRING?LCD                            -----    -----      -----    -----
  +--> ?PR?_GET_GT23_DATA?GT23
  +--> ?PR?_WRITEAREAHANDLERMUL?LCD
  +--> ?PR?DISPLAY_CHINESE_MUL?LCD
  +--> ?PR?DISPLAY_ASCII_MUL?LCD

?PR?_GET_GT23_DATA?GT23                          -----    -----      02AEH    0013H
  +--> ?PR?_READ_CONT?PCT25VF

?PR?_READ_CONT?PCT25VF                           -----    -----      02C1H    000FH
  +--> ?PR?CE_LOW?PCT25VF
  +--> ?PR?_SEND_BYTE?PCT25VF
  +--> ?PR?GET_BYTE?PCT25VF
  +--> ?PR?CE_HIGH?PCT25VF

?PR?_WRITEAREAHANDLERMUL?LCD                     -----    -----      02AEH    0004H

?PR?DISPLAY_CHINESE_MUL?LCD                      -----    -----      -----    -----
  +--> ?PR?_LCD_FANGDA_DIS_TEXT?LCD

?PR?_LCD_FANGDA_DIS_TEXT?LCD                     -----    -----      02AEH    0004H
  +--> ?PR?_SET_DISPLAY_AREA?LCD
  +--> ?PR?_SEND_SSD1963_COMMAND?LCD

?PR?DISPLAY_ASCII_MUL?LCD                        -----    -----      -----    -----
  +--> ?PR?_LCD_FANGDA_DIS_TEXT?LCD
  +--> ?CO?128X80SHENTI
  +--> ?PR?_DISPLAY_ASCII?LCD

?PR?_DISPLAY_ASCII?LCD                           -----    -----      02AEH    0004H
  +--> ?PR?_SET_DISPLAY_AREA?LCD
  +--> ?PR?_SEND_SSD1963_COMMAND?LCD

?PR?_DISPLAYONECHAR?LCD                          -----    -----      -----    -----
  +--> ?PR?DISPLAYDIGITSTRING?LCD

?PR?DISPLAYDIGITSTRING?LCD                       -----    -----      029FH    0001H
  +--> ?PR?_GET_GT23_DATA?GT23
  +--> ?PR?_WRITEAREAHANDLERMUL?LCD
  +--> ?PR?DISPLAY_ASCII_MUL?LCD

?PR?SET_VISUALPAGE?LCD                           -----    -----      -----    -----
BL51 BANKED LINKER/LOCATER V6.22                                                      07/10/2019  15:34:23  PAGE 11


  +--> ?PR?_SETSCROLLSTART?LCD

?PR?_SETSCROLLSTART?LCD                          -----    -----      -----    -----
  +--> ?PR?_SEND_SSD1963_COMMAND?LCD
  +--> ?PR?_SEND_SSD1963_DATA?LCD

?PR?SHOWBEDFACE?LCD                              -----    -----      02A3H    0003H
  +--> ?PR?_READ_CONT?PCT25VF
  +--> ?PR?_STOREDATACHECK?UART
  +--> ?PR?SHOWBEDFACEFORM?LCD
  +--> ?PR?_SECTORDATACOPY?UART
  +--> ?PR?_WRITE_CONT?PCT25VF
  +--> ?CO?LCD
  +--> ?PR?_SHOWITEM?LCD
  +--> ?PR?SHOWPATIENTBASEINFO?LCD
  +--> ?PR?SET_VISUALPAGE?LCD

?PR?_STOREDATACHECK?UART                         -----    -----      02A6H    0008H
  +--> ?PR?_READ_CONT?PCT25VF
  +--> ?PR?_READ?PCT25VF

?PR?_READ?PCT25VF                                -----    -----      02AEH    0004H
  +--> ?PR?CE_LOW?PCT25VF
  +--> ?PR?_SEND_BYTE?PCT25VF
  +--> ?PR?GET_BYTE?PCT25VF
  +--> ?PR?CE_HIGH?PCT25VF

?PR?SHOWBEDFACEFORM?LCD                          -----    -----      02A6H    0008H
  +--> ?PR?LCD_CLEAR?LCD
  +--> ?PR?_WRITE_CONT?PCT25VF
  +--> ?CO?LCD
  +--> ?PR?_GETCOLOR?LCD
  +--> ?PR?DISPLAYBLOCK?LCD
  +--> ?PR?_GET_SIZE_MUL_START_XY?LCD
  +--> ?PR?DISPLAYSTRINGLEN?LCD
  +--> ?PR?_READ_CONT?PCT25VF
  +--> ?PR?_GETTITLE?LCD
  +--> ?PR?_GETTITLELENGTH?LCD
  +--> ?PR?GET_DOT_NUMBER?LCD
  +--> ?PR?GET_BASESIZE_MUL?LCD

?PR?_WRITE_CONT?PCT25VF                          -----    -----      02B0H    000AH
  +--> ?PR?FLASH_UNLOCK?PCT25VF
  +--> ?PR?WREN?PCT25VF
  +--> ?PR?_SECTOR_ERASE?PCT25VF
  +--> ?PR?WAIT_BUSY?PCT25VF
  +--> ?PR?_AAI_WRITE?PCT25VF
  +--> ?PR?_FLASH_BUFFERWRITE?PCT25VF
  +--> ?PR?_BYTE_PROGRAM?PCT25VF
  +--> ?PR?FLASH_LOCK?PCT25VF

?PR?FLASH_UNLOCK?PCT25VF                         -----    -----      -----    -----
  +--> ?PR?W25QXX_UNLOCK?PCT25VF
  +--> ?PR?SST25VF_UNLOCK?PCT25VF

?PR?W25QXX_UNLOCK?PCT25VF                        -----    -----      -----    -----
  +--> ?PR?EWSR?PCT25VF
BL51 BANKED LINKER/LOCATER V6.22                                                      07/10/2019  15:34:23  PAGE 12


  +--> ?PR?WAIT_BUSY?PCT25VF
  +--> ?PR?_W25QXX_WRSR?PCT25VF

?PR?SST25VF_UNLOCK?PCT25VF                       -----    -----      -----    -----
  +--> ?PR?EWSR?PCT25VF
  +--> ?PR?_DELAYMS?EPH1660
  +--> ?PR?_WRSR?PCT25VF

?PR?WREN?PCT25VF                                 -----    -----      -----    -----
  +--> ?PR?CE_LOW?PCT25VF
  +--> ?PR?_SEND_BYTE?PCT25VF
  +--> ?PR?CE_HIGH?PCT25VF
  +--> ?PR?WAIT_BUSY?PCT25VF

?PR?_SECTOR_ERASE?PCT25VF                        -----    -----      02BAH    0004H
  +--> ?PR?CE_LOW?PCT25VF
  +--> ?PR?_SEND_BYTE?PCT25VF
  +--> ?PR?CE_HIGH?PCT25VF

?PR?_AAI_WRITE?PCT25VF                           -----    -----      02BAH    0009H
  +--> ?PR?WREN?PCT25VF
  +--> ?PR?_AUTO_ADD_INCA_EBSY?PCT25VF
  +--> ?PR?CE_LOW?PCT25VF
  +--> ?PR?_SEND_BYTE?PCT25VF
  +--> ?PR?CE_HIGH?PCT25VF
  +--> ?PR?POLL_SO?PCT25VF
  +--> ?PR?_AUTO_ADD_INCB_EBSY?PCT25VF

?PR?_AUTO_ADD_INCA_EBSY?PCT25VF                  -----    -----      02C3H    0006H
  +--> ?PR?EBSY?PCT25VF
  +--> ?PR?CE_LOW?PCT25VF
  +--> ?PR?_SEND_BYTE?PCT25VF
  +--> ?PR?CE_HIGH?PCT25VF
  +--> ?PR?POLL_SO?PCT25VF

?PR?EBSY?PCT25VF                                 -----    -----      -----    -----
  +--> ?PR?CE_LOW?PCT25VF
  +--> ?PR?_SEND_BYTE?PCT25VF
  +--> ?PR?CE_HIGH?PCT25VF

?PR?POLL_SO?PCT25VF                              -----    -----      02C9H    0003H
  +--> ?PR?CE_LOW?PCT25VF
  +--> ?PR?_DELAY_NUS?PCT25VF
  +--> ?PR?CE_HIGH?PCT25VF

?PR?_AUTO_ADD_INCB_EBSY?PCT25VF                  -----    -----      02C3H    0002H
  +--> ?PR?CE_LOW?PCT25VF
  +--> ?PR?_SEND_BYTE?PCT25VF
  +--> ?PR?CE_HIGH?PCT25VF
  +--> ?PR?POLL_SO?PCT25VF
  +--> ?PR?WRDI?PCT25VF
  +--> ?PR?DBSY?PCT25VF

?PR?WRDI?PCT25VF                                 -----    -----      -----    -----
  +--> ?PR?CE_LOW?PCT25VF
  +--> ?PR?_SEND_BYTE?PCT25VF
  +--> ?PR?CE_HIGH?PCT25VF
BL51 BANKED LINKER/LOCATER V6.22                                                      07/10/2019  15:34:23  PAGE 13



?PR?DBSY?PCT25VF                                 -----    -----      -----    -----
  +--> ?PR?CE_LOW?PCT25VF
  +--> ?PR?_SEND_BYTE?PCT25VF
  +--> ?PR?CE_HIGH?PCT25VF

?PR?_FLASH_BUFFERWRITE?PCT25VF                   -----    -----      02BAH    000DH
  +--> ?PR?_FLASH_PAGEWRITE?PCT25VF

?PR?_FLASH_PAGEWRITE?PCT25VF                     -----    -----      02C7H    0009H
  +--> ?PR?WREN?PCT25VF
  +--> ?PR?CE_LOW?PCT25VF
  +--> ?PR?_SEND_BYTE?PCT25VF
  +--> ?PR?CE_HIGH?PCT25VF
  +--> ?PR?WAIT_BUSY?PCT25VF

?PR?_BYTE_PROGRAM?PCT25VF                        -----    -----      02BAH    0005H
  +--> ?PR?CE_LOW?PCT25VF
  +--> ?PR?_SEND_BYTE?PCT25VF
  +--> ?PR?CE_HIGH?PCT25VF

?PR?_GETCOLOR?LCD                                -----    -----      -----    -----
  +--> ?CO?LCD

?PR?DISPLAYBLOCK?LCD                             -----    -----      02AEH    0004H
  +--> ?PR?_SET_DISPLAY_AREA?LCD
  +--> ?PR?_SEND_SSD1963_COMMAND?LCD

?PR?_GET_SIZE_MUL_START_XY?LCD                   -----    -----      02AEH    0005H
  +--> ?PR?_GETTITLE?LCD
  +--> ?PR?_STRCAT?STRCAT
  +--> ?PR?_GETTITLELENGTH?LCD
  +--> ?CO?LCD
  +--> ?PR?GET_DOT_NUMBER?LCD
  +--> ?PR?GET_BASESIZE_MUL?LCD

?PR?_GETTITLE?LCD                                -----    -----      -----    -----
  +--> ?CO?LCD

?PR?_STRCAT?STRCAT                               -----    -----      02B3H    0009H

?PR?DISPLAYSTRINGLEN?LCD                         -----    -----      -----    -----
  +--> ?PR?_GET_GT23_DATA?GT23
  +--> ?PR?_WRITEAREAHANDLERMUL?LCD
  +--> ?PR?DISPLAY_CHINESE_MUL?LCD
  +--> ?PR?DISPLAY_ASCII_MUL?LCD

?PR?_SECTORDATACOPY?UART                         -----    -----      02A6H    000AH
  +--> ?PR?_READ_CONT?PCT25VF
  +--> ?PR?_WRITE_CONT?PCT25VF

?PR?_SHOWITEM?LCD                                -----    -----      02A6H    0004H
  +--> ?PR?_READ_CONT?PCT25VF
  +--> ?PR?_WRITE_CONT?PCT25VF
  +--> ?PR?_READ?PCT25VF
  +--> ?PR?_GETCOLOR?LCD
  +--> ?PR?DISPLAYBLOCK?LCD
BL51 BANKED LINKER/LOCATER V6.22                                                      07/10/2019  15:34:23  PAGE 14


  +--> ?PR?_GET_SIZE_MUL_START_XY?LCD
  +--> ?PR?DISPLAYSTRINGLEN?LCD
  +--> ?PR?SET_VISUALPAGE?LCD

?PR?SHOWPATIENTBASEINFO?LCD                      -----    -----      02A6H    0005H
  +--> ?PR?_READ_CONT?PCT25VF
  +--> ?PR?_WRITE_CONT?PCT25VF
  +--> ?PR?_READ?PCT25VF
  +--> ?PR?_GETCOLOR?LCD
  +--> ?PR?DISPLAYBLOCK?LCD
  +--> ?PR?_GET_SIZE_MUL_START_XY?LCD
  +--> ?PR?DISPLAYSTRINGLEN?LCD
  +--> ?PR?SET_VISUALPAGE?LCD

?PR?BUS0MANAGE?SINGLEBUS                         -----    -----      -----    -----
  +--> ?PR?_OSQPOST?OS_Q
  +--> ?PR?_OSWAIT?OS_CORE

?PR?_OSQPOST?OS_Q                                -----    -----      -----    -----
  +--> ?CO?OS_CORE
  +--> ?PR?_OSTASKRESUME?OS_CORE

?PR?_OSTASKRESUME?OS_CORE                        -----    -----      -----    -----
  +--> ?CO?OS_CORE
  +--> ?PR?OSSCHED?OS_CORE

?PR?_OSWAIT?OS_CORE                              -----    -----      -----    -----
  +--> ?PR?_OSTASKSUSPEND?OS_CORE
  +--> ?PR?_OSTIMEDLY?OS_CORE
  +--> ?PR?_OS_TASKSUSPEND?OS_CORE
  +--> ?PR?OSSCHED?OS_CORE

?PR?_OSTASKSUSPEND?OS_CORE                       -----    -----      -----    -----
  +--> ?PR?_OS_TASKSUSPEND?OS_CORE
  +--> ?PR?OSSCHED?OS_CORE

?PR?_OS_TASKSUSPEND?OS_CORE                      -----    -----      -----    -----
  +--> ?CO?OS_CORE

?PR?_OSTIMEDLY?OS_CORE                           -----    -----      -----    -----
  +--> ?PR?_OS_TASKSUSPEND?OS_CORE
  +--> ?PR?OSSCHED?OS_CORE

?PR?__OSTASKCREATE?OS_CORE                       -----    -----      -----    -----
  +--> ?CO?OS_CORE
  +--> ?PR?_OSTASKSTKINIT?OS_CPU_A
  +--> ?PR?OSSCHED?OS_CORE

?PR?_OSTASKSTKINIT?OS_CPU_A                      -----    -----      -----    -----
  +--> ?CO?OS_CORE

?PR?TIMEROUTMANAGER?SINGLEBUS                    -----    -----      -----    -----
  +--> ?PR?_OSWAIT?OS_CORE
  +--> ?PR?_OSQPOST?OS_Q

?PR?_GETMESSAGE?MAIN                             -----    -----      -----    -----
  +--> ?PR?_OSQPEND?OS_Q
BL51 BANKED LINKER/LOCATER V6.22                                                      07/10/2019  15:34:23  PAGE 15



?PR?_OSQPEND?OS_Q                                -----    -----      -----    -----
  +--> ?CO?OS_CORE
  +--> ?PR?_OS_TASKSUSPEND?OS_CORE
  +--> ?PR?OSSCHED?OS_CORE

?PR?_DISPATCHMESSAGE?MAIN                        -----    -----      -----    -----
  +--> ?PR?BUS0RECDEAL?SINGLEBUS
  +--> ?PR?BUS0SENDDEAL?SINGLEBUS
  +--> ?PR?TIMEROUTDEAL?SINGLEBUS

?PR?BUS0RECDEAL?SINGLEBUS                        -----    -----      029FH    0004H
  +--> ?PR?_MAKECH0TIMEROUT?SINGLEBUS
  +--> ?PR?CALCPARACRC?SINGLEBUS
  +--> ?PR?_SAVEPARAMETER?SINGLEBUS
  +--> ?PR?_SHOWITEM?LCD
  +--> ?PR?SET_VISUALPAGE?LCD
  +--> ?PR?BL_OFF?LCD
  +--> ?PR?BL_ON?LCD
  +--> ?PR?_DIRADDRCOMPARE?SINGLEBUS
  +--> ?PR?_BCDTOHEX?SINGLEBUS
  +--> ?PR?_SHOWBROADFACE?LCD
  +--> ?PR?_SHOWADDBEDCALLFACE?LCD
  +--> ?PR?_SHOWCALLFACE?LCD
  +--> ?PR?_ADDRCOMPARE?SINGLEBUS
  +--> ?PR?_WRITE_CONT?PCT25VF
  +--> ?PR?SHOWBEDFACE?LCD
  +--> ?PR?_BUS0OUTPUTDATA?SINGLEBUS
  +--> ?PR?SHOWSTARTNUMSET?LCD
  +--> ?PR?SHOWNUMSETOK?LCD
  +--> ?PR?SHOWCALLSUCCESS?LCD
  +--> ?PR?_SHOWTALKFACE?LCD
  +--> ?PR?TIMEINTERVAL?MAIN
  +--> ?PR?SHOWSTARTRFNUMSET?LCD
  +--> ?PR?SHOWRFNUMSETOK?LCD
  +--> ?PR?DISSENDPINBUGFACE?LCD
  +--> ?PR?_DELAY_NMS?PCT25VF
  +--> ?PR?USARTSENDSBNEXTFRAME?SINGLEBUS
  +--> ?PR?USARTINIT?UART

?PR?CALCPARACRC?SINGLEBUS                        -----    -----      02A3H    0004H
  +--> ?PR?_ENABLEIAP?IAP
  +--> ?PR?DISABLEIAP?IAP

?PR?BL_OFF?LCD                                   -----    -----      -----    -----
  +--> ?PR?_SEND_SSD1963_COMMAND?LCD
  +--> ?PR?_SEND_SSD1963_DATA?LCD

?PR?BL_ON?LCD                                    -----    -----      -----    -----
  +--> ?PR?_SEND_SSD1963_DATA?LCD
  +--> ?PR?_SEND_SSD1963_COMMAND?LCD

?PR?_SHOWBROADFACE?LCD                           0029H.5  0000H.1    02A3H    0002H
  +--> ?CO?LCD
  +--> ?PR?_DIGIT2ASCII?LCD
  +--> ?PR?_STRCAT?STRCAT
  +--> ?PR?_STRLEN?STRLEN
BL51 BANKED LINKER/LOCATER V6.22                                                      07/10/2019  15:34:23  PAGE 16


  +--> ?PR?_SHOWITEM?LCD

?PR?_SHOWADDBEDCALLFACE?LCD                      -----    -----      02A3H    0001H
  +--> ?CO?LCD
  +--> ?PR?_STRCAT?STRCAT
  +--> ?PR?_DIGIT2ASCII?LCD
  +--> ?PR?_STRLEN?STRLEN
  +--> ?PR?_SHOWITEM?LCD

?PR?_SHOWCALLFACE?LCD                            -----    -----      02A3H    0002H
  +--> ?PR?_DIGIT2ASCII?LCD
  +--> ?PR?_STRCAT?STRCAT
  +--> ?CO?LCD
  +--> ?PR?_STRLEN?STRLEN
  +--> ?PR?_SHOWITEM?LCD

?PR?_BUS0OUTPUTDATA?SINGLEBUS                    -----    -----      02A5H    0004H

?PR?SHOWSTARTNUMSET?LCD                          -----    -----      -----    -----
  +--> ?PR?_DIGIT2ASCII?LCD
  +--> ?PR?_STRCAT?STRCAT
  +--> ?CO?LCD
  +--> ?PR?_STRLEN?STRLEN
  +--> ?PR?_SHOWITEM?LCD

?PR?SHOWNUMSETOK?LCD                             -----    -----      -----    -----
  +--> ?CO?LCD
  +--> ?PR?_STRLEN?STRLEN
  +--> ?PR?_SHOWITEM?LCD

?PR?SHOWCALLSUCCESS?LCD                          -----    -----      -----    -----
  +--> ?CO?LCD
  +--> ?PR?_STRLEN?STRLEN
  +--> ?PR?_SHOWITEM?LCD

?PR?_SHOWTALKFACE?LCD                            -----    -----      -----    -----
  +--> ?CO?LCD
  +--> ?PR?_STRCAT?STRCAT
  +--> ?PR?_STRLEN?STRLEN
  +--> ?PR?_SHOWITEM?LCD

?PR?TIMEINTERVAL?MAIN                            -----    -----      02A3H    0012H
  +--> ?PR?ALLDAY?MAIN

?PR?ALLDAY?MAIN                                  -----    -----      02B5H    0006H
  +--> ?CO?MAIN

?PR?SHOWSTARTRFNUMSET?LCD                        -----    -----      -----    -----
  +--> ?CO?LCD
  +--> ?PR?_STRLEN?STRLEN
  +--> ?PR?_SHOWITEM?LCD

?PR?SHOWRFNUMSETOK?LCD                           -----    -----      -----    -----
  +--> ?CO?LCD
  +--> ?PR?_STRLEN?STRLEN
  +--> ?PR?_SHOWITEM?LCD

BL51 BANKED LINKER/LOCATER V6.22                                                      07/10/2019  15:34:23  PAGE 17


?PR?DISSENDPINBUGFACE?LCD                        -----    -----      -----    -----
  +--> ?CO?LCD
  +--> ?PR?_STRCAT?STRCAT
  +--> ?PR?_STRLEN?STRLEN
  +--> ?PR?_SHOWITEM?LCD
  +--> ?PR?BL_ON?LCD

?PR?USARTSENDSBNEXTFRAME?SINGLEBUS               -----    -----      02A3H    0004H
  +--> ?PR?_DELAY_NMS?PCT25VF
  +--> ?PR?_READ_CONT?PCT25VF
  +--> ?PR?_GETPSKCRC?UART

?PR?_GETPSKCRC?UART                              -----    -----      02A7H    0008H

?PR?BUS0SENDDEAL?SINGLEBUS                       -----    -----      029FH    0004H
  +--> ?PR?_MAKECH0TIMEROUT?SINGLEBUS
  +--> ?PR?CALCPARACRC?SINGLEBUS
  +--> ?PR?_SAVEPARAMETER?SINGLEBUS
  +--> ?PR?_DELAY_NMS?PCT25VF
  +--> ?PR?_READ_CONT?PCT25VF
  +--> ?PR?_GETPSKCRC?UART

?PR?TIMEROUTDEAL?SINGLEBUS                       -----    -----      029FH    0004H
  +--> ?PR?_BUS0OUTPUTDATA?SINGLEBUS
  +--> ?PR?SET_VISUALPAGE?LCD
  +--> ?PR?BL_OFF?LCD
  +--> ?PR?_DELAY_NMS?PCT25VF
  +--> ?PR?USARTSENDSBNEXTFRAME?SINGLEBUS

?PR?USART0RECDEAL?UART                           -----    -----      029FH    0006H
  +--> ?PR?_ADDRCOMPARE?SINGLEBUS
  +--> ?PR?_CHECKPSK?UART
  +--> ?PR?_BUS0OUTPUTDATA?SINGLEBUS
  +--> ?PR?BL_ON?LCD
  +--> ?PR?_WRITE_CONT?PCT25VF
  +--> ?PR?_CHECKFACEDATA?UART
  +--> ?PR?_CRCCHECKDATA?UART
  +--> ?PR?_SECTORDATACOPY?UART
  +--> ?PR?_STOREDATACHECK?UART
  +--> ?PR?_CHECKFORMDATA?UART

?PR?_CHECKPSK?UART                               -----    -----      02A5H    0008H

?PR?_CHECKFACEDATA?UART                          -----    -----      02A5H    0008H
  +--> ?PR?_READ_CONT?PCT25VF

?PR?_CRCCHECKDATA?UART                           -----    -----      02A5H    0009H
  +--> ?PR?_READ_CONT?PCT25VF

?PR?_CHECKFORMDATA?UART                          -----    -----      02A5H    0012H
  +--> ?PR?_READ_CONT?PCT25VF



SYMBOL TABLE OF MODULE:  CTFJ-DISP-V4-6 (EPH1660)

  VALUE           TYPE          NAME
BL51 BANKED LINKER/LOCATER V6.22                                                      07/10/2019  15:34:23  PAGE 18


  ----------------------------------

  -------         MODULE        EPH1660
  C:0000H         SYMBOL        _ICE_DUMMY_
  D:0080H         PUBLIC        P0
  D:0090H         PUBLIC        P1
  D:00A0H         PUBLIC        P2
  D:00B0H         PUBLIC        P3
  D:00C0H         PUBLIC        P4
  D:00C8H         PUBLIC        P5
  B:0020H.2       PUBLIC        MCUSndCmdFinishFlag
  X:02E1H         PUBLIC        SPIRecData
  B:0020H.0       PUBLIC        RecFramFinishFlag
  C:8069H         PUBLIC        Set_Area
  B:0020H.1       PUBLIC        MCUSndFlag
  C:AB36H         PUBLIC        _GenerateCRC
  C:B4F4H         PUBLIC        MasterSPIInitiEPH1660
  D:00A8H         PUBLIC        IE
  X:02E2H         PUBLIC        MCUSndDataBuff
  D:00B8H         PUBLIC        IP
  D:0020H         PUBLIC        flag
  C:8081H         PUBLIC        TestCode
  C:8099H         PUBLIC        ExitPowerSavingMode
  B:0090H.4       PUBLIC        EPH1660_CS
  D:00D8H         PUBLIC        CCON
  C:8071H         PUBLIC        SetInkingOff
  C:8091H         PUBLIC        SetNomalMode
  X:02E4H         PUBLIC        Num
  C:B5D2H         PUBLIC        ResetEPH1660
  C:80A1H         PUBLIC        SetStrokeOverWaitingTime
  D:0098H         PUBLIC        SCON
  D:0088H         PUBLIC        TCON
  B:0020H.3       PUBLIC        VerifyingFlag
  C:B2BBH         PUBLIC        _MasterSPI_Send_Eph1660_Command
  C:80B1H         PUBLIC        CRCTable
  B:00C0H.7       PUBLIC        RESETB
  D:00E0H         PUBLIC        ACC
  C:8061H         PUBLIC        GraphicMode
  B:0090H.3       PUBLIC        WKICOM
  C:B50FH         PUBLIC        _Delayms
  C:80A9H         PUBLIC        SoftwareReset
  D:00C1H         PUBLIC        WDT_CONTR
  D:00CDH         PUBLIC        SPSTAT
  X:02E5H         PUBLIC        MCUSndDataPosition
  C:A848H         PUBLIC        EPH1660Manager
  C:8059H         PUBLIC        Recognition_Mode
  X:02E6H         PUBLIC        MCUSndDataLength
  C:8089H         PUBLIC        SetEnaTapWake
  X:02E7H         PUBLIC        Rec_Data
  D:00D0H         PUBLIC        PSW
  C:8079H         PUBLIC        WakeUpEPH1660
  D:00CFH         PUBLIC        SPDAT
  -------         PROC          _DELAYMS
  D:0006H         SYMBOL        ms
  -------         DO            
  D:0004H         SYMBOL        i
  -------         ENDDO         
BL51 BANKED LINKER/LOCATER V6.22                                                      07/10/2019  15:34:23  PAGE 19


  C:B50FH         LINE#         76
  C:B50FH         LINE#         77
  C:B50FH         LINE#         79
  C:B513H         LINE#         80
  C:B527H         LINE#         81
  -------         ENDPROC       _DELAYMS
  -------         PROC          RESETEPH1660
  C:B5D2H         LINE#         85
  C:B5D2H         LINE#         86
  C:B5D2H         LINE#         87
  C:B5D4H         LINE#         88
  C:B5D6H         LINE#         89
  C:B5DDH         LINE#         90
  C:B5DFH         LINE#         91
  C:B5E6H         LINE#         92
  C:B5E8H         LINE#         93
  -------         ENDPROC       RESETEPH1660
  -------         PROC          L?0028
  -------         ENDPROC       L?0028
  -------         PROC          _GENERATECRC
  X:0305H         SYMBOL        Packet
  X:0308H         SYMBOL        size
  -------         DO            
  D:0006H         SYMBOL        i
  D:0007H         SYMBOL        value
  -------         ENDDO         
  C:AB36H         LINE#         96
  C:AB44H         LINE#         97
  C:AB44H         LINE#         100
  C:AB46H         LINE#         101
  C:AB48H         LINE#         102
  C:AB54H         LINE#         103
  C:AB68H         LINE#         104
  C:AB6DH         LINE#         105
  C:AB70H         LINE#         106
  C:AB72H         LINE#         107
  C:AB72H         LINE#         108
  -------         ENDPROC       _GENERATECRC
  -------         PROC          MASTERSPIINITIEPH1660
  C:B4F4H         LINE#         111
  C:B4F4H         LINE#         112
  C:B4F4H         LINE#         114
  C:B4F6H         LINE#         127
  C:B501H         LINE#         128
  C:B504H         LINE#         129
  C:B506H         LINE#         130
  C:B508H         LINE#         131
  -------         ENDPROC       MASTERSPIINITIEPH1660
  -------         PROC          _MASTERSPI_SEND_EPH1660_COMMAND
  D:0001H         SYMBOL        Databuf
  D:0005H         SYMBOL        l
  C:B2BBH         LINE#         136
  C:B2BBH         LINE#         137
  C:B2BBH         LINE#         138
  C:B2BDH         LINE#         139
  C:B2C2H         LINE#         140
  C:B2C7H         LINE#         141
BL51 BANKED LINKER/LOCATER V6.22                                                      07/10/2019  15:34:23  PAGE 20


  C:B2D1H         LINE#         142
  C:B2D3H         LINE#         143
  C:B2D6H         LINE#         144
  C:B2DBH         LINE#         145
  C:B2DDH         LINE#         146
  -------         ENDPROC       _MASTERSPI_SEND_EPH1660_COMMAND
  -------         PROC          EPH1660MANAGER
  C:A848H         LINE#         163
  C:A848H         LINE#         164
  C:A848H         LINE#         169
  C:A848H         LINE#         170
  C:A848H         LINE#         171
  C:A84BH         LINE#         172
  C:A852H         LINE#         173
  C:A855H         LINE#         174
  C:A855H         LINE#         175
  C:A857H         LINE#         176
  C:A85EH         LINE#         177
  C:A85EH         LINE#         178
  C:A86AH         LINE#         179
  C:A875H         LINE#         180
  C:A877H         LINE#         181
  C:A87EH         LINE#         183
  C:A87EH         LINE#         184
  C:A88AH         LINE#         185
  C:A895H         LINE#         186
  C:A895H         LINE#         188
  C:A895H         LINE#         190
  -------         ENDPROC       EPH1660MANAGER
  -------         ENDMOD        EPH1660

  -------         MODULE        GT23
  C:0000H         SYMBOL        _ICE_DUMMY_
  D:0080H         PUBLIC        P0
  D:0090H         PUBLIC        P1
  D:00A0H         PUBLIC        P2
  D:00B0H         PUBLIC        P3
  D:00C0H         PUBLIC        P4
  D:00C8H         PUBLIC        P5
  D:00A8H         PUBLIC        IE
  X:0136H         PUBLIC        GT23_32Address
  D:00B8H         PUBLIC        IP
  D:00D8H         PUBLIC        CCON
  D:0098H         PUBLIC        SCON
  D:0088H         PUBLIC        TCON
  X:013AH         PUBLIC        GT23_Rec_Length
  D:00E0H         PUBLIC        ACC
  C:B813H         PUBLIC        Rec_GT23_Data
  X:013BH         PUBLIC        GT23_Rec_Data
  X:01BDH         PUBLIC        GT23_16HAddress
  C:71E2H         PUBLIC        _Get_GT23_Data
  X:01BFH         PUBLIC        GT23_16LAddress
  D:00D0H         PUBLIC        PSW
  D:00CFH         PUBLIC        SPDAT
  -------         PROC          REC_GT23_DATA
  C:B813H         LINE#         41
  C:B813H         LINE#         42
BL51 BANKED LINKER/LOCATER V6.22                                                      07/10/2019  15:34:23  PAGE 21


  C:B813H         LINE#         43
  C:B818H         LINE#         44
  C:B81AH         LINE#         45
  -------         ENDPROC       REC_GT23_DATA
  -------         PROC          _GET_GT23_DATA
  D:0001H         SYMBOL        word
  X:02AEH         SYMBOL        word_size
  -------         DO            
  X:02AFH         SYMBOL        address1
  X:02B3H         SYMBOL        address2
  X:02B7H         SYMBOL        address3
  X:02BBH         SYMBOL        address4
  X:02BFH         SYMBOL        highbyte
  X:02C0H         SYMBOL        lowbyte
  -------         ENDDO         
  C:71E2H         LINE#         60
  C:71E7H         LINE#         61
  C:71E7H         LINE#         65
  C:71EFH         LINE#         66
  C:71F6H         LINE#         67
  C:71FDH         LINE#         68
  C:7213H         LINE#         69
  C:7213H         LINE#         70
  C:7223H         LINE#         71
  C:7223H         LINE#         73
  C:7223H         LINE#         74
  C:7223H         LINE#         75
  C:7242H         LINE#         76
  C:7256H         LINE#         77
  C:7266H         LINE#         78
  C:7269H         LINE#         80
  C:7269H         LINE#         81
  C:7283H         LINE#         82
  C:72A3H         LINE#         83
  C:72B3H         LINE#         84
  C:72B5H         LINE#         86
  C:72B5H         LINE#         87
  C:72D4H         LINE#         88
  C:72F4H         LINE#         89
  C:7307H         LINE#         90
  C:730AH         LINE#         99
  C:730AH         LINE#         100
  C:730AH         LINE#         101
  C:7334H         LINE#         102
  C:7334H         LINE#         103
  C:7341H         LINE#         104
  C:7341H         LINE#         105
  C:7341H         LINE#         106
  C:7341H         LINE#         107
  C:735BH         LINE#         108
  C:7385H         LINE#         109
  C:73A2H         LINE#         110
  C:73C0H         LINE#         111
  C:73D3H         LINE#         112
  C:73D6H         LINE#         113
  C:73D6H         LINE#         114
  C:73F0H         LINE#         115
BL51 BANKED LINKER/LOCATER V6.22                                                      07/10/2019  15:34:23  PAGE 22


  C:741AH         LINE#         116
  C:7437H         LINE#         117
  C:7456H         LINE#         118
  C:7477H         LINE#         119
  C:7477H         LINE#         120
  C:7477H         LINE#         122
  C:7477H         LINE#         124
  -------         ENDPROC       _GET_GT23_DATA
  -------         ENDMOD        GT23

  -------         MODULE        IAP
  C:0000H         SYMBOL        _ICE_DUMMY_
  D:0080H         PUBLIC        P0
  D:0090H         PUBLIC        P1
  D:00A0H         PUBLIC        P2
  D:00B0H         PUBLIC        P3
  D:00C0H         PUBLIC        P4
  D:00C8H         PUBLIC        P5
  D:00A8H         PUBLIC        IE
  C:B6CFH         PUBLIC        _IapErase
  D:00C5H         PUBLIC        IAP_CMD
  C:B81BH         PUBLIC        DisableIAP
  D:00B8H         PUBLIC        IP
  D:00C3H         PUBLIC        IAP_ADDRH
  D:00D8H         PUBLIC        CCON
  D:00C4H         PUBLIC        IAP_ADDRL
  C:B832H         PUBLIC        _EnableIAP
  C:B681H         PUBLIC        _IapReadByte
  D:0098H         PUBLIC        SCON
  D:0088H         PUBLIC        TCON
  C:B617H         PUBLIC        _IapWriteByte
  D:00C7H         PUBLIC        IAP_CONTR
  D:00E0H         PUBLIC        ACC
  D:00C2H         PUBLIC        IAP_DATA
  D:00C6H         PUBLIC        IAP_TRIG
  D:00D0H         PUBLIC        PSW
  -------         PROC          _ENABLEIAP
  D:0007H         SYMBOL        byCmd
  C:B832H         LINE#         42
  C:B832H         LINE#         43
  C:B832H         LINE#         44
  C:B835H         LINE#         45
  C:B837H         LINE#         46
  -------         ENDPROC       _ENABLEIAP
  -------         PROC          DISABLEIAP
  C:B81BH         LINE#         62
  C:B81BH         LINE#         63
  C:B81BH         LINE#         64
  C:B81EH         LINE#         65
  C:B820H         LINE#         66
  C:B822H         LINE#         67
  -------         ENDPROC       DISABLEIAP
  -------         PROC          _IAPWRITEBYTE
  D:0002H         SYMBOL        uiAddr
  D:0005H         SYMBOL        byData
  C:B617H         LINE#         83
  C:B61BH         LINE#         84
BL51 BANKED LINKER/LOCATER V6.22                                                      07/10/2019  15:34:23  PAGE 23


  C:B61BH         LINE#         85
  C:B61FH         LINE#         86
  C:B622H         LINE#         87
  C:B626H         LINE#         88
  C:B629H         LINE#         89
  C:B62CH         LINE#         90
  -------         ENDPROC       _IAPWRITEBYTE
  -------         PROC          _IAPREADBYTE
  D:0004H         SYMBOL        uiAddr
  C:B681H         LINE#         106
  C:B685H         LINE#         107
  C:B685H         LINE#         108
  C:B688H         LINE#         109
  C:B68CH         LINE#         110
  C:B68FH         LINE#         111
  C:B692H         LINE#         112
  C:B694H         LINE#         113
  -------         ENDPROC       _IAPREADBYTE
  -------         PROC          _IAPERASE
  D:0004H         SYMBOL        uiAddr
  C:B6CFH         LINE#         130
  C:B6D3H         LINE#         131
  C:B6D3H         LINE#         132
  C:B6D6H         LINE#         133
  C:B6DAH         LINE#         134
  C:B6DDH         LINE#         135
  C:B6E0H         LINE#         136
  -------         ENDPROC       _IAPERASE
  -------         ENDMOD        IAP

  -------         MODULE        LCD
  C:0000H         SYMBOL        _ICE_DUMMY_
  C:A35EH         PUBLIC        _DisplayOneChar
  X:023AH         PUBLIC        pDispData
  D:0080H         PUBLIC        P0
  C:B427H         PUBLIC        ShowCallSuccess
  C:923EH         PUBLIC        _ShowBroadFace
  D:00B2H         PUBLIC        P3M0
  D:0090H         PUBLIC        P1
  D:00B1H         PUBLIC        P3M1
  D:00A0H         PUBLIC        P2
  D:00B0H         PUBLIC        P3
  C:B761H         PUBLIC        _SSD1963Data_16
  D:00C0H         PUBLIC        P4
  X:023DH         PUBLIC        bcolor
  C:6B54H         PUBLIC        ColorArray
  D:00C8H         PUBLIC        P5
  C:B6E1H         PUBLIC        Set_VisualPage
  C:AD3BH         PUBLIC        ShowStartInfusionCall
  X:023FH         PUBLIC        fcolor
  X:0241H         PUBLIC        start_x
  X:0243H         PUBLIC        mul_row
  C:6240H         PUBLIC        ShowPatientBaseInfo
  C:AD7AH         PUBLIC        ShowStartServiceCall
  X:0244H         PUBLIC        start_y
  C:B823H         PUBLIC        BL_ON
  C:6B64H         PUBLIC        default_bed_form
BL51 BANKED LINKER/LOCATER V6.22                                                      07/10/2019  15:34:23  PAGE 24


  C:ACBCH         PUBLIC        _GetTitleLength
  C:A039H         PUBLIC        _Display_HLine
  D:00A8H         PUBLIC        IE
  C:B369H         PUBLIC        Display_Chinese_Mul
  X:0246H         PUBLIC        BedDataBuff
  C:B734H         PUBLIC        _Send_Ssd1963_Command
  X:0282H         PUBLIC        end_x
  C:A510H         PUBLIC        _Digit2ASCII
  X:0284H         PUBLIC        end_y
  C:86CEH         PUBLIC        _ShowCallFace
  C:964AH         PUBLIC        ShowStartNumSet
  B:00B0H.5       PUBLIC        BL_SW
  D:00B8H         PUBLIC        IP
  B:0090H.1       PUBLIC        SSD1963_RST
  C:A2F0H         PUBLIC        _Display_VLine
  C:B0A1H         PUBLIC        _SetScrollArea
  X:0286H         PUBLIC        page
  C:5ABDH         PUBLIC        ShowBedFace
  C:9C7AH         PUBLIC        _GetColor
  C:ACFCH         PUBLIC        _ShowTalkFace
  D:00D8H         PUBLIC        CCON
  X:0287H         PUBLIC        current_size
  C:93EBH         PUBLIC        _Display_ASCII
  C:8306H         PUBLIC        _GetTitle
  B:00C8H.3       PUBLIC        SSD1963_CD
  X:0288H         PUBLIC        fontbuf1
  X:0289H         PUBLIC        fontbuf2
  C:A11BH         PUBLIC        _ShowAddBedCallFace
  X:028AH         PUBLIC        DotWidth
  X:028BH         PUBLIC        fontbuf3
  C:9A91H         PUBLIC        get_basesize_mul
  C:B6A9H         PUBLIC        _SetScrollStart
  D:0098H         PUBLIC        SCON
  B:0029H.4       PUBLIC        fTitle_TextAtLine
  C:4D4BH         PUBLIC        _ShowItem
  D:0088H         PUBLIC        TCON
  C:A897H         PUBLIC        Display_ASCII_Mul
  X:028CH         PUBLIC        current_vert_spac
  X:028DH         PUBLIC        dot_number
  B:00B0H.7       PUBLIC        SSD1963_RD
  B:0090H.0       PUBLIC        SSD1963_CS
  C:7D96H         PUBLIC        _Display_ASCII_2
  C:45F0H         PUBLIC        ShowBedFaceForm
  B:00C0H.2       PUBLIC        SSD1963_TE
  C:B7BDH         PUBLIC        Read_Ssd1963_Data
  X:028EH         PUBLIC        size
  C:B4BCH         PUBLIC        ShowNumSetOk
  C:ADF8H         PUBLIC        ShowStartHelpCall
  C:8C72H         PUBLIC        _lcd_fangda_dis_text
  C:99F1H         PUBLIC        _Set_Display_Area
  D:00E0H         PUBLIC        ACC
  C:9B21H         PUBLIC        DisplayFrame
  C:8A59H         PUBLIC        DisplayBlock
  C:B1F4H         PUBLIC        _Send_Ssd1963_Data
  B:00B0H.6       PUBLIC        SSD1963_WR
  C:B38AH         PUBLIC        BL_OFF
  C:A437H         PUBLIC        DisplayDigitString
BL51 BANKED LINKER/LOCATER V6.22                                                      07/10/2019  15:34:23  PAGE 25


  C:B445H         PUBLIC        ShowStartRfNumSet
  C:9161H         PUBLIC        DisplayString
  C:891DH         PUBLIC        InitSSD1963
  C:9CDCH         PUBLIC        get_dot_number
  D:00C1H         PUBLIC        WDT_CONTR
  C:ADB9H         PUBLIC        ShowStartEmergencyCall
  C:A8E4H         PUBLIC        Lcd_Clear
  C:AC3AH         PUBLIC        Display_Dot
  X:028FH         PUBLIC        Length
  C:AEEFH         PUBLIC        DisSendPinBugFace
  C:7C23H         PUBLIC        ShowPowerUpFace
  X:0290H         PUBLIC        mul_col
  X:0291H         PUBLIC        ASCIIBuff
  C:6C0CH         PUBLIC        default_bed_data
  C:5EB4H         PUBLIC        _get_size_mul_start_xy
  C:8E96H         PUBLIC        DisplayStringLen
  X:0296H         PUBLIC        x
  C:B463H         PUBLIC        ShowRfNumSetOk
  X:0298H         PUBLIC        y
  D:00D0H         PUBLIC        PSW
  C:78DEH         PUBLIC        _WriteAreaHandlerMul
  -------         PROC          _SEND_SSD1963_COMMAND
  D:0007H         SYMBOL        ssd1963_command
  C:B734H         LINE#         163
  C:B734H         LINE#         164
  C:B734H         LINE#         165
  C:B736H         LINE#         166
  C:B738H         LINE#         167
  C:B73AH         LINE#         168
  C:B73CH         LINE#         169
  C:B73EH         LINE#         170
  C:B740H         LINE#         171
  C:B742H         LINE#         173
  -------         ENDPROC       _SEND_SSD1963_COMMAND
  C:B1F0H         SYMBOL        L?0574
  -------         PROC          L?0573
  -------         ENDPROC       L?0573
  C:B1F0H         SYMBOL        L?0574
  -------         PROC          _SEND_SSD1963_DATA
  D:0007H         SYMBOL        ssd1963_data
  C:B1F4H         LINE#         180
  C:B1F4H         LINE#         181
  C:B1F4H         LINE#         182
  C:B1F6H         LINE#         183
  C:B1F8H         LINE#         184
  C:B1FAH         LINE#         185
  C:B1FCH         LINE#         186
  C:B1FEH         LINE#         188
  -------         ENDPROC       _SEND_SSD1963_DATA
  -------         PROC          _SSD1963DATA_16
  D:0006H         SYMBOL        sdata
  C:B761H         LINE#         191
  C:B761H         LINE#         193
  C:B761H         LINE#         194
  C:B763H         LINE#         195
  C:B765H         LINE#         196
  C:B768H         LINE#         197
BL51 BANKED LINKER/LOCATER V6.22                                                      07/10/2019  15:34:23  PAGE 26


  C:B76AH         LINE#         198
  C:B76CH         LINE#         199
  C:B76EH         LINE#         200
  -------         ENDPROC       _SSD1963DATA_16
  -------         PROC          READ_SSD1963_DATA
  -------         DO            
  D:0007H         SYMBOL        RdData
  -------         ENDDO         
  C:B7BDH         LINE#         209
  C:B7BDH         LINE#         210
  C:B7BDH         LINE#         212
  C:B7BFH         LINE#         213
  C:B7C1H         LINE#         214
  C:B7C3H         LINE#         215
  C:B7C5H         LINE#         216
  C:B7C7H         LINE#         217
  C:B7C7H         LINE#         219
  -------         ENDPROC       READ_SSD1963_DATA
  -------         PROC          _SETSCROLLAREA
  X:029FH         SYMBOL        top
  D:0004H         SYMBOL        scroll
  D:0002H         SYMBOL        bottom
  C:B0A1H         LINE#         222
  C:B0A9H         LINE#         223
  C:B0A9H         LINE#         225
  C:B0AEH         LINE#         226
  C:B0B6H         LINE#         227
  C:B0BCH         LINE#         228
  C:B0C1H         LINE#         229
  C:B0C6H         LINE#         230
  C:B0CBH         LINE#         231
  -------         ENDPROC       _SETSCROLLAREA
  -------         PROC          _SETSCROLLSTART
  D:0004H         SYMBOL        line
  C:B6A9H         LINE#         234
  C:B6ADH         LINE#         235
  C:B6ADH         LINE#         236
  C:B6B2H         LINE#         237
  C:B6B7H         LINE#         238
  -------         ENDPROC       _SETSCROLLSTART
  -------         PROC          SET_VISUALPAGE
  C:B6E1H         LINE#         241
  C:B6E1H         LINE#         242
  C:B6E1H         LINE#         243
  -------         ENDPROC       SET_VISUALPAGE
  -------         PROC          INITSSD1963
  C:891DH         LINE#         252
  C:891DH         LINE#         253
  C:891DH         LINE#         255
  C:891FH         LINE#         256
  C:8921H         LINE#         257
  C:8923H         LINE#         259
  C:8925H         LINE#         260
  C:892CH         LINE#         261
  C:892EH         LINE#         262
  C:8935H         LINE#         263
  C:8937H         LINE#         264
BL51 BANKED LINKER/LOCATER V6.22                                                      07/10/2019  15:34:23  PAGE 27


  C:893EH         LINE#         269
  C:8943H         LINE#         270
  C:8948H         LINE#         271
  C:894DH         LINE#         272
  C:8952H         LINE#         274
  C:8957H         LINE#         275
  C:895CH         LINE#         277
  C:8961H         LINE#         278
  C:8966H         LINE#         279
  C:896BH         LINE#         284
  C:8970H         LINE#         289
  C:8975H         LINE#         290
  C:897AH         LINE#         291
  C:897FH         LINE#         292
  C:8984H         LINE#         296
  C:8989H         LINE#         297
  C:898EH         LINE#         298
  C:8993H         LINE#         299
  C:8998H         LINE#         300
  C:899DH         LINE#         301
  C:89A2H         LINE#         302
  C:89A7H         LINE#         303
  C:89ACH         LINE#         308
  C:89B1H         LINE#         311
  C:89B6H         LINE#         312
  C:89BBH         LINE#         314
  C:89BFH         LINE#         315
  C:89C4H         LINE#         316
  C:89C9H         LINE#         317
  C:89C9H         LINE#         318
  C:89CCH         LINE#         319
  C:89CFH         LINE#         322
  C:89D4H         LINE#         325
  C:89D9H         LINE#         326
  C:89DEH         LINE#         328
  C:89E2H         LINE#         329
  C:89E7H         LINE#         330
  C:89ECH         LINE#         331
  C:89ECH         LINE#         332
  C:89EFH         LINE#         335
  C:89F4H         LINE#         337
  C:89F9H         LINE#         344
  C:89FEH         LINE#         346
  C:8A03H         LINE#         352
  C:8A08H         LINE#         353
  C:8A0DH         LINE#         378
  C:8A12H         LINE#         379
  C:8A17H         LINE#         380
  C:8A1AH         LINE#         381
  C:8A1FH         LINE#         382
  C:8A24H         LINE#         384
  C:8A2FH         LINE#         398
  C:8A32H         LINE#         399
  C:8A35H         LINE#         400
  C:8A37H         LINE#         401
  C:8A37H         LINE#         402
  C:8A37H         LINE#         404
BL51 BANKED LINKER/LOCATER V6.22                                                      07/10/2019  15:34:23  PAGE 28


  C:8A37H         LINE#         406
  C:8A37H         LINE#         407
  C:8A37H         LINE#         408
  C:8A37H         LINE#         409
  C:8A3AH         LINE#         431
  -------         ENDPROC       INITSSD1963
  -------         PROC          BL_OFF
  C:B38AH         LINE#         444
  C:B38AH         LINE#         445
  C:B38AH         LINE#         446
  C:B38FH         LINE#         447
  C:B394H         LINE#         449
  C:B399H         LINE#         451
  C:B39DH         LINE#         452
  C:B3A2H         LINE#         453
  C:B3A2H         LINE#         454
  C:B3A5H         LINE#         456
  -------         ENDPROC       BL_OFF
  -------         PROC          BL_ON
  C:B823H         LINE#         461
  C:B823H         LINE#         462
  C:B823H         LINE#         463
  C:B823H         LINE#         464
  C:B823H         LINE#         466
  C:B823H         LINE#         468
  C:B823H         LINE#         469
  C:B823H         LINE#         470
  C:B823H         LINE#         471
  C:B826H         LINE#         473
  -------         ENDPROC       BL_ON
  -------         PROC          L?0572
  -------         ENDPROC       L?0572
  -------         PROC          _GETCOLOR
  D:0007H         SYMBOL        srgb
  C:9C7AH         LINE#         476
  C:9C7AH         LINE#         477
  C:9C7AH         LINE#         478
  C:9C80H         LINE#         479
  C:9C89H         LINE#         480
  C:9C92H         LINE#         481
  C:9C9BH         LINE#         482
  C:9CA4H         LINE#         483
  C:9CADH         LINE#         484
  C:9CB6H         LINE#         485
  C:9CBFH         LINE#         486
  C:9CC5H         LINE#         487
  C:9CCEH         LINE#         488
  C:9CD7H         LINE#         489
  C:9CDBH         LINE#         490
  -------         ENDPROC       _GETCOLOR
  -------         PROC          _SET_DISPLAY_AREA
  X:02B2H         SYMBOL        start_x
  X:02B4H         SYMBOL        end_x
  D:0002H         SYMBOL        start_y
  X:02B8H         SYMBOL        end_y
  -------         DO            
  X:02BAH         SYMBOL        shigh_x1
BL51 BANKED LINKER/LOCATER V6.22                                                      07/10/2019  15:34:23  PAGE 29


  X:02BBH         SYMBOL        slow_x1
  X:02BCH         SYMBOL        shigh_x2
  X:02BDH         SYMBOL        slow_x2
  D:0001H         SYMBOL        shigh_y1
  D:0005H         SYMBOL        slow_y1
  D:0006H         SYMBOL        shigh_y2
  D:0004H         SYMBOL        slow_y2
  -------         ENDDO         
  C:99F1H         LINE#         502
  C:99FFH         LINE#         503
  C:99FFH         LINE#         507
  C:9A13H         LINE#         508
  C:9A1FH         LINE#         510
  C:9A2CH         LINE#         511
  C:9A2FH         LINE#         512
  C:9A3CH         LINE#         513
  C:9A3FH         LINE#         514
  C:9A41H         LINE#         515
  C:9A45H         LINE#         516
  C:9A4FH         LINE#         517
  C:9A53H         LINE#         518
  C:9A58H         LINE#         519
  C:9A5EH         LINE#         520
  C:9A64H         LINE#         521
  C:9A6AH         LINE#         522
  C:9A70H         LINE#         523
  C:9A75H         LINE#         524
  C:9A7AH         LINE#         525
  C:9A7FH         LINE#         526
  C:9A84H         LINE#         527
  -------         ENDPROC       _SET_DISPLAY_AREA
  -------         PROC          LCD_CLEAR
  -------         DO            
  D:0004H         SYMBOL        k
  D:0002H         SYMBOL        j
  -------         ENDDO         
  C:A8E4H         LINE#         537
  C:A8E4H         LINE#         538
  C:A8E4H         LINE#         541
  C:A8FAH         LINE#         542
  C:A8FFH         LINE#         543
  C:A901H         LINE#         544
  C:A904H         LINE#         545
  C:A904H         LINE#         546
  C:A907H         LINE#         547
  C:A907H         LINE#         548
  C:A917H         LINE#         549
  C:A922H         LINE#         550
  C:A92DH         LINE#         551
  C:A92FH         LINE#         552
  -------         ENDPROC       LCD_CLEAR
  -------         PROC          DISPLAY_DOT
  C:AC3AH         LINE#         560
  C:AC3AH         LINE#         561
  C:AC3AH         LINE#         563
  C:AC61H         LINE#         564
  C:AC66H         LINE#         565
BL51 BANKED LINKER/LOCATER V6.22                                                      07/10/2019  15:34:23  PAGE 30


  C:AC68H         LINE#         566
  C:AC78H         LINE#         567
  C:AC7AH         LINE#         568
  -------         ENDPROC       DISPLAY_DOT
  -------         PROC          L?0577
  -------         ENDPROC       L?0577
  -------         PROC          _DISPLAY_HLINE
  X:0319H         SYMBOL        width
  C:A039H         LINE#         577
  C:A043H         LINE#         578
  C:A043H         LINE#         580
  C:A075H         LINE#         581
  C:A07AH         LINE#         582
  C:A07CH         LINE#         583
  C:A08AH         LINE#         584
  C:A08AH         LINE#         585
  C:A09AH         LINE#         586
  C:A09CH         LINE#         587
  C:A09EH         LINE#         588
  -------         ENDPROC       _DISPLAY_HLINE
  -------         PROC          _DISPLAY_VLINE
  X:031BH         SYMBOL        height
  C:A2F0H         LINE#         596
  C:A2F8H         LINE#         597
  C:A2F8H         LINE#         599
  C:A334H         LINE#         600
  C:A339H         LINE#         601
  C:A33BH         LINE#         602
  C:A349H         LINE#         603
  C:A349H         LINE#         604
  C:A359H         LINE#         605
  C:A35BH         LINE#         606
  C:A35DH         LINE#         607
  -------         ENDPROC       _DISPLAY_VLINE
  -------         PROC          DISPLAYFRAME
  C:9B21H         LINE#         611
  C:9B21H         LINE#         612
  C:9B21H         LINE#         614
  C:9B31H         LINE#         615
  C:9B34H         LINE#         616
  C:9B37H         LINE#         618
  C:9B47H         LINE#         619
  C:9B4AH         LINE#         620
  C:9B4DH         LINE#         623
  C:9B5CH         LINE#         624
  C:9B6CH         LINE#         625
  C:9B82H         LINE#         627
  C:9B91H         LINE#         628
  C:9BA1H         LINE#         629
  -------         ENDPROC       DISPLAYFRAME
  C:8A4EH         SYMBOL        L?0576
  -------         PROC          L?0575
  -------         ENDPROC       L?0575
  C:8A4EH         SYMBOL        L?0576
  -------         PROC          DISPLAYBLOCK
  -------         DO            
  X:02AEH         SYMBOL        width
BL51 BANKED LINKER/LOCATER V6.22                                                      07/10/2019  15:34:23  PAGE 31


  X:02B0H         SYMBOL        height
  D:0002H         SYMBOL        i
  D:0004H         SYMBOL        j
  -------         ENDDO         
  C:8A59H         LINE#         636
  C:8A59H         LINE#         637
  C:8A59H         LINE#         641
  C:8A7EH         LINE#         642
  C:8AA6H         LINE#         644
  C:8AD0H         LINE#         645
  C:8AD5H         LINE#         648
  C:8AF6H         LINE#         650
  C:8B17H         LINE#         652
  C:8B19H         LINE#         653
  C:8B29H         LINE#         654
  C:8B29H         LINE#         655
  C:8B39H         LINE#         656
  C:8B39H         LINE#         657
  C:8B49H         LINE#         658
  C:8B50H         LINE#         659
  C:8B57H         LINE#         660
  C:8B59H         LINE#         661
  -------         ENDPROC       DISPLAYBLOCK
  -------         PROC          DISPLAY_ASCII_MUL
  C:A897H         LINE#         669
  C:A897H         LINE#         670
  C:A897H         LINE#         672
  C:A8A6H         LINE#         673
  C:A8A6H         LINE#         674
  C:A8A6H         LINE#         675
  C:A8AAH         LINE#         676
  C:A8ACH         LINE#         677
  C:A8ACH         LINE#         678
  C:A8ACH         LINE#         679
  C:A8B0H         LINE#         680
  C:A8B2H         LINE#         681
  C:A8B2H         LINE#         682
  C:A8B9H         LINE#         683
  C:A8B9H         LINE#         685
  C:A8B9H         LINE#         686
  C:A8E3H         LINE#         687
  C:A8E3H         LINE#         689
  C:A8E3H         LINE#         691
  -------         ENDPROC       DISPLAY_ASCII_MUL
  -------         PROC          _DISPLAY_ASCII
  X:02AEH         SYMBOL        p
  -------         DO            
  X:02B0H         SYMBOL        i
  D:0005H         SYMBOL        j
  -------         ENDDO         
  C:93EBH         LINE#         702
  C:93F3H         LINE#         703
  C:93F3H         LINE#         708
  C:93FEH         LINE#         709
  C:93FEH         LINE#         711
  C:93FEH         LINE#         712
  C:9432H         LINE#         713
BL51 BANKED LINKER/LOCATER V6.22                                                      07/10/2019  15:34:23  PAGE 32


  C:943BH         LINE#         714
  C:943BH         LINE#         716
  C:943BH         LINE#         719
  C:943BH         LINE#         721
  C:9440H         LINE#         723
  C:9442H         LINE#         724
  C:9451H         LINE#         725
  C:9451H         LINE#         726
  C:9453H         LINE#         727
  C:9453H         LINE#         728
  C:947DH         LINE#         729
  C:947DH         LINE#         730
  C:9480H         LINE#         731
  C:9482H         LINE#         733
  C:9482H         LINE#         734
  C:9492H         LINE#         736
  C:9492H         LINE#         738
  C:9497H         LINE#         739
  C:94A5H         LINE#         740
  C:94B5H         LINE#         741
  C:94B7H         LINE#         742
  -------         ENDPROC       _DISPLAY_ASCII
  -------         PROC          _DISPLAY_ASCII_2
  X:02EFH         SYMBOL        p
  -------         DO            
  X:02F2H         SYMBOL        i
  X:02F4H         SYMBOL        j
  -------         ENDDO         
  C:7D96H         LINE#         752
  C:7DA1H         LINE#         753
  C:7DA1H         LINE#         758
  C:7DB6H         LINE#         759
  C:7DB6H         LINE#         760
  C:7DB6H         LINE#         761
  C:7DEAH         LINE#         762
  C:7DF3H         LINE#         763
  C:7DF5H         LINE#         764
  C:7DF5H         LINE#         765
  C:7E29H         LINE#         766
  C:7E32H         LINE#         767
  C:7E34H         LINE#         768
  C:7E34H         LINE#         769
  C:7E68H         LINE#         770
  C:7E71H         LINE#         771
  C:7E71H         LINE#         773
  C:7E71H         LINE#         776
  C:7E71H         LINE#         778
  C:7E76H         LINE#         780
  C:7E78H         LINE#         781
  C:7E87H         LINE#         782
  C:7E87H         LINE#         783
  C:7E96H         LINE#         784
  C:7E96H         LINE#         785
  C:7EC1H         LINE#         786
  C:7EC1H         LINE#         787
  C:7EC4H         LINE#         788
  C:7EC6H         LINE#         790
BL51 BANKED LINKER/LOCATER V6.22                                                      07/10/2019  15:34:23  PAGE 33


  C:7EC6H         LINE#         791
  C:7ED6H         LINE#         793
  C:7ED6H         LINE#         795
  C:7EDEH         LINE#         796
  C:7EE8H         LINE#         797
  C:7EF8H         LINE#         798
  C:7EFAH         LINE#         799
  -------         ENDPROC       _DISPLAY_ASCII_2
  -------         PROC          DISPLAY_CHINESE_MUL
  C:B369H         LINE#         808
  C:B369H         LINE#         809
  C:B369H         LINE#         810
  C:B37CH         LINE#         811
  C:B37CH         LINE#         813
  C:B37CH         LINE#         814
  C:B37CH         LINE#         815
  C:B37CH         LINE#         816
  C:B37CH         LINE#         817
  C:B380H         LINE#         818
  C:B382H         LINE#         820
  C:B382H         LINE#         821
  C:B382H         LINE#         822
  C:B382H         LINE#         823
  C:B382H         LINE#         824
  C:B382H         LINE#         825
  C:B389H         LINE#         826
  C:B389H         LINE#         828
  C:B389H         LINE#         830
  -------         ENDPROC       DISPLAY_CHINESE_MUL
  -------         PROC          _WRITEAREAHANDLERMUL
  D:0005H         SYMBOL        type
  -------         DO            
  X:02AEH         SYMBOL        old_x
  X:02B0H         SYMBOL        old_y
  C:7A67H         SYMBOL        fail
  -------         ENDDO         
  C:78DEH         LINE#         836
  C:78E0H         LINE#         837
  C:78E0H         LINE#         838
  C:78F0H         LINE#         839
  C:78FFH         LINE#         841
  C:7905H         LINE#         842
  C:7905H         LINE#         843
  C:792BH         LINE#         844
  C:792BH         LINE#         845
  C:793AH         LINE#         846
  C:796DH         LINE#         848
  C:796DH         LINE#         849
  C:7985H         LINE#         850
  C:79ACH         LINE#         851
  C:79AFH         LINE#         852
  C:79AFH         LINE#         853
  C:79AFH         LINE#         854
  C:79B2H         LINE#         856
  C:79B2H         LINE#         857
  C:79BAH         LINE#         858
  C:79BAH         LINE#         860
BL51 BANKED LINKER/LOCATER V6.22                                                      07/10/2019  15:34:23  PAGE 34


  C:79E3H         LINE#         861
  C:79E3H         LINE#         862
  C:79F2H         LINE#         863
  C:7A26H         LINE#         865
  C:7A26H         LINE#         866
  C:7A40H         LINE#         867
  C:7A61H         LINE#         868
  C:7A64H         LINE#         869
  C:7A64H         LINE#         870
  C:7A64H         LINE#         871
  C:7A67H         LINE#         872
  C:7A67H         LINE#         874
  C:7A67H         LINE#         875
  C:7A76H         LINE#         876
  C:7A85H         LINE#         877
  C:7A87H         LINE#         878
  -------         ENDPROC       _WRITEAREAHANDLERMUL
  -------         PROC          _LCD_FANGDA_DIS_TEXT
  X:02AEH         SYMBOL        type_x_wide
  X:02AFH         SYMBOL        type_y_height
  -------         DO            
  D:0001H         SYMBOL        i
  D:0005H         SYMBOL        j
  D:0004H         SYMBOL        k
  X:02B0H         SYMBOL        m
  X:02B1H         SYMBOL        n
  -------         ENDDO         
  C:8C72H         LINE#         887
  C:8C7AH         LINE#         888
  C:8C7AH         LINE#         893
  C:8CCDH         LINE#         894
  C:8CD2H         LINE#         897
  C:8CD4H         LINE#         899
  C:8CE3H         LINE#         900
  C:8CE3H         LINE#         902
  C:8CF8H         LINE#         903
  C:8CF8H         LINE#         905
  C:8D09H         LINE#         906
  C:8D09H         LINE#         908
  C:8D0BH         LINE#         909
  C:8D0BH         LINE#         911
  C:8D1DH         LINE#         912
  C:8D1DH         LINE#         916
  C:8D51H         LINE#         917
  C:8D51H         LINE#         918
  C:8D54H         LINE#         919
  C:8D56H         LINE#         922
  C:8D56H         LINE#         923
  C:8D66H         LINE#         924
  C:8D66H         LINE#         927
  C:8D6EH         LINE#         928
  C:8D74H         LINE#         929
  C:8D77H         LINE#         930
  C:8D80H         LINE#         931
  C:8D84H         LINE#         932
  C:8D86H         LINE#         933
  -------         ENDPROC       _LCD_FANGDA_DIS_TEXT
BL51 BANKED LINKER/LOCATER V6.22                                                      07/10/2019  15:34:23  PAGE 35


  -------         PROC          DISPLAYSTRING
  C:9161H         LINE#         949
  C:9161H         LINE#         950
  C:9161H         LINE#         952
  C:9175H         LINE#         953
  C:9175H         LINE#         954
  C:9180H         LINE#         955
  C:9180H         LINE#         956
  C:918AH         LINE#         957
  C:91A0H         LINE#         958
  C:91A0H         LINE#         960
  C:91AAH         LINE#         961
  C:91BDH         LINE#         964
  C:91C5H         LINE#         966
  C:91C8H         LINE#         968
  C:91DAH         LINE#         970
  C:91E1H         LINE#         972
  C:91E3H         LINE#         974
  C:91E3H         LINE#         975
  C:91E3H         LINE#         976
  C:91E3H         LINE#         977
  C:91E3H         LINE#         978
  C:91FDH         LINE#         979
  C:91FDH         LINE#         980
  C:9205H         LINE#         983
  C:920DH         LINE#         985
  C:9210H         LINE#         987
  C:9224H         LINE#         989
  C:922BH         LINE#         990
  C:922DH         LINE#         992
  C:922DH         LINE#         993
  C:9237H         LINE#         994
  C:9237H         LINE#         996
  C:923AH         LINE#         997
  C:923DH         LINE#         998
  -------         ENDPROC       DISPLAYSTRING
  -------         PROC          DISPLAYDIGITSTRING
  -------         DO            
  X:029FH         SYMBOL        Digit
  -------         ENDDO         
  C:A437H         LINE#         1012
  C:A437H         LINE#         1013
  C:A437H         LINE#         1015
  C:A440H         LINE#         1016
  C:A440H         LINE#         1017
  C:A452H         LINE#         1018
  C:A457H         LINE#         1019
  C:A457H         LINE#         1020
  C:A45AH         LINE#         1021
  C:A45AH         LINE#         1022
  C:A45CH         LINE#         1024
  C:A45CH         LINE#         1025
  C:A463H         LINE#         1026
  C:A471H         LINE#         1027
  C:A471H         LINE#         1028
  C:A479H         LINE#         1029
  C:A47CH         LINE#         1031
BL51 BANKED LINKER/LOCATER V6.22                                                      07/10/2019  15:34:23  PAGE 36


  C:A48EH         LINE#         1033
  C:A498H         LINE#         1034
  C:A4A0H         LINE#         1035
  -------         ENDPROC       DISPLAYDIGITSTRING
  -------         PROC          DISPLAYSTRINGLEN
  C:8E96H         LINE#         1049
  C:8E96H         LINE#         1050
  C:8E96H         LINE#         1051
  C:8EA3H         LINE#         1052
  C:8EA3H         LINE#         1053
  C:8EC0H         LINE#         1054
  C:8EC0H         LINE#         1055
  C:8ECAH         LINE#         1056
  C:8EE0H         LINE#         1057
  C:8EE0H         LINE#         1058
  C:8EE5H         LINE#         1059
  C:8EE5H         LINE#         1060
  C:8EEFH         LINE#         1061
  C:8F02H         LINE#         1064
  C:8F0DH         LINE#         1066
  C:8F10H         LINE#         1068
  C:8F22H         LINE#         1069
  C:8F2CH         LINE#         1070
  C:8F33H         LINE#         1071
  C:8F36H         LINE#         1073
  C:8F36H         LINE#         1074
  C:8F36H         LINE#         1075
  C:8F36H         LINE#         1076
  C:8F38H         LINE#         1078
  C:8F38H         LINE#         1079
  C:8F38H         LINE#         1080
  C:8F38H         LINE#         1081
  C:8F38H         LINE#         1082
  C:8F52H         LINE#         1083
  C:8F52H         LINE#         1084
  C:8F5AH         LINE#         1086
  C:8F62H         LINE#         1088
  C:8F65H         LINE#         1090
  C:8F79H         LINE#         1091
  C:8F83H         LINE#         1092
  C:8F83H         LINE#         1093
  C:8F85H         LINE#         1095
  C:8F85H         LINE#         1096
  C:8F8FH         LINE#         1097
  C:8F95H         LINE#         1098
  C:8F95H         LINE#         1100
  C:8F98H         LINE#         1101
  C:8F9BH         LINE#         1103
  -------         ENDPROC       DISPLAYSTRINGLEN
  C:A50BH         SYMBOL        L?0579
  -------         PROC          L?0578
  -------         ENDPROC       L?0578
  C:A50BH         SYMBOL        L?0579
  -------         PROC          _DIGIT2ASCII
  D:0007H         SYMBOL        byChar
  C:A510H         LINE#         1106
  C:A510H         LINE#         1107
BL51 BANKED LINKER/LOCATER V6.22                                                      07/10/2019  15:34:23  PAGE 37


  C:A510H         LINE#         1108
  C:A519H         LINE#         1109
  C:A527H         LINE#         1110
  C:A530H         LINE#         1111
  C:A533H         LINE#         1113
  C:A539H         LINE#         1114
  C:A539H         LINE#         1115
  C:A53CH         LINE#         1116
  C:A541H         LINE#         1117
  C:A546H         LINE#         1118
  C:A54DH         LINE#         1120
  C:A54DH         LINE#         1122
  C:A54DH         LINE#         1123
  C:A553H         LINE#         1124
  C:A553H         LINE#         1125
  C:A556H         LINE#         1126
  C:A55BH         LINE#         1127
  C:A562H         LINE#         1128
  C:A562H         LINE#         1130
  C:A562H         LINE#         1131
  C:A569H         LINE#         1132
  C:A56FH         LINE#         1134
  C:A56FH         LINE#         1135
  C:A56FH         LINE#         1137
  -------         ENDPROC       _DIGIT2ASCII
  -------         PROC          _DISPLAYONECHAR
  D:0007H         SYMBOL        byChar
  C:A35EH         LINE#         1141
  C:A35EH         LINE#         1142
  C:A35EH         LINE#         1143
  C:A367H         LINE#         1144
  C:A375H         LINE#         1145
  C:A37EH         LINE#         1146
  C:A381H         LINE#         1148
  C:A387H         LINE#         1149
  C:A387H         LINE#         1150
  C:A395H         LINE#         1151
  C:A39AH         LINE#         1152
  C:A39AH         LINE#         1154
  C:A39CH         LINE#         1156
  C:A39CH         LINE#         1157
  C:A3A5H         LINE#         1158
  C:A3A5H         LINE#         1159
  C:A3B0H         LINE#         1160
  C:A3B5H         LINE#         1161
  C:A3B5H         LINE#         1162
  C:A3B7H         LINE#         1164
  C:A3B7H         LINE#         1165
  C:A3C2H         LINE#         1166
  C:A3C8H         LINE#         1167
  C:A3CBH         LINE#         1168
  C:A3CBH         LINE#         1169
  C:A3CBH         LINE#         1171
  -------         ENDPROC       _DISPLAYONECHAR
  -------         PROC          _SHOWADDBEDCALLFACE
  X:02A3H         SYMBOL        byBedAddr
  -------         DO            
BL51 BANKED LINKER/LOCATER V6.22                                                      07/10/2019  15:34:23  PAGE 38


  D:0007H         SYMBOL        i
  -------         ENDDO         
  C:A11BH         LINE#         1175
  C:A120H         LINE#         1176
  C:A120H         LINE#         1178
  C:A12AH         LINE#         1180
  C:A141H         LINE#         1181
  C:A15DH         LINE#         1182
  C:A174H         LINE#         1183
  C:A185H         LINE#         1184
  C:A18DH         LINE#         1186
  -------         ENDPROC       _SHOWADDBEDCALLFACE
  -------         PROC          DISSENDPINBUGFACE
  -------         DO            
  D:0007H         SYMBOL        i
  -------         ENDDO         
  C:AEEFH         LINE#         1192
  C:AEEFH         LINE#         1193
  C:AEEFH         LINE#         1195
  C:AEF9H         LINE#         1197
  C:AF10H         LINE#         1198
  C:AF21H         LINE#         1199
  C:AF24H         LINE#         1200
  C:AF27H         LINE#         1202
  -------         ENDPROC       DISSENDPINBUGFACE
  -------         PROC          _SHOWCALLFACE
  X:02A3H         SYMBOL        byRoomAddr
  X:02A4H         SYMBOL        byBedAddr
  D:0003H         SYMBOL        byCallType
  -------         DO            
  D:0007H         SYMBOL        i
  -------         ENDDO         
  C:86CEH         LINE#         1207
  C:86D6H         LINE#         1208
  C:86D6H         LINE#         1210
  C:86E2H         LINE#         1211
  C:86E9H         LINE#         1212
  C:86FBH         LINE#         1213
  C:86FBH         LINE#         1214
  C:86FBH         LINE#         1215
  C:8712H         LINE#         1216
  C:8729H         LINE#         1217
  C:8745H         LINE#         1218
  C:8752H         LINE#         1219
  C:8755H         LINE#         1221
  C:8755H         LINE#         1222
  C:876CH         LINE#         1223
  C:8783H         LINE#         1224
  C:879FH         LINE#         1225
  C:87ACH         LINE#         1226
  C:87AEH         LINE#         1228
  C:87AEH         LINE#         1229
  C:87C5H         LINE#         1230
  C:87DCH         LINE#         1231
  C:87DCH         LINE#         1233
  C:87DCH         LINE#         1234
  C:87DCH         LINE#         1235
BL51 BANKED LINKER/LOCATER V6.22                                                      07/10/2019  15:34:23  PAGE 39


  C:87DCH         LINE#         1236
  C:87EDH         LINE#         1237
  C:87F5H         LINE#         1239
  -------         ENDPROC       _SHOWCALLFACE
  -------         PROC          _SHOWTALKFACE
  X:0000H         SYMBOL        byRoomAddr
  X:0001H         SYMBOL        byBedAddr
  -------         DO            
  D:0007H         SYMBOL        i
  -------         ENDDO         
  C:ACFCH         LINE#         1258
  C:ACFCH         LINE#         1259
  C:ACFCH         LINE#         1261
  C:ACFCH         LINE#         1262
  C:ACFCH         LINE#         1263
  C:AD06H         LINE#         1265
  C:AD1DH         LINE#         1267
  C:AD2EH         LINE#         1268
  C:AD36H         LINE#         1270
  -------         ENDPROC       _SHOWTALKFACE
  -------         PROC          _SHOWBROADFACE
  X:02A3H         SYMBOL        byRoomAddr
  X:02A4H         SYMBOL        byBedAddr
  B:0029H.5       SYMBOL        bSelf
  -------         DO            
  D:0007H         SYMBOL        i
  -------         ENDDO         
  C:923EH         LINE#         1292
  C:9246H         LINE#         1293
  C:9246H         LINE#         1295
  C:9252H         LINE#         1297
  C:9255H         LINE#         1298
  C:9255H         LINE#         1299
  C:9262H         LINE#         1302
  C:9265H         LINE#         1304
  C:9265H         LINE#         1305
  C:926CH         LINE#         1306
  C:926CH         LINE#         1307
  C:9286H         LINE#         1308
  C:9293H         LINE#         1310
  C:9295H         LINE#         1312
  C:9295H         LINE#         1313
  C:92B1H         LINE#         1314
  C:92C8H         LINE#         1315
  C:92E4H         LINE#         1316
  C:92FBH         LINE#         1317
  C:92FBH         LINE#         1318
  C:92FBH         LINE#         1319
  C:930CH         LINE#         1320
  C:9314H         LINE#         1321
  -------         ENDPROC       _SHOWBROADFACE
  -------         PROC          SHOWSTARTINFUSIONCALL
  -------         DO            
  D:0007H         SYMBOL        i
  -------         ENDDO         
  C:AD3BH         LINE#         1326
  C:AD3BH         LINE#         1327
BL51 BANKED LINKER/LOCATER V6.22                                                      07/10/2019  15:34:23  PAGE 40


  C:AD3BH         LINE#         1329
  C:AD45H         LINE#         1331
  C:AD5CH         LINE#         1333
  C:AD6DH         LINE#         1334
  C:AD75H         LINE#         1336
  -------         ENDPROC       SHOWSTARTINFUSIONCALL
  -------         PROC          SHOWSTARTSERVICECALL
  -------         DO            
  D:0007H         SYMBOL        i
  -------         ENDDO         
  C:AD7AH         LINE#         1340
  C:AD7AH         LINE#         1341
  C:AD7AH         LINE#         1343
  C:AD84H         LINE#         1345
  C:AD9BH         LINE#         1347
  C:ADACH         LINE#         1348
  C:ADB4H         LINE#         1350
  -------         ENDPROC       SHOWSTARTSERVICECALL
  -------         PROC          SHOWSTARTEMERGENCYCALL
  -------         DO            
  D:0007H         SYMBOL        i
  -------         ENDDO         
  C:ADB9H         LINE#         1355
  C:ADB9H         LINE#         1356
  C:ADB9H         LINE#         1358
  C:ADC3H         LINE#         1360
  C:ADDAH         LINE#         1362
  C:ADEBH         LINE#         1363
  C:ADF3H         LINE#         1365
  -------         ENDPROC       SHOWSTARTEMERGENCYCALL
  -------         PROC          SHOWSTARTHELPCALL
  -------         DO            
  D:0007H         SYMBOL        i
  -------         ENDDO         
  C:ADF8H         LINE#         1368
  C:ADF8H         LINE#         1369
  C:ADF8H         LINE#         1371
  C:AE02H         LINE#         1373
  C:AE19H         LINE#         1375
  C:AE2AH         LINE#         1376
  C:AE32H         LINE#         1378
  -------         ENDPROC       SHOWSTARTHELPCALL
  -------         PROC          GET_DOT_NUMBER
  C:9CDCH         LINE#         1381
  C:9CDCH         LINE#         1382
  C:9CDCH         LINE#         1383
  C:9D0CH         LINE#         1384
  C:9D0CH         LINE#         1385
  C:9D0CH         LINE#         1386
  C:9D0CH         LINE#         1387
  C:9D0CH         LINE#         1388
  C:9D0EH         LINE#         1389
  C:9D0EH         LINE#         1390
  C:9D14H         LINE#         1391
  C:9D1AH         LINE#         1392
  C:9D1BH         LINE#         1393
  C:9D1BH         LINE#         1394
BL51 BANKED LINKER/LOCATER V6.22                                                      07/10/2019  15:34:23  PAGE 41


  C:9D21H         LINE#         1395
  C:9D27H         LINE#         1396
  C:9D28H         LINE#         1397
  C:9D28H         LINE#         1398
  C:9D2EH         LINE#         1399
  C:9D34H         LINE#         1400
  C:9D35H         LINE#         1401
  C:9D35H         LINE#         1402
  C:9D3BH         LINE#         1403
  C:9D41H         LINE#         1404
  C:9D42H         LINE#         1405
  C:9D42H         LINE#         1406
  C:9D47H         LINE#         1407
  C:9D47H         LINE#         1408
  C:9D49H         LINE#         1410
  C:9D49H         LINE#         1411
  C:9D4EH         LINE#         1412
  C:9D4EH         LINE#         1413
  C:9D50H         LINE#         1414
  C:9D50H         LINE#         1415
  C:9D56H         LINE#         1416
  C:9D5CH         LINE#         1417
  C:9D5DH         LINE#         1419
  C:9D5DH         LINE#         1420
  C:9D63H         LINE#         1421
  C:9D69H         LINE#         1422
  C:9D69H         LINE#         1424
  C:9D69H         LINE#         1426
  -------         ENDPROC       GET_DOT_NUMBER
  -------         PROC          L?0580
  -------         ENDPROC       L?0580
  -------         PROC          GET_BASESIZE_MUL
  C:9A91H         LINE#         1428
  C:9A91H         LINE#         1429
  C:9A91H         LINE#         1430
  C:9ABFH         LINE#         1431
  C:9ABFH         LINE#         1432
  C:9ABFH         LINE#         1433
  C:9ABFH         LINE#         1434
  C:9AC4H         LINE#         1435
  C:9AC4H         LINE#         1436
  C:9AC4H         LINE#         1437
  C:9AC6H         LINE#         1438
  C:9AC6H         LINE#         1439
  C:9ACCH         LINE#         1440
  C:9AD1H         LINE#         1441
  C:9AD1H         LINE#         1442
  C:9AD3H         LINE#         1443
  C:9AD3H         LINE#         1444
  C:9AD9H         LINE#         1445
  C:9ADEH         LINE#         1446
  C:9ADEH         LINE#         1447
  C:9AE0H         LINE#         1448
  C:9AE0H         LINE#         1449
  C:9AE6H         LINE#         1450
  C:9AEAH         LINE#         1451
  C:9AEAH         LINE#         1452
BL51 BANKED LINKER/LOCATER V6.22                                                      07/10/2019  15:34:23  PAGE 42


  C:9AECH         LINE#         1453
  C:9AECH         LINE#         1454
  C:9AF2H         LINE#         1455
  C:9AF7H         LINE#         1456
  C:9AF7H         LINE#         1457
  C:9AF9H         LINE#         1458
  C:9AF9H         LINE#         1459
  C:9AFFH         LINE#         1460
  C:9B02H         LINE#         1461
  C:9B02H         LINE#         1462
  C:9B04H         LINE#         1463
  C:9B04H         LINE#         1464
  C:9B0AH         LINE#         1465
  C:9B0EH         LINE#         1466
  C:9B0EH         LINE#         1467
  C:9B10H         LINE#         1469
  C:9B10H         LINE#         1470
  C:9B16H         LINE#         1471
  C:9B1CH         LINE#         1472
  C:9B20H         LINE#         1473
  C:9B20H         LINE#         1475
  C:9B20H         LINE#         1476
  -------         ENDPROC       GET_BASESIZE_MUL
  -------         PROC          SHOWCALLSUCCESS
  C:B427H         LINE#         1479
  C:B427H         LINE#         1480
  C:B427H         LINE#         1482
  C:B438H         LINE#         1483
  C:B440H         LINE#         1485
  -------         ENDPROC       SHOWCALLSUCCESS
  -------         PROC          L?0581
  -------         ENDPROC       L?0581
  -------         PROC          _SHOWITEM
  X:02A6H         SYMBOL        ItemCode
  -------         DO            
  X:02A7H         SYMBOL        position
  X:02A8H         SYMBOL        num
  X:02A9H         SYMBOL        i
  -------         ENDDO         
  C:4D4BH         LINE#         1489
  C:4D50H         LINE#         1490
  C:4D50H         LINE#         1492
  C:4D53H         LINE#         1493
  C:4D55H         LINE#         1494
  C:4D57H         LINE#         1496
  C:4D5BH         LINE#         1498
  C:4D60H         LINE#         1499
  C:4D64H         LINE#         1502
  C:4D7EH         LINE#         1506
  C:4D92H         LINE#         1507
  C:4D97H         LINE#         1508
  C:4D97H         LINE#         1509
  C:4D9EH         LINE#         1510
  C:4DB7H         LINE#         1511
  C:4DD1H         LINE#         1513
  C:4DD1H         LINE#         1515
  C:4DD6H         LINE#         1516
BL51 BANKED LINKER/LOCATER V6.22                                                      07/10/2019  15:34:23  PAGE 43


  C:4DDFH         LINE#         1517
  C:4DDFH         LINE#         1518
  C:4E02H         LINE#         1519
  C:4E08H         LINE#         1521
  C:4E10H         LINE#         1522
  C:4E19H         LINE#         1523
  C:4E19H         LINE#         1524
  C:4E53H         LINE#         1525
  C:4E62H         LINE#         1526
  C:4E71H         LINE#         1528
  C:4E80H         LINE#         1529
  C:4E8FH         LINE#         1531
  C:4EA6H         LINE#         1532
  C:4EA6H         LINE#         1533
  C:4EC0H         LINE#         1534
  C:4ED1H         LINE#         1535
  C:4ED3H         LINE#         1537
  C:4ED3H         LINE#         1538
  C:4EE3H         LINE#         1539
  C:4EF3H         LINE#         1540
  C:4EF3H         LINE#         1542
  C:4EF6H         LINE#         1543
  C:4F2EH         LINE#         1544
  C:4F2EH         LINE#         1545
  C:4F2EH         LINE#         1546
  C:4F3CH         LINE#         1547
  C:4F4CH         LINE#         1548
  C:4F50H         LINE#         1549
  C:4F5EH         LINE#         1550
  C:4F6EH         LINE#         1551
  C:4F71H         LINE#         1553
  C:4F80H         LINE#         1554
  C:4F86H         LINE#         1555
  C:4F93H         LINE#         1556
  C:4F96H         LINE#         1557
  C:4F96H         LINE#         1558
  C:4FA4H         LINE#         1559
  C:4FB4H         LINE#         1560
  C:4FB8H         LINE#         1561
  C:4FC6H         LINE#         1562
  C:4FC9H         LINE#         1563
  C:4FC9H         LINE#         1565
  C:4FC9H         LINE#         1566
  C:4FC9H         LINE#         1567
  C:4FD4H         LINE#         1569
  C:4FD7H         LINE#         1570
  C:4FD7H         LINE#         1571
  C:4FEEH         LINE#         1573
  C:5003H         LINE#         1575
  C:5028H         LINE#         1576
  C:5038H         LINE#         1577
  C:503CH         LINE#         1578
  C:504AH         LINE#         1579
  C:504DH         LINE#         1580
  C:504DH         LINE#         1582
  C:504DH         LINE#         1583
  C:504DH         LINE#         1584
BL51 BANKED LINKER/LOCATER V6.22                                                      07/10/2019  15:34:23  PAGE 44


  C:5058H         LINE#         1585
  C:505BH         LINE#         1587
  C:505BH         LINE#         1589
  C:5072H         LINE#         1590
  C:508BH         LINE#         1591
  C:509EH         LINE#         1592
  C:50B7H         LINE#         1593
  C:50D6H         LINE#         1594
  C:50E6H         LINE#         1595
  C:50EAH         LINE#         1596
  C:50F8H         LINE#         1597
  C:5108H         LINE#         1598
  C:510BH         LINE#         1600
  C:511AH         LINE#         1601
  C:511CH         LINE#         1602
  C:5127H         LINE#         1603
  C:512AH         LINE#         1605
  C:512AH         LINE#         1606
  C:5138H         LINE#         1607
  C:514CH         LINE#         1608
  C:5162H         LINE#         1609
  C:5165H         LINE#         1611
  C:516FH         LINE#         1612
  C:516FH         LINE#         1613
  C:517AH         LINE#         1614
  C:5180H         LINE#         1615
  C:5182H         LINE#         1617
  C:5182H         LINE#         1618
  C:518DH         LINE#         1619
  C:5193H         LINE#         1620
  C:5193H         LINE#         1621
  C:519BH         LINE#         1622
  C:519EH         LINE#         1624
  C:519EH         LINE#         1625
  C:51A7H         LINE#         1626
  C:51A7H         LINE#         1627
  C:51AFH         LINE#         1628
  C:51B1H         LINE#         1630
  C:51B1H         LINE#         1631
  C:51B1H         LINE#         1632
  C:51B1H         LINE#         1633
  C:51B1H         LINE#         1634
  C:51CCH         LINE#         1635
  C:51D2H         LINE#         1636
  C:51DAH         LINE#         1637
  C:51DCH         LINE#         1639
  C:51DCH         LINE#         1640
  C:51E4H         LINE#         1641
  C:51E6H         LINE#         1643
  C:51E6H         LINE#         1644
  C:51FBH         LINE#         1645
  C:51FFH         LINE#         1646
  C:5208H         LINE#         1647
  C:5208H         LINE#         1649
  C:5208H         LINE#         1650
  C:5208H         LINE#         1651
  C:520BH         LINE#         1652
BL51 BANKED LINKER/LOCATER V6.22                                                      07/10/2019  15:34:23  PAGE 45


  C:5211H         LINE#         1653
  -------         ENDPROC       _SHOWITEM
  -------         PROC          SHOWPATIENTBASEINFO
  -------         DO            
  X:02A6H         SYMBOL        position
  X:02A7H         SYMBOL        num
  X:02A8H         SYMBOL        i
  X:02A9H         SYMBOL        uiDataLen
  -------         ENDDO         
  C:6240H         LINE#         1656
  C:6240H         LINE#         1657
  C:6240H         LINE#         1658
  C:6245H         LINE#         1659
  C:6247H         LINE#         1660
  C:6249H         LINE#         1663
  C:624DH         LINE#         1664
  C:6252H         LINE#         1665
  C:6256H         LINE#         1668
  C:6270H         LINE#         1671
  C:628BH         LINE#         1673
  C:629AH         LINE#         1676
  C:62AEH         LINE#         1677
  C:62B3H         LINE#         1678
  C:62B3H         LINE#         1679
  C:62BAH         LINE#         1680
  C:62D3H         LINE#         1681
  C:62EDH         LINE#         1684
  C:62EDH         LINE#         1686
  C:62FFH         LINE#         1687
  C:62FFH         LINE#         1689
  C:6336H         LINE#         1691
  C:633DH         LINE#         1692
  C:634BH         LINE#         1694
  C:6353H         LINE#         1695
  C:6353H         LINE#         1696
  C:635CH         LINE#         1697
  C:6364H         LINE#         1698
  C:6367H         LINE#         1699
  C:6367H         LINE#         1700
  C:6371H         LINE#         1701
  C:6371H         LINE#         1702
  C:6382H         LINE#         1703
  C:6382H         LINE#         1704
  C:6387H         LINE#         1705
  C:639BH         LINE#         1706
  C:63A4H         LINE#         1707
  C:63A4H         LINE#         1708
  C:63C7H         LINE#         1709
  C:63CDH         LINE#         1711
  C:63D5H         LINE#         1712
  C:63DEH         LINE#         1713
  C:63DEH         LINE#         1714
  C:6418H         LINE#         1715
  C:6448H         LINE#         1718
  C:6448H         LINE#         1719
  C:6457H         LINE#         1720
  C:6465H         LINE#         1722
BL51 BANKED LINKER/LOCATER V6.22                                                      07/10/2019  15:34:23  PAGE 46


  C:6474H         LINE#         1723
  C:6483H         LINE#         1726
  C:6494H         LINE#         1727
  C:64CAH         LINE#         1732
  C:64E1H         LINE#         1733
  C:64E1H         LINE#         1734
  C:64FBH         LINE#         1735
  C:650CH         LINE#         1736
  C:650EH         LINE#         1738
  C:650EH         LINE#         1739
  C:651EH         LINE#         1740
  C:652EH         LINE#         1741
  C:652EH         LINE#         1743
  C:6531H         LINE#         1744
  C:6548H         LINE#         1745
  C:6548H         LINE#         1746
  C:6563H         LINE#         1747
  C:6569H         LINE#         1748
  C:656BH         LINE#         1750
  C:656BH         LINE#         1751
  C:6580H         LINE#         1752
  C:6588H         LINE#         1753
  C:6588H         LINE#         1754
  C:6594H         LINE#         1755
  C:6594H         LINE#         1756
  C:6594H         LINE#         1757
  C:6594H         LINE#         1758
  C:659FH         LINE#         1759
  C:65ADH         LINE#         1760
  C:65ADH         LINE#         1762
  C:65B0H         LINE#         1764
  C:65B3H         LINE#         1765
  C:65B9H         LINE#         1766
  -------         ENDPROC       SHOWPATIENTBASEINFO
  -------         PROC          SHOWBEDFACE
  -------         DO            
  X:02A3H         SYMBOL        i
  X:02A4H         SYMBOL        j
  X:02A5H         SYMBOL        crc
  D:0001H         SYMBOL        p
  -------         ENDDO         
  C:5ABDH         LINE#         1770
  C:5ABDH         LINE#         1771
  C:5ABDH         LINE#         1775
  C:5AD8H         LINE#         1777
  C:5AFDH         LINE#         1778
  C:5AFDH         LINE#         1780
  C:5B00H         LINE#         1781
  C:5B27H         LINE#         1782
  C:5B27H         LINE#         1783
  C:5B2CH         LINE#         1784
  C:5B2CH         LINE#         1785
  C:5B55H         LINE#         1786
  C:5B7CH         LINE#         1787
  C:5B8BH         LINE#         1788
  C:5B8BH         LINE#         1789
  C:5B8BH         LINE#         1791
BL51 BANKED LINKER/LOCATER V6.22                                                      07/10/2019  15:34:23  PAGE 47


  C:5B8BH         LINE#         1792
  C:5BADH         LINE#         1793
  C:5BADH         LINE#         1794
  C:5BADH         LINE#         1795
  C:5BADH         LINE#         1796
  C:5BD6H         LINE#         1797
  C:5BFBH         LINE#         1802
  C:5BFBH         LINE#         1803
  C:5C04H         LINE#         1804
  C:5C1EH         LINE#         1805
  C:5C3EH         LINE#         1807
  C:5C4DH         LINE#         1808
  C:5C50H         LINE#         1809
  C:5C56H         LINE#         1810
  C:5C72H         LINE#         1811
  C:5C72H         LINE#         1812
  C:5C7CH         LINE#         1813
  C:5C83H         LINE#         1814
  C:5C8BH         LINE#         1815
  C:5CB9H         LINE#         1816
  C:5CE2H         LINE#         1817
  C:5CE5H         LINE#         1818
  C:5CE5H         LINE#         1819
  C:5CE5H         LINE#         1820
  C:5CE8H         LINE#         1821
  C:5CEDH         LINE#         1823
  C:5D08H         LINE#         1824
  C:5D2DH         LINE#         1825
  C:5D2DH         LINE#         1826
  C:5D30H         LINE#         1827
  C:5D57H         LINE#         1828
  C:5D57H         LINE#         1829
  C:5D5CH         LINE#         1830
  C:5D5CH         LINE#         1831
  C:5D85H         LINE#         1832
  C:5DACH         LINE#         1833
  C:5DBBH         LINE#         1834
  C:5DBBH         LINE#         1835
  C:5DBBH         LINE#         1837
  C:5DBBH         LINE#         1838
  C:5DDDH         LINE#         1839
  C:5DDDH         LINE#         1840
  C:5DDDH         LINE#         1841
  C:5DDDH         LINE#         1842
  C:5E06H         LINE#         1843
  C:5E28H         LINE#         1845
  C:5E2BH         LINE#         1846
  C:5E2DH         LINE#         1848
  C:5E2DH         LINE#         1850
  C:5E34H         LINE#         1851
  C:5E4DH         LINE#         1852
  C:5E67H         LINE#         1888
  C:5E67H         LINE#         1889
  C:5E67H         LINE#         1890
  C:5E6CH         LINE#         1891
  C:5E71H         LINE#         1892
  C:5E76H         LINE#         1893
BL51 BANKED LINKER/LOCATER V6.22                                                      07/10/2019  15:34:23  PAGE 48


  C:5E7BH         LINE#         1895
  C:5E7EH         LINE#         1896
  C:5E84H         LINE#         1898
  -------         ENDPROC       SHOWBEDFACE
  -------         PROC          SHOWPOWERUPFACE
  C:7C23H         LINE#         1902
  C:7C23H         LINE#         1903
  C:7C23H         LINE#         1904
  C:7C28H         LINE#         1905
  C:7C30H         LINE#         1906
  C:7C33H         LINE#         1917
  C:7C39H         LINE#         1918
  C:7C3FH         LINE#         1919
  C:7C42H         LINE#         1920
  C:7C45H         LINE#         1922
  C:7C66H         LINE#         1923
  C:7C92H         LINE#         1925
  C:7C9AH         LINE#         1926
  C:7CA3H         LINE#         1927
  C:7CB1H         LINE#         1928
  C:7CB8H         LINE#         1929
  C:7CBEH         LINE#         1930
  C:7CC8H         LINE#         1931
  C:7CD0H         LINE#         1932
  C:7CD3H         LINE#         1935
  C:7CECH         LINE#         1936
  C:7D09H         LINE#         1937
  C:7D17H         LINE#         1938
  C:7D1AH         LINE#         1940
  C:7D20H         LINE#         1941
  C:7D24H         LINE#         1943
  C:7D2CH         LINE#         1944
  C:7D3AH         LINE#         1945
  C:7D3DH         LINE#         1946
  C:7D45H         LINE#         1962
  C:7D5EH         LINE#         1963
  C:7D7BH         LINE#         1964
  C:7D89H         LINE#         1965
  C:7D8CH         LINE#         1968
  C:7D8FH         LINE#         1969
  C:7D95H         LINE#         1970
  -------         ENDPROC       SHOWPOWERUPFACE
  -------         PROC          SHOWSTARTNUMSET
  -------         DO            
  D:0007H         SYMBOL        i
  -------         ENDDO         
  C:964AH         LINE#         1973
  C:964AH         LINE#         1974
  C:964AH         LINE#         1976
  C:9654H         LINE#         1978
  C:9670H         LINE#         1979
  C:9687H         LINE#         1980
  C:96A3H         LINE#         1981
  C:96BAH         LINE#         1982
  C:96D6H         LINE#         1983
  C:96EDH         LINE#         1984
  C:96FEH         LINE#         1985
BL51 BANKED LINKER/LOCATER V6.22                                                      07/10/2019  15:34:23  PAGE 49


  C:9706H         LINE#         1987
  -------         ENDPROC       SHOWSTARTNUMSET
  -------         PROC          SHOWNUMSETOK
  C:B4BCH         LINE#         1991
  C:B4BCH         LINE#         1992
  C:B4BCH         LINE#         1995
  C:B4CDH         LINE#         1996
  C:B4D0H         LINE#         1997
  C:B4D3H         LINE#         1999
  -------         ENDPROC       SHOWNUMSETOK
  -------         PROC          SHOWSTARTRFNUMSET
  C:B445H         LINE#         2003
  C:B445H         LINE#         2004
  C:B445H         LINE#         2007
  C:B456H         LINE#         2008
  C:B45EH         LINE#         2009
  -------         ENDPROC       SHOWSTARTRFNUMSET
  -------         PROC          SHOWRFNUMSETOK
  C:B463H         LINE#         2012
  C:B463H         LINE#         2013
  C:B463H         LINE#         2016
  C:B474H         LINE#         2017
  C:B47CH         LINE#         2018
  -------         ENDPROC       SHOWRFNUMSETOK
  -------         PROC          _GETTITLE
  D:0007H         SYMBOL        ItemCode
  C:8306H         LINE#         2024
  C:8306H         LINE#         2025
  C:8306H         LINE#         2026
  C:836EH         LINE#         2027
  C:836EH         LINE#         2028
  C:836EH         LINE#         2029
  C:8375H         LINE#         2030
  C:8375H         LINE#         2032
  C:8375H         LINE#         2033
  C:837CH         LINE#         2034
  C:837CH         LINE#         2036
  C:837CH         LINE#         2037
  C:8383H         LINE#         2038
  C:8383H         LINE#         2040
  C:8383H         LINE#         2041
  C:838AH         LINE#         2042
  C:838AH         LINE#         2044
  C:838AH         LINE#         2045
  C:8391H         LINE#         2046
  C:8391H         LINE#         2048
  C:8391H         LINE#         2049
  C:8398H         LINE#         2050
  C:8398H         LINE#         2052
  C:8398H         LINE#         2053
  C:839FH         LINE#         2054
  C:839FH         LINE#         2056
  C:839FH         LINE#         2057
  C:83A6H         LINE#         2058
  C:83A6H         LINE#         2060
  C:83A6H         LINE#         2061
  C:83ADH         LINE#         2062
BL51 BANKED LINKER/LOCATER V6.22                                                      07/10/2019  15:34:23  PAGE 50


  C:83ADH         LINE#         2064
  C:83ADH         LINE#         2065
  C:83B4H         LINE#         2066
  C:83B4H         LINE#         2068
  C:83B4H         LINE#         2069
  C:83BBH         LINE#         2070
  C:83BBH         LINE#         2072
  C:83BBH         LINE#         2073
  C:83C2H         LINE#         2074
  C:83C2H         LINE#         2076
  C:83C2H         LINE#         2077
  C:83C9H         LINE#         2078
  C:83C9H         LINE#         2080
  C:83C9H         LINE#         2081
  C:83D0H         LINE#         2082
  C:83D0H         LINE#         2085
  C:83D0H         LINE#         2086
  C:83D7H         LINE#         2087
  C:83D7H         LINE#         2089
  C:83D7H         LINE#         2090
  C:83DEH         LINE#         2091
  C:83DEH         LINE#         2093
  C:83DEH         LINE#         2094
  C:83E5H         LINE#         2095
  C:83E5H         LINE#         2097
  C:83E5H         LINE#         2098
  C:83ECH         LINE#         2099
  C:83ECH         LINE#         2101
  C:83ECH         LINE#         2102
  C:83F3H         LINE#         2103
  C:83F3H         LINE#         2105
  C:83F3H         LINE#         2106
  C:83FAH         LINE#         2107
  C:83FAH         LINE#         2109
  C:83FAH         LINE#         2110
  C:8401H         LINE#         2111
  C:8401H         LINE#         2113
  C:8401H         LINE#         2114
  C:8408H         LINE#         2115
  C:8408H         LINE#         2118
  C:8408H         LINE#         2119
  C:840FH         LINE#         2120
  C:840FH         LINE#         2122
  C:840FH         LINE#         2123
  C:8416H         LINE#         2124
  C:8416H         LINE#         2126
  C:8416H         LINE#         2127
  C:841DH         LINE#         2128
  C:841DH         LINE#         2130
  C:841DH         LINE#         2131
  C:8424H         LINE#         2132
  C:8424H         LINE#         2133
  C:8424H         LINE#         2134
  C:842BH         LINE#         2135
  C:842BH         LINE#         2137
  C:842BH         LINE#         2138
  C:8432H         LINE#         2139
BL51 BANKED LINKER/LOCATER V6.22                                                      07/10/2019  15:34:23  PAGE 51


  C:8432H         LINE#         2141
  C:8432H         LINE#         2142
  C:8439H         LINE#         2143
  C:8439H         LINE#         2145
  C:8439H         LINE#         2146
  C:8440H         LINE#         2147
  C:8440H         LINE#         2149
  C:8440H         LINE#         2150
  C:8447H         LINE#         2151
  C:8447H         LINE#         2153
  C:8447H         LINE#         2154
  C:844EH         LINE#         2155
  C:844EH         LINE#         2158
  C:844EH         LINE#         2159
  C:8454H         LINE#         2160
  C:8454H         LINE#         2161
  C:8454H         LINE#         2162
  -------         ENDPROC       _GETTITLE
  -------         PROC          _GETTITLELENGTH
  D:0007H         SYMBOL        ItemCode
  -------         DO            
  D:0001H         SYMBOL        title_length
  -------         ENDDO         
  C:ACBCH         LINE#         2167
  C:ACBCH         LINE#         2168
  C:ACBCH         LINE#         2169
  C:ACBCH         LINE#         2170
  C:ACE7H         LINE#         2171
  C:ACE7H         LINE#         2172
  C:ACE7H         LINE#         2173
  C:ACE7H         LINE#         2174
  C:ACE7H         LINE#         2175
  C:ACE7H         LINE#         2176
  C:ACE7H         LINE#         2177
  C:ACE7H         LINE#         2178
  C:ACE7H         LINE#         2179
  C:ACE7H         LINE#         2180
  C:ACE7H         LINE#         2181
  C:ACE7H         LINE#         2182
  C:ACE7H         LINE#         2183
  C:ACE7H         LINE#         2184
  C:ACE7H         LINE#         2185
  C:ACE7H         LINE#         2186
  C:ACE7H         LINE#         2187
  C:ACE7H         LINE#         2188
  C:ACE7H         LINE#         2189
  C:ACE7H         LINE#         2190
  C:ACE7H         LINE#         2191
  C:ACE7H         LINE#         2192
  C:ACE7H         LINE#         2193
  C:ACE9H         LINE#         2194
  C:ACEBH         LINE#         2198
  C:ACEBH         LINE#         2199
  C:ACEBH         LINE#         2200
  C:ACEBH         LINE#         2201
  C:ACEDH         LINE#         2202
  C:ACEFH         LINE#         2205
BL51 BANKED LINKER/LOCATER V6.22                                                      07/10/2019  15:34:23  PAGE 52


  C:ACEFH         LINE#         2206
  C:ACEFH         LINE#         2207
  C:ACEFH         LINE#         2208
  C:ACEFH         LINE#         2209
  C:ACEFH         LINE#         2210
  C:ACF1H         LINE#         2211
  C:ACF3H         LINE#         2214
  C:ACF3H         LINE#         2215
  C:ACF3H         LINE#         2216
  C:ACF3H         LINE#         2217
  C:ACF5H         LINE#         2218
  C:ACF7H         LINE#         2220
  C:ACF7H         LINE#         2221
  C:ACF9H         LINE#         2222
  C:ACF9H         LINE#         2223
  C:ACF9H         LINE#         2224
  C:ACFBH         LINE#         2225
  -------         ENDPROC       _GETTITLELENGTH
  C:5EA6H         SYMBOL        L?0568
  C:5EAAH         SYMBOL        L?0569
  C:5EADH         SYMBOL        L?0570
  C:5EAFH         SYMBOL        L?0571
  -------         PROC          L?0567
  -------         ENDPROC       L?0567
  C:5EA6H         SYMBOL        L?0568
  C:5EAAH         SYMBOL        L?0569
  C:5EADH         SYMBOL        L?0570
  C:5EAFH         SYMBOL        L?0571
  -------         PROC          _GET_SIZE_MUL_START_XY
  X:02AEH         SYMBOL        item_code
  D:0005H         SYMBOL        disp_mode
  -------         DO            
  X:02AFH         SYMBOL        area_width
  X:02B1H         SYMBOL        area_height
  D:0002H         SYMBOL        RowCharNum
  D:0007H         SYMBOL        ColumnCharNum
  C:6063H         SYMBOL        get_size_mul_start_xy_1
  -------         ENDDO         
  C:5EB4H         LINE#         2233
  C:5EB9H         LINE#         2234
  C:5EB9H         LINE#         2238
  C:5EDAH         LINE#         2239
  C:5F07H         LINE#         2240
  C:5F28H         LINE#         2241
  C:5F49H         LINE#         2243
  C:5F55H         LINE#         2244
  C:5F55H         LINE#         2245
  C:5F81H         LINE#         2246
  C:5F81H         LINE#         2247
  C:5F87H         LINE#         2248
  C:5F8DH         LINE#         2249
  C:5F91H         LINE#         2250
  C:5F97H         LINE#         2251
  C:5FC2H         LINE#         2252
  C:5FE7H         LINE#         2253
  C:5FEAH         LINE#         2255
  C:5FEAH         LINE#         2256
BL51 BANKED LINKER/LOCATER V6.22                                                      07/10/2019  15:34:23  PAGE 53


  C:5FEAH         LINE#         2257
  C:5FEAH         LINE#         2259
  C:5FEAH         LINE#         2260
  C:5FEEH         LINE#         2261
  C:5FEEH         LINE#         2262
  C:5FF3H         LINE#         2265
  C:600CH         LINE#         2266
  C:601AH         LINE#         2267
  C:6031H         LINE#         2268
  C:6037H         LINE#         2269
  C:6055H         LINE#         2270
  C:6063H         LINE#         2271
  C:6063H         LINE#         2273
  C:6063H         LINE#         2276
  C:6063H         LINE#         2278
  C:6081H         LINE#         2279
  C:6091H         LINE#         2280
  C:60A9H         LINE#         2281
  C:60D0H         LINE#         2282
  C:60EFH         LINE#         2283
  C:6115H         LINE#         2284
  C:6134H         LINE#         2285
  C:6159H         LINE#         2287
  C:6159H         LINE#         2288
  C:615CH         LINE#         2289
  C:615CH         LINE#         2293
  C:615CH         LINE#         2294
  C:615FH         LINE#         2296
  C:6179H         LINE#         2297
  C:618AH         LINE#         2298
  C:61A3H         LINE#         2299
  C:61A3H         LINE#         2301
  C:61A7H         LINE#         2302
  C:61A7H         LINE#         2303
  C:61D2H         LINE#         2305
  C:61D4H         LINE#         2307
  C:61E3H         LINE#         2309
  C:6221H         LINE#         2311
  C:6224H         LINE#         2312
  C:6226H         LINE#         2314
  C:6226H         LINE#         2315
  C:622CH         LINE#         2316
  C:6235H         LINE#         2317
  C:623DH         LINE#         2318
  C:623FH         LINE#         2319
  -------         ENDPROC       _GET_SIZE_MUL_START_XY
  -------         PROC          SHOWBEDFACEFORM
  -------         DO            
  X:02A6H         SYMBOL        position
  X:02A8H         SYMBOL        uiFormLen
  X:02AAH         SYMBOL        i
  D:0005H         SYMBOL        j
  D:0002H         SYMBOL        area_height
  X:02ABH         SYMBOL        area_width
  X:02ADH         SYMBOL        RowCharNum
  D:0007H         SYMBOL        ColumnCharNum
  -------         ENDDO         
BL51 BANKED LINKER/LOCATER V6.22                                                      07/10/2019  15:34:23  PAGE 54


  C:45F0H         LINE#         2323
  C:45F0H         LINE#         2324
  C:45F0H         LINE#         2325
  C:45F7H         LINE#         2333
  C:45FBH         LINE#         2334
  C:4603H         LINE#         2335
  C:4606H         LINE#         2338
  C:4616H         LINE#         2340
  C:463EH         LINE#         2341
  C:463EH         LINE#         2342
  C:4645H         LINE#         2343
  C:465EH         LINE#         2344
  C:4678H         LINE#         2346
  C:468AH         LINE#         2347
  C:468AH         LINE#         2348
  C:46A7H         LINE#         2349
  C:46C3H         LINE#         2350
  C:46E2H         LINE#         2351
  C:46FEH         LINE#         2353
  C:46FFH         LINE#         2354
  C:470AH         LINE#         2355
  C:470DH         LINE#         2357
  C:472EH         LINE#         2358
  C:474EH         LINE#         2359
  C:475BH         LINE#         2360
  C:477AH         LINE#         2361
  C:477AH         LINE#         2362
  C:477DH         LINE#         2364
  C:47A1H         LINE#         2365
  C:47BEH         LINE#         2366
  C:47D5H         LINE#         2367
  C:47D5H         LINE#         2368
  C:47D5H         LINE#         2369
  C:47D8H         LINE#         2372
  C:47F8H         LINE#         2373
  C:4814H         LINE#         2374
  C:4834H         LINE#         2375
  C:4850H         LINE#         2380
  C:4852H         LINE#         2381
  C:4852H         LINE#         2382
  C:4879H         LINE#         2384
  C:487EH         LINE#         2385
  C:4887H         LINE#         2386
  C:4887H         LINE#         2387
  C:489FH         LINE#         2388
  C:489FH         LINE#         2389
  C:48AEH         LINE#         2390
  C:48BAH         LINE#         2391
  C:48C4H         LINE#         2392
  C:48D4H         LINE#         2393
  C:48D7H         LINE#         2394
  C:48E2H         LINE#         2395
  C:48E2H         LINE#         2396
  C:48EDH         LINE#         2397
  C:48F3H         LINE#         2398
  C:48F5H         LINE#         2400
  C:48F5H         LINE#         2401
BL51 BANKED LINKER/LOCATER V6.22                                                      07/10/2019  15:34:23  PAGE 55


  C:4900H         LINE#         2402
  C:4906H         LINE#         2403
  C:4906H         LINE#         2405
  C:4908H         LINE#         2407
  C:4908H         LINE#         2408
  C:492BH         LINE#         2409
  C:493FH         LINE#         2410
  C:493FH         LINE#         2414
  C:4940H         LINE#         2415
  C:494BH         LINE#         2417
  C:497AH         LINE#         2419
  C:497AH         LINE#         2420
  C:497DH         LINE#         2421
  C:4986H         LINE#         2423
  C:4986H         LINE#         2426
  C:4998H         LINE#         2427
  C:4998H         LINE#         2428
  C:49D2H         LINE#         2429
  C:49E1H         LINE#         2430
  C:49F0H         LINE#         2431
  C:49FFH         LINE#         2432
  C:4A0EH         LINE#         2434
  C:4A1EH         LINE#         2436
  C:4A21H         LINE#         2438
  C:4A33H         LINE#         2439
  C:4A46H         LINE#         2440
  C:4A53H         LINE#         2441
  C:4A62H         LINE#         2442
  C:4A62H         LINE#         2443
  C:4A65H         LINE#         2445
  C:4A78H         LINE#         2446
  C:4A88H         LINE#         2447
  C:4A8FH         LINE#         2448
  C:4A8FH         LINE#         2449
  C:4A8FH         LINE#         2450
  C:4A92H         LINE#         2453
  C:4AA1H         LINE#         2454
  C:4AB0H         LINE#         2455
  C:4ABFH         LINE#         2456
  C:4ACEH         LINE#         2458
  C:4ADEH         LINE#         2459
  C:4AEEH         LINE#         2462
  C:4B01H         LINE#         2463
  C:4B0EH         LINE#         2465
  C:4B28H         LINE#         2468
  C:4B45H         LINE#         2469
  C:4B66H         LINE#         2472
  C:4B7EH         LINE#         2473
  C:4B8EH         LINE#         2474
  C:4BA6H         LINE#         2475
  C:4BC5H         LINE#         2476
  C:4BE4H         LINE#         2477
  C:4C03H         LINE#         2478
  C:4C22H         LINE#         2479
  C:4C42H         LINE#         2481
  C:4C42H         LINE#         2482
  C:4C42H         LINE#         2483
BL51 BANKED LINKER/LOCATER V6.22                                                      07/10/2019  15:34:23  PAGE 56


  C:4C42H         LINE#         2487
  C:4C42H         LINE#         2488
  C:4C45H         LINE#         2490
  C:4C5DH         LINE#         2491
  C:4C71H         LINE#         2492
  C:4C8BH         LINE#         2493
  C:4C8BH         LINE#         2495
  C:4C8FH         LINE#         2496
  C:4C8FH         LINE#         2497
  C:4CC1H         LINE#         2499
  C:4CC3H         LINE#         2501
  C:4CD2H         LINE#         2503
  C:4D0DH         LINE#         2505
  C:4D10H         LINE#         2506
  C:4D12H         LINE#         2508
  C:4D12H         LINE#         2509
  C:4D18H         LINE#         2510
  C:4D21H         LINE#         2511
  C:4D24H         LINE#         2513
  C:4D43H         LINE#         2514
  -------         ENDPROC       SHOWBEDFACEFORM
  -------         ENDMOD        LCD

  -------         MODULE        MAIN
  C:0000H         SYMBOL        _ICE_DUMMY_
  C:B528H         PUBLIC        _DispatchMessage
  D:0080H         PUBLIC        P0
  D:0090H         PUBLIC        P1
  D:00A0H         PUBLIC        P2
  D:00B0H         PUBLIC        P3
  C:003EH         PUBLIC        RD_ID
  D:00C0H         PUBLIC        P4
  D:00C8H         PUBLIC        P5
  D:00F9H         PUBLIC        CH
  B:00A8H.5       PUBLIC        EADC
  D:00A8H         PUBLIC        IE
  D:00E9H         PUBLIC        CL
  D:00FAH         PUBLIC        CCAP0H
  D:00EAH         PUBLIC        CCAP0L
  B:00D8H.6       PUBLIC        CR
  C:9319H         PUBLIC        Init
  D:00DAH         PUBLIC        CCAPM0
  B:00A8H.4       PUBLIC        ES
  D:00B8H         PUBLIC        IP
  C:0006H         PUBLIC        Ex0Int
  C:65BAH         PUBLIC        MainTask
  B:0098H.1       PUBLIC        TI
  B:0029H.1       PUBLIC        bOXSupplyState
  X:01C1H         PUBLIC        uiIsrTimerCount
  B:0090H.4       PUBLIC        EPH1660_CS
  D:00D9H         PUBLIC        CMOD
  D:00D8H         PUBLIC        CCON
  C:B3CAH         PUBLIC        main
  B:00C0H.4       PUBLIC        ADS7843_CS
  C:B566H         PUBLIC        notrun
  B:00A8H.6       PUBLIC        ELVD
  D:00BBH         PUBLIC        P4SW
BL51 BANKED LINKER/LOCATER V6.22                                                      07/10/2019  15:34:23  PAGE 57


  D:0099H         PUBLIC        SBUF
  X:01C3H         PUBLIC        byWireLessRecBuff
  B:0029H.2       PUBLIC        bWireLessRec
  C:B347H         PUBLIC        UserTickTimer
  D:0098H         PUBLIC        SCON
  D:0088H         PUBLIC        TCON
  C:0016H         PUBLIC        AdcInt
  B:0090H.0       PUBLIC        SSD1963_CS
  X:01CDH         PUBLIC        byWireLessSndBuff
  X:01D5H         PUBLIC        stLocalControl
  B:00C0H.1       PUBLIC        GT23L_CS
  D:00E0H         PUBLIC        ACC
  B:00A8H.3       PUBLIC        ET1
  I:0066H         PUBLIC        byMainCmdQ
  X:0239H         PUBLIC        byWireLessRecLen
  B:00A8H.0       PUBLIC        EX0
  C:001EH         PUBLIC        LvdInt
  C:B55AH         PUBLIC        run
  D:00C1H         PUBLIC        WDT_CONTR
  C:AF9BH         PUBLIC        _Send_Data_Byte
  C:000EH         PUBLIC        TIMER1Int
  B:00C0H.0       PUBLIC        led0
  C:A4A1H         PUBLIC        _Send_Data
  C:A6F9H         PUBLIC        DirRFSerialCompare
  C:B82BH         PUBLIC        _GetMessage
  B:00C0H.5       PUBLIC        SST25VF_CS
  C:A28CH         PUBLIC        allday
  B:0029H.3       PUBLIC        bEnableOxTimer
  D:00D0H         PUBLIC        PSW
  C:9947H         PUBLIC        timeInterval
  B:00D8H.0       PUBLIC        CCF0
  -------         PROC          EX0INT
  C:0006H         LINE#         45
  C:0006H         LINE#         47
  C:0008H         LINE#         48
  -------         ENDPROC       EX0INT
  -------         PROC          TIMER1INT
  C:000EH         LINE#         50
  C:000EH         LINE#         52
  C:0010H         LINE#         53
  -------         ENDPROC       TIMER1INT
  -------         PROC          ADCINT
  C:0016H         LINE#         56
  C:0016H         LINE#         58
  C:0018H         LINE#         59
  -------         ENDPROC       ADCINT
  -------         PROC          LVDINT
  C:001EH         LINE#         61
  C:001EH         LINE#         63
  C:0020H         LINE#         64
  -------         ENDPROC       LVDINT
  -------         PROC          USERTICKTIMER
  C:B347H         LINE#         75
  C:B347H         LINE#         76
  C:B347H         LINE#         81
  C:B355H         LINE#         82
  C:B35BH         LINE#         83
BL51 BANKED LINKER/LOCATER V6.22                                                      07/10/2019  15:34:23  PAGE 58


  C:B35EH         LINE#         84
  C:B360H         LINE#         87
  C:B368H         LINE#         88
  -------         ENDPROC       USERTICKTIMER
  -------         PROC          _SEND_DATA
  X:02FBH         SYMBOL        Databuf
  X:02FEH         SYMBOL        l
  -------         DO            
  X:02FFH         SYMBOL        i
  -------         ENDDO         
  C:A4A1H         LINE#         92
  C:A4AFH         LINE#         93
  C:A4AFH         LINE#         95
  C:A4AFH         LINE#         96
  C:A4AFH         LINE#         97
  C:A4AFH         LINE#         99
  C:A4B3H         LINE#         100
  C:A4BDH         LINE#         101
  C:A4BDH         LINE#         102
  C:A4C4H         LINE#         103
  C:A4CCH         LINE#         105
  C:A4CFH         LINE#         106
  C:A4D1H         LINE#         107
  C:A4E1H         LINE#         108
  C:A4E1H         LINE#         109
  C:A4F1H         LINE#         110
  C:A4F4H         LINE#         111
  C:A4F6H         LINE#         112
  C:A500H         LINE#         113
  C:A508H         LINE#         114
  C:A50AH         LINE#         130
  -------         ENDPROC       _SEND_DATA
  -------         PROC          _SEND_DATA_BYTE
  X:029FH         SYMBOL        SendData
  -------         DO            
  X:02A0H         SYMBOL        i
  -------         ENDDO         
  C:AF9BH         LINE#         133
  C:AFA0H         LINE#         134
  C:AFA0H         LINE#         136
  C:AFA0H         LINE#         137
  C:AFA0H         LINE#         139
  C:AFA4H         LINE#         140
  C:AFAEH         LINE#         141
  C:AFAEH         LINE#         142
  C:AFB5H         LINE#         143
  C:AFBDH         LINE#         145
  C:AFC0H         LINE#         146
  C:AFC2H         LINE#         147
  C:AFC8H         LINE#         148
  C:AFCBH         LINE#         149
  C:AFCDH         LINE#         150
  C:AFCFH         LINE#         165
  -------         ENDPROC       _SEND_DATA_BYTE
  -------         PROC          RD_ID
  -------         DO            
  D:0007H         SYMBOL        p
BL51 BANKED LINKER/LOCATER V6.22                                                      07/10/2019  15:34:23  PAGE 59


  -------         ENDDO         
  C:003EH         LINE#         168
  C:003EH         LINE#         169
  C:003EH         LINE#         171
  C:0040H         LINE#         172
  -------         ENDPROC       RD_ID
  -------         PROC          DIRRFSERIALCOMPARE
  C:A6F9H         LINE#         175
  C:A6F9H         LINE#         176
  C:A6F9H         LINE#         177
  C:A705H         LINE#         178
  C:A705H         LINE#         179
  C:A707H         LINE#         180
  C:A707H         LINE#         181
  C:A713H         LINE#         182
  C:A713H         LINE#         183
  C:A715H         LINE#         184
  C:A715H         LINE#         185
  C:A721H         LINE#         186
  C:A721H         LINE#         187
  C:A723H         LINE#         188
  C:A723H         LINE#         189
  C:A72FH         LINE#         190
  C:A72FH         LINE#         191
  C:A731H         LINE#         192
  C:A731H         LINE#         193
  C:A73DH         LINE#         194
  C:A73DH         LINE#         195
  C:A73FH         LINE#         196
  C:A73FH         LINE#         197
  C:A74BH         LINE#         198
  C:A74BH         LINE#         199
  C:A74DH         LINE#         200
  C:A74DH         LINE#         202
  C:A74EH         LINE#         203
  -------         ENDPROC       DIRRFSERIALCOMPARE
  -------         PROC          L?0089
  -------         ENDPROC       L?0089
  -------         PROC          ALLDAY
  X:02B5H         SYMBOL        a
  -------         DO            
  D:0006H         SYMBOL        x
  D:0003H         SYMBOL        i
  -------         ENDDO         
  C:A28CH         LINE#         206
  C:A28CH         LINE#         207
  C:A28CH         LINE#         210
  C:A2A6H         LINE#         211
  C:A2ABH         LINE#         212
  C:A2ABH         LINE#         213
  C:A2B6H         LINE#         214
  C:A2B6H         LINE#         215
  C:A2BBH         LINE#         216
  C:A2BBH         LINE#         217
  C:A2C5H         LINE#         218
  C:A2C5H         LINE#         219
  C:A2C8H         LINE#         220
BL51 BANKED LINKER/LOCATER V6.22                                                      07/10/2019  15:34:23  PAGE 60


  C:A2C8H         LINE#         222
  C:A2C8H         LINE#         223
  C:A2D4H         LINE#         224
  C:A2D4H         LINE#         225
  C:A2D9H         LINE#         226
  C:A2D9H         LINE#         227
  C:A2E3H         LINE#         228
  C:A2E3H         LINE#         229
  C:A2E6H         LINE#         230
  C:A2E6H         LINE#         231
  C:A2EFH         LINE#         232
  C:A2EFH         LINE#         233
  -------         ENDPROC       ALLDAY
  -------         PROC          TIMEINTERVAL
  X:02A3H         SYMBOL        a
  X:02A9H         SYMBOL        b
  -------         DO            
  X:02AFH         SYMBOL        x
  D:0006H         SYMBOL        y
  X:02B1H         SYMBOL        sum
  -------         ENDDO         
  C:9947H         LINE#         235
  C:9947H         LINE#         236
  C:9947H         LINE#         239
  C:9956H         LINE#         240
  C:995DH         LINE#         241
  C:998CH         LINE#         242
  C:999AH         LINE#         243
  C:999AH         LINE#         244
  C:99A3H         LINE#         245
  C:99B1H         LINE#         246
  C:99B3H         LINE#         248
  C:99B3H         LINE#         249
  C:99BFH         LINE#         250
  C:99BFH         LINE#         252
  C:99CDH         LINE#         253
  C:99CDH         LINE#         254
  C:99D6H         LINE#         255
  C:99DCH         LINE#         256
  C:99DEH         LINE#         258
  C:99DEH         LINE#         259
  C:99EAH         LINE#         260
  C:99EAH         LINE#         261
  C:99F0H         LINE#         262
  -------         ENDPROC       TIMEINTERVAL
  -------         PROC          INIT
  C:9319H         LINE#         279
  C:9319H         LINE#         280
  C:9319H         LINE#         281
  C:931CH         LINE#         282
  C:931FH         LINE#         283
  C:9321H         LINE#         284
  C:9323H         LINE#         285
  C:932CH         LINE#         286
  C:932FH         LINE#         288
  C:9332H         LINE#         295
  C:9334H         LINE#         304
BL51 BANKED LINKER/LOCATER V6.22                                                      07/10/2019  15:34:23  PAGE 61


  C:9337H         LINE#         307
  C:9346H         LINE#         310
  C:9348H         LINE#         311
  C:934AH         LINE#         312
  C:934CH         LINE#         313
  C:934EH         LINE#         314
  C:9350H         LINE#         316
  C:9357H         LINE#         322
  C:935AH         LINE#         330
  C:935DH         LINE#         333
  C:9360H         LINE#         334
  C:9365H         LINE#         339
  C:9370H         LINE#         340
  C:937CH         LINE#         342
  C:937FH         LINE#         348
  C:9382H         LINE#         351
  C:9385H         LINE#         352
  C:9388H         LINE#         359
  C:938AH         LINE#         360
  C:9391H         LINE#         363
  C:93A0H         LINE#         364
  C:93A8H         LINE#         366
  C:93B7H         LINE#         368
  C:93BCH         LINE#         379
  C:93BFH         LINE#         380
  C:93CEH         LINE#         381
  C:93DDH         LINE#         383
  C:93E7H         LINE#         386
  C:93EAH         LINE#         387
  -------         ENDPROC       INIT
  -------         PROC          _GETMESSAGE
  D:0007H         SYMBOL        Msg
  C:B82BH         LINE#         403
  C:B82BH         LINE#         404
  C:B82BH         LINE#         405
  -------         ENDPROC       _GETMESSAGE
  -------         PROC          _DISPATCHMESSAGE
  D:0007H         SYMBOL        Msg
  C:B528H         LINE#         422
  C:B528H         LINE#         423
  C:B528H         LINE#         424
  C:B537H         LINE#         425
  C:B537H         LINE#         426
  C:B537H         LINE#         427
  C:B53AH         LINE#         428
  C:B53AH         LINE#         429
  C:B53AH         LINE#         430
  C:B53DH         LINE#         431
  C:B53DH         LINE#         432
  C:B53DH         LINE#         433
  C:B540H         LINE#         434
  C:B540H         LINE#         438
  C:B540H         LINE#         439
  C:B540H         LINE#         440
  C:B540H         LINE#         441
  -------         ENDPROC       _DISPATCHMESSAGE
  -------         PROC          MAINTASK
BL51 BANKED LINKER/LOCATER V6.22                                                      07/10/2019  15:34:23  PAGE 62


  -------         DO            
  D:0017H         SYMBOL        Msg
  X:029EH         SYMBOL        i
  -------         ENDDO         
  C:65BAH         LINE#         457
  C:65BAH         LINE#         458
  C:65BAH         LINE#         462
  C:65BDH         LINE#         464
  C:65C4H         LINE#         466
  C:65D0H         LINE#         467
  C:65DCH         LINE#         472
  C:65DCH         LINE#         473
  C:65DCH         LINE#         474
  C:65DFH         LINE#         475
  C:65E4H         LINE#         476
  C:65E9H         LINE#         477
  C:65ECH         LINE#         478
  C:65ECH         LINE#         479
  C:65EEH         LINE#         480
  C:65F1H         LINE#         481
  C:65F1H         LINE#         563
  C:65F7H         LINE#         564
  C:65F7H         LINE#         565
  C:65F9H         LINE#         566
  C:6620H         LINE#         567
  C:6620H         LINE#         568
  C:6624H         LINE#         569
  C:6629H         LINE#         570
  C:662CH         LINE#         571
  C:6631H         LINE#         572
  C:6636H         LINE#         573
  C:663BH         LINE#         574
  C:6640H         LINE#         575
  C:6643H         LINE#         576
  C:6649H         LINE#         579
  C:664EH         LINE#         580
  C:664EH         LINE#         581
  C:6677H         LINE#         582
  C:669BH         LINE#         584
  C:66A9H         LINE#         586
  C:66A9H         LINE#         588
  C:66A9H         LINE#         589
  C:66B0H         LINE#         590
  C:66C9H         LINE#         591
  C:66E3H         LINE#         593
  C:66E3H         LINE#         594
  C:66E3H         LINE#         596
  C:66E9H         LINE#         597
  C:66E9H         LINE#         598
  C:66EBH         LINE#         599
  C:6710H         LINE#         600
  C:6710H         LINE#         601
  C:6713H         LINE#         602
  C:6718H         LINE#         603
  C:6733H         LINE#         604
  C:6758H         LINE#         605
  C:6758H         LINE#         606
BL51 BANKED LINKER/LOCATER V6.22                                                      07/10/2019  15:34:23  PAGE 63


  C:675BH         LINE#         608
  C:6760H         LINE#         609
  C:6765H         LINE#         610
  C:676AH         LINE#         611
  C:676FH         LINE#         612
  C:6796H         LINE#         613
  C:6796H         LINE#         614
  C:679BH         LINE#         615
  C:679BH         LINE#         616
  C:67C4H         LINE#         617
  C:67EBH         LINE#         618
  C:67FAH         LINE#         619
  C:67FAH         LINE#         620
  C:67FAH         LINE#         622
  C:67FAH         LINE#         623
  C:681CH         LINE#         624
  C:681CH         LINE#         625
  C:681CH         LINE#         626
  C:681CH         LINE#         627
  C:6845H         LINE#         628
  C:6867H         LINE#         630
  C:686AH         LINE#         631
  C:686FH         LINE#         632
  C:6874H         LINE#         633
  C:6879H         LINE#         634
  C:687EH         LINE#         635
  C:687EH         LINE#         637
  C:687EH         LINE#         638
  C:687EH         LINE#         639
  C:687EH         LINE#         640
  C:6881H         LINE#         642
  C:6892H         LINE#         643
  C:6892H         LINE#         644
  C:68BBH         LINE#         645
  C:68E2H         LINE#         647
  C:68EAH         LINE#         648
  C:68EAH         LINE#         650
  C:68EAH         LINE#         651
  C:68F1H         LINE#         652
  C:690AH         LINE#         653
  C:6924H         LINE#         654
  C:6924H         LINE#         655
  C:6924H         LINE#         656
  -------         ENDPROC       MAINTASK
  -------         PROC          MAIN
  C:B3CAH         LINE#         673
  C:B3CAH         LINE#         674
  C:B3CAH         LINE#         676
  C:B3CDH         LINE#         677
  C:B3CFH         LINE#         678
  C:B3D6H         LINE#         680
  C:B3D9H         LINE#         682
  C:B3DBH         LINE#         684
  C:B3E6H         LINE#         686
  C:B3E6H         LINE#         687
  C:B3E6H         LINE#         688
  C:B3E7H         LINE#         690
BL51 BANKED LINKER/LOCATER V6.22                                                      07/10/2019  15:34:23  PAGE 64


  -------         ENDPROC       MAIN
  -------         ENDMOD        MAIN

  -------         MODULE        PARAMETER
  C:0000H         SYMBOL        _ICE_DUMMY_
  C:AA00H         PUBLIC        ParameterData
  -------         ENDMOD        PARAMETER

  -------         MODULE        SINGLEBUS
  C:0000H         SYMBOL        _ICE_DUMMY_
  C:B5E9H         PUBLIC        TimerOutManager
  D:002AH         PUBLIC        byBus0DisableCount
  D:0080H         PUBLIC        P0
  D:00B2H         PUBLIC        P3M0
  D:0090H         PUBLIC        P1
  C:A570H         PUBLIC        _ParaCrcCheck
  D:00B1H         PUBLIC        P3M1
  D:00A0H         PUBLIC        P2
  D:00B0H         PUBLIC        P3
  D:00C0H         PUBLIC        P4
  D:00C8H         PUBLIC        P5
  B:00A8H.7       PUBLIC        EA
  B:0021H.7       PUBLIC        bBusy
  B:0022H.2       PUBLIC        bBus0Enable
  B:0023H.7       PUBLIC        bWaitAck
  B:0024H.4       PUBLIC        bEnCallDeal
  D:00A8H         PUBLIC        IE
  B:0025H.0       PUBLIC        bPWState
  B:0025H.4       PUBLIC        bConfusionNoting
  B:00B0H.4       PUBLIC        Bus0SendPin
  D:002BH         PUBLIC        byBus0TxTail
  C:AAA6H         PUBLIC        CalcParaCrc
  D:00DAH         PUBLIC        CCAPM0
  B:0022H.1       PUBLIC        bBus0OnRec
  D:00B8H         PUBLIC        IP
  B:0022H.5       PUBLIC        bBus0OnSendFreq
  B:0024H.2       PUBLIC        bEnHelpDeal
  B:0026H.2       PUBLIC        bEnAllBroad
  B:0098H.1       PUBLIC        TI
  B:0023H.2       PUBLIC        bOfficeBroad
  B:00B0H.3       PUBLIC        Bus0RecPin
  D:002CH         PUBLIC        byBus0RecTimeOut
  B:0021H.5       PUBLIC        bDealKeyDown
  B:0021H.0       PUBLIC        bLanding
  D:00D8H         PUBLIC        CCON
  C:B76FH         PUBLIC        Bus0RecInt
  C:A5D5H         PUBLIC        _ReadParameter
  B:0026H.5       PUBLIC        bEnAutoListen
  C:B3AAH         PUBLIC        Bus0Manage
  C:AFD0H         PUBLIC        SingleBusInit
  B:0026H.6       PUBLIC        bEnVoiceNote
  B:0023H.5       PUBLIC        bChannel0Talked
  B:0022H.4       PUBLIC        bBus0OnSendBit
  B:0021H.3       PUBLIC        bChannel1Talked
  B:0021H.4       PUBLIC        bNurseIn
  B:0025H.3       PUBLIC        bServiceNoting
  B:0024H.6       PUBLIC        bEnHandDown
BL51 BANKED LINKER/LOCATER V6.22                                                      07/10/2019  15:34:23  PAGE 65


  B:0026H.0       PUBLIC        bEnSickRoomBroad
  B:0027H.2       PUBLIC        bBus0SendFinish
  D:0099H         PUBLIC        SBUF
  D:0021H         PUBLIC        byDevState1
  D:0023H         PUBLIC        byDevState2
  D:0098H         PUBLIC        SCON
  B:0027H.1       PUBLIC        bBus0RecBit9
  B:0024H.3       PUBLIC        bEnEmergencyDeal
  D:0025H         PUBLIC        byDevState3
  D:0089H         PUBLIC        TMOD
  D:0088H         PUBLIC        TCON
  C:7A88H         PUBLIC        TimerOutDeal
  C:94C0H         PUBLIC        _SaveParameter
  B:0026H.3       PUBLIC        bEnSoundNote
  C:87FAH         PUBLIC        InitParameter
  B:0025H.7       PUBLIC        bCalledRing
  B:0088H.3       PUBLIC        IE1
  B:0027H.0       PUBLIC        bBus0RecFinish
  B:0025H.5       PUBLIC        bMusicPlaying
  D:008EH         PUBLIC        AUXR
  D:002DH         PUBLIC        byBus0SendData
  D:00C7H         PUBLIC        IAP_CONTR
  C:6F45H         PUBLIC        UsartSendSBNextFrame
  C:0009H         PUBLIC        SysReset
  D:00E0H         PUBLIC        ACC
  C:AC81H         PUBLIC        _AddrCompare
  B:00A8H.1       PUBLIC        ET0
  B:0088H.5       PUBLIC        TF0
  B:0022H.7       PUBLIC        bBus0Error
  D:008CH         PUBLIC        TH0
  B:0088H.2       PUBLIC        IT1
  B:00A8H.2       PUBLIC        EX1
  B:0025H.6       PUBLIC        bVoiceNoting
  D:008AH         PUBLIC        TL0
  D:0034H         PUBLIC        byBus0RecData
  D:003BH         PUBLIC        byBus0SendCount
  B:0026H.1       PUBLIC        bEnOfficeBroad
  B:0024H.5       PUBLIC        bEnMusicplay
  B:0021H.6       PUBLIC        bSetKeyDown
  B:0088H.4       PUBLIC        TR0
  D:003CH         PUBLIC        byBus0TxQ
  D:0026H         PUBLIC        byEnable1
  D:00C1H         PUBLIC        WDT_CONTR
  B:0022H.6       PUBLIC        bBus0SendError
  D:0024H         PUBLIC        byEnable2
  B:0023H.0       PUBLIC        bSelfBroad
  B:0026H.7       PUBLIC        bEnHandleDeal
  B:0023H.4       PUBLIC        bChannel0Talk
  B:0024H.0       PUBLIC        bEnInfusionDeal
  B:0021H.2       PUBLIC        bChannel1Talk
  C:56C6H         PUBLIC        Bus0SendDeal
  C:6C4DH         PUBLIC        Timer0Int
  D:0060H         PUBLIC        byBus0RecCount
  B:0025H.2       PUBLIC        bHelpNoting
  B:0026H.4       PUBLIC        bEnOutRing
  D:0061H         PUBLIC        byBus0SendBuf
  B:0024H.1       PUBLIC        bEnServiceDeal
BL51 BANKED LINKER/LOCATER V6.22                                                      07/10/2019  15:34:23  PAGE 66


  B:0023H.1       PUBLIC        bAllBroad
  B:0021H.1       PUBLIC        bIndicatingOther
  C:AF69H         PUBLIC        _DirAddrCompare
  B:0027H.4       PUBLIC        bBus0SendBit
  B:0022H.0       PUBLIC        bBus0StartRec
  D:0022H         PUBLIC        byBus0State0
  B:0023H.6       PUBLIC        bWaitListen
  D:0062H         PUBLIC        byBus0RecSendCount
  D:0027H         PUBLIC        byBus0State1
  C:9FA1H         PUBLIC        _Bus0OutputData
  C:3CD4H         PUBLIC        Bus0RecDeal
  D:0063H         PUBLIC        byBus0RecBuf
  C:B743H         PUBLIC        _BcdToHex
  B:0022H.3       PUBLIC        bBus0ReqSend
  B:0027H.3       PUBLIC        bBus0Disable
  D:0064H         PUBLIC        byBus0TxHead
  B:0023H.3       PUBLIC        bSickRoomBroad
  D:00D0H         PUBLIC        PSW
  C:B7C8H         PUBLIC        _MakeCH0TimerOut
  D:0065H         PUBLIC        byBus0SendStopCount
  B:0027H.5       PUBLIC        bBus0RecBit
  B:0025H.1       PUBLIC        bEmergencyNoting
  -------         PROC          SINGLEBUSINIT
  C:AFD0H         LINE#         81
  C:AFD0H         LINE#         82
  C:AFD0H         LINE#         92
  C:AFD3H         LINE#         93
  C:AFD6H         LINE#         96
  C:AFD9H         LINE#         97
  C:AFDCH         LINE#         100
  C:AFDEH         LINE#         101
  C:AFE0H         LINE#         105
  C:AFE3H         LINE#         106
  C:AFE6H         LINE#         108
  C:AFE9H         LINE#         109
  C:AFECH         LINE#         110
  C:AFEEH         LINE#         111
  C:AFF1H         LINE#         112
  C:AFF3H         LINE#         113
  C:AFF5H         LINE#         115
  C:AFF8H         LINE#         116
  C:AFFAH         LINE#         117
  C:AFFCH         LINE#         118
  C:AFFFH         LINE#         119
  C:AFFFH         LINE#         120
  C:B001H         LINE#         121
  C:B002H         LINE#         123
  C:B002H         LINE#         124
  C:B004H         LINE#         125
  C:B004H         LINE#         126
  -------         ENDPROC       SINGLEBUSINIT
  -------         PROC          BUS0RECINT
  C:B76FH         LINE#         143
  C:B771H         LINE#         145
  C:B773H         LINE#         146
  C:B775H         LINE#         147
  C:B777H         LINE#         148
BL51 BANKED LINKER/LOCATER V6.22                                                      07/10/2019  15:34:23  PAGE 67


  C:B77AH         LINE#         149
  -------         ENDPROC       BUS0RECINT
  -------         PROC          TIMER0INT
  C:6C4DH         LINE#         167
  C:6C66H         LINE#         169
  C:6C68H         LINE#         170
  C:6C6BH         LINE#         171
  C:6C6EH         LINE#         172
  C:6C70H         LINE#         173
  C:6C74H         LINE#         175
  C:6C77H         LINE#         176
  C:6C77H         LINE#         177
  C:6C7DH         LINE#         178
  C:6C86H         LINE#         179
  C:6C86H         LINE#         180
  C:6C88H         LINE#         181
  C:6C8AH         LINE#         182
  C:6C8DH         LINE#         183
  C:6C8DH         LINE#         184
  C:6C93H         LINE#         185
  C:6C93H         LINE#         186
  C:6C96H         LINE#         187
  C:6C98H         LINE#         188
  C:6C9AH         LINE#         189
  C:6C9AH         LINE#         190
  C:6C9DH         LINE#         191
  C:6CA0H         LINE#         192
  C:6CA0H         LINE#         193
  C:6CA2H         LINE#         195
  C:6CA2H         LINE#         196
  C:6CA4H         LINE#         197
  C:6CA4H         LINE#         198
  C:6CA4H         LINE#         199
  C:6CA7H         LINE#         200
  C:6CADH         LINE#         201
  C:6CADH         LINE#         202
  C:6CB3H         LINE#         203
  C:6CBCH         LINE#         204
  C:6CBCH         LINE#         205
  C:6CBFH         LINE#         206
  C:6CC1H         LINE#         207
  C:6CCAH         LINE#         208
  C:6CCAH         LINE#         209
  C:6CCCH         LINE#         210
  C:6CCFH         LINE#         211
  C:6CCFH         LINE#         212
  C:6CDBH         LINE#         213
  C:6CDBH         LINE#         214
  C:6CDEH         LINE#         215
  C:6CE1H         LINE#         216
  C:6CE3H         LINE#         218
  C:6CE3H         LINE#         219
  C:6CE6H         LINE#         220
  C:6CF0H         LINE#         221
  C:6CF6H         LINE#         222
  C:6CFDH         LINE#         223
  C:6CFDH         LINE#         224
BL51 BANKED LINKER/LOCATER V6.22                                                      07/10/2019  15:34:23  PAGE 68


  C:6D00H         LINE#         225
  C:6D06H         LINE#         226
  C:6D06H         LINE#         227
  C:6D08H         LINE#         228
  C:6D08H         LINE#         229
  C:6D0BH         LINE#         230
  C:6D0EH         LINE#         231
  C:6D10H         LINE#         232
  C:6D10H         LINE#         233
  C:6D10H         LINE#         234
  C:6D13H         LINE#         235
  C:6D17H         LINE#         236
  C:6D19H         LINE#         238
  C:6D19H         LINE#         239
  C:6D1BH         LINE#         240
  C:6D21H         LINE#         241
  C:6D21H         LINE#         242
  C:6D24H         LINE#         243
  C:6D26H         LINE#         244
  C:6D28H         LINE#         245
  C:6D28H         LINE#         246
  C:6D2BH         LINE#         247
  C:6D2BH         LINE#         248
  C:6D2DH         LINE#         249
  C:6D30H         LINE#         250
  C:6D30H         LINE#         251
  C:6D34H         LINE#         252
  C:6D36H         LINE#         254
  C:6D36H         LINE#         255
  C:6D3CH         LINE#         256
  C:6D3FH         LINE#         257
  C:6D3FH         LINE#         258
  C:6D42H         LINE#         259
  C:6D42H         LINE#         260
  C:6D42H         LINE#         261
  C:6D42H         LINE#         262
  C:6D42H         LINE#         264
  C:6D4AH         LINE#         265
  C:6D4AH         LINE#         266
  C:6D4DH         LINE#         267
  C:6D4DH         LINE#         268
  C:6D4FH         LINE#         269
  C:6D51H         LINE#         270
  C:6D53H         LINE#         271
  C:6D56H         LINE#         272
  C:6D60H         LINE#         273
  C:6D62H         LINE#         274
  C:6D65H         LINE#         276
  C:6D65H         LINE#         277
  C:6D68H         LINE#         278
  C:6D6AH         LINE#         279
  C:6D6DH         LINE#         280
  C:6D6DH         LINE#         281
  C:6D6DH         LINE#         282
  C:6D6DH         LINE#         283
  C:6D70H         LINE#         284
  C:6D76H         LINE#         285
BL51 BANKED LINKER/LOCATER V6.22                                                      07/10/2019  15:34:23  PAGE 69


  C:6D76H         LINE#         286
  C:6D7EH         LINE#         287
  C:6D7EH         LINE#         288
  C:6D84H         LINE#         289
  C:6D8AH         LINE#         290
  C:6D8AH         LINE#         291
  C:6D8DH         LINE#         292
  C:6D8FH         LINE#         293
  C:6D97H         LINE#         294
  C:6D97H         LINE#         295
  C:6DA0H         LINE#         296
  C:6DA4H         LINE#         297
  C:6DA6H         LINE#         298
  C:6DA9H         LINE#         299
  C:6DA9H         LINE#         300
  C:6DABH         LINE#         301
  C:6DADH         LINE#         302
  C:6DAFH         LINE#         303
  C:6DB7H         LINE#         304
  C:6DB7H         LINE#         305
  C:6DB9H         LINE#         306
  C:6DBBH         LINE#         307
  C:6DC4H         LINE#         308
  C:6DC4H         LINE#         309
  C:6DC7H         LINE#         310
  C:6DCAH         LINE#         311
  C:6DCDH         LINE#         312
  C:6DD0H         LINE#         313
  C:6DD3H         LINE#         314
  C:6DD5H         LINE#         316
  C:6DD5H         LINE#         317
  C:6DD8H         LINE#         318
  C:6DDAH         LINE#         319
  C:6DDAH         LINE#         320
  C:6DDEH         LINE#         321
  C:6DE0H         LINE#         323
  C:6DE0H         LINE#         324
  C:6DE5H         LINE#         325
  C:6DE5H         LINE#         326
  C:6DE7H         LINE#         327
  C:6DE9H         LINE#         328
  C:6DEBH         LINE#         330
  C:6DEBH         LINE#         331
  C:6DEDH         LINE#         332
  C:6DEFH         LINE#         333
  C:6DEFH         LINE#         334
  C:6DF5H         LINE#         335
  C:6DF5H         LINE#         336
  C:6DF5H         LINE#         337
  C:6DF7H         LINE#         339
  C:6DF7H         LINE#         340
  C:6DFAH         LINE#         341
  C:6DFDH         LINE#         342
  C:6DFFH         LINE#         343
  C:6E01H         LINE#         344
  C:6E04H         LINE#         345
  C:6E04H         LINE#         346
BL51 BANKED LINKER/LOCATER V6.22                                                      07/10/2019  15:34:23  PAGE 70


  C:6E04H         LINE#         348
  C:6E0AH         LINE#         349
  C:6E0AH         LINE#         350
  C:6E0EH         LINE#         351
  C:6E0EH         LINE#         352
  C:6E11H         LINE#         353
  C:6E11H         LINE#         354
  C:6E13H         LINE#         355
  C:6E13H         LINE#         356
  C:6E13H         LINE#         357
  C:6E16H         LINE#         358
  C:6E16H         LINE#         359
  C:6E18H         LINE#         360
  C:6E1BH         LINE#         361
  C:6E1BH         LINE#         362
  C:6E1DH         LINE#         363
  C:6E21H         LINE#         364
  C:6E24H         LINE#         365
  C:6E24H         LINE#         366
  C:6E24H         LINE#         367
  C:6E24H         LINE#         369
  C:6E28H         LINE#         370
  C:6E28H         LINE#         371
  C:6E2BH         LINE#         372
  C:6E2BH         LINE#         373
  C:6E2EH         LINE#         374
  C:6E2EH         LINE#         375
  C:6E2EH         LINE#         376
  C:6E32H         LINE#         377
  C:6E32H         LINE#         378
  C:6E35H         LINE#         379
  C:6E35H         LINE#         380
  C:6E37H         LINE#         381
  C:6E37H         LINE#         382
  C:6E37H         LINE#         384
  C:6E40H         LINE#         385
  C:6E40H         LINE#         386
  C:6E43H         LINE#         387
  C:6E43H         LINE#         388
  C:6E45H         LINE#         389
  C:6E45H         LINE#         390
  C:6E48H         LINE#         392
  C:6E48H         LINE#         393
  C:6E51H         LINE#         394
  C:6E51H         LINE#         395
  C:6E75H         LINE#         396
  C:6E75H         LINE#         397
  C:6E7DH         LINE#         398
  C:6E8DH         LINE#         399
  C:6E95H         LINE#         400
  C:6EA6H         LINE#         401
  C:6EAEH         LINE#         402
  C:6EBFH         LINE#         403
  C:6EC7H         LINE#         404
  C:6ED8H         LINE#         405
  C:6EE0H         LINE#         406
  C:6EF1H         LINE#         407
BL51 BANKED LINKER/LOCATER V6.22                                                      07/10/2019  15:34:23  PAGE 71


  C:6EF9H         LINE#         408
  C:6F0AH         LINE#         409
  C:6F12H         LINE#         410
  C:6F23H         LINE#         411
  C:6F26H         LINE#         412
  C:6F28H         LINE#         414
  C:6F28H         LINE#         415
  C:6F2EH         LINE#         416
  C:6F2EH         LINE#         417
  C:6F2EH         LINE#         418
  C:6F2EH         LINE#         419
  C:6F2EH         LINE#         420
  -------         ENDPROC       TIMER0INT
  C:9F95H         SYMBOL        L?0375
  C:9F97H         SYMBOL        L?0376
  C:9F9AH         SYMBOL        L?0377
  -------         PROC          L?0374
  -------         ENDPROC       L?0374
  C:9F95H         SYMBOL        L?0375
  C:9F97H         SYMBOL        L?0376
  C:9F9AH         SYMBOL        L?0377
  -------         PROC          _BUS0OUTPUTDATA
  X:02A5H         SYMBOL        pbyData
  -------         DO            
  X:02A8H         SYMBOL        byTemp
  -------         ENDDO         
  C:9FA1H         LINE#         437
  C:9FACH         LINE#         438
  C:9FACH         LINE#         439
  C:9FB0H         LINE#         441
  C:9FB4H         LINE#         442
  C:9FD2H         LINE#         443
  C:9FD2H         LINE#         444
  C:9FD7H         LINE#         445
  C:9FDAH         LINE#         446
  C:9FDAH         LINE#         447
  C:9FE4H         LINE#         448
  C:9FE4H         LINE#         449
  C:9FFFH         LINE#         450
  C:A010H         LINE#         451
  C:A012H         LINE#         452
  C:A017H         LINE#         453
  C:A019H         LINE#         454
  -------         ENDPROC       _BUS0OUTPUTDATA
  -------         PROC          _BCDTOHEX
  D:0007H         SYMBOL        byData
  -------         DO            
  D:0006H         SYMBOL        byRet
  -------         ENDDO         
  C:B743H         LINE#         471
  C:B743H         LINE#         472
  C:B743H         LINE#         475
  C:B747H         LINE#         476
  C:B74CH         LINE#         477
  C:B74FH         LINE#         478
  C:B750H         LINE#         479
  C:B751H         LINE#         480
BL51 BANKED LINKER/LOCATER V6.22                                                      07/10/2019  15:34:23  PAGE 72


  -------         ENDPROC       _BCDTOHEX
  C:AC7BH         SYMBOL        L?0381
  -------         PROC          L?0380
  -------         ENDPROC       L?0380
  C:AC7BH         SYMBOL        L?0381
  -------         PROC          _ADDRCOMPARE
  D:0001H         SYMBOL        pstBusFreq
  C:AC81H         LINE#         497
  C:AC81H         LINE#         498
  C:AC81H         LINE#         499
  C:AC92H         LINE#         500
  C:AC92H         LINE#         501
  C:AC94H         LINE#         502
  C:AC94H         LINE#         503
  C:ACA5H         LINE#         504
  C:ACA5H         LINE#         505
  C:ACA7H         LINE#         506
  C:ACA7H         LINE#         507
  C:ACB8H         LINE#         508
  C:ACB8H         LINE#         509
  C:ACBAH         LINE#         510
  C:ACBAH         LINE#         511
  C:ACBBH         LINE#         523
  -------         ENDPROC       _ADDRCOMPARE
  -------         PROC          L?0382
  -------         ENDPROC       L?0382
  -------         PROC          _DIRADDRCOMPARE
  D:0001H         SYMBOL        pstBusFreq
  C:AF69H         LINE#         539
  C:AF69H         LINE#         540
  C:AF69H         LINE#         541
  C:AF77H         LINE#         542
  C:AF77H         LINE#         543
  C:AF79H         LINE#         544
  C:AF79H         LINE#         545
  C:AF87H         LINE#         546
  C:AF87H         LINE#         547
  C:AF89H         LINE#         548
  C:AF89H         LINE#         549
  C:AF97H         LINE#         550
  C:AF97H         LINE#         551
  C:AF99H         LINE#         552
  C:AF99H         LINE#         553
  C:AF9AH         LINE#         554
  -------         ENDPROC       _DIRADDRCOMPARE
  -------         PROC          _MAKECH0TIMEROUT
  D:0007H         SYMBOL        byTimerOut
  D:0005H         SYMBOL        byTimerOutCount
  C:B7C8H         LINE#         570
  C:B7C8H         LINE#         571
  C:B7C8H         LINE#         572
  C:B7CDH         LINE#         573
  C:B7CFH         LINE#         574
  C:B7D2H         LINE#         575
  -------         ENDPROC       _MAKECH0TIMEROUT
  -------         PROC          SYSRESET
  C:0009H         LINE#         593
BL51 BANKED LINKER/LOCATER V6.22                                                      07/10/2019  15:34:23  PAGE 73


  C:0009H         LINE#         594
  C:0009H         LINE#         596
  -------         ENDPROC       SYSRESET
  C:94B8H         SYMBOL        L?0379
  -------         PROC          L?0378
  -------         ENDPROC       L?0378
  C:94B8H         SYMBOL        L?0379
  -------         PROC          _SAVEPARAMETER
  X:02A3H         SYMBOL        addr
  -------         DO            
  X:02A5H         SYMBOL        i
  X:02A6H         SYMBOL        pbyData
  -------         ENDDO         
  C:94C0H         LINE#         613
  C:94C8H         LINE#         614
  C:94C8H         LINE#         616
  C:94D6H         LINE#         617
  C:94DDH         LINE#         619
  C:94E2H         LINE#         620
  C:94E8H         LINE#         621
  C:94EDH         LINE#         623
  C:94F2H         LINE#         624
  C:94F2H         LINE#         625
  C:950CH         LINE#         626
  C:9516H         LINE#         627
  C:9524H         LINE#         628
  C:9530H         LINE#         630
  C:953EH         LINE#         632
  C:9543H         LINE#         633
  C:9543H         LINE#         634
  C:955DH         LINE#         635
  C:9567H         LINE#         636
  C:9575H         LINE#         637
  C:9581H         LINE#         638
  -------         ENDPROC       _SAVEPARAMETER
  -------         PROC          _READPARAMETER
  X:02A0H         SYMBOL        addr
  -------         DO            
  X:02A2H         SYMBOL        i
  X:02A3H         SYMBOL        pbyData
  -------         ENDDO         
  C:A5D5H         LINE#         657
  C:A5DDH         LINE#         658
  C:A5DDH         LINE#         660
  C:A5E0H         LINE#         661
  C:A5EDH         LINE#         663
  C:A5F2H         LINE#         664
  C:A5F7H         LINE#         665
  C:A5F7H         LINE#         666
  C:A611H         LINE#         667
  C:A61BH         LINE#         668
  C:A629H         LINE#         669
  C:A635H         LINE#         670
  -------         ENDPROC       _READPARAMETER
  -------         PROC          _PARACRCCHECK
  X:02A0H         SYMBOL        addr
  -------         DO            
BL51 BANKED LINKER/LOCATER V6.22                                                      07/10/2019  15:34:23  PAGE 74


  X:02A2H         SYMBOL        crcResult
  X:02A3H         SYMBOL        crcData
  X:02A4H         SYMBOL        i
  D:0007H         SYMBOL        paraData
  -------         ENDDO         
  C:A570H         LINE#         675
  C:A578H         LINE#         676
  C:A578H         LINE#         677
  C:A57BH         LINE#         678
  C:A57DH         LINE#         681
  C:A582H         LINE#         682
  C:A587H         LINE#         683
  C:A587H         LINE#         684
  C:A592H         LINE#         685
  C:A598H         LINE#         686
  C:A5A6H         LINE#         687
  C:A5B2H         LINE#         688
  C:A5C2H         LINE#         689
  C:A5C5H         LINE#         691
  C:A5D2H         LINE#         692
  C:A5D4H         LINE#         693
  -------         ENDPROC       _PARACRCCHECK
  -------         PROC          CALCPARACRC
  -------         DO            
  X:02A3H         SYMBOL        crcResult
  D:0007H         SYMBOL        i
  X:02A4H         SYMBOL        addr
  -------         ENDDO         
  C:AAA6H         LINE#         697
  C:AAA6H         LINE#         698
  C:AAA6H         LINE#         699
  C:AAABH         LINE#         701
  C:AAB8H         LINE#         702
  C:AABDH         LINE#         703
  C:AABFH         LINE#         704
  C:AABFH         LINE#         705
  C:AAD4H         LINE#         706
  C:AADEH         LINE#         707
  C:AAE3H         LINE#         708
  C:AAE6H         LINE#         709
  C:AAEBH         LINE#         710
  -------         ENDPROC       CALCPARACRC
  -------         PROC          INITPARAMETER
  -------         DO            
  X:029FH         SYMBOL        flagData
  C:8860H         SYMBOL        InitParaVal
  -------         ENDDO         
  C:87FAH         LINE#         729
  C:87FAH         LINE#         730
  C:87FAH         LINE#         732
  C:8805H         LINE#         733
  C:8805H         LINE#         734
  C:880AH         LINE#         735
  C:8815H         LINE#         736
  C:8818H         LINE#         738
  C:8825H         LINE#         739
  C:8825H         LINE#         740
BL51 BANKED LINKER/LOCATER V6.22                                                      07/10/2019  15:34:23  PAGE 75


  C:8827H         LINE#         741
  C:8827H         LINE#         742
  C:8829H         LINE#         743
  C:8829H         LINE#         744
  C:8829H         LINE#         745
  C:8835H         LINE#         746
  C:8835H         LINE#         747
  C:883AH         LINE#         748
  C:8846H         LINE#         749
  C:8849H         LINE#         751
  C:8856H         LINE#         752
  C:8856H         LINE#         753
  C:885DH         LINE#         754
  C:885DH         LINE#         755
  C:8860H         LINE#         756
  C:8860H         LINE#         757
  C:8860H         LINE#         759
  C:8860H         LINE#         760
  C:8860H         LINE#         761
  C:8869H         LINE#         762
  C:8872H         LINE#         763
  C:887BH         LINE#         764
  C:8884H         LINE#         765
  C:888DH         LINE#         766
  C:8896H         LINE#         767
  C:889FH         LINE#         768
  C:88A8H         LINE#         769
  C:88B1H         LINE#         770
  C:88B6H         LINE#         771
  C:88B8H         LINE#         772
  C:88C0H         LINE#         773
  C:88C9H         LINE#         774
  C:88D2H         LINE#         775
  C:88DBH         LINE#         776
  C:88E4H         LINE#         777
  C:88EDH         LINE#         778
  C:8904H         LINE#         779
  C:890DH         LINE#         780
  C:8916H         LINE#         781
  C:891CH         LINE#         782
  C:891CH         LINE#         784
  -------         ENDPROC       INITPARAMETER
  -------         PROC          USARTSENDSBNEXTFRAME
  -------         DO            
  X:02A3H         SYMBOL        i
  X:02A4H         SYMBOL        pstDataFreq
  -------         ENDDO         
  C:6F45H         LINE#         787
  C:6F45H         LINE#         788
  C:6F45H         LINE#         789
  C:6F4BH         LINE#         790
  C:6F57H         LINE#         792
  C:6F61H         LINE#         793
  C:6F61H         LINE#         794
  C:6F6EH         LINE#         795
  C:6F73H         LINE#         796
  C:6F76H         LINE#         798
BL51 BANKED LINKER/LOCATER V6.22                                                      07/10/2019  15:34:23  PAGE 76


  C:6F76H         LINE#         801
  C:6F80H         LINE#         802
  C:6F80H         LINE#         803
  C:6F87H         LINE#         804
  C:6F8FH         LINE#         806
  C:6F92H         LINE#         807
  C:6FB1H         LINE#         808
  C:6FB1H         LINE#         809
  C:6FB1H         LINE#         810
  C:6FCEH         LINE#         811
  C:6FCEH         LINE#         812
  C:6FD3H         LINE#         813
  C:6FD3H         LINE#         814
  C:6FD3H         LINE#         815
  C:6FD3H         LINE#         816
  C:6FD5H         LINE#         818
  C:6FD5H         LINE#         819
  C:6FDAH         LINE#         820
  C:6FDAH         LINE#         821
  C:6FDAH         LINE#         822
  C:6FDAH         LINE#         823
  C:6FDAH         LINE#         825
  C:6FDCH         LINE#         826
  C:6FDCH         LINE#         828
  C:6FF6H         LINE#         829
  C:6FF6H         LINE#         830
  C:7003H         LINE#         831
  C:7003H         LINE#         832
  C:7003H         LINE#         833
  C:7003H         LINE#         834
  C:7005H         LINE#         836
  C:7005H         LINE#         837
  C:7012H         LINE#         838
  C:7012H         LINE#         839
  C:7012H         LINE#         840
  C:7012H         LINE#         841
  C:7012H         LINE#         843
  C:7015H         LINE#         844
  C:7015H         LINE#         845
  C:7032H         LINE#         846
  C:7032H         LINE#         847
  C:7061H         LINE#         848
  C:7083H         LINE#         849
  C:708BH         LINE#         850
  C:7092H         LINE#         851
  C:7094H         LINE#         853
  C:7094H         LINE#         854
  C:70BEH         LINE#         855
  C:70D3H         LINE#         856
  C:70E1H         LINE#         857
  C:70E8H         LINE#         858
  C:70E8H         LINE#         860
  C:70E8H         LINE#         861
  C:70E8H         LINE#         863
  C:70E8H         LINE#         865
  C:70EEH         LINE#         866
  C:70F2H         LINE#         867
BL51 BANKED LINKER/LOCATER V6.22                                                      07/10/2019  15:34:23  PAGE 77


  C:7117H         LINE#         869
  C:711CH         LINE#         871
  C:712EH         LINE#         872
  C:7135H         LINE#         873
  C:713CH         LINE#         875
  C:7146H         LINE#         876
  C:7150H         LINE#         877
  C:715AH         LINE#         879
  C:7162H         LINE#         880
  C:7169H         LINE#         882
  C:7171H         LINE#         885
  C:7198H         LINE#         886
  C:71B7H         LINE#         889
  C:71CAH         LINE#         890
  C:71CFH         LINE#         891
  C:71D9H         LINE#         893
  C:71DBH         LINE#         894
  C:71E1H         LINE#         896
  -------         ENDPROC       USARTSENDSBNEXTFRAME
  -------         PROC          BUS0RECDEAL
  -------         DO            
  X:029FH         SYMBOL        i
  X:02A0H         SYMBOL        pstDataFreq
  -------         ENDDO         
  C:3CD4H         LINE#         914
  C:3CD4H         LINE#         915
  C:3CD4H         LINE#         917
  C:3CE2H         LINE#         919
  C:3CE6H         LINE#         920
  C:3CF9H         LINE#         921
  C:3CFBH         LINE#         922
  C:3D00H         LINE#         937
  C:3D92H         LINE#         938
  C:3D92H         LINE#         939
  C:3D92H         LINE#         940
  C:3D98H         LINE#         941
  C:3D98H         LINE#         942
  C:3D9AH         LINE#         943
  C:3DA0H         LINE#         944
  C:3DC4H         LINE#         947
  C:3DC4H         LINE#         948
  C:3DCCH         LINE#         949
  C:3DD4H         LINE#         950
  C:3DDCH         LINE#         952
  C:3DDFH         LINE#         953
  C:3DE2H         LINE#         955
  C:3DE7H         LINE#         956
  C:3DECH         LINE#         957
  C:3DF6H         LINE#         958
  C:3DF6H         LINE#         960
  C:3E02H         LINE#         961
  C:3E02H         LINE#         962
  C:3E0AH         LINE#         964
  C:3E0DH         LINE#         965
  C:3E0DH         LINE#         966
  C:3E10H         LINE#         967
  C:3E10H         LINE#         969
BL51 BANKED LINKER/LOCATER V6.22                                                      07/10/2019  15:34:23  PAGE 78


  C:3E17H         LINE#         970
  C:3E17H         LINE#         971
  C:3E1AH         LINE#         972
  C:3E1AH         LINE#         973
  C:3E1DH         LINE#         974
  C:3E1FH         LINE#         979
  C:3E1FH         LINE#         980
  C:3E22H         LINE#         981
  C:3E22H         LINE#         982
  C:3E22H         LINE#         985
  C:3E27H         LINE#         986
  C:3E2AH         LINE#         987
  C:3E2AH         LINE#         988
  C:3E2AH         LINE#         989
  C:3E2AH         LINE#         990
  C:3E2AH         LINE#         991
  C:3E2DH         LINE#         994
  C:3E2DH         LINE#         995
  C:3E35H         LINE#         996
  C:3E35H         LINE#         997
  C:3E3DH         LINE#         998
  C:3E45H         LINE#         999
  C:3E4DH         LINE#         1000
  C:3E51H         LINE#         1001
  C:3E51H         LINE#         1002
  C:3E51H         LINE#         1003
  C:3E54H         LINE#         1005
  C:3E54H         LINE#         1007
  C:3E63H         LINE#         1008
  C:3E72H         LINE#         1009
  C:3E81H         LINE#         1010
  C:3E90H         LINE#         1011
  C:3E9DH         LINE#         1012
  C:3EA2H         LINE#         1013
  C:3EA6H         LINE#         1014
  C:3EA7H         LINE#         1016
  C:3EA7H         LINE#         1017
  C:3ED4H         LINE#         1020
  C:3ED4H         LINE#         1022
  C:3ED4H         LINE#         1023
  C:3ED4H         LINE#         1028
  C:3ED7H         LINE#         1030
  C:3ED7H         LINE#         1031
  C:3ED7H         LINE#         1032
  C:3ED7H         LINE#         1033
  C:3EFBH         LINE#         1036
  C:3EFBH         LINE#         1038
  C:3F05H         LINE#         1039
  C:3F07H         LINE#         1041
  C:3F07H         LINE#         1043
  C:3F14H         LINE#         1044
  C:3F14H         LINE#         1045
  C:3F14H         LINE#         1046
  C:3F14H         LINE#         1048
  C:3F1BH         LINE#         1049
  C:3F1BH         LINE#         1051
  C:3F21H         LINE#         1052
BL51 BANKED LINKER/LOCATER V6.22                                                      07/10/2019  15:34:23  PAGE 79


  C:3F21H         LINE#         1054
  C:3F21H         LINE#         1056
  C:3F35H         LINE#         1058
  C:3F35H         LINE#         1059
  C:3F35H         LINE#         1060
  C:3F35H         LINE#         1061
  C:3F35H         LINE#         1062
  C:3F3AH         LINE#         1063
  C:3F3DH         LINE#         1064
  C:3F43H         LINE#         1065
  C:3F43H         LINE#         1066
  C:3F43H         LINE#         1067
  C:3F43H         LINE#         1068
  C:3F46H         LINE#         1070
  C:3F46H         LINE#         1071
  C:3F4EH         LINE#         1072
  C:3F4EH         LINE#         1073
  C:3F55H         LINE#         1074
  C:3F6CH         LINE#         1075
  C:3F86H         LINE#         1077
  C:3F95H         LINE#         1078
  C:3FA4H         LINE#         1079
  C:3FB3H         LINE#         1080
  C:3FC2H         LINE#         1082
  C:3FC9H         LINE#         1083
  C:3FCBH         LINE#         1084
  C:3FCEH         LINE#         1086
  C:3FCEH         LINE#         1087
  C:3FD1H         LINE#         1090
  C:3FD7H         LINE#         1091
  C:3FD7H         LINE#         1093
  C:3FD7H         LINE#         1094
  C:3FDAH         LINE#         1096
  C:3FDAH         LINE#         1097
  C:3FE1H         LINE#         1098
  C:3FE1H         LINE#         1099
  C:3FE4H         LINE#         1100
  C:3FEDH         LINE#         1101
  C:3FEDH         LINE#         1102
  C:3FF0H         LINE#         1103
  C:3FF0H         LINE#         1104
  C:3FF8H         LINE#         1105
  C:3FF8H         LINE#         1106
  C:3FFEH         LINE#         1107
  C:4022H         LINE#         1110
  C:4022H         LINE#         1112
  C:402AH         LINE#         1113
  C:4032H         LINE#         1114
  C:4039H         LINE#         1116
  C:4039H         LINE#         1117
  C:403CH         LINE#         1118
  C:403CH         LINE#         1119
  C:403FH         LINE#         1120
  C:403FH         LINE#         1121
  C:403FH         LINE#         1122
  C:4048H         LINE#         1123
  C:4048H         LINE#         1125
BL51 BANKED LINKER/LOCATER V6.22                                                      07/10/2019  15:34:23  PAGE 80


  C:404CH         LINE#         1126
  C:404FH         LINE#         1127
  C:4055H         LINE#         1128
  C:4055H         LINE#         1129
  C:4055H         LINE#         1130
  C:4055H         LINE#         1131
  C:4058H         LINE#         1132
  C:4058H         LINE#         1133
  C:4058H         LINE#         1134
  C:4058H         LINE#         1135
  C:4060H         LINE#         1136
  C:4066H         LINE#         1137
  C:406CH         LINE#         1138
  C:406FH         LINE#         1140
  C:406FH         LINE#         1141
  C:4077H         LINE#         1142
  C:4077H         LINE#         1143
  C:407BH         LINE#         1145
  C:407EH         LINE#         1146
  C:4080H         LINE#         1147
  C:4082H         LINE#         1148
  C:4084H         LINE#         1149
  C:4087H         LINE#         1150
  C:4087H         LINE#         1151
  C:4088H         LINE#         1152
  C:4088H         LINE#         1153
  C:4088H         LINE#         1154
  C:4088H         LINE#         1155
  C:4088H         LINE#         1156
  C:4088H         LINE#         1157
  C:4088H         LINE#         1158
  C:4088H         LINE#         1159
  C:4088H         LINE#         1160
  C:4088H         LINE#         1161
  C:408BH         LINE#         1162
  C:4093H         LINE#         1164
  C:4093H         LINE#         1165
  C:4096H         LINE#         1167
  C:4096H         LINE#         1168
  C:4096H         LINE#         1181
  C:409BH         LINE#         1182
  C:409EH         LINE#         1183
  C:40A4H         LINE#         1184
  C:40A4H         LINE#         1185
  C:40A4H         LINE#         1186
  C:40A4H         LINE#         1187
  C:40A7H         LINE#         1188
  C:40A7H         LINE#         1189
  C:40A7H         LINE#         1190
  C:40A7H         LINE#         1191
  C:40ACH         LINE#         1192
  C:40AFH         LINE#         1193
  C:40B5H         LINE#         1194
  C:40B5H         LINE#         1195
  C:40B5H         LINE#         1196
  C:40B5H         LINE#         1197
  C:40B8H         LINE#         1198
BL51 BANKED LINKER/LOCATER V6.22                                                      07/10/2019  15:34:23  PAGE 81


  C:40B8H         LINE#         1199
  C:40B8H         LINE#         1200
  C:40B8H         LINE#         1201
  C:40B8H         LINE#         1202
  C:40BDH         LINE#         1203
  C:40C0H         LINE#         1204
  C:40C6H         LINE#         1205
  C:40C6H         LINE#         1206
  C:40C6H         LINE#         1207
  C:40C6H         LINE#         1208
  C:40C9H         LINE#         1210
  C:40C9H         LINE#         1211
  C:40D4H         LINE#         1212
  C:40D4H         LINE#         1213
  C:40D4H         LINE#         1214
  C:40D4H         LINE#         1215
  C:40D4H         LINE#         1216
  C:40D6H         LINE#         1217
  C:40E9H         LINE#         1219
  C:40EEH         LINE#         1221
  C:40FDH         LINE#         1222
  C:4102H         LINE#         1225
  C:4111H         LINE#         1226
  C:4116H         LINE#         1228
  C:411EH         LINE#         1230
  C:411EH         LINE#         1231
  C:4121H         LINE#         1232
  C:4121H         LINE#         1233
  C:4127H         LINE#         1234
  C:4127H         LINE#         1235
  C:4129H         LINE#         1236
  C:413CH         LINE#         1239
  C:4172H         LINE#         1241
  C:417BH         LINE#         1242
  C:417BH         LINE#         1243
  C:4181H         LINE#         1244
  C:4185H         LINE#         1245
  C:4185H         LINE#         1246
  C:41A0H         LINE#         1247
  C:41A0H         LINE#         1248
  C:41A0H         LINE#         1250
  C:41A8H         LINE#         1251
  C:41B0H         LINE#         1252
  C:41B8H         LINE#         1253
  C:41BCH         LINE#         1254
  C:41C4H         LINE#         1255
  C:41CDH         LINE#         1256
  C:41D4H         LINE#         1257
  C:41D7H         LINE#         1260
  C:41E2H         LINE#         1261
  C:41F6H         LINE#         1262
  C:41FFH         LINE#         1263
  C:41FFH         LINE#         1264
  C:4203H         LINE#         1265
  C:4211H         LINE#         1266
  C:4211H         LINE#         1269
  C:4220H         LINE#         1270
BL51 BANKED LINKER/LOCATER V6.22                                                      07/10/2019  15:34:23  PAGE 82


  C:4225H         LINE#         1271
  C:422AH         LINE#         1272
  C:422FH         LINE#         1273
  C:4234H         LINE#         1275
  C:4243H         LINE#         1276
  C:424AH         LINE#         1278
  C:424AH         LINE#         1279
  C:424DH         LINE#         1282
  C:4255H         LINE#         1283
  C:4255H         LINE#         1284
  C:4255H         LINE#         1285
  C:4258H         LINE#         1287
  C:4258H         LINE#         1288
  C:425BH         LINE#         1289
  C:4263H         LINE#         1291
  C:4263H         LINE#         1292
  C:4266H         LINE#         1293
  C:4266H         LINE#         1294
  C:426FH         LINE#         1296
  C:4272H         LINE#         1297
  C:4275H         LINE#         1298
  C:427BH         LINE#         1300
  C:42C6H         LINE#         1306
  C:42C6H         LINE#         1307
  C:42D9H         LINE#         1308
  C:42ECH         LINE#         1310
  C:42F2H         LINE#         1311
  C:42F8H         LINE#         1313
  C:42F8H         LINE#         1314
  C:42FBH         LINE#         1315
  C:42FBH         LINE#         1316
  C:4300H         LINE#         1317
  C:4303H         LINE#         1318
  C:4309H         LINE#         1319
  C:4312H         LINE#         1320
  C:4312H         LINE#         1321
  C:4312H         LINE#         1322
  C:4315H         LINE#         1323
  C:4315H         LINE#         1324
  C:4360H         LINE#         1330
  C:4360H         LINE#         1331
  C:4373H         LINE#         1332
  C:4386H         LINE#         1334
  C:438CH         LINE#         1335
  C:4392H         LINE#         1337
  C:4392H         LINE#         1338
  C:4395H         LINE#         1340
  C:4395H         LINE#         1341
  C:439AH         LINE#         1342
  C:439AH         LINE#         1343
  C:43A1H         LINE#         1344
  C:43A1H         LINE#         1345
  C:43A3H         LINE#         1346
  C:43ABH         LINE#         1347
  C:43ABH         LINE#         1348
  C:43B2H         LINE#         1349
  C:43B8H         LINE#         1350
BL51 BANKED LINKER/LOCATER V6.22                                                      07/10/2019  15:34:23  PAGE 83


  C:43B8H         LINE#         1351
  C:43B8H         LINE#         1352
  C:43B8H         LINE#         1353
  C:43B8H         LINE#         1354
  C:43BAH         LINE#         1356
  C:43BAH         LINE#         1357
  C:43C1H         LINE#         1358
  C:43C1H         LINE#         1359
  C:43C3H         LINE#         1361
  C:43C3H         LINE#         1362
  C:43D0H         LINE#         1363
  C:43D0H         LINE#         1364
  C:43D3H         LINE#         1365
  C:43D3H         LINE#         1366
  C:43D3H         LINE#         1368
  C:43D3H         LINE#         1369
  C:43E0H         LINE#         1370
  C:43E0H         LINE#         1371
  C:43E3H         LINE#         1372
  C:43E3H         LINE#         1373
  C:43E3H         LINE#         1375
  C:43E3H         LINE#         1376
  C:43EBH         LINE#         1377
  C:43F3H         LINE#         1378
  C:43FBH         LINE#         1379
  C:43FFH         LINE#         1380
  C:4407H         LINE#         1381
  C:4410H         LINE#         1382
  C:4418H         LINE#         1383
  C:441EH         LINE#         1384
  C:4421H         LINE#         1386
  C:4421H         LINE#         1387
  C:4428H         LINE#         1388
  C:442BH         LINE#         1389
  C:4435H         LINE#         1390
  C:4436H         LINE#         1393
  C:4436H         LINE#         1394
  C:4438H         LINE#         1395
  C:443BH         LINE#         1396
  C:4462H         LINE#         1399
  C:4462H         LINE#         1400
  C:446AH         LINE#         1401
  C:4472H         LINE#         1402
  C:447AH         LINE#         1404
  C:447DH         LINE#         1405
  C:4480H         LINE#         1407
  C:4485H         LINE#         1408
  C:4493H         LINE#         1409
  C:4493H         LINE#         1411
  C:4493H         LINE#         1413
  C:4493H         LINE#         1414
  C:4499H         LINE#         1415
  C:4499H         LINE#         1416
  C:449CH         LINE#         1417
  C:449CH         LINE#         1418
  C:44A7H         LINE#         1419
  C:44A7H         LINE#         1420
BL51 BANKED LINKER/LOCATER V6.22                                                      07/10/2019  15:34:23  PAGE 84


  C:44B2H         LINE#         1421
  C:44B7H         LINE#         1422
  C:44BCH         LINE#         1424
  C:44BCH         LINE#         1425
  C:44BCH         LINE#         1426
  C:44BCH         LINE#         1428
  C:44C3H         LINE#         1429
  C:44C3H         LINE#         1430
  C:44C3H         LINE#         1431
  C:44C5H         LINE#         1433
  C:44C5H         LINE#         1434
  C:44CDH         LINE#         1435
  C:44CDH         LINE#         1436
  C:44D3H         LINE#         1437
  C:44DDH         LINE#         1438
  C:44DDH         LINE#         1439
  C:44E4H         LINE#         1440
  C:44ECH         LINE#         1442
  C:44EFH         LINE#         1443
  C:44F5H         LINE#         1444
  C:4513H         LINE#         1445
  C:4518H         LINE#         1446
  C:4522H         LINE#         1448
  C:4524H         LINE#         1449
  C:452AH         LINE#         1450
  C:452BH         LINE#         1451
  C:452EH         LINE#         1452
  C:452EH         LINE#         1453
  C:452EH         LINE#         1454
  C:452EH         LINE#         1455
  C:4564H         LINE#         1456
  C:4564H         LINE#         1457
  C:4564H         LINE#         1458
  C:456EH         LINE#         1459
  C:4570H         LINE#         1460
  C:4570H         LINE#         1461
  C:457AH         LINE#         1462
  C:457CH         LINE#         1463
  C:457CH         LINE#         1464
  C:4586H         LINE#         1465
  C:4588H         LINE#         1466
  C:4588H         LINE#         1467
  C:458DH         LINE#         1468
  C:458FH         LINE#         1469
  C:458FH         LINE#         1470
  C:4599H         LINE#         1471
  C:459BH         LINE#         1472
  C:459BH         LINE#         1473
  C:45A0H         LINE#         1474
  C:45A2H         LINE#         1475
  C:45A2H         LINE#         1476
  C:45ACH         LINE#         1477
  C:45AEH         LINE#         1478
  C:45AEH         LINE#         1479
  C:45B3H         LINE#         1480
  C:45B5H         LINE#         1481
  C:45B5H         LINE#         1482
BL51 BANKED LINKER/LOCATER V6.22                                                      07/10/2019  15:34:23  PAGE 85


  C:45BEH         LINE#         1483
  C:45BEH         LINE#         1484
  C:45BEH         LINE#         1487
  C:45BEH         LINE#         1488
  C:45C1H         LINE#         1489
  C:45C7H         LINE#         1490
  C:45CDH         LINE#         1491
  C:45CFH         LINE#         1493
  C:45CFH         LINE#         1494
  C:45D8H         LINE#         1495
  C:45D8H         LINE#         1496
  C:45E0H         LINE#         1497
  C:45E6H         LINE#         1498
  C:45EFH         LINE#         1499
  C:45EFH         LINE#         1500
  C:45EFH         LINE#         1501
  C:45EFH         LINE#         1502
  C:45EFH         LINE#         1504
  C:45EFH         LINE#         1506
  C:45EFH         LINE#         1508
  C:45EFH         LINE#         1509
  C:45EFH         LINE#         1511
  C:45EFH         LINE#         1512
  -------         ENDPROC       BUS0RECDEAL
  -------         PROC          BUS0SENDDEAL
  -------         DO            
  X:029FH         SYMBOL        pstDataFreq
  X:02A2H         SYMBOL        i
  -------         ENDDO         
  C:56C6H         LINE#         1530
  C:56C6H         LINE#         1531
  C:56C6H         LINE#         1532
  C:56D4H         LINE#         1535
  C:56D8H         LINE#         1536
  C:56EBH         LINE#         1537
  C:56EDH         LINE#         1538
  C:56F2H         LINE#         1544
  C:5705H         LINE#         1545
  C:5705H         LINE#         1546
  C:5705H         LINE#         1547
  C:570BH         LINE#         1548
  C:570BH         LINE#         1549
  C:5712H         LINE#         1550
  C:5712H         LINE#         1551
  C:5712H         LINE#         1553
  C:5712H         LINE#         1554
  C:5714H         LINE#         1555
  C:5717H         LINE#         1556
  C:571AH         LINE#         1557
  C:571CH         LINE#         1558
  C:571DH         LINE#         1560
  C:571DH         LINE#         1561
  C:5723H         LINE#         1562
  C:572DH         LINE#         1563
  C:572DH         LINE#         1564
  C:5734H         LINE#         1565
  C:573CH         LINE#         1567
BL51 BANKED LINKER/LOCATER V6.22                                                      07/10/2019  15:34:23  PAGE 86


  C:573FH         LINE#         1570
  C:5757H         LINE#         1571
  C:5757H         LINE#         1572
  C:5757H         LINE#         1573
  C:5772H         LINE#         1574
  C:5787H         LINE#         1575
  C:5787H         LINE#         1576
  C:57A0H         LINE#         1577
  C:57C2H         LINE#         1578
  C:57CAH         LINE#         1579
  C:57D1H         LINE#         1580
  C:57D3H         LINE#         1582
  C:57D3H         LINE#         1583
  C:57E8H         LINE#         1584
  C:57FDH         LINE#         1585
  C:580BH         LINE#         1586
  C:5812H         LINE#         1587
  C:5812H         LINE#         1588
  C:5822H         LINE#         1589
  C:5825H         LINE#         1590
  C:5825H         LINE#         1591
  C:5840H         LINE#         1592
  C:5855H         LINE#         1593
  C:5855H         LINE#         1594
  C:586EH         LINE#         1595
  C:5890H         LINE#         1596
  C:5898H         LINE#         1597
  C:589FH         LINE#         1598
  C:58A1H         LINE#         1600
  C:58A1H         LINE#         1601
  C:58B6H         LINE#         1602
  C:58CBH         LINE#         1603
  C:58D9H         LINE#         1604
  C:58E0H         LINE#         1605
  C:58E0H         LINE#         1606
  C:58F0H         LINE#         1607
  C:58F3H         LINE#         1608
  C:58F3H         LINE#         1609
  C:590EH         LINE#         1610
  C:5923H         LINE#         1611
  C:5923H         LINE#         1612
  C:593CH         LINE#         1613
  C:595EH         LINE#         1614
  C:5966H         LINE#         1615
  C:596DH         LINE#         1616
  C:596FH         LINE#         1618
  C:596FH         LINE#         1619
  C:5984H         LINE#         1620
  C:5999H         LINE#         1621
  C:59A7H         LINE#         1622
  C:59AEH         LINE#         1623
  C:59AEH         LINE#         1624
  C:59C1H         LINE#         1625
  C:59C1H         LINE#         1626
  C:59C1H         LINE#         1628
  C:59C1H         LINE#         1631
  C:59C7H         LINE#         1632
BL51 BANKED LINKER/LOCATER V6.22                                                      07/10/2019  15:34:23  PAGE 87


  C:59CBH         LINE#         1633
  C:59EAH         LINE#         1635
  C:59EFH         LINE#         1637
  C:5A01H         LINE#         1638
  C:5A08H         LINE#         1639
  C:5A0FH         LINE#         1641
  C:5A19H         LINE#         1642
  C:5A23H         LINE#         1643
  C:5A2DH         LINE#         1645
  C:5A35H         LINE#         1646
  C:5A3CH         LINE#         1647
  C:5A44H         LINE#         1648
  C:5A4CH         LINE#         1650
  C:5A73H         LINE#         1651
  C:5A92H         LINE#         1654
  C:5AA5H         LINE#         1655
  C:5AAAH         LINE#         1656
  C:5AB4H         LINE#         1658
  C:5AB6H         LINE#         1659
  C:5ABCH         LINE#         1660
  C:5ABCH         LINE#         1662
  C:5ABCH         LINE#         1663
  C:5ABCH         LINE#         1665
  C:5ABCH         LINE#         1666
  -------         ENDPROC       BUS0SENDDEAL
  -------         PROC          BUS0MANAGE
  C:B3AAH         LINE#         1682
  C:B3AAH         LINE#         1683
  C:B3AAH         LINE#         1684
  C:B3AAH         LINE#         1685
  C:B3AAH         LINE#         1686
  C:B3ADH         LINE#         1687
  C:B3ADH         LINE#         1688
  C:B3B4H         LINE#         1689
  C:B3B4H         LINE#         1690
  C:B3B7H         LINE#         1691
  C:B3B7H         LINE#         1692
  C:B3BEH         LINE#         1693
  C:B3BEH         LINE#         1694
  C:B3C5H         LINE#         1695
  C:B3C8H         LINE#         1696
  -------         ENDPROC       BUS0MANAGE
  -------         PROC          TIMEROUTDEAL
  -------         DO            
  X:029FH         SYMBOL        i
  X:02A0H         SYMBOL        pstDataFreq
  C:7AB0H         SYMBOL        TIMER0OUTDEAL
  -------         ENDDO         
  C:7A88H         LINE#         1714
  C:7A88H         LINE#         1715
  C:7A88H         LINE#         1717
  C:7A96H         LINE#         1718
  C:7A9CH         LINE#         1719
  C:7A9CH         LINE#         1720
  C:7A9EH         LINE#         1721
  C:7AA1H         LINE#         1722
  C:7AA1H         LINE#         1723
BL51 BANKED LINKER/LOCATER V6.22                                                      07/10/2019  15:34:23  PAGE 88


  C:7AA5H         LINE#         1724
  C:7AA5H         LINE#         1725
  C:7AA7H         LINE#         1726
  C:7AA7H         LINE#         1728
  C:7AA7H         LINE#         1729
  C:7AADH         LINE#         1730
  C:7AB0H         LINE#         1731
  C:7AB0H         LINE#         1732
  C:7AB0H         LINE#         1733
  C:7AB3H         LINE#         1734
  C:7AB3H         LINE#         1735
  C:7ABBH         LINE#         1736
  C:7AC3H         LINE#         1737
  C:7ACBH         LINE#         1738
  C:7ACFH         LINE#         1739
  C:7AD7H         LINE#         1740
  C:7ADFH         LINE#         1741
  C:7AE6H         LINE#         1742
  C:7AE9H         LINE#         1746
  C:7AE9H         LINE#         1747
  C:7AEBH         LINE#         1749
  C:7AEBH         LINE#         1750
  C:7AF1H         LINE#         1751
  C:7AF1H         LINE#         1752
  C:7AF1H         LINE#         1753
  C:7AF1H         LINE#         1754
  C:7AF1H         LINE#         1755
  C:7AF7H         LINE#         1756
  C:7AF7H         LINE#         1757
  C:7AFBH         LINE#         1758
  C:7AFBH         LINE#         1759
  C:7AFFH         LINE#         1760
  C:7B02H         LINE#         1761
  C:7B08H         LINE#         1762
  C:7B08H         LINE#         1763
  C:7B08H         LINE#         1765
  C:7B11H         LINE#         1766
  C:7B11H         LINE#         1767
  C:7B13H         LINE#         1768
  C:7B19H         LINE#         1769
  C:7B1DH         LINE#         1770
  C:7B1DH         LINE#         1771
  C:7B1FH         LINE#         1772
  C:7B1FH         LINE#         1773
  C:7B1FH         LINE#         1775
  C:7B29H         LINE#         1776
  C:7B29H         LINE#         1777
  C:7B37H         LINE#         1778
  C:7B37H         LINE#         1779
  C:7B41H         LINE#         1780
  C:7B41H         LINE#         1781
  C:7B44H         LINE#         1782
  C:7B44H         LINE#         1783
  C:7B44H         LINE#         1784
  C:7B44H         LINE#         1803
  C:7B4AH         LINE#         1804
  C:7B4AH         LINE#         1805
BL51 BANKED LINKER/LOCATER V6.22                                                      07/10/2019  15:34:23  PAGE 89


  C:7B51H         LINE#         1806
  C:7B51H         LINE#         1807
  C:7B5AH         LINE#         1808
  C:7B5AH         LINE#         1809
  C:7B5EH         LINE#         1810
  C:7B5EH         LINE#         1812
  C:7B64H         LINE#         1813
  C:7B6EH         LINE#         1814
  C:7B6EH         LINE#         1815
  C:7B75H         LINE#         1816
  C:7B7DH         LINE#         1818
  C:7B80H         LINE#         1820
  C:7B86H         LINE#         1821
  C:7BA4H         LINE#         1822
  C:7BA9H         LINE#         1823
  C:7BB3H         LINE#         1825
  C:7BB5H         LINE#         1826
  C:7BBBH         LINE#         1827
  C:7BBCH         LINE#         1828
  C:7BBFH         LINE#         1829
  C:7BBFH         LINE#         1830
  C:7BBFH         LINE#         1831
  C:7BBFH         LINE#         1833
  C:7BBFH         LINE#         1834
  C:7BC7H         LINE#         1835
  C:7BC7H         LINE#         1836
  C:7BCAH         LINE#         1837
  C:7BCAH         LINE#         1838
  C:7BD4H         LINE#         1839
  C:7BD4H         LINE#         1840
  C:7BDAH         LINE#         1841
  C:7BDDH         LINE#         1842
  C:7BE0H         LINE#         1843
  C:7BE2H         LINE#         1844
  C:7BE2H         LINE#         1845
  C:7BE2H         LINE#         1846
  C:7BE4H         LINE#         1848
  C:7BE7H         LINE#         1849
  C:7BE7H         LINE#         1850
  C:7BF1H         LINE#         1851
  C:7BF1H         LINE#         1852
  C:7BF7H         LINE#         1853
  C:7BFAH         LINE#         1854
  C:7BFDH         LINE#         1855
  C:7BFFH         LINE#         1856
  C:7BFFH         LINE#         1857
  C:7BFFH         LINE#         1859
  C:7C01H         LINE#         1861
  C:7C04H         LINE#         1862
  C:7C04H         LINE#         1863
  C:7C0EH         LINE#         1864
  C:7C0EH         LINE#         1865
  C:7C14H         LINE#         1866
  C:7C17H         LINE#         1867
  C:7C1AH         LINE#         1868
  C:7C1CH         LINE#         1869
  C:7C22H         LINE#         1870
BL51 BANKED LINKER/LOCATER V6.22                                                      07/10/2019  15:34:23  PAGE 90


  C:7C22H         LINE#         1871
  C:7C22H         LINE#         1872
  C:7C22H         LINE#         1873
  C:7C22H         LINE#         1875
  -------         ENDPROC       TIMEROUTDEAL
  -------         PROC          TIMEROUTMANAGER
  C:B5E9H         LINE#         1891
  C:B5E9H         LINE#         1892
  C:B5E9H         LINE#         1893
  C:B5E9H         LINE#         1894
  C:B5E9H         LINE#         1895
  C:B5F0H         LINE#         1896
  C:B5F4H         LINE#         1897
  C:B5F4H         LINE#         1898
  C:B5F4H         LINE#         1899
  C:B5F4H         LINE#         1901
  C:B5F4H         LINE#         1902
  C:B5FBH         LINE#         1903
  C:B5FBH         LINE#         1904
  C:B5FEH         LINE#         1905
  -------         ENDPROC       TIMEROUTMANAGER
  -------         ENDMOD        SINGLEBUS

  -------         MODULE        SPI
  C:0000H         SYMBOL        _ICE_DUMMY_
  D:0092H         PUBLIC        P1M0
  D:0091H         PUBLIC        P1M1
  D:0080H         PUBLIC        P0
  D:0090H         PUBLIC        P1
  D:00A0H         PUBLIC        P2
  D:00B0H         PUBLIC        P3
  D:00C0H         PUBLIC        P4
  D:00C8H         PUBLIC        P5
  B:00A8H.7       PUBLIC        EA
  D:00CEH         PUBLIC        SPCTL
  C:B3E9H         PUBLIC        EPH1660MasterSPI
  D:00A8H         PUBLIC        IE
  D:00B8H         PUBLIC        IP
  C:970BH         PUBLIC        SPIInt
  B:00C8H.2       PUBLIC        SPI_CMD
  B:0090H.4       PUBLIC        EPH1660_CS
  D:00D8H         PUBLIC        CCON
  B:00C0H.4       PUBLIC        ADS7843_CS
  B:0090H.7       PUBLIC        SCLK
  D:0098H         PUBLIC        SCON
  D:0088H         PUBLIC        TCON
  B:0090H.5       PUBLIC        MOSI
  D:00AFH         PUBLIC        IE2
  C:B49FH         PUBLIC        MCUMasterSPI
  B:00C0H.1       PUBLIC        GT23L_CS
  D:00E0H         PUBLIC        ACC
  B:0090H.3       PUBLIC        WKICOM
  D:00CDH         PUBLIC        SPSTAT
  C:B78BH         PUBLIC        _SPI_WriteByte
  B:00C0H.5       PUBLIC        SST25VF_CS
  D:00D0H         PUBLIC        PSW
  D:00CFH         PUBLIC        SPDAT
BL51 BANKED LINKER/LOCATER V6.22                                                      07/10/2019  15:34:23  PAGE 91


  -------         PROC          MCUMASTERSPI
  C:B49FH         LINE#         45
  C:B49FH         LINE#         46
  C:B49FH         LINE#         48
  C:B4A1H         LINE#         49
  C:B4A3H         LINE#         50
  C:B4A5H         LINE#         51
  C:B4A7H         LINE#         53
  C:B4AAH         LINE#         55
  C:B4ADH         LINE#         56
  C:B4B0H         LINE#         57
  C:B4B2H         LINE#         64
  C:B4B5H         LINE#         66
  C:B4B8H         LINE#         67
  C:B4BBH         LINE#         68
  -------         ENDPROC       MCUMASTERSPI
  -------         PROC          _SPI_WRITEBYTE
  D:0007H         SYMBOL        dat
  C:B78BH         LINE#         107
  C:B78BH         LINE#         108
  C:B78BH         LINE#         109
  C:B78DH         LINE#         110
  C:B792H         LINE#         111
  C:B795H         LINE#         112
  C:B797H         LINE#         113
  -------         ENDPROC       _SPI_WRITEBYTE
  -------         PROC          EPH1660MASTERSPI
  C:B3E9H         LINE#         117
  C:B3E9H         LINE#         118
  C:B3E9H         LINE#         120
  C:B3EBH         LINE#         121
  C:B3EDH         LINE#         122
  C:B3EFH         LINE#         123
  C:B3F1H         LINE#         128
  C:B3F3H         LINE#         134
  C:B3F5H         LINE#         138
  C:B3F8H         LINE#         141
  C:B3FBH         LINE#         142
  C:B3FDH         LINE#         143
  C:B3FFH         LINE#         144
  C:B402H         LINE#         161
  C:B405H         LINE#         162
  C:B407H         LINE#         163
  -------         ENDPROC       EPH1660MASTERSPI
  -------         PROC          SPIINT
  -------         DO            
  C:97B5H         SYMBOL        MCUSndCmdFinish
  -------         ENDDO         
  C:970BH         LINE#         167
  C:971CH         LINE#         169
  C:971EH         LINE#         170
  C:9721H         LINE#         171
  C:9727H         LINE#         172
  C:972AH         LINE#         173
  C:972AH         LINE#         174
  C:972DH         LINE#         175
  C:972DH         LINE#         176
BL51 BANKED LINKER/LOCATER V6.22                                                      07/10/2019  15:34:23  PAGE 92


  C:9737H         LINE#         177
  C:9746H         LINE#         178
  C:974CH         LINE#         179
  C:9751H         LINE#         180
  C:9751H         LINE#         182
  C:975AH         LINE#         183
  C:975CH         LINE#         185
  C:9762H         LINE#         186
  C:9776H         LINE#         187
  C:9776H         LINE#         188
  C:9778H         LINE#         189
  C:9779H         LINE#         190
  C:9779H         LINE#         191
  C:9779H         LINE#         193
  C:977BH         LINE#         194
  C:9780H         LINE#         196
  C:9782H         LINE#         198
  C:9782H         LINE#         199
  C:9788H         LINE#         200
  C:9788H         LINE#         201
  C:978AH         LINE#         202
  C:978AH         LINE#         204
  C:978AH         LINE#         205
  C:9790H         LINE#         206
  C:9796H         LINE#         207
  C:979CH         LINE#         208
  C:979CH         LINE#         209
  C:97B3H         LINE#         210
  C:97B5H         LINE#         212
  C:97B5H         LINE#         213
  C:97B5H         LINE#         214
  C:97B7H         LINE#         215
  C:97B9H         LINE#         216
  C:97BBH         LINE#         217
  C:97BBH         LINE#         218
  C:97BBH         LINE#         219
  C:97BBH         LINE#         221
  C:97BDH         LINE#         222
  -------         ENDPROC       SPIINT
  -------         ENDMOD        SPI

  -------         MODULE        UART
  C:0000H         SYMBOL        _ICE_DUMMY_
  D:0080H         PUBLIC        P0
  D:00B2H         PUBLIC        P3M0
  D:0090H         PUBLIC        P1
  D:00B1H         PUBLIC        P3M1
  D:00A0H         PUBLIC        P2
  D:00B0H         PUBLIC        P3
  D:00C0H         PUBLIC        P4
  D:00C8H         PUBLIC        P5
  B:00A8H.7       PUBLIC        EA
  B:0028H.0       PUBLIC        bBus0AckOk
  X:0000H         PUBLIC        Frame_No
  X:0001H         PUBLIC        stUsartCfg
  D:00A8H         PUBLIC        IE
  C:8B60H         PUBLIC        _SectorDataCopy
BL51 BANKED LINKER/LOCATER V6.22                                                      07/10/2019  15:34:23  PAGE 93


  C:A192H         PUBLIC        _CheckPsk
  C:8D87H         PUBLIC        _checkFormData
  X:0010H         PUBLIC        uiBedFaceFormLen
  C:85A3H         PUBLIC        _crcCheckData
  X:0012H         PUBLIC        CheckSum
  B:00A8H.4       PUBLIC        ES
  B:0028H.1       PUBLIC        bDispBedForm
  D:00B8H         PUBLIC        IP
  B:0098H.0       PUBLIC        RI
  B:0098H.1       PUBLIC        TI
  D:00D8H         PUBLIC        CCON
  B:0028H.2       PUBLIC        bUsart0RecFinish
  C:9E82H         PUBLIC        UsartInit
  D:0099H         PUBLIC        SBUF
  D:0087H         PUBLIC        PCON
  D:0098H         PUBLIC        SCON
  C:B005H         PUBLIC        _IsSingleItem
  B:0028H.3       PUBLIC        bRS485DataError
  D:0088H         PUBLIC        TCON
  D:008EH         PUBLIC        AUXR
  D:00E0H         PUBLIC        ACC
  B:0028H.4       PUBLIC        bBus0AckFail
  C:B7A5H         PUBLIC        UsartManager
  C:324EH         PUBLIC        Usart0RecDeal
  D:00C1H         PUBLIC        WDT_CONTR
  X:0013H         PUBLIC        byUsart0RecBuf
  B:0028H.5       PUBLIC        bUsartRecedPromptData
  B:0028H.6       PUBLIC        bUsartRecedDietData
  B:0028H.7       PUBLIC        bUsartRecedPrescriptionData
  X:00E7H         PUBLIC        byUsart0SndBuf
  B:0098H.4       PUBLIC        REN
  D:009CH         PUBLIC        BRT
  C:A638H         PUBLIC        _GetPskCrc
  C:7478H         PUBLIC        UART0
  C:81B7H         PUBLIC        _StoreDataCheck
  C:907FH         PUBLIC        _checkFaceData
  B:00B0H.1       PUBLIC        TXD
  X:0133H         PUBLIC        Frame_Type
  B:0029H.0       PUBLIC        bDispBedFace
  D:00D0H         PUBLIC        PSW
  X:0134H         PUBLIC        uiBedFaceDataLen
  -------         PROC          _CHECKFORMDATA
  X:02A5H         SYMBOL        datalen
  -------         DO            
  X:02A7H         SYMBOL        dataaddr
  X:02ABH         SYMBOL        stItemForm
  -------         ENDDO         
  C:8D87H         LINE#         56
  C:8D91H         LINE#         57
  C:8D91H         LINE#         58
  C:8D99H         LINE#         60
  C:8DABH         LINE#         61
  C:8DABH         LINE#         62
  C:8DC8H         LINE#         63
  C:8DC8H         LINE#         64
  C:8DDCH         LINE#         65
  C:8DDCH         LINE#         66
BL51 BANKED LINKER/LOCATER V6.22                                                      07/10/2019  15:34:23  PAGE 94


  C:8DFDH         LINE#         67
  C:8E50H         LINE#         69
  C:8E50H         LINE#         71
  C:8E50H         LINE#         72
  C:8E6FH         LINE#         73
  C:8E7DH         LINE#         74
  C:8E7DH         LINE#         75
  C:8E80H         LINE#         76
  C:8E8AH         LINE#         77
  C:8E8AH         LINE#         78
  C:8E8DH         LINE#         79
  C:8E8DH         LINE#         80
  C:8E90H         LINE#         81
  C:8E90H         LINE#         82
  C:8E93H         LINE#         83
  C:8E93H         LINE#         85
  C:8E95H         LINE#         87
  -------         ENDPROC       _CHECKFORMDATA
  -------         PROC          _CHECKFACEDATA
  X:02A5H         SYMBOL        datalen
  -------         DO            
  X:02A7H         SYMBOL        dataaddr
  X:02ABH         SYMBOL        ItemData
  -------         ENDDO         
  C:907FH         LINE#         90
  C:9089H         LINE#         91
  C:9089H         LINE#         92
  C:9091H         LINE#         94
  C:909FH         LINE#         96
  C:90B3H         LINE#         97
  C:90B3H         LINE#         98
  C:90D4H         LINE#         99
  C:90E0H         LINE#         101
  C:910DH         LINE#         103
  C:912FH         LINE#         105
  C:9144H         LINE#         107
  C:914AH         LINE#         109
  C:9160H         LINE#         111
  C:9160H         LINE#         112
  -------         ENDPROC       _CHECKFACEDATA
  -------         PROC          L?0253
  -------         ENDPROC       L?0253
  -------         PROC          _CRCCHECKDATA
  X:02A5H         SYMBOL        addr
  X:02A9H         SYMBOL        length
  X:02ABH         SYMBOL        crc
  -------         DO            
  X:02ACH         SYMBOL        i
  X:02ADH         SYMBOL        crcSum
  -------         ENDDO         
  C:85A3H         LINE#         114
  C:85A9H         LINE#         115
  C:85A9H         LINE#         117
  C:85AEH         LINE#         119
  C:85B2H         LINE#         121
  C:85B2H         LINE#         122
  C:85C1H         LINE#         123
BL51 BANKED LINKER/LOCATER V6.22                                                      07/10/2019  15:34:23  PAGE 95


  C:85C1H         LINE#         124
  C:85E6H         LINE#         125
  C:85FFH         LINE#         126
  C:85FFH         LINE#         127
  C:8611H         LINE#         128
  C:8619H         LINE#         129
  C:862CH         LINE#         130
  C:8631H         LINE#         131
  C:8634H         LINE#         132
  C:8634H         LINE#         134
  C:8634H         LINE#         136
  C:8655H         LINE#         137
  C:8664H         LINE#         138
  C:8664H         LINE#         139
  C:8676H         LINE#         140
  C:867EH         LINE#         141
  C:869DH         LINE#         142
  C:86ABH         LINE#         145
  C:86AEH         LINE#         146
  C:86AEH         LINE#         147
  C:86C0H         LINE#         148
  C:86C3H         LINE#         149
  C:86C8H         LINE#         150
  C:86CDH         LINE#         151
  -------         ENDPROC       _CRCCHECKDATA
  -------         PROC          L?0254
  -------         ENDPROC       L?0254
  -------         PROC          _SECTORDATACOPY
  X:02A6H         SYMBOL        dst
  X:02AAH         SYMBOL        src
  X:02AEH         SYMBOL        length
  C:8B60H         LINE#         154
  C:8B66H         LINE#         155
  C:8B66H         LINE#         156
  C:8B6AH         LINE#         158
  C:8B6AH         LINE#         159
  C:8B79H         LINE#         160
  C:8B79H         LINE#         161
  C:8B9EH         LINE#         162
  C:8BC4H         LINE#         163
  C:8BC7H         LINE#         164
  C:8BC7H         LINE#         167
  C:8BC7H         LINE#         169
  C:8BE8H         LINE#         170
  C:8C08H         LINE#         171
  C:8C27H         LINE#         172
  C:8C46H         LINE#         173
  C:8C54H         LINE#         176
  C:8C57H         LINE#         177
  C:8C57H         LINE#         178
  C:8C69H         LINE#         179
  C:8C6CH         LINE#         180
  C:8C71H         LINE#         182
  -------         ENDPROC       _SECTORDATACOPY
  -------         PROC          L?0255
  -------         ENDPROC       L?0255
  -------         PROC          _STOREDATACHECK
BL51 BANKED LINKER/LOCATER V6.22                                                      07/10/2019  15:34:23  PAGE 96


  X:02A6H         SYMBOL        dst
  X:02AAH         SYMBOL        length
  -------         DO            
  X:02ACH         SYMBOL        i
  X:02ADH         SYMBOL        crc
  -------         ENDDO         
  C:81B7H         LINE#         185
  C:81BDH         LINE#         186
  C:81BDH         LINE#         188
  C:81C2H         LINE#         189
  C:81C6H         LINE#         190
  C:81C6H         LINE#         191
  C:81C6H         LINE#         192
  C:81D8H         LINE#         193
  C:81D8H         LINE#         194
  C:81FDH         LINE#         195
  C:8230H         LINE#         197
  C:8259H         LINE#         198
  C:8279H         LINE#         199
  C:827EH         LINE#         200
  C:8283H         LINE#         201
  C:8289H         LINE#         202
  C:8289H         LINE#         204
  C:8289H         LINE#         205
  C:82AAH         LINE#         206
  C:82D3H         LINE#         207
  C:82F2H         LINE#         208
  C:8300H         LINE#         211
  C:8303H         LINE#         212
  C:8303H         LINE#         213
  -------         ENDPROC       _STOREDATACHECK
  -------         PROC          _ISSINGLEITEM
  D:0001H         SYMBOL        startaddr
  D:0005H         SYMBOL        length
  C:B005H         LINE#         217
  C:B005H         LINE#         218
  C:B005H         LINE#         219
  C:B019H         LINE#         220
  C:B019H         LINE#         221
  C:B020H         LINE#         222
  C:B024H         LINE#         224
  C:B034H         LINE#         225
  C:B037H         LINE#         226
  C:B037H         LINE#         227
  C:B039H         LINE#         228
  -------         ENDPROC       _ISSINGLEITEM
  -------         PROC          USARTINIT
  C:9E82H         LINE#         246
  C:9E82H         LINE#         247
  C:9E82H         LINE#         248
  C:9E85H         LINE#         251
  C:9E88H         LINE#         252
  C:9E8BH         LINE#         253
  C:9E8DH         LINE#         256
  C:9E97H         LINE#         257
  C:9E9FH         LINE#         258
  C:9EA2H         LINE#         259
BL51 BANKED LINKER/LOCATER V6.22                                                      07/10/2019  15:34:23  PAGE 97


  C:9EA6H         LINE#         260
  C:9EAAH         LINE#         261
  C:9EACH         LINE#         262
  C:9EB8H         LINE#         264
  C:9EBBH         LINE#         265
  C:9EBEH         LINE#         266
  C:9EC1H         LINE#         268
  C:9ED1H         LINE#         269
  C:9ED1H         LINE#         270
  C:9ED4H         LINE#         271
  C:9EE0H         LINE#         274
  C:9EE2H         LINE#         276
  C:9EE2H         LINE#         277
  C:9EE5H         LINE#         278
  C:9F00H         LINE#         279
  C:9F00H         LINE#         283
  C:9F03H         LINE#         284
  C:9F05H         LINE#         285
  C:9F07H         LINE#         286
  C:9F09H         LINE#         287
  C:9F0BH         LINE#         288
  -------         ENDPROC       USARTINIT
  -------         PROC          UART0
  -------         DO            
  X:029AH         SYMBOL        byTemp
  X:029BH         SYMBOL        pstDataFreq
  -------         ENDDO         
  C:7478H         LINE#         307
  C:7497H         LINE#         312
  C:749DH         LINE#         313
  C:749DH         LINE#         314
  C:749FH         LINE#         315
  C:74A5H         LINE#         316
  C:74AFH         LINE#         317
  C:74AFH         LINE#         318
  C:74B5H         LINE#         319
  C:74B5H         LINE#         320
  C:74B8H         LINE#         321
  C:74BBH         LINE#         323
  C:74BBH         LINE#         324
  C:74BBH         LINE#         325
  C:74C1H         LINE#         326
  C:74DEH         LINE#         327
  C:74F8H         LINE#         328
  C:74F8H         LINE#         329
  C:74F8H         LINE#         330
  C:74FCH         LINE#         331
  C:74FCH         LINE#         332
  C:7502H         LINE#         334
  C:7508H         LINE#         335
  C:750BH         LINE#         337
  C:750BH         LINE#         338
  C:750FH         LINE#         339
  C:750FH         LINE#         340
  C:7512H         LINE#         341
  C:7512H         LINE#         342
  C:751DH         LINE#         343
BL51 BANKED LINKER/LOCATER V6.22                                                      07/10/2019  15:34:23  PAGE 98


  C:751DH         LINE#         345
  C:752EH         LINE#         346
  C:753FH         LINE#         347
  C:753FH         LINE#         348
  C:7543H         LINE#         349
  C:7545H         LINE#         352
  C:7545H         LINE#         354
  C:754BH         LINE#         355
  C:754BH         LINE#         356
  C:7567H         LINE#         357
  C:7567H         LINE#         358
  C:756BH         LINE#         359
  C:756DH         LINE#         361
  C:756DH         LINE#         362
  C:756DH         LINE#         364
  C:7589H         LINE#         365
  C:7589H         LINE#         366
  C:758EH         LINE#         367
  C:7595H         LINE#         369
  C:7595H         LINE#         371
  C:759BH         LINE#         372
  C:75A0H         LINE#         373
  C:75A0H         LINE#         374
  C:75A2H         LINE#         375
  C:75A2H         LINE#         376
  C:75A8H         LINE#         377
  C:75ADH         LINE#         378
  C:75ADH         LINE#         379
  C:75B8H         LINE#         380
  C:75BAH         LINE#         381
  C:75BDH         LINE#         382
  C:75BDH         LINE#         384
  C:75CFH         LINE#         385
  C:75DFH         LINE#         386
  C:75DFH         LINE#         387
  C:75E2H         LINE#         388
  C:75F0H         LINE#         389
  C:75F2H         LINE#         391
  C:75F2H         LINE#         392
  C:75F4H         LINE#         393
  C:75F5H         LINE#         394
  C:75F5H         LINE#         395
  C:75F5H         LINE#         396
  C:75F7H         LINE#         397
  C:75F7H         LINE#         398
  C:7605H         LINE#         399
  C:7605H         LINE#         400
  C:760CH         LINE#         401
  C:760CH         LINE#         402
  C:760EH         LINE#         403
  C:760EH         LINE#         404
  C:7613H         LINE#         405
  C:7614H         LINE#         406
  C:7614H         LINE#         407
  C:7616H         LINE#         408
  C:7616H         LINE#         409
  C:761BH         LINE#         410
BL51 BANKED LINKER/LOCATER V6.22                                                      07/10/2019  15:34:23  PAGE 99


  C:761FH         LINE#         411
  C:761FH         LINE#         412
  C:761FH         LINE#         413
  C:761FH         LINE#         414
  C:7622H         LINE#         415
  C:7622H         LINE#         416
  C:7624H         LINE#         418
  C:7632H         LINE#         419
  C:7640H         LINE#         420
  C:764EH         LINE#         421
  C:7658H         LINE#         422
  C:7658H         LINE#         424
  C:7671H         LINE#         425
  C:7673H         LINE#         427
  C:7673H         LINE#         428
  C:768FH         LINE#         429
  C:768FH         LINE#         430
  C:768FH         LINE#         431
  C:768FH         LINE#         432
  C:7691H         LINE#         434
  C:7691H         LINE#         435
  C:7691H         LINE#         436
  C:7691H         LINE#         437
  C:7697H         LINE#         439
  C:7697H         LINE#         440
  C:7697H         LINE#         441
  C:7697H         LINE#         442
  C:7697H         LINE#         443
  -------         ENDPROC       UART0
  -------         PROC          _GETPSKCRC
  X:02A7H         SYMBOL        pstDataFreq
  -------         DO            
  X:02AAH         SYMBOL        pbyData
  X:02ADH         SYMBOL        uiLen
  D:0005H         SYMBOL        byCrc
  -------         ENDDO         
  C:A638H         LINE#         460
  C:A643H         LINE#         461
  C:A643H         LINE#         464
  C:A645H         LINE#         466
  C:A655H         LINE#         467
  C:A673H         LINE#         468
  C:A681H         LINE#         469
  C:A681H         LINE#         470
  C:A696H         LINE#         471
  C:A698H         LINE#         472
  C:A69AH         LINE#         473
  -------         ENDPROC       _GETPSKCRC
  -------         PROC          _CHECKPSK
  X:02A5H         SYMBOL        pstDataFreq
  -------         DO            
  X:02A8H         SYMBOL        pbyData
  X:02ABH         SYMBOL        uiLen
  D:0005H         SYMBOL        byCrc
  -------         ENDDO         
  C:A192H         LINE#         489
  C:A19DH         LINE#         490
BL51 BANKED LINKER/LOCATER V6.22                                                      07/10/2019  15:34:23  PAGE 100


  C:A19DH         LINE#         493
  C:A19FH         LINE#         495
  C:A1AFH         LINE#         496
  C:A1CDH         LINE#         497
  C:A1DBH         LINE#         498
  C:A1DBH         LINE#         499
  C:A1F0H         LINE#         500
  C:A1F2H         LINE#         501
  C:A203H         LINE#         502
  C:A203H         LINE#         503
  C:A206H         LINE#         504
  C:A206H         LINE#         505
  C:A208H         LINE#         506
  -------         ENDPROC       _CHECKPSK
  -------         PROC          USART0RECDEAL
  -------         DO            
  X:029FH         SYMBOL        pstDataFreq
  X:02A2H         SYMBOL        temp
  X:02A3H         SYMBOL        uiDataLen
  C:364FH         SYMBOL        usart0RecDisp
  C:3C75H         SYMBOL        usart0RecFailRet
  C:3CD0H         SYMBOL        Usart0RecDealRet
  -------         ENDDO         
  C:324EH         LINE#         523
  C:324EH         LINE#         524
  C:324EH         LINE#         530
  C:3251H         LINE#         531
  C:3266H         LINE#         532
  C:3268H         LINE#         534
  C:3276H         LINE#         538
  C:327CH         LINE#         539
  C:327CH         LINE#         540
  C:3295H         LINE#         541
  C:3297H         LINE#         543
  C:3297H         LINE#         544
  C:329BH         LINE#         545
  C:329BH         LINE#         546
  C:32A5H         LINE#         547
  C:32A5H         LINE#         548
  C:32A5H         LINE#         549
  C:32A7H         LINE#         550
  C:32ADH         LINE#         551
  C:32ADH         LINE#         552
  C:32ADH         LINE#         553
  C:32AFH         LINE#         556
  C:32AFH         LINE#         557
  C:32AFH         LINE#         558
  C:32B1H         LINE#         560
  C:32B1H         LINE#         562
  C:32C6H         LINE#         563
  C:32D0H         LINE#         564
  C:32DAH         LINE#         565
  C:32E5H         LINE#         566
  C:32E5H         LINE#         567
  C:3309H         LINE#         570
  C:3311H         LINE#         571
  C:3317H         LINE#         572
BL51 BANKED LINKER/LOCATER V6.22                                                      07/10/2019  15:34:23  PAGE 101


  C:3319H         LINE#         573
  C:331EH         LINE#         574
  C:331EH         LINE#         577
  C:3328H         LINE#         578
  C:3328H         LINE#         580
  C:3330H         LINE#         581
  C:3338H         LINE#         582
  C:3340H         LINE#         585
  C:3352H         LINE#         586
  C:3352H         LINE#         587
  C:3363H         LINE#         588
  C:3363H         LINE#         589
  C:3369H         LINE#         590
  C:3369H         LINE#         591
  C:336BH         LINE#         593
  C:336EH         LINE#         595
  C:336EH         LINE#         596
  C:3376H         LINE#         597
  C:3376H         LINE#         598
  C:337CH         LINE#         599
  C:3385H         LINE#         601
  C:3385H         LINE#         602
  C:3387H         LINE#         603
  C:338CH         LINE#         604
  C:3392H         LINE#         605
  C:3392H         LINE#         606
  C:3395H         LINE#         610
  C:3395H         LINE#         611
  C:3398H         LINE#         612
  C:33A2H         LINE#         615
  C:33AAH         LINE#         616
  C:33AAH         LINE#         617
  C:33ACH         LINE#         618
  C:33B1H         LINE#         619
  C:33B9H         LINE#         620
  C:33B9H         LINE#         622
  C:33BFH         LINE#         623
  C:33BFH         LINE#         625
  C:33D7H         LINE#         626
  C:33D7H         LINE#         628
  C:33E0H         LINE#         629
  C:33E0H         LINE#         631
  C:33E8H         LINE#         632
  C:33E8H         LINE#         635
  C:3404H         LINE#         636
  C:3413H         LINE#         637
  C:3413H         LINE#         638
  C:342BH         LINE#         639
  C:3433H         LINE#         641
  C:3439H         LINE#         642
  C:3441H         LINE#         643
  C:3466H         LINE#         644
  C:347AH         LINE#         646
  C:347DH         LINE#         649
  C:347DH         LINE#         650
  C:3494H         LINE#         651
  C:3494H         LINE#         652
BL51 BANKED LINKER/LOCATER V6.22                                                      07/10/2019  15:34:23  PAGE 102


  C:34A3H         LINE#         653
  C:34A3H         LINE#         654
  C:34A9H         LINE#         656
  C:34B5H         LINE#         657
  C:34B5H         LINE#         659
  C:34DFH         LINE#         660
  C:34EEH         LINE#         661
  C:34EEH         LINE#         662
  C:3506H         LINE#         663
  C:350EH         LINE#         665
  C:3548H         LINE#         666
  C:3562H         LINE#         667
  C:3564H         LINE#         668
  C:3566H         LINE#         670
  C:3568H         LINE#         671
  C:356AH         LINE#         672
  C:356CH         LINE#         674
  C:356EH         LINE#         676
  C:356EH         LINE#         678
  C:3577H         LINE#         679
  C:3577H         LINE#         680
  C:357DH         LINE#         681
  C:357DH         LINE#         682
  C:358EH         LINE#         683
  C:358EH         LINE#         684
  C:35B2H         LINE#         685
  C:35B2H         LINE#         687
  C:35CBH         LINE#         688
  C:35E9H         LINE#         689
  C:35F9H         LINE#         690
  C:35FCH         LINE#         691
  C:3624H         LINE#         693
  C:3640H         LINE#         694
  C:3640H         LINE#         695
  C:364FH         LINE#         696
  C:364FH         LINE#         697
  C:3651H         LINE#         698
  C:3653H         LINE#         699
  C:365AH         LINE#         700
  C:365DH         LINE#         701
  C:365FH         LINE#         702
  C:3662H         LINE#         704
  C:3664H         LINE#         705
  C:3667H         LINE#         706
  C:3669H         LINE#         707
  C:366CH         LINE#         709
  C:366CH         LINE#         710
  C:366EH         LINE#         711
  C:3671H         LINE#         712
  C:3671H         LINE#         713
  C:3671H         LINE#         714
  C:3671H         LINE#         715
  C:3671H         LINE#         717
  C:3689H         LINE#         718
  C:3689H         LINE#         719
  C:36A2H         LINE#         720
  C:36A2H         LINE#         721
BL51 BANKED LINKER/LOCATER V6.22                                                      07/10/2019  15:34:23  PAGE 103


  C:36A2H         LINE#         722
  C:36A9H         LINE#         723
  C:36A9H         LINE#         724
  C:36AFH         LINE#         725
  C:36B4H         LINE#         729
  C:36D9H         LINE#         731
  C:36EDH         LINE#         733
  C:36F0H         LINE#         735
  C:36F0H         LINE#         736
  C:3704H         LINE#         737
  C:3704H         LINE#         738
  C:3710H         LINE#         739
  C:3710H         LINE#         740
  C:3716H         LINE#         741
  C:3724H         LINE#         742
  C:3724H         LINE#         743
  C:3756H         LINE#         744
  C:3770H         LINE#         745
  C:3772H         LINE#         746
  C:3774H         LINE#         747
  C:3776H         LINE#         748
  C:3778H         LINE#         749
  C:377AH         LINE#         750
  C:377CH         LINE#         751
  C:377CH         LINE#         753
  C:3787H         LINE#         754
  C:3787H         LINE#         755
  C:378AH         LINE#         756
  C:378AH         LINE#         757
  C:37A3H         LINE#         758
  C:37A5H         LINE#         759
  C:37A7H         LINE#         760
  C:37AAH         LINE#         762
  C:37AAH         LINE#         763
  C:37ACH         LINE#         764
  C:37AFH         LINE#         765
  C:37AFH         LINE#         766
  C:37AFH         LINE#         767
  C:37AFH         LINE#         769
  C:37AFH         LINE#         770
  C:37B7H         LINE#         771
  C:37B7H         LINE#         772
  C:37BCH         LINE#         773
  C:37C4H         LINE#         777
  C:37E9H         LINE#         778
  C:37FDH         LINE#         779
  C:3800H         LINE#         781
  C:3800H         LINE#         782
  C:3814H         LINE#         783
  C:3814H         LINE#         784
  C:3820H         LINE#         785
  C:3820H         LINE#         786
  C:3826H         LINE#         788
  C:3834H         LINE#         789
  C:3834H         LINE#         790
  C:3867H         LINE#         791
  C:3881H         LINE#         792
BL51 BANKED LINKER/LOCATER V6.22                                                      07/10/2019  15:34:23  PAGE 104


  C:3883H         LINE#         793
  C:3885H         LINE#         794
  C:3887H         LINE#         795
  C:3889H         LINE#         796
  C:388BH         LINE#         797
  C:388DH         LINE#         798
  C:388DH         LINE#         800
  C:3898H         LINE#         801
  C:3898H         LINE#         802
  C:389BH         LINE#         803
  C:389BH         LINE#         804
  C:38B4H         LINE#         805
  C:38B6H         LINE#         806
  C:38B8H         LINE#         807
  C:38BBH         LINE#         809
  C:38BBH         LINE#         810
  C:38BDH         LINE#         811
  C:38C0H         LINE#         812
  C:38C0H         LINE#         813
  C:38C0H         LINE#         814
  C:38C0H         LINE#         815
  C:38C0H         LINE#         816
  C:38C8H         LINE#         817
  C:38C8H         LINE#         818
  C:38CDH         LINE#         819
  C:38D5H         LINE#         823
  C:38FAH         LINE#         824
  C:390EH         LINE#         825
  C:3911H         LINE#         827
  C:3911H         LINE#         828
  C:3925H         LINE#         829
  C:3925H         LINE#         830
  C:3931H         LINE#         831
  C:3931H         LINE#         832
  C:3937H         LINE#         834
  C:3945H         LINE#         835
  C:3945H         LINE#         836
  C:3977H         LINE#         837
  C:3991H         LINE#         838
  C:3993H         LINE#         839
  C:3995H         LINE#         840
  C:3997H         LINE#         841
  C:3999H         LINE#         842
  C:399BH         LINE#         843
  C:399DH         LINE#         844
  C:399DH         LINE#         846
  C:39A8H         LINE#         847
  C:39A8H         LINE#         848
  C:39ABH         LINE#         849
  C:39ABH         LINE#         850
  C:39C4H         LINE#         851
  C:39C6H         LINE#         852
  C:39C8H         LINE#         853
  C:39CBH         LINE#         855
  C:39CBH         LINE#         856
  C:39CDH         LINE#         857
  C:39D0H         LINE#         858
BL51 BANKED LINKER/LOCATER V6.22                                                      07/10/2019  15:34:23  PAGE 105


  C:39D0H         LINE#         859
  C:39D0H         LINE#         860
  C:39D0H         LINE#         862
  C:39D0H         LINE#         863
  C:39D0H         LINE#         864
  C:39E8H         LINE#         865
  C:39E8H         LINE#         866
  C:39F1H         LINE#         867
  C:39F1H         LINE#         868
  C:39FAH         LINE#         869
  C:39FAH         LINE#         871
  C:3A16H         LINE#         872
  C:3A25H         LINE#         873
  C:3A25H         LINE#         874
  C:3A3DH         LINE#         875
  C:3A45H         LINE#         876
  C:3A4BH         LINE#         877
  C:3A53H         LINE#         878
  C:3A78H         LINE#         879
  C:3A8CH         LINE#         880
  C:3A8FH         LINE#         883
  C:3A8FH         LINE#         884
  C:3AA6H         LINE#         885
  C:3AA6H         LINE#         886
  C:3AB5H         LINE#         887
  C:3AB5H         LINE#         888
  C:3ABBH         LINE#         890
  C:3AC7H         LINE#         891
  C:3AC7H         LINE#         893
  C:3AF1H         LINE#         894
  C:3B00H         LINE#         895
  C:3B00H         LINE#         896
  C:3B18H         LINE#         897
  C:3B20H         LINE#         899
  C:3B5BH         LINE#         900
  C:3B75H         LINE#         901
  C:3B77H         LINE#         902
  C:3B79H         LINE#         903
  C:3B7BH         LINE#         904
  C:3B7DH         LINE#         905
  C:3B7FH         LINE#         906
  C:3B81H         LINE#         907
  C:3B81H         LINE#         909
  C:3B8AH         LINE#         910
  C:3B8AH         LINE#         911
  C:3B90H         LINE#         912
  C:3B90H         LINE#         913
  C:3BA1H         LINE#         914
  C:3BA1H         LINE#         915
  C:3BC5H         LINE#         916
  C:3BC5H         LINE#         918
  C:3BDEH         LINE#         919
  C:3BFCH         LINE#         920
  C:3C0AH         LINE#         921
  C:3C0DH         LINE#         922
  C:3C35H         LINE#         924
  C:3C51H         LINE#         925
BL51 BANKED LINKER/LOCATER V6.22                                                      07/10/2019  15:34:23  PAGE 106


  C:3C51H         LINE#         926
  C:3C60H         LINE#         927
  C:3C62H         LINE#         928
  C:3C62H         LINE#         929
  C:3C62H         LINE#         930
  C:3C62H         LINE#         932
  C:3C62H         LINE#         933
  C:3C62H         LINE#         934
  C:3C62H         LINE#         935
  C:3C62H         LINE#         936
  C:3C64H         LINE#         938
  C:3C64H         LINE#         939
  C:3C6BH         LINE#         940
  C:3C6BH         LINE#         941
  C:3C73H         LINE#         942
  C:3C73H         LINE#         943
  C:3C75H         LINE#         944
  C:3C75H         LINE#         945
  C:3C75H         LINE#         946
  C:3C75H         LINE#         947
  C:3C75H         LINE#         948
  C:3C75H         LINE#         949
  C:3C7CH         LINE#         950
  C:3C7CH         LINE#         951
  C:3C7EH         LINE#         952
  C:3C83H         LINE#         953
  C:3C89H         LINE#         954
  C:3C89H         LINE#         957
  C:3C8CH         LINE#         958
  C:3C8CH         LINE#         959
  C:3C8EH         LINE#         960
  C:3C94H         LINE#         961
  C:3CA9H         LINE#         962
  C:3CB2H         LINE#         963
  C:3CB2H         LINE#         965
  C:3CB5H         LINE#         966
  C:3CB5H         LINE#         967
  C:3CB7H         LINE#         968
  C:3CB7H         LINE#         969
  C:3CB7H         LINE#         970
  C:3CB7H         LINE#         971
  C:3CB7H         LINE#         972
  C:3CB9H         LINE#         974
  C:3CB9H         LINE#         975
  C:3CC1H         LINE#         976
  C:3CC1H         LINE#         977
  C:3CC7H         LINE#         978
  C:3CD0H         LINE#         980
  C:3CD0H         LINE#         981
  C:3CD0H         LINE#         982
  C:3CD0H         LINE#         983
  C:3CD0H         LINE#         984
  C:3CD3H         LINE#         985
  -------         ENDPROC       USART0RECDEAL
  -------         PROC          USARTMANAGER
  C:B7A5H         LINE#         1003
  C:B7A5H         LINE#         1004
BL51 BANKED LINKER/LOCATER V6.22                                                      07/10/2019  15:34:23  PAGE 107


  C:B7A5H         LINE#         1005
  C:B7A5H         LINE#         1006
  C:B7A5H         LINE#         1007
  C:B7A5H         LINE#         1008
  C:B7A5H         LINE#         1011
  C:B7A5H         LINE#         1013
  C:B7ACH         LINE#         1014
  C:B7AFH         LINE#         1015
  -------         ENDPROC       USARTMANAGER
  -------         ENDMOD        UART

  -------         MODULE        PCT25VF
  C:0000H         SYMBOL        _ICE_DUMMY_
  C:B1FFH         PUBLIC        WREN_Check
  D:0080H         PUBLIC        P0
  D:0090H         PUBLIC        P1
  D:00A0H         PUBLIC        P2
  C:B6CCH         PUBLIC        _Send_Byte
  D:00B0H         PUBLIC        P3
  D:00C0H         PUBLIC        P4
  C:845BH         PUBLIC        _Write_Cont
  C:A7F8H         PUBLIC        _Byte_Write
  D:00C8H         PUBLIC        P5
  D:00A8H         PUBLIC        IE
  C:B6F2H         PUBLIC        Read_Status_Register
  C:B247H         PUBLIC        Get_Byte
  D:00B8H         PUBLIC        IP
  C:B83BH         PUBLIC        CE_Low
  C:B03AH         PUBLIC        Poll_SO
  C:B182H         PUBLIC        Wait_Busy
  C:000AH         PUBLIC        Hold_Low
  D:00D8H         PUBLIC        CCON
  C:A97AH         PUBLIC        Jedec_ID_Read
  C:B0FFH         PUBLIC        WREN_AAI_Check
  C:B714H         PUBLIC        W25QXX_Lock
  C:B600H         PUBLIC        SST25VF_UnLock
  C:B7F4H         PUBLIC        DBSY
  C:B7E9H         PUBLIC        EBSY
  D:0098H         PUBLIC        SCON
  D:0088H         PUBLIC        TCON
  C:B7DEH         PUBLIC        WRDI
  B:0090H.6       PUBLIC        MISO
  C:8F9CH         PUBLIC        _AAI_Write
  C:0012H         PUBLIC        WP_Low
  C:76B4H         PUBLIC        _FLASH_BufferWrite
  C:B77DH         PUBLIC        WREN
  C:B642H         PUBLIC        Flash_Unlock
  C:B481H         PUBLIC        _delay_nms
  C:B7D3H         PUBLIC        EWSR
  C:A930H         PUBLIC        _Auto_Add_IncA
  C:B301H         PUBLIC        _Auto_Add_IncB
  C:AA69H         PUBLIC        _Sector_Erase
  D:00E0H         PUBLIC        ACC
  C:7EFBH         PUBLIC        FRAM_TEST
  C:B1ACH         PUBLIC        Wait_Busy_AAI
  C:B657H         PUBLIC        _delay_nus
  X:0325H         PUBLIC        manID
BL51 BANKED LINKER/LOCATER V6.22                                                      07/10/2019  15:34:23  PAGE 108


  C:988BH         PUBLIC        _HighSpeed_Read_Cont
  X:0326H         PUBLIC        devID
  C:B4D8H         PUBLIC        _WRSR
  C:A9C2H         PUBLIC        _Block_Erase_32K
  C:ABB6H         PUBLIC        _Byte_Program
  C:AA16H         PUBLIC        _HighSpeed_Read
  C:AE76H         PUBLIC        _Block_Erase_64K
  C:A7A5H         PUBLIC        _Auto_Add_IncA_EBSY
  D:00C1H         PUBLIC        WDT_CONTR
  C:B7FFH         PUBLIC        Chip_Erase
  C:B12CH         PUBLIC        _Auto_Add_IncB_EBSY
  C:B62DH         PUBLIC        Flash_Lock
  C:97F3H         PUBLIC        _FLASH_PageWrite
  C:0026H         PUBLIC        CE_High
  C:B572H         PUBLIC        SST25VF_Lock
  C:B158H         PUBLIC        _Read_ID
  C:0019H         PUBLIC        UnWP
  C:0011H         PUBLIC        Unhold
  C:B752H         PUBLIC        W25QXX_UnLock
  C:B273H         PUBLIC        _W25QXX_WRSR
  C:958CH         PUBLIC        _Read_Cont
  C:B2DEH         PUBLIC        SST25VF_Init
  B:00C0H.5       PUBLIC        SST25VF_CS
  D:00D0H         PUBLIC        PSW
  C:AE37H         PUBLIC        _Read
  -------         PROC          SST25VF_INIT
  C:B2DEH         LINE#         160
  C:B2DEH         LINE#         161
  C:B2DEH         LINE#         164
  C:B2E4H         LINE#         166
  C:B2E7H         LINE#         167
  C:B2EEH         LINE#         168
  C:B2F4H         LINE#         169
  C:B2FBH         LINE#         171
  -------         ENDPROC       SST25VF_INIT
  C:B6BCH         SYMBOL        L?0157
  C:B6C5H         SYMBOL        L?0158
  C:B6C8H         SYMBOL        L?0159
  -------         PROC          L?0156
  -------         ENDPROC       L?0156
  C:B6BCH         SYMBOL        L?0157
  C:B6C5H         SYMBOL        L?0158
  C:B6C8H         SYMBOL        L?0159
  -------         PROC          _SEND_BYTE
  D:0007H         SYMBOL        out
  C:B6CCH         LINE#         186
  C:B6CCH         LINE#         187
  C:B6CCH         LINE#         201
  -------         ENDPROC       _SEND_BYTE
  -------         PROC          L?0162
  -------         ENDPROC       L?0162
  -------         PROC          GET_BYTE
  -------         DO            
  D:0007H         SYMBOL        in
  -------         ENDDO         
  C:B247H         LINE#         216
  C:B247H         LINE#         217
BL51 BANKED LINKER/LOCATER V6.22                                                      07/10/2019  15:34:23  PAGE 109


  C:B247H         LINE#         233
  C:B24CH         LINE#         234
  C:B24CH         LINE#         235
  -------         ENDPROC       GET_BYTE
  -------         PROC          POLL_SO
  -------         DO            
  X:02C9H         SYMBOL        i
  X:02CBH         SYMBOL        temp
  -------         ENDDO         
  C:B03AH         LINE#         250
  C:B03AH         LINE#         251
  C:B03AH         LINE#         252
  C:B042H         LINE#         254
  C:B045H         LINE#         255
  C:B048H         LINE#         256
  C:B04EH         LINE#         257
  C:B04EH         LINE#         258
  C:B052H         LINE#         259
  C:B059H         LINE#         260
  C:B067H         LINE#         262
  C:B06AH         LINE#         263
  C:B06DH         LINE#         264
  -------         ENDPROC       POLL_SO
  -------         PROC          CE_HIGH
  C:0026H         LINE#         278
  C:0026H         LINE#         279
  C:0026H         LINE#         280
  C:0028H         LINE#         281
  -------         ENDPROC       CE_HIGH
  -------         PROC          L?0165
  -------         ENDPROC       L?0165
  -------         PROC          CE_LOW
  C:B83BH         LINE#         295
  C:B83BH         LINE#         296
  C:B83BH         LINE#         297
  C:B83DH         LINE#         298
  -------         ENDPROC       CE_LOW
  -------         PROC          HOLD_LOW
  C:000AH         LINE#         311
  C:000AH         LINE#         312
  C:000AH         LINE#         316
  -------         ENDPROC       HOLD_LOW
  -------         PROC          UNHOLD
  C:0011H         LINE#         329
  C:0011H         LINE#         330
  C:0011H         LINE#         334
  -------         ENDPROC       UNHOLD
  -------         PROC          WP_LOW
  C:0012H         LINE#         347
  C:0012H         LINE#         348
  C:0012H         LINE#         352
  -------         ENDPROC       WP_LOW
  -------         PROC          UNWP
  C:0019H         LINE#         365
  C:0019H         LINE#         366
  C:0019H         LINE#         370
  -------         ENDPROC       UNWP
BL51 BANKED LINKER/LOCATER V6.22                                                      07/10/2019  15:34:23  PAGE 110


  -------         PROC          READ_STATUS_REGISTER
  -------         DO            
  D:0007H         SYMBOL        byte
  -------         ENDDO         
  C:B6F2H         LINE#         383
  C:B6F2H         LINE#         384
  C:B6F2H         LINE#         385
  C:B6F4H         LINE#         386
  C:B6F7H         LINE#         387
  C:B6FCH         LINE#         388
  C:B6FFH         LINE#         389
  C:B702H         LINE#         390
  C:B702H         LINE#         391
  -------         ENDPROC       READ_STATUS_REGISTER
  -------         PROC          EWSR
  C:B7D3H         LINE#         409
  C:B7D3H         LINE#         410
  C:B7D3H         LINE#         411
  C:B7D6H         LINE#         412
  C:B7DBH         LINE#         413
  -------         ENDPROC       EWSR
  -------         PROC          _WRSR
  X:02BAH         SYMBOL        byte
  C:B4D8H         LINE#         427
  C:B4E0H         LINE#         428
  C:B4E0H         LINE#         429
  C:B4E3H         LINE#         430
  C:B4E8H         LINE#         431
  C:B4F1H         LINE#         433
  -------         ENDPROC       _WRSR
  -------         PROC          _W25QXX_WRSR
  X:02BAH         SYMBOL        status
  C:B273H         LINE#         438
  C:B27BH         LINE#         439
  C:B27BH         LINE#         440
  C:B27EH         LINE#         441
  C:B283H         LINE#         442
  C:B28CH         LINE#         443
  C:B294H         LINE#         444
  -------         ENDPROC       _W25QXX_WRSR
  -------         PROC          WREN
  C:B77DH         LINE#         460
  C:B77DH         LINE#         461
  C:B77DH         LINE#         462
  C:B780H         LINE#         463
  C:B785H         LINE#         464
  C:B788H         LINE#         465
  -------         ENDPROC       WREN
  -------         PROC          WRDI
  C:B7DEH         LINE#         479
  C:B7DEH         LINE#         480
  C:B7DEH         LINE#         481
  C:B7E1H         LINE#         482
  C:B7E6H         LINE#         483
  -------         ENDPROC       WRDI
  -------         PROC          EBSY
  C:B7E9H         LINE#         498
BL51 BANKED LINKER/LOCATER V6.22                                                      07/10/2019  15:34:23  PAGE 111


  C:B7E9H         LINE#         499
  C:B7E9H         LINE#         500
  C:B7ECH         LINE#         501
  C:B7F1H         LINE#         502
  -------         ENDPROC       EBSY
  -------         PROC          DBSY
  C:B7F4H         LINE#         517
  C:B7F4H         LINE#         518
  C:B7F4H         LINE#         519
  C:B7F7H         LINE#         520
  C:B7FCH         LINE#         521
  -------         ENDPROC       DBSY
  -------         PROC          W25QXX_LOCK
  C:B714H         LINE#         537
  C:B714H         LINE#         538
  C:B714H         LINE#         539
  C:B717H         LINE#         540
  C:B71AH         LINE#         542
  C:B721H         LINE#         543
  -------         ENDPROC       W25QXX_LOCK
  -------         PROC          SST25VF_LOCK
  C:B572H         LINE#         547
  C:B572H         LINE#         548
  C:B572H         LINE#         549
  C:B575H         LINE#         550
  C:B57CH         LINE#         551
  C:B583H         LINE#         552
  -------         ENDPROC       SST25VF_LOCK
  -------         PROC          W25QXX_UNLOCK
  C:B752H         LINE#         556
  C:B752H         LINE#         557
  C:B752H         LINE#         558
  C:B755H         LINE#         559
  C:B758H         LINE#         560
  C:B75EH         LINE#         561
  -------         ENDPROC       W25QXX_UNLOCK
  -------         PROC          SST25VF_UNLOCK
  C:B600H         LINE#         565
  C:B600H         LINE#         566
  C:B600H         LINE#         567
  C:B603H         LINE#         568
  C:B60AH         LINE#         569
  C:B610H         LINE#         570
  -------         ENDPROC       SST25VF_UNLOCK
  -------         PROC          FLASH_LOCK
  C:B62DH         LINE#         574
  C:B62DH         LINE#         575
  C:B62DH         LINE#         576
  C:B634H         LINE#         577
  C:B634H         LINE#         578
  C:B637H         LINE#         579
  C:B637H         LINE#         580
  C:B63EH         LINE#         581
  C:B63EH         LINE#         582
  C:B641H         LINE#         583
  C:B641H         LINE#         585
  -------         ENDPROC       FLASH_LOCK
BL51 BANKED LINKER/LOCATER V6.22                                                      07/10/2019  15:34:23  PAGE 112


  -------         PROC          FLASH_UNLOCK
  C:B642H         LINE#         588
  C:B642H         LINE#         589
  C:B642H         LINE#         591
  C:B649H         LINE#         592
  C:B649H         LINE#         593
  C:B64CH         LINE#         594
  C:B64CH         LINE#         595
  C:B653H         LINE#         596
  C:B653H         LINE#         597
  C:B656H         LINE#         598
  C:B656H         LINE#         599
  -------         ENDPROC       FLASH_UNLOCK
  -------         PROC          _READ_ID
  X:029FH         SYMBOL        ID_addr
  -------         DO            
  D:0007H         SYMBOL        byte
  -------         ENDDO         
  C:B158H         LINE#         621
  C:B160H         LINE#         622
  C:B160H         LINE#         624
  C:B163H         LINE#         625
  C:B168H         LINE#         626
  C:B16DH         LINE#         627
  C:B172H         LINE#         628
  C:B17BH         LINE#         629
  C:B17EH         LINE#         630
  C:B181H         LINE#         631
  C:B181H         LINE#         632
  -------         ENDPROC       _READ_ID
  -------         PROC          JEDEC_ID_READ
  -------         DO            
  X:0309H         SYMBOL        temp
  -------         ENDDO         
  C:A97AH         LINE#         649
  C:A97AH         LINE#         650
  C:A97AH         LINE#         653
  C:A984H         LINE#         655
  C:A987H         LINE#         656
  C:A98CH         LINE#         657
  C:A98FH         LINE#         658
  C:A992H         LINE#         659
  C:A9B0H         LINE#         660
  C:A9B3H         LINE#         662
  C:A9C1H         LINE#         663
  -------         ENDPROC       JEDEC_ID_READ
  -------         PROC          _READ
  X:02AEH         SYMBOL        Dst
  -------         DO            
  D:0007H         SYMBOL        byte
  -------         ENDDO         
  C:AE37H         LINE#         682
  C:AE3DH         LINE#         683
  C:AE3DH         LINE#         684
  C:AE3FH         LINE#         686
  C:AE42H         LINE#         687
  C:AE47H         LINE#         688
BL51 BANKED LINKER/LOCATER V6.22                                                      07/10/2019  15:34:23  PAGE 113


  C:AE4DH         LINE#         689
  C:AE5EH         LINE#         690
  C:AE6FH         LINE#         691
  C:AE72H         LINE#         692
  C:AE75H         LINE#         693
  C:AE75H         LINE#         694
  -------         ENDPROC       _READ
  C:9586H         SYMBOL        L?0164
  -------         PROC          L?0163
  -------         ENDPROC       L?0163
  C:9586H         SYMBOL        L?0164
  -------         PROC          _READ_CONT
  X:02C1H         SYMBOL        pBuffer
  X:02C4H         SYMBOL        Dst
  X:02C8H         SYMBOL        no_bytes
  -------         DO            
  X:02CCH         SYMBOL        i
  -------         ENDDO         
  C:958CH         LINE#         711
  C:959BH         LINE#         712
  C:959BH         LINE#         713
  C:95A5H         LINE#         714
  C:95A8H         LINE#         715
  C:95ADH         LINE#         716
  C:95B3H         LINE#         717
  C:95C8H         LINE#         718
  C:95D9H         LINE#         719
  C:9603H         LINE#         720
  C:9603H         LINE#         721
  C:9626H         LINE#         722
  C:9647H         LINE#         723
  -------         ENDPROC       _READ_CONT
  -------         PROC          _HIGHSPEED_READ
  X:030DH         SYMBOL        Dst
  -------         DO            
  D:0007H         SYMBOL        byte
  -------         ENDDO         
  C:AA16H         LINE#         744
  C:AA1CH         LINE#         745
  C:AA1CH         LINE#         746
  C:AA1EH         LINE#         748
  C:AA21H         LINE#         749
  C:AA26H         LINE#         750
  C:AA2CH         LINE#         751
  C:AA41H         LINE#         752
  C:AA52H         LINE#         753
  C:AA57H         LINE#         754
  C:AA5AH         LINE#         755
  C:AA5DH         LINE#         756
  C:AA5DH         LINE#         757
  -------         ENDPROC       _HIGHSPEED_READ
  -------         PROC          _HIGHSPEED_READ_CONT
  X:02D2H         SYMBOL        Dst
  X:02D6H         SYMBOL        no_bytes
  X:02DAH         SYMBOL        pBuffer
  -------         DO            
  X:02DDH         SYMBOL        i
BL51 BANKED LINKER/LOCATER V6.22                                                      07/10/2019  15:34:23  PAGE 114


  -------         ENDDO         
  C:988BH         LINE#         773
  C:9891H         LINE#         774
  C:9891H         LINE#         775
  C:989BH         LINE#         776
  C:989EH         LINE#         777
  C:98A3H         LINE#         778
  C:98A9H         LINE#         779
  C:98BEH         LINE#         780
  C:98CFH         LINE#         781
  C:98D4H         LINE#         782
  C:9900H         LINE#         783
  C:9900H         LINE#         784
  C:9923H         LINE#         785
  C:9944H         LINE#         786
  -------         ENDPROC       _HIGHSPEED_READ_CONT
  -------         PROC          _BYTE_PROGRAM
  X:02BAH         SYMBOL        Dst
  X:02BEH         SYMBOL        byte
  C:ABB6H         LINE#         807
  C:ABB9H         LINE#         808
  C:ABB9H         LINE#         809
  C:ABBCH         LINE#         810
  C:ABC1H         LINE#         811
  C:ABC7H         LINE#         812
  C:ABDCH         LINE#         813
  C:ABEDH         LINE#         814
  C:ABF5H         LINE#         815
  -------         ENDPROC       _BYTE_PROGRAM
  -------         PROC          _AUTO_ADD_INCA
  X:02F5H         SYMBOL        Dst
  X:02F9H         SYMBOL        byte1
  X:02FAH         SYMBOL        byte2
  C:A930H         LINE#         846
  C:A933H         LINE#         847
  C:A933H         LINE#         848
  C:A936H         LINE#         849
  C:A93BH         LINE#         850
  C:A941H         LINE#         851
  C:A956H         LINE#         852
  C:A967H         LINE#         853
  C:A96FH         LINE#         854
  C:A977H         LINE#         855
  -------         ENDPROC       _AUTO_ADD_INCA
  -------         PROC          _AUTO_ADD_INCB
  X:031DH         SYMBOL        byte1
  X:031EH         SYMBOL        byte2
  C:B301H         LINE#         886
  C:B309H         LINE#         887
  C:B309H         LINE#         888
  C:B30CH         LINE#         889
  C:B311H         LINE#         890
  C:B319H         LINE#         891
  C:B321H         LINE#         892
  -------         ENDPROC       _AUTO_ADD_INCB
  -------         PROC          _AUTO_ADD_INCA_EBSY
  X:02C3H         SYMBOL        Dst
BL51 BANKED LINKER/LOCATER V6.22                                                      07/10/2019  15:34:23  PAGE 115


  X:02C7H         SYMBOL        byte1
  X:02C8H         SYMBOL        byte2
  C:A7A5H         LINE#         925
  C:A7ABH         LINE#         926
  C:A7ABH         LINE#         927
  C:A7AEH         LINE#         929
  C:A7B1H         LINE#         930
  C:A7B6H         LINE#         931
  C:A7BCH         LINE#         932
  C:A7D1H         LINE#         933
  C:A7E2H         LINE#         934
  C:A7EAH         LINE#         935
  C:A7F2H         LINE#         936
  C:A7F5H         LINE#         938
  -------         ENDPROC       _AUTO_ADD_INCA_EBSY
  -------         PROC          _AUTO_ADD_INCB_EBSY
  X:02C3H         SYMBOL        byte1
  X:02C4H         SYMBOL        byte2
  C:B12CH         LINE#         972
  C:B134H         LINE#         973
  C:B134H         LINE#         974
  C:B137H         LINE#         975
  C:B13CH         LINE#         976
  C:B144H         LINE#         977
  C:B14CH         LINE#         978
  C:B14FH         LINE#         980
  C:B152H         LINE#         982
  C:B155H         LINE#         983
  -------         ENDPROC       _AUTO_ADD_INCB_EBSY
  -------         PROC          CHIP_ERASE
  C:B7FFH         LINE#         997
  C:B7FFH         LINE#         998
  C:B7FFH         LINE#         999
  C:B802H         LINE#         1000
  C:B807H         LINE#         1001
  -------         ENDPROC       CHIP_ERASE
  -------         PROC          L?0168
  -------         ENDPROC       L?0168
  -------         PROC          _SECTOR_ERASE
  X:02BAH         SYMBOL        Dst
  C:AA69H         LINE#         1015
  C:AA6FH         LINE#         1016
  C:AA6FH         LINE#         1019
  C:AA72H         LINE#         1020
  C:AA77H         LINE#         1021
  C:AA7DH         LINE#         1022
  C:AA92H         LINE#         1023
  C:AAA3H         LINE#         1024
  -------         ENDPROC       _SECTOR_ERASE
  -------         PROC          _BLOCK_ERASE_32K
  X:0311H         SYMBOL        Dst
  C:A9C2H         LINE#         1038
  C:A9C8H         LINE#         1039
  C:A9C8H         LINE#         1040
  C:A9CBH         LINE#         1041
  C:A9D0H         LINE#         1042
  C:A9D6H         LINE#         1043
BL51 BANKED LINKER/LOCATER V6.22                                                      07/10/2019  15:34:23  PAGE 116


  C:A9EBH         LINE#         1044
  C:A9FCH         LINE#         1045
  -------         ENDPROC       _BLOCK_ERASE_32K
  -------         PROC          _BLOCK_ERASE_64K
  X:0315H         SYMBOL        Dst
  C:AE76H         LINE#         1059
  C:AE7CH         LINE#         1060
  C:AE7CH         LINE#         1061
  C:AE7FH         LINE#         1062
  C:AE84H         LINE#         1063
  C:AE8AH         LINE#         1064
  C:AE9FH         LINE#         1065
  C:AEB0H         LINE#         1066
  -------         ENDPROC       _BLOCK_ERASE_64K
  -------         PROC          WAIT_BUSY
  -------         DO            
  X:02D0H         SYMBOL        i
  -------         ENDDO         
  C:B182H         LINE#         1081
  C:B182H         LINE#         1082
  C:B182H         LINE#         1084
  C:B18CH         LINE#         1086
  C:B193H         LINE#         1087
  C:B193H         LINE#         1089
  C:B19AH         LINE#         1090
  C:B1A8H         LINE#         1092
  C:B1ABH         LINE#         1093
  -------         ENDPROC       WAIT_BUSY
  -------         PROC          WAIT_BUSY_AAI
  -------         DO            
  X:031FH         SYMBOL        i
  -------         ENDDO         
  C:B1ACH         LINE#         1106
  C:B1ACH         LINE#         1107
  C:B1ACH         LINE#         1109
  C:B1B6H         LINE#         1111
  C:B1BDH         LINE#         1112
  C:B1BDH         LINE#         1113
  C:B1C4H         LINE#         1114
  C:B1D2H         LINE#         1117
  C:B1D5H         LINE#         1118
  -------         ENDPROC       WAIT_BUSY_AAI
  -------         PROC          WREN_CHECK
  -------         DO            
  X:0321H         SYMBOL        i
  -------         ENDDO         
  C:B1FFH         LINE#         1131
  C:B1FFH         LINE#         1132
  C:B1FFH         LINE#         1134
  C:B207H         LINE#         1136
  C:B20EH         LINE#         1137
  C:B20EH         LINE#         1138
  C:B215H         LINE#         1139
  C:B223H         LINE#         1142
  C:B226H         LINE#         1143
  -------         ENDPROC       WREN_CHECK
  -------         PROC          WREN_AAI_CHECK
BL51 BANKED LINKER/LOCATER V6.22                                                      07/10/2019  15:34:23  PAGE 117


  -------         DO            
  X:0323H         SYMBOL        i
  -------         ENDDO         
  C:B0FFH         LINE#         1156
  C:B0FFH         LINE#         1157
  C:B0FFH         LINE#         1159
  C:B109H         LINE#         1161
  C:B113H         LINE#         1162
  C:B113H         LINE#         1163
  C:B11AH         LINE#         1164
  C:B128H         LINE#         1167
  C:B12BH         LINE#         1168
  -------         ENDPROC       WREN_AAI_CHECK
  -------         PROC          _BYTE_WRITE
  X:0300H         SYMBOL        Dst
  X:0304H         SYMBOL        byte
  C:A7F8H         LINE#         1173
  C:A7FEH         LINE#         1174
  C:A7FEH         LINE#         1176
  C:A801H         LINE#         1179
  C:A81CH         LINE#         1180
  C:A81CH         LINE#         1181
  C:A81FH         LINE#         1182
  C:A825H         LINE#         1183
  C:A828H         LINE#         1184
  C:A828H         LINE#         1185
  C:A828H         LINE#         1186
  C:A828H         LINE#         1187
  C:A828H         LINE#         1188
  C:A828H         LINE#         1189
  C:A828H         LINE#         1190
  C:A828H         LINE#         1191
  C:A828H         LINE#         1192
  C:A828H         LINE#         1193
  C:A828H         LINE#         1194
  C:A828H         LINE#         1195
  C:A828H         LINE#         1196
  C:A828H         LINE#         1200
  C:A82BH         LINE#         1201
  C:A842H         LINE#         1202
  C:A845H         LINE#         1204
  -------         ENDPROC       _BYTE_WRITE
  C:97E4H         SYMBOL        L?0161
  -------         PROC          L?0160
  -------         ENDPROC       L?0160
  C:97E4H         SYMBOL        L?0161
  -------         PROC          _FLASH_PAGEWRITE
  X:02C7H         SYMBOL        pBuffer
  X:02CAH         SYMBOL        WriteAddr
  X:02CEH         SYMBOL        NumByteToWrite
  C:97F3H         LINE#         1217
  C:9802H         LINE#         1218
  C:9802H         LINE#         1220
  C:9805H         LINE#         1221
  C:9808H         LINE#         1223
  C:980DH         LINE#         1224
  C:981BH         LINE#         1225
BL51 BANKED LINKER/LOCATER V6.22                                                      07/10/2019  15:34:23  PAGE 118


  C:9830H         LINE#         1226
  C:9841H         LINE#         1229
  C:9850H         LINE#         1230
  C:9850H         LINE#         1231
  C:9856H         LINE#         1232
  C:9856H         LINE#         1234
  C:9864H         LINE#         1235
  C:9864H         LINE#         1236
  C:9876H         LINE#         1237
  C:9880H         LINE#         1238
  C:9882H         LINE#         1239
  C:9885H         LINE#         1240
  C:9888H         LINE#         1243
  -------         ENDPROC       _FLASH_PAGEWRITE
  -------         PROC          _FLASH_BUFFERWRITE
  X:02BAH         SYMBOL        pBuffer
  X:02BDH         SYMBOL        WriteAddr
  X:02C1H         SYMBOL        NumByteToWrite
  -------         DO            
  X:02C3H         SYMBOL        NumOfPage
  X:02C4H         SYMBOL        NumOfSingle
  D:0005H         SYMBOL        Addr
  X:02C5H         SYMBOL        count
  X:02C6H         SYMBOL        temp
  -------         ENDDO         
  C:76B4H         LINE#         1255
  C:76C3H         LINE#         1256
  C:76C3H         LINE#         1257
  C:76CEH         LINE#         1258
  C:76DCH         LINE#         1259
  C:76E3H         LINE#         1260
  C:76EEH         LINE#         1261
  C:76F1H         LINE#         1262
  C:76F7H         LINE#         1263
  C:76F7H         LINE#         1264
  C:76FDH         LINE#         1265
  C:76FDH         LINE#         1266
  C:7707H         LINE#         1267
  C:770AH         LINE#         1269
  C:770AH         LINE#         1271
  C:7714H         LINE#         1272
  C:7714H         LINE#         1273
  C:7737H         LINE#         1274
  C:7757H         LINE#         1275
  C:7762H         LINE#         1276
  C:7764H         LINE#         1277
  C:7767H         LINE#         1279
  C:777EH         LINE#         1280
  C:777EH         LINE#         1281
  C:7781H         LINE#         1283
  C:7781H         LINE#         1284
  C:778AH         LINE#         1285
  C:778AH         LINE#         1286
  C:7798H         LINE#         1287
  C:7798H         LINE#         1288
  C:779DH         LINE#         1289
  C:77A0H         LINE#         1290
BL51 BANKED LINKER/LOCATER V6.22                                                      07/10/2019  15:34:23  PAGE 119


  C:77C9H         LINE#         1291
  C:77D7H         LINE#         1292
  C:77EEH         LINE#         1293
  C:77F0H         LINE#         1295
  C:77F0H         LINE#         1296
  C:7807H         LINE#         1297
  C:7807H         LINE#         1298
  C:780AH         LINE#         1300
  C:780AH         LINE#         1301
  C:781DH         LINE#         1302
  C:7825H         LINE#         1303
  C:7827H         LINE#         1305
  C:782AH         LINE#         1306
  C:7853H         LINE#         1307
  C:7860H         LINE#         1309
  C:786AH         LINE#         1310
  C:786AH         LINE#         1312
  C:788DH         LINE#         1314
  C:78ADH         LINE#         1316
  C:78B8H         LINE#         1317
  C:78BAH         LINE#         1318
  C:78BDH         LINE#         1320
  C:78C3H         LINE#         1321
  C:78C3H         LINE#         1322
  C:78DDH         LINE#         1323
  C:78DDH         LINE#         1324
  C:78DDH         LINE#         1325
  C:78DDH         LINE#         1326
  -------         ENDPROC       _FLASH_BUFFERWRITE
  -------         PROC          _AAI_WRITE
  X:02BAH         SYMBOL        Dst
  X:02BEH         SYMBOL        p
  X:02C1H         SYMBOL        no_bytes
  C:8F9CH         LINE#         1332
  C:8FADH         LINE#         1333
  C:8FADH         LINE#         1334
  C:8FB6H         LINE#         1335
  C:8FB6H         LINE#         1336
  C:8FCAH         LINE#         1337
  C:8FD8H         LINE#         1339
  C:8FD8H         LINE#         1340
  C:8FDBH         LINE#         1341
  C:9006H         LINE#         1343
  C:9006H         LINE#         1344
  C:9006H         LINE#         1346
  C:9017H         LINE#         1347
  C:9017H         LINE#         1348
  C:901AH         LINE#         1349
  C:901FH         LINE#         1350
  C:9031H         LINE#         1351
  C:9046H         LINE#         1352
  C:9049H         LINE#         1354
  C:904CH         LINE#         1355
  C:905AH         LINE#         1356
  C:9064H         LINE#         1357
  C:9066H         LINE#         1358
  -------         ENDPROC       _AAI_WRITE
BL51 BANKED LINKER/LOCATER V6.22                                                      07/10/2019  15:34:23  PAGE 120


  C:8455H         SYMBOL        L?0167
  -------         PROC          L?0166
  -------         ENDPROC       L?0166
  C:8455H         SYMBOL        L?0167
  -------         PROC          _WRITE_CONT
  X:02B0H         SYMBOL        Dst
  X:02B4H         SYMBOL        p
  X:02B7H         SYMBOL        no_bytes
  -------         DO            
  X:02B9H         SYMBOL        i
  C:8534H         SYMBOL        slow_write
  -------         ENDDO         
  C:845BH         LINE#         1365
  C:846CH         LINE#         1366
  C:846CH         LINE#         1368
  C:846FH         LINE#         1371
  C:848AH         LINE#         1372
  C:848AH         LINE#         1373
  C:848DH         LINE#         1374
  C:8493H         LINE#         1375
  C:8496H         LINE#         1376
  C:8496H         LINE#         1377
  C:8496H         LINE#         1378
  C:8496H         LINE#         1379
  C:8496H         LINE#         1380
  C:8496H         LINE#         1381
  C:8496H         LINE#         1382
  C:8496H         LINE#         1383
  C:8496H         LINE#         1384
  C:8496H         LINE#         1385
  C:8496H         LINE#         1386
  C:8496H         LINE#         1387
  C:8496H         LINE#         1388
  C:8496H         LINE#         1392
  C:84A4H         LINE#         1393
  C:84A4H         LINE#         1394
  C:84CBH         LINE#         1395
  C:84CBH         LINE#         1396
  C:84F4H         LINE#         1397
  C:84F7H         LINE#         1398
  C:84F7H         LINE#         1399
  C:84F7H         LINE#         1400
  C:84FEH         LINE#         1401
  C:84FEH         LINE#         1402
  C:8529H         LINE#         1403
  C:852BH         LINE#         1406
  C:852BH         LINE#         1408
  C:853AH         LINE#         1410
  C:853AH         LINE#         1411
  C:853DH         LINE#         1412
  C:855EH         LINE#         1413
  C:8561H         LINE#         1414
  C:8580H         LINE#         1415
  C:858AH         LINE#         1416
  C:859AH         LINE#         1417
  C:859AH         LINE#         1419
  -------         ENDPROC       _WRITE_CONT
BL51 BANKED LINKER/LOCATER V6.22                                                      07/10/2019  15:34:23  PAGE 121


  -------         PROC          FRAM_TEST
  -------         DO            
  D:0006H         SYMBOL        i
  -------         ENDDO         
  C:7EFBH         LINE#         1423
  C:7EFBH         LINE#         1424
  C:7EFBH         LINE#         1427
  C:7EFEH         LINE#         1428
  C:7F01H         LINE#         1429
  C:7F0CH         LINE#         1430
  C:7F0FH         LINE#         1431
  C:7F12H         LINE#         1433
  C:7F2CH         LINE#         1434
  C:7F40H         LINE#         1436
  C:7F55H         LINE#         1437
  C:7F60H         LINE#         1440
  C:7F7FH         LINE#         1441
  C:7F93H         LINE#         1442
  C:7FA8H         LINE#         1443
  C:7FB3H         LINE#         1445
  C:7FD1H         LINE#         1446
  C:7FEBH         LINE#         1447
  C:7FFEH         LINE#         1448
  C:8009H         LINE#         1451
  C:8027H         LINE#         1459
  C:803BH         LINE#         1460
  C:804EH         LINE#         1461
  -------         ENDPROC       FRAM_TEST
  -------         PROC          _DELAY_NMS
  D:0006H         SYMBOL        i
  -------         DO            
  D:0004H         SYMBOL        j
  -------         ENDDO         
  C:B481H         LINE#         1480
  C:B481H         LINE#         1481
  C:B481H         LINE#         1484
  C:B48AH         LINE#         1485
  C:B48AH         LINE#         1486
  C:B497H         LINE#         1487
  C:B49EH         LINE#         1489
  -------         ENDPROC       _DELAY_NMS
  -------         PROC          _DELAY_NUS
  D:0006H         SYMBOL        i
  -------         DO            
  D:0005H         SYMBOL        j
  -------         ENDDO         
  C:B657H         LINE#         1507
  C:B657H         LINE#         1508
  C:B657H         LINE#         1511
  C:B660H         LINE#         1512
  C:B660H         LINE#         1513
  C:B664H         LINE#         1514
  C:B66BH         LINE#         1516
  -------         ENDPROC       _DELAY_NUS
  -------         ENDMOD        PCT25VF

  -------         MODULE        128X80SHENTI
BL51 BANKED LINKER/LOCATER V6.22                                                      07/10/2019  15:34:23  PAGE 122


  C:0000H         SYMBOL        _ICE_DUMMY_
  C:004EH         PUBLIC        FontDots
  -------         ENDMOD        128X80SHENTI

  -------         MODULE        OS_CORE
  C:0000H         SYMBOL        _ICE_DUMMY_
  C:B58AH         PUBLIC        _OS_TaskSuspend
  D:0080H         PUBLIC        P0
  D:0090H         PUBLIC        P1
  D:00A0H         PUBLIC        P2
  D:00B0H         PUBLIC        P3
  D:00C0H         PUBLIC        P4
  D:00C8H         PUBLIC        P5
  B:00A8H.7       PUBLIC        EA
  C:B695H         PUBLIC        OSSched
  D:00A8H         PUBLIC        IE
  D:00B8H         PUBLIC        IP
  C:B7B1H         PUBLIC        _OSTaskSuspend
  D:00D8H         PUBLIC        CCON
  D:0008H         PUBLIC        OSIntNesting
  C:B541H         PUBLIC        _OSTaskResume
  D:0009H         PUBLIC        OSTaskRuning
  D:0098H         PUBLIC        SCON
  D:0088H         PUBLIC        TCON
  C:B703H         PUBLIC        OSInit
  C:A69BH         PUBLIC        _OSWait
  D:000AH         PUBLIC        Os_Enter_Sum
  C:B408H         PUBLIC        OSTimeTick
  C:B5A2H         PUBLIC        OSFindNextRunningTask
  D:000BH         PUBLIC        OSTaskID
  D:00E0H         PUBLIC        ACC
  D:000CH         PUBLIC        OSWaitTick
  C:B324H         PUBLIC        _OSTimeDly
  C:B80AH         PUBLIC        OSMapTbl
  D:000FH         PUBLIC        OSNextTaskID
  C:B297H         PUBLIC        OSIntExit
  C:AEB3H         PUBLIC        __OSTaskCreate
  D:0010H         PUBLIC        OSTaskCreated
  D:00D0H         PUBLIC        PSW
  -------         PROC          OSINIT
  C:B703H         LINE#         87
  C:B703H         LINE#         89
  C:B706H         LINE#         90
  C:B708H         LINE#         95
  C:B70AH         LINE#         96
  C:B70DH         LINE#         97
  C:B70FH         LINE#         98
  C:B711H         LINE#         99
  -------         ENDPROC       OSINIT
  -------         PROC          __OSTASKCREATE
  D:0001H         SYMBOL        TaskID
  D:0006H         SYMBOL        task
  D:0002H         SYMBOL        ptos
  C:AEB3H         LINE#         119
  C:AEB9H         LINE#         121
  C:AEBFH         LINE#         122
  C:AEBFH         LINE#         123
BL51 BANKED LINKER/LOCATER V6.22                                                      07/10/2019  15:34:23  PAGE 123


  C:AEC3H         LINE#         125
  C:AECCH         LINE#         126
  C:AECCH         LINE#         127
  C:AECFH         LINE#         128
  C:AECFH         LINE#         129
  C:AED6H         LINE#         130
  C:AED8H         LINE#         151
  C:AEE1H         LINE#         152
  C:AEE4H         LINE#         153
  C:AEE9H         LINE#         154
  C:AEECH         LINE#         155
  C:AEECH         LINE#         156
  C:AEEEH         LINE#         157
  -------         ENDPROC       __OSTASKCREATE
  -------         PROC          _OSTASKRESUME
  D:0007H         SYMBOL        TaskID
  C:B541H         LINE#         217
  C:B541H         LINE#         219
  C:B547H         LINE#         220
  C:B547H         LINE#         221
  C:B54BH         LINE#         223
  C:B552H         LINE#         234
  C:B557H         LINE#         235
  C:B557H         LINE#         236
  -------         ENDPROC       _OSTASKRESUME
  -------         PROC          _OS_TASKSUSPEND
  D:0007H         SYMBOL        TaskID
  C:B58AH         LINE#         254
  C:B58AH         LINE#         256
  C:B590H         LINE#         257
  C:B590H         LINE#         258
  C:B594H         LINE#         260
  C:B59CH         LINE#         271
  C:B5A1H         LINE#         272
  C:B5A1H         LINE#         273
  -------         ENDPROC       _OS_TASKSUSPEND
  -------         PROC          _OSTASKSUSPEND
  D:0007H         SYMBOL        TaskID
  C:B7B1H         LINE#         291
  C:B7B1H         LINE#         293
  C:B7B7H         LINE#         295
  C:B7BAH         LINE#         296
  -------         ENDPROC       _OSTASKSUSPEND
  -------         PROC          OSFINDNEXTRUNNINGTASK
  -------         DO            
  D:0007H         SYMBOL        temp
  -------         ENDDO         
  C:B5A2H         LINE#         314
  C:B5A2H         LINE#         318
  C:B5A7H         LINE#         321
  C:B5AAH         LINE#         322
  C:B5AAH         LINE#         323
  C:B5AEH         LINE#         324
  C:B5AEH         LINE#         325
  C:B5AEH         LINE#         326
  C:B5AEH         LINE#         327
  C:B5B2H         LINE#         328
BL51 BANKED LINKER/LOCATER V6.22                                                      07/10/2019  15:34:23  PAGE 124


  C:B5B9H         LINE#         351
  -------         ENDPROC       OSFINDNEXTRUNNINGTASK
  -------         PROC          OSINTEXIT
  C:B297H         LINE#         368
  C:B297H         LINE#         371
  C:B29BH         LINE#         373
  C:B2A2H         LINE#         374
  C:B2A2H         LINE#         375
  C:B2A4H         LINE#         376
  C:B2A4H         LINE#         377
  C:B2A8H         LINE#         378
  C:B2A8H         LINE#         379
  C:B2AAH         LINE#         380
  C:B2ADH         LINE#         381
  C:B2B0H         LINE#         382
  C:B2B3H         LINE#         383
  C:B2B3H         LINE#         384
  C:B2B8H         LINE#         385
  C:B2BAH         LINE#         386
  -------         ENDPROC       OSINTEXIT
  -------         PROC          OSSCHED
  C:B695H         LINE#         403
  C:B695H         LINE#         406
  C:B699H         LINE#         407
  C:B69DH         LINE#         408
  C:B69DH         LINE#         409
  C:B6A0H         LINE#         410
  C:B6A3H         LINE#         411
  C:B6A3H         LINE#         412
  C:B6A8H         LINE#         413
  -------         ENDPROC       OSSCHED
  -------         PROC          OSTIMETICK
  -------         DO            
  D:0007H         SYMBOL        i
  -------         ENDDO         
  C:B408H         LINE#         430
  C:B408H         LINE#         434
  C:B40AH         LINE#         435
  C:B40AH         LINE#         436
  C:B411H         LINE#         437
  C:B411H         LINE#         438
  C:B412H         LINE#         439
  C:B419H         LINE#         440
  C:B419H         LINE#         442
  C:B420H         LINE#         453
  C:B420H         LINE#         454
  C:B420H         LINE#         455
  C:B424H         LINE#         456
  -------         ENDPROC       OSTIMETICK
  -------         PROC          _OSTIMEDLY
  D:0007H         SYMBOL        ticks
  C:B324H         LINE#         475
  C:B324H         LINE#         477
  C:B32BH         LINE#         478
  C:B32FH         LINE#         479
  C:B337H         LINE#         480
  C:B337H         LINE#         481
BL51 BANKED LINKER/LOCATER V6.22                                                      07/10/2019  15:34:23  PAGE 125


  C:B33CH         LINE#         482
  C:B33FH         LINE#         483
  C:B341H         LINE#         484
  C:B346H         LINE#         485
  -------         ENDPROC       _OSTIMEDLY
  -------         PROC          _OSWAIT
  D:0007H         SYMBOL        typ
  D:0005H         SYMBOL        ticks
  C:A69BH         LINE#         534
  C:A69BH         LINE#         536
  C:A6A2H         LINE#         538
  C:A6AEH         LINE#         539
  C:A6AEH         LINE#         540
  C:A6AEH         LINE#         541
  C:A6B3H         LINE#         542
  C:A6B6H         LINE#         543
  C:A6B6H         LINE#         544
  C:A6C0H         LINE#         545
  C:A6C3H         LINE#         546
  C:A6C3H         LINE#         548
  C:A6C7H         LINE#         549
  C:A6CFH         LINE#         550
  C:A6CFH         LINE#         551
  C:A6D2H         LINE#         552
  C:A6D2H         LINE#         553
  C:A6D7H         LINE#         554
  C:A6DAH         LINE#         555
  C:A6DFH         LINE#         556
  C:A6E7H         LINE#         557
  C:A6E7H         LINE#         558
  C:A6E9H         LINE#         559
  C:A6ECH         LINE#         560
  C:A6ECH         LINE#         561
  C:A6EFH         LINE#         562
  C:A6EFH         LINE#         563
  C:A6F6H         LINE#         564
  C:A6F8H         LINE#         565
  C:A6F8H         LINE#         566
  -------         ENDPROC       _OSWAIT
  -------         ENDMOD        OS_CORE

  -------         MODULE        OS_MEM
  C:0000H         SYMBOL        _ICE_DUMMY_
  D:0080H         PUBLIC        P0
  D:0090H         PUBLIC        P1
  D:00A0H         PUBLIC        P2
  D:00B0H         PUBLIC        P3
  D:00C0H         PUBLIC        P4
  D:00C8H         PUBLIC        P5
  D:00A8H         PUBLIC        IE
  D:00B8H         PUBLIC        IP
  D:00D8H         PUBLIC        CCON
  D:0098H         PUBLIC        SCON
  D:0088H         PUBLIC        TCON
  D:00E0H         PUBLIC        ACC
  D:00D0H         PUBLIC        PSW
  -------         ENDMOD        OS_MEM
BL51 BANKED LINKER/LOCATER V6.22                                                      07/10/2019  15:34:23  PAGE 126



  -------         MODULE        OS_Q
  C:0000H         SYMBOL        _ICE_DUMMY_
  D:0080H         PUBLIC        P0
  D:0090H         PUBLIC        P1
  D:00A0H         PUBLIC        P2
  D:00B0H         PUBLIC        P3
  D:00C0H         PUBLIC        P4
  D:00C8H         PUBLIC        P5
  B:00A8H.7       PUBLIC        EA
  D:00A8H         PUBLIC        IE
  D:00B8H         PUBLIC        IP
  C:9F0CH         PUBLIC        _OSQPost
  D:0081H         PUBLIC        SP
  D:00D8H         PUBLIC        CCON
  D:0098H         PUBLIC        SCON
  D:0088H         PUBLIC        TCON
  D:00E0H         PUBLIC        ACC
  C:AF2AH         PUBLIC        _OSQCreate
  D:00D0H         PUBLIC        PSW
  C:9BB7H         PUBLIC        _OSQPend
  -------         PROC          _OSQCREATE
  D:0007H         SYMBOL        Buf
  D:0005H         SYMBOL        SizeOfBuf
  C:AF2AH         LINE#         62
  C:AF2AH         LINE#         64
  C:AF2AH         LINE#         65
  C:AF2EH         LINE#         67
  C:AF37H         LINE#         68
  C:AF37H         LINE#         69
  C:AF3AH         LINE#         70
  C:AF41H         LINE#         72
  C:AF47H         LINE#         76
  C:AF4DH         LINE#         77
  C:AF53H         LINE#         80
  C:AF58H         LINE#         81
  C:AF5BH         LINE#         82
  C:AF5BH         LINE#         84
  C:AF5BH         LINE#         85
  C:AF60H         LINE#         86
  C:AF62H         LINE#         87
  C:AF62H         LINE#         89
  -------         ENDPROC       _OSQCREATE
  -------         PROC          _OSQPEND
  D:0007H         SYMBOL        Ret
  D:0005H         SYMBOL        Buf
  D:0003H         SYMBOL        Tick
  -------         DO            
  D:0007H         SYMBOL        cp
  -------         ENDDO         
  C:9BB7H         LINE#         119
  C:9BB7H         LINE#         120
  C:9BB7H         LINE#         132
  C:9BBBH         LINE#         134
  C:9BC4H         LINE#         139
  C:9BC6H         LINE#         140
  C:9BCCH         LINE#         145
BL51 BANKED LINKER/LOCATER V6.22                                                      07/10/2019  15:34:23  PAGE 127


  C:9BD8H         LINE#         157
  C:9BDDH         LINE#         158
  C:9BDDH         LINE#         161
  C:9BDFH         LINE#         162
  C:9BE5H         LINE#         165
  C:9BEAH         LINE#         166
  C:9BEDH         LINE#         169
  C:9BF3H         LINE#         170
  C:9BF5H         LINE#         173
  C:9BFDH         LINE#         174
  C:9BFDH         LINE#         175
  C:9BFDH         LINE#         176
  C:9BFDH         LINE#         181
  C:9C0AH         LINE#         193
  C:9C12H         LINE#         194
  C:9C12H         LINE#         196
  C:9C13H         LINE#         198
  C:9C18H         LINE#         199
  C:9C24H         LINE#         200
  C:9C24H         LINE#         202
  C:9C26H         LINE#         206
  C:9C26H         LINE#         208
  C:9C2CH         LINE#         209
  C:9C2EH         LINE#         210
  C:9C39H         LINE#         214
  C:9C3EH         LINE#         215
  C:9C41H         LINE#         216
  C:9C41H         LINE#         218
  C:9C41H         LINE#         221
  C:9C43H         LINE#         224
  C:9C48H         LINE#         225
  C:9C4AH         LINE#         226
  C:9C4AH         LINE#         227
  -------         ENDPROC       _OSQPEND
  -------         PROC          _OSQPOST
  D:0007H         SYMBOL        Buf
  D:0005H         SYMBOL        Data
  -------         DO            
  D:0006H         SYMBOL        temp
  D:0005H         SYMBOL        i
  -------         ENDDO         
  C:9F0CH         LINE#         307
  C:9F0CH         LINE#         308
  C:9F0CH         LINE#         318
  C:9F10H         LINE#         322
  C:9F1EH         LINE#         326
  C:9F1EH         LINE#         329
  C:9F20H         LINE#         330
  C:9F28H         LINE#         333
  C:9F34H         LINE#         334
  C:9F3EH         LINE#         335
  C:9F3EH         LINE#         337
  C:9F43H         LINE#         341
  C:9F43H         LINE#         344
  C:9F4EH         LINE#         345
  C:9F50H         LINE#         350
  C:9F53H         LINE#         352
BL51 BANKED LINKER/LOCATER V6.22                                                      07/10/2019  15:34:23  PAGE 128


  C:9F58H         LINE#         353
  C:9F58H         LINE#         355
  C:9F5EH         LINE#         357
  C:9F60H         LINE#         358
  C:9F60H         LINE#         359
  C:9F64H         LINE#         360
  C:9F64H         LINE#         361
  C:9F64H         LINE#         362
  C:9F64H         LINE#         363
  C:9F68H         LINE#         364
  C:9F6DH         LINE#         365
  C:9F73H         LINE#         366
  C:9F73H         LINE#         368
  C:9F7FH         LINE#         369
  C:9F84H         LINE#         370
  C:9F84H         LINE#         406
  C:9F84H         LINE#         407
  C:9F89H         LINE#         408
  C:9F8CH         LINE#         409
  C:9F8CH         LINE#         411
  C:9F8CH         LINE#         412
  C:9F91H         LINE#         413
  C:9F93H         LINE#         414
  C:9F93H         LINE#         415
  -------         ENDPROC       _OSQPOST
  -------         ENDMOD        OS_Q

  -------         MODULE        OS_SEM
  C:0000H         SYMBOL        _ICE_DUMMY_
  D:0080H         PUBLIC        P0
  D:0090H         PUBLIC        P1
  D:00A0H         PUBLIC        P2
  D:00B0H         PUBLIC        P3
  D:00C0H         PUBLIC        P4
  D:00C8H         PUBLIC        P5
  D:00A8H         PUBLIC        IE
  D:00B8H         PUBLIC        IP
  D:00D8H         PUBLIC        CCON
  D:0098H         PUBLIC        SCON
  D:0088H         PUBLIC        TCON
  D:00E0H         PUBLIC        ACC
  D:00D0H         PUBLIC        PSW
  -------         ENDMOD        OS_SEM

  -------         MODULE        OS_CPU_C
  C:0000H         SYMBOL        _ICE_DUMMY_
  D:0080H         PUBLIC        P0
  D:0090H         PUBLIC        P1
  D:00A0H         PUBLIC        P2
  D:00B0H         PUBLIC        P3
  C:B24DH         PUBLIC        _OSTaskStkDel
  D:00C0H         PUBLIC        P4
  D:00C8H         PUBLIC        P5
  B:00A8H.7       PUBLIC        EA
  C:AB73H         PUBLIC        _StkDelA
  C:ABF8H         PUBLIC        _StkDelB
  C:B5BAH         PUBLIC        _StkDelC
BL51 BANKED LINKER/LOCATER V6.22                                                      07/10/2019  15:34:23  PAGE 129


  D:00A8H         PUBLIC        IE
  D:00DBH         PUBLIC        CCAPM1
  D:00B8H         PUBLIC        IP
  C:A74FH         PUBLIC        OSTickISR
  C:B724H         PUBLIC        OSCPUInit
  D:0081H         PUBLIC        SP
  D:00D8H         PUBLIC        CCON
  D:0011H         PUBLIC        OSTsakStackBotton
  D:0098H         PUBLIC        SCON
  D:0088H         PUBLIC        TCON
  D:00E0H         PUBLIC        ACC
  D:0016H         PUBLIC        OSFastSwap
  X:0327H         PUBLIC        timer_i
  D:00D0H         PUBLIC        PSW
  B:00D8H.0       PUBLIC        CCF0
  B:00D8H.1       PUBLIC        CCF1
  -------         PROC          OSCPUINIT
  -------         DO            
  D:0007H         SYMBOL        i
  -------         ENDDO         
  C:B724H         LINE#         80
  C:B724H         LINE#         84
  C:B726H         LINE#         85
  C:B726H         LINE#         86
  C:B72CH         LINE#         87
  C:B730H         LINE#         88
  C:B733H         LINE#         90
  -------         ENDPROC       OSCPUINIT
  -------         PROC          _STKDELA
  D:0007H         SYMBOL        TaskID
  -------         DO            
  D:0006H         SYMBOL        cp
  D:0005H         SYMBOL        cp1
  D:0004H         SYMBOL        temp
  D:0007H         SYMBOL        i
  -------         ENDDO         
  C:AB73H         LINE#         202
  C:AB73H         LINE#         203
  C:AB73H         LINE#         208
  C:AB79H         LINE#         209
  C:AB7FH         LINE#         210
  C:AB84H         LINE#         211
  C:AB8DH         LINE#         212
  C:AB8DH         LINE#         213
  C:AB98H         LINE#         214
  C:AB9BH         LINE#         215
  C:ABA1H         LINE#         217
  C:ABA1H         LINE#         218
  C:ABADH         LINE#         219
  C:ABAFH         LINE#         220
  C:ABB5H         LINE#         221
  -------         ENDPROC       _STKDELA
  -------         PROC          _STKDELB
  D:0007H         SYMBOL        TaskID
  -------         DO            
  D:0005H         SYMBOL        cp
  D:0004H         SYMBOL        cp1
BL51 BANKED LINKER/LOCATER V6.22                                                      07/10/2019  15:34:23  PAGE 130


  D:0005H         SYMBOL        temp
  D:0006H         SYMBOL        i
  -------         ENDDO         
  C:ABF8H         LINE#         224
  C:ABF8H         LINE#         225
  C:ABF8H         LINE#         230
  C:ABFFH         LINE#         231
  C:AC05H         LINE#         232
  C:AC10H         LINE#         233
  C:AC12H         LINE#         234
  C:AC12H         LINE#         236
  C:AC12H         LINE#         237
  C:AC1EH         LINE#         238
  C:AC20H         LINE#         239
  C:AC20H         LINE#         240
  C:AC26H         LINE#         241
  C:AC2FH         LINE#         242
  C:AC2FH         LINE#         243
  C:AC36H         LINE#         244
  C:AC39H         LINE#         245
  -------         ENDPROC       _STKDELB
  -------         PROC          _STKDELC
  D:0007H         SYMBOL        TaskID
  -------         DO            
  D:0005H         SYMBOL        cp
  -------         ENDDO         
  C:B5BAH         LINE#         247
  C:B5BAH         LINE#         248
  C:B5BAH         LINE#         253
  C:B5C0H         LINE#         254
  C:B5C6H         LINE#         255
  C:B5CBH         LINE#         256
  C:B5CFH         LINE#         257
  -------         ENDPROC       _STKDELC
  -------         PROC          _OSTASKSTKDEL
  D:0007H         SYMBOL        TaskID
  -------         DO            
  D:0006H         SYMBOL        temp
  -------         ENDDO         
  C:B24DH         LINE#         260
  C:B24DH         LINE#         264
  C:B24FH         LINE#         265
  C:B253H         LINE#         266
  C:B253H         LINE#         267
  C:B254H         LINE#         268
  C:B256H         LINE#         269
  C:B25CH         LINE#         270
  C:B25CH         LINE#         271
  C:B25EH         LINE#         272
  C:B25EH         LINE#         273
  C:B269H         LINE#         274
  C:B269H         LINE#         275
  C:B269H         LINE#         276
  C:B26CH         LINE#         277
  C:B26CH         LINE#         278
  C:B26CH         LINE#         279
  C:B26FH         LINE#         280
BL51 BANKED LINKER/LOCATER V6.22                                                      07/10/2019  15:34:23  PAGE 131


  C:B26FH         LINE#         281
  C:B26FH         LINE#         282
  C:B272H         LINE#         283
  C:B272H         LINE#         284
  C:B272H         LINE#         285
  C:B272H         LINE#         286
  C:B272H         LINE#         287
  -------         ENDPROC       _OSTASKSTKDEL
  -------         PROC          OSTICKISR
  C:A74FH         LINE#         310
  C:A76EH         LINE#         313
  C:A771H         LINE#         314
  C:A771H         LINE#         320
  C:A774H         LINE#         330
  C:A778H         LINE#         333
  C:A77BH         LINE#         338
  C:A77EH         LINE#         339
  C:A77EH         LINE#         340
  C:A781H         LINE#         341
  C:A781H         LINE#         342
  C:A783H         LINE#         343
  C:A786H         LINE#         344
  C:A788H         LINE#         345
  C:A788H         LINE#         346
  -------         ENDPROC       OSTICKISR
  -------         ENDMOD        OS_CPU_C

  -------         MODULE        OS_CPU_A_ASM
  C:B798H         SEGMENT       ?PR?OSCTXSW?OS_CPU_A
  C:B0D0H         SEGMENT       ?PR?OSINTCTXSW?OS_CPU_A
  C:B06EH         SEGMENT       ?PR?LOADCTX?OS_CPU_A
  C:9D6AH         SEGMENT       ?PR?C_OSCTXSW?OS_CPU_A
  C:A09FH         SEGMENT       ?PR?_OSTASKSTKINIT?OS_CPU_A
  I:0076H         SEGMENT       ?STACK
  C:9D6AH         PUBLIC        C_OSCTXSW
  C:B06EH         PUBLIC        LOADCTX
  C:B798H         PUBLIC        OSCTXSW
  C:B0D0H         PUBLIC        OSINTCTXSW
  I:0076H         PUBLIC        STACK
  C:A09FH         PUBLIC        _OSTASKSTKINIT
  C:9DB7H         SYMBOL        ?C0001
  C:9D88H         SYMBOL        ?C0002
  C:9D8EH         SYMBOL        ?C0003
  C:9DABH         SYMBOL        ?C0004
  C:9DB1H         SYMBOL        ?C0005
  C:9DF0H         SYMBOL        ?C0007
  C:9DC1H         SYMBOL        ?C0008
  C:9DC7H         SYMBOL        ?C0009
  C:9DF3H         SYMBOL        ?C000R
  C:9DE5H         SYMBOL        ?C0010
  C:9DEBH         SYMBOL        ?C0011
  D:00E0H         SYMBOL        ACC
  D:00F0H         SYMBOL        B
  D:0083H         SYMBOL        DPH
  D:0082H         SYMBOL        DPL
  B:00A8H.7       SYMBOL        EA
  C:B077H         SYMBOL        LOADCTX_0
BL51 BANKED LINKER/LOCATER V6.22                                                      07/10/2019  15:34:23  PAGE 132


  C:B099H         SYMBOL        LOADCTX_2
  C:B0A0H         SYMBOL        LOADCTX_3
  C:B0E5H         SYMBOL        OSINTCTXSW_0
  N:0000H         SYMBOL        OS_CPU_A_ASM
  D:00D0H         SYMBOL        PSW
  D:0081H         SYMBOL        SP
  C:A0D6H         SYMBOL        STKINIT11
  C:A10AH         SYMBOL        STKINIT12
  C:A0E8H         SYMBOL        STKINIT15
  C:A104H         SYMBOL        STKINIT18
  C:A0DEH         SYMBOL        STKINIT5
  C:A0B9H         SYMBOL        STKINIT8
  C:A09FH         LINE#         137
  C:A0A1H         LINE#         138
  C:A0A3H         LINE#         142
  C:A0A4H         LINE#         143
  C:A0A7H         LINE#         144
  C:A0A8H         LINE#         145
  C:A0AAH         LINE#         173
  C:A0ABH         LINE#         174
  C:A0ACH         LINE#         175
  C:A0AEH         LINE#         176
  C:A0B0H         LINE#         179
  C:A0B1H         LINE#         180
  C:A0B3H         LINE#         181
  C:A0B4H         LINE#         182
  C:A0B5H         LINE#         184
  C:A0B7H         LINE#         185
  C:A0B8H         LINE#         186
  C:A0B9H         LINE#         191
  C:A0BBH         LINE#         192
  C:A0BCH         LINE#         193
  C:A0BDH         LINE#         195
  C:A0BEH         LINE#         197
  C:A0C0H         LINE#         200
  C:A0C2H         LINE#         203
  C:A0C4H         LINE#         204
  C:A0C6H         LINE#         205
  C:A0C8H         LINE#         207
  C:A0CAH         LINE#         208
  C:A0CBH         LINE#         209
  C:A0CCH         LINE#         210
  C:A0CEH         LINE#         211
  C:A0CFH         LINE#         212
  C:A0D1H         LINE#         213
  C:A0D2H         LINE#         214
  C:A0D3H         LINE#         215
  C:A0D4H         LINE#         217
  C:A0D6H         LINE#         222
  C:A0D7H         LINE#         223
  C:A0D8H         LINE#         224
  C:A0D9H         LINE#         225
  C:A0DAH         LINE#         227
  C:A0DCH         LINE#         229
  C:A0DEH         LINE#         234
  C:A0E0H         LINE#         235
  C:A0E2H         LINE#         236
BL51 BANKED LINKER/LOCATER V6.22                                                      07/10/2019  15:34:23  PAGE 133


  C:A0E3H         LINE#         238
  C:A0E4H         LINE#         239
  C:A0E5H         LINE#         240
  C:A0E7H         LINE#         241
  C:A0E8H         LINE#         246
  C:A0EAH         LINE#         247
  C:A0EBH         LINE#         248
  C:A0ECH         LINE#         250
  C:A0EDH         LINE#         252
  C:A0EFH         LINE#         255
  C:A0F1H         LINE#         256
  C:A0F3H         LINE#         257
  C:A0F4H         LINE#         258
  C:A0F5H         LINE#         259
  C:A0F6H         LINE#         261
  C:A0F7H         LINE#         262
  C:A0F9H         LINE#         263
  C:A0FAH         LINE#         265
  C:A0FCH         LINE#         266
  C:A0FDH         LINE#         267
  C:A0FEH         LINE#         268
  C:A0FFH         LINE#         269
  C:A100H         LINE#         270
  C:A101H         LINE#         271
  C:A102H         LINE#         273
  C:A104H         LINE#         278
  C:A105H         LINE#         279
  C:A106H         LINE#         280
  C:A107H         LINE#         281
  C:A108H         LINE#         283
  C:A10AH         LINE#         287
  C:A10CH         LINE#         288
  C:A10DH         LINE#         289
  C:A10EH         LINE#         290
  C:A10FH         LINE#         291
  C:A110H         LINE#         293
  C:A112H         LINE#         294
  C:A113H         LINE#         295
  C:A114H         LINE#         297
  C:A116H         LINE#         298
  C:A117H         LINE#         299
  C:A118H         LINE#         309
  C:A119H         LINE#         310
  C:A11AH         LINE#         312
  C:B06EH         LINE#         340
  C:B070H         LINE#         348
  C:B072H         LINE#         349
  C:B075H         LINE#         350
  C:B077H         LINE#         352
  C:B07AH         LINE#         354
  C:B07BH         LINE#         355
  C:B07DH         LINE#         367
  C:B07FH         LINE#         369
  C:B081H         LINE#         370
  C:B083H         LINE#         371
  C:B085H         LINE#         372
  C:B087H         LINE#         373
BL51 BANKED LINKER/LOCATER V6.22                                                      07/10/2019  15:34:23  PAGE 134


  C:B089H         LINE#         374
  C:B08BH         LINE#         375
  C:B08DH         LINE#         376
  C:B08FH         LINE#         377
  C:B091H         LINE#         378
  C:B093H         LINE#         379
  C:B095H         LINE#         380
  C:B097H         LINE#         381
  C:B099H         LINE#         384
  C:B09BH         LINE#         385
  C:B09EH         LINE#         386
  C:B0A0H         LINE#         388
  C:B798H         LINE#         415
  C:B79AH         LINE#         417
  C:B79DH         LINE#         418
  C:B79FH         LINE#         420
  C:B7A0H         LINE#         421
  C:B7A2H         LINE#         434
  C:9D6AH         LINE#         457
  C:9D6CH         LINE#         460
  C:9D6EH         LINE#         466
  C:9D6FH         LINE#         468
  C:9D71H         LINE#         469
  C:9D73H         LINE#         470
  C:9D74H         LINE#         471
  C:9D75H         LINE#         472
  C:9D76H         LINE#         474
  C:9D78H         LINE#         475
  C:9D7AH         LINE#         476
  C:9D7BH         LINE#         477
  C:9D7CH         LINE#         478
  C:9D7DH         LINE#         480
  C:9D7FH         LINE#         481
  C:9D80H         LINE#         482
  C:9D82H         LINE#         483
  C:9D84H         LINE#         489
  C:9D85H         LINE#         490
  C:9D86H         LINE#         491
  C:9D87H         LINE#         492
  C:9D88H         LINE#         494
  C:9D89H         LINE#         495
  C:9D8AH         LINE#         496
  C:9D8BH         LINE#         497
  C:9D8CH         LINE#         498
  C:9D8EH         LINE#         501
  C:9D90H         LINE#         502
  C:9D92H         LINE#         503
  C:9D93H         LINE#         504
  C:9D94H         LINE#         505
  C:9D95H         LINE#         507
  C:9D96H         LINE#         508
  C:9D97H         LINE#         510
  C:9D98H         LINE#         511
  C:9D9AH         LINE#         516
  C:9D9CH         LINE#         517
  C:9D9DH         LINE#         518
  C:9D9FH         LINE#         519
BL51 BANKED LINKER/LOCATER V6.22                                                      07/10/2019  15:34:23  PAGE 135


  C:9DA0H         LINE#         520
  C:9DA2H         LINE#         522
  C:9DA4H         LINE#         523
  C:9DA6H         LINE#         524
  C:9DA7H         LINE#         525
  C:9DA8H         LINE#         526
  C:9DA9H         LINE#         527
  C:9DAAH         LINE#         528
  C:9DABH         LINE#         530
  C:9DACH         LINE#         531
  C:9DADH         LINE#         532
  C:9DAEH         LINE#         533
  C:9DAFH         LINE#         534
  C:9DB1H         LINE#         537
  C:9DB4H         LINE#         539
  C:9DB7H         LINE#         544
  C:9DB9H         LINE#         545
  C:9DBBH         LINE#         546
  C:9DBDH         LINE#         558
  C:9DBEH         LINE#         559
  C:9DBFH         LINE#         560
  C:9DC0H         LINE#         561
  C:9DC1H         LINE#         563
  C:9DC2H         LINE#         564
  C:9DC3H         LINE#         565
  C:9DC4H         LINE#         566
  C:9DC5H         LINE#         567
  C:9DC7H         LINE#         570
  C:9DC9H         LINE#         571
  C:9DCBH         LINE#         572
  C:9DCCH         LINE#         573
  C:9DCDH         LINE#         574
  C:9DCEH         LINE#         576
  C:9DCFH         LINE#         577
  C:9DD0H         LINE#         579
  C:9DD2H         LINE#         580
  C:9DD4H         LINE#         581
  C:9DD5H         LINE#         582
  C:9DD6H         LINE#         583
  C:9DD8H         LINE#         589
  C:9DDAH         LINE#         590
  C:9DDBH         LINE#         591
  C:9DDDH         LINE#         592
  C:9DDFH         LINE#         594
  C:9DE0H         LINE#         595
  C:9DE2H         LINE#         596
  C:9DE4H         LINE#         597
  C:9DE5H         LINE#         599
  C:9DE6H         LINE#         600
  C:9DE7H         LINE#         601
  C:9DE8H         LINE#         602
  C:9DE9H         LINE#         603
  C:9DEBH         LINE#         607
  C:9DEEH         LINE#         609
  C:9DF0H         LINE#         613
  C:9DF3H         LINE#         618
  C:B0D0H         LINE#         642
BL51 BANKED LINKER/LOCATER V6.22                                                      07/10/2019  15:34:23  PAGE 136


  C:B0D2H         LINE#         643
  C:B0D4H         LINE#         644
  C:B0D6H         LINE#         647
  C:B0D8H         LINE#         648
  C:B0DAH         LINE#         649
  C:B0DCH         LINE#         651
  C:B0DEH         LINE#         652
  C:B0E0H         LINE#         653
  C:B0E2H         LINE#         654
  C:B0E4H         LINE#         655
  C:B0E5H         LINE#         659
  C:B0E7H         LINE#         660
  C:B0E9H         LINE#         661
  C:B0EBH         LINE#         663
  C:B0EEH         LINE#         664
  C:B0F0H         LINE#         666
  C:B0F1H         LINE#         667
  C:B0F2H         LINE#         668
  C:B0F4H         LINE#         689
  C:B0F6H         LINE#         691
  C:B0F8H         LINE#         692
  C:B0FAH         LINE#         693
  C:B0FCH         LINE#         694
  C:B0FEH         LINE#         695
  -------         ENDMOD        OS_CPU_A_ASM

  -------         MODULE        ?C?COPY
  C:52E2H         PUBLIC        ?C?COPY
  -------         ENDMOD        ?C?COPY

  -------         MODULE        ?C?CLDPTR
  C:5308H         PUBLIC        ?C?CLDPTR
  -------         ENDMOD        ?C?CLDPTR

  -------         MODULE        ?C?CLDOPTR
  C:5321H         PUBLIC        ?C?CLDOPTR
  -------         ENDMOD        ?C?CLDOPTR

  -------         MODULE        ?C?CILDOPTR
  C:534EH         PUBLIC        ?C?CILDOPTR
  -------         ENDMOD        ?C?CILDOPTR

  -------         MODULE        ?C?CSTPTR
  C:5381H         PUBLIC        ?C?CSTPTR
  -------         ENDMOD        ?C?CSTPTR

  -------         MODULE        ?C?CSTOPTR
  C:5393H         PUBLIC        ?C?CSTOPTR
  -------         ENDMOD        ?C?CSTOPTR

  -------         MODULE        ?C?IMUL
  C:53B5H         PUBLIC        ?C?IMUL
  -------         ENDMOD        ?C?IMUL

  -------         MODULE        ?C?UIDIV
  C:53C7H         PUBLIC        ?C?UIDIV
  -------         ENDMOD        ?C?UIDIV
BL51 BANKED LINKER/LOCATER V6.22                                                      07/10/2019  15:34:23  PAGE 137



  -------         MODULE        ?C?SIDIV
  C:541CH         PUBLIC        ?C?SIDIV
  -------         ENDMOD        ?C?SIDIV

  -------         MODULE        ?C?IILDX
  C:5452H         PUBLIC        ?C?IILDX
  -------         ENDMOD        ?C?IILDX

  -------         MODULE        ?C?ILDIX
  C:5468H         PUBLIC        ?C?ILDIX
  -------         ENDMOD        ?C?ILDIX

  -------         MODULE        ?C?ILDOPTR
  C:547EH         PUBLIC        ?C?ILDOPTR
  -------         ENDMOD        ?C?ILDOPTR

  -------         MODULE        ?C?ISTOPTR
  C:54B6H         PUBLIC        ?C?ISTOPTR
  -------         ENDMOD        ?C?ISTOPTR

  -------         MODULE        ?C?LMUL
  C:54E3H         PUBLIC        ?C?LMUL
  -------         ENDMOD        ?C?LMUL

  -------         MODULE        ?C?SLDIV
  C:AAECH         PUBLIC        ?C?SLDIV
  -------         ENDMOD        ?C?SLDIV

  -------         MODULE        ?C?ULCMP
  C:5532H         PUBLIC        ?C?ULCMP
  -------         ENDMOD        ?C?ULCMP

  -------         MODULE        ?C?ULSHR
  C:5543H         PUBLIC        ?C?ULSHR
  -------         ENDMOD        ?C?ULSHR

  -------         MODULE        ?C?LSHL
  C:5556H         PUBLIC        ?C?LSHL
  -------         ENDMOD        ?C?LSHL

  -------         MODULE        ?C?LSTXDATA
  C:5569H         PUBLIC        ?C?LSTXDATA
  -------         ENDMOD        ?C?LSTXDATA

  -------         MODULE        ?C?LSTKXDATA
  C:5575H         PUBLIC        ?C?LSTKXDATA
  -------         ENDMOD        ?C?LSTKXDATA

  -------         MODULE        ?C?CCASE
  C:55A6H         PUBLIC        ?C?CCASE
  -------         ENDMOD        ?C?CCASE

  -------         MODULE        STRCAT
  X:02B3H         PUBLIC        ?_strcat?BYTE
  C:A3CCH         PUBLIC        _strcat
  -------         ENDMOD        STRCAT
BL51 BANKED LINKER/LOCATER V6.22                                                      07/10/2019  15:34:23  PAGE 138



  -------         MODULE        STRLEN
  C:B66CH         PUBLIC        _STRLEN
  -------         ENDMOD        STRLEN

  -------         MODULE        ?C?MEMSET
  C:55CCH         PUBLIC        ?C?MEMSET
  -------         ENDMOD        ?C?MEMSET

  -------         MODULE        ?C?ULDIV
  C:5634H         PUBLIC        ?C?ULDIV
  -------         ENDMOD        ?C?ULDIV

*** WARNING L16: UNCALLED SEGMENT, IGNORED FOR OVERLAY PROCESS
    SEGMENT: ?PR?RESETEPH1660?EPH1660

*** WARNING L16: UNCALLED SEGMENT, IGNORED FOR OVERLAY PROCESS
    SEGMENT: ?PR?MASTERSPIINITIEPH1660?EPH1660

*** WARNING L16: UNCALLED SEGMENT, IGNORED FOR OVERLAY PROCESS
    SEGMENT: ?PR?EPH1660MANAGER?EPH1660

*** WARNING L16: UNCALLED SEGMENT, IGNORED FOR OVERLAY PROCESS
    SEGMENT: ?PR?REC_GT23_DATA?GT23

*** WARNING L16: UNCALLED SEGMENT, IGNORED FOR OVERLAY PROCESS
    SEGMENT: ?PR?_SSD1963DATA_16?LCD

*** WARNING L16: UNCALLED SEGMENT, IGNORED FOR OVERLAY PROCESS
    SEGMENT: ?PR?READ_SSD1963_DATA?LCD

*** WARNING L16: UNCALLED SEGMENT, IGNORED FOR OVERLAY PROCESS
    SEGMENT: ?PR?DISPLAY_DOT?LCD

*** WARNING L16: UNCALLED SEGMENT, IGNORED FOR OVERLAY PROCESS
    SEGMENT: ?PR?DISPLAYFRAME?LCD

*** WARNING L16: UNCALLED SEGMENT, IGNORED FOR OVERLAY PROCESS
    SEGMENT: ?PR?_DISPLAY_ASCII_2?LCD

*** WARNING L16: UNCALLED SEGMENT, IGNORED FOR OVERLAY PROCESS
    SEGMENT: ?PR?SHOWSTARTINFUSIONCALL?LCD

*** WARNING L16: UNCALLED SEGMENT, IGNORED FOR OVERLAY PROCESS
    SEGMENT: ?PR?SHOWSTARTSERVICECALL?LCD

*** WARNING L16: UNCALLED SEGMENT, IGNORED FOR OVERLAY PROCESS
    SEGMENT: ?PR?SHOWSTARTEMERGENCYCALL?LCD

*** WARNING L16: UNCALLED SEGMENT, IGNORED FOR OVERLAY PROCESS
    SEGMENT: ?PR?SHOWSTARTHELPCALL?LCD

*** WARNING L16: UNCALLED SEGMENT, IGNORED FOR OVERLAY PROCESS
    SEGMENT: ?PR?RD_ID?MAIN

*** WARNING L16: UNCALLED SEGMENT, IGNORED FOR OVERLAY PROCESS
    SEGMENT: ?PR?DIRRFSERIALCOMPARE?MAIN
BL51 BANKED LINKER/LOCATER V6.22                                                      07/10/2019  15:34:23  PAGE 139



*** WARNING L16: UNCALLED SEGMENT, IGNORED FOR OVERLAY PROCESS
    SEGMENT: ?PR?SYSRESET?SINGLEBUS

*** WARNING L16: UNCALLED SEGMENT, IGNORED FOR OVERLAY PROCESS
    SEGMENT: ?PR?EPH1660MASTERSPI?SPI

*** WARNING L16: UNCALLED SEGMENT, IGNORED FOR OVERLAY PROCESS
    SEGMENT: ?PR?_ISSINGLEITEM?UART

*** WARNING L16: UNCALLED SEGMENT, IGNORED FOR OVERLAY PROCESS
    SEGMENT: ?PR?USARTMANAGER?UART

*** WARNING L16: UNCALLED SEGMENT, IGNORED FOR OVERLAY PROCESS
    SEGMENT: ?PR?SST25VF_INIT?PCT25VF

*** WARNING L16: UNCALLED SEGMENT, IGNORED FOR OVERLAY PROCESS
    SEGMENT: ?PR?HOLD_LOW?PCT25VF

*** WARNING L16: UNCALLED SEGMENT, IGNORED FOR OVERLAY PROCESS
    SEGMENT: ?PR?UNHOLD?PCT25VF

*** WARNING L16: UNCALLED SEGMENT, IGNORED FOR OVERLAY PROCESS
    SEGMENT: ?PR?WP_LOW?PCT25VF

*** WARNING L16: UNCALLED SEGMENT, IGNORED FOR OVERLAY PROCESS
    SEGMENT: ?PR?UNWP?PCT25VF

*** WARNING L16: UNCALLED SEGMENT, IGNORED FOR OVERLAY PROCESS
    SEGMENT: ?PR?JEDEC_ID_READ?PCT25VF

*** WARNING L16: UNCALLED SEGMENT, IGNORED FOR OVERLAY PROCESS
    SEGMENT: ?PR?_HIGHSPEED_READ?PCT25VF

*** WARNING L16: UNCALLED SEGMENT, IGNORED FOR OVERLAY PROCESS
    SEGMENT: ?PR?_HIGHSPEED_READ_CONT?PCT25VF

*** WARNING L16: UNCALLED SEGMENT, IGNORED FOR OVERLAY PROCESS
    SEGMENT: ?PR?_AUTO_ADD_INCA?PCT25VF

*** WARNING L16: UNCALLED SEGMENT, IGNORED FOR OVERLAY PROCESS
    SEGMENT: ?PR?_AUTO_ADD_INCB?PCT25VF

*** WARNING L16: UNCALLED SEGMENT, IGNORED FOR OVERLAY PROCESS
    SEGMENT: ?PR?CHIP_ERASE?PCT25VF

*** WARNING L16: UNCALLED SEGMENT, IGNORED FOR OVERLAY PROCESS
    SEGMENT: ?PR?_BLOCK_ERASE_32K?PCT25VF

*** WARNING L16: UNCALLED SEGMENT, IGNORED FOR OVERLAY PROCESS
    SEGMENT: ?PR?_BLOCK_ERASE_64K?PCT25VF

*** WARNING L16: UNCALLED SEGMENT, IGNORED FOR OVERLAY PROCESS
    SEGMENT: ?PR?WAIT_BUSY_AAI?PCT25VF

*** WARNING L16: UNCALLED SEGMENT, IGNORED FOR OVERLAY PROCESS
    SEGMENT: ?PR?WREN_CHECK?PCT25VF
BL51 BANKED LINKER/LOCATER V6.22                                                      07/10/2019  15:34:23  PAGE 140



*** WARNING L16: UNCALLED SEGMENT, IGNORED FOR OVERLAY PROCESS
    SEGMENT: ?PR?WREN_AAI_CHECK?PCT25VF

*** WARNING L16: UNCALLED SEGMENT, IGNORED FOR OVERLAY PROCESS
    SEGMENT: ?PR?_BYTE_WRITE?PCT25VF

*** WARNING L16: UNCALLED SEGMENT, IGNORED FOR OVERLAY PROCESS
    SEGMENT: ?PR?FRAM_TEST?PCT25VF

*** WARNING L16: UNCALLED SEGMENT, IGNORED FOR OVERLAY PROCESS
    SEGMENT: ?PR?_OSTASKSTKDEL?OS_CPU_C

Program Size: data=111.6 xdata=808 code=47150
LINK/LOCATE RUN COMPLETE.  38 WARNING(S),  0 ERROR(S)
