BL51 BANKED LINKER/LOCATER V6.22                                                        03/06/2019  08:21:13  PAGE 1


BL51 BANKED LINKER/LOCATER V6.22, INVOKED BY:
C:\KEIL\C51\BIN\BL51.EXE GT23.obj, IAP.obj, LCD.obj, main.obj, SingleBus.obj, SPI.obj, Uart.obj, sst25vf040_2005.obj, .\
>> OS_CORE.obj, .\OS_MEM.obj, .\OS_Q.obj, .\OS_SEM.obj, .\OS_CPU_C.obj, .\OS_CPU_A.obj TO YHFJ-DISP-V21 RAMSIZE (256)


MEMORY MODEL: LARGE


INPUT MODULES INCLUDED:
  GT23.obj (GT23)
  IAP.obj (IAP)
  LCD.obj (LCD)
  main.obj (MAIN)
  SingleBus.obj (SINGLEBUS)
  SPI.obj (SPI)
  Uart.obj (UART)
  sst25vf040_2005.obj (SST25VF040_2005)
  .\OS_CORE.obj (OS_CORE)
  .\OS_MEM.obj (OS_MEM)
  .\OS_Q.obj (OS_Q)
  .\OS_SEM.obj (OS_SEM)
  .\OS_CPU_C.obj (OS_CPU_C)
  .\OS_CPU_A.obj (OS_CPU_A_ASM)
  C:\KEIL\C51\LIB\C51L.LIB (?C_STARTUP)
  C:\KEIL\C51\LIB\C51L.LIB (?C?COPY)
  C:\KEIL\C51\LIB\C51L.LIB (?C?SCDIV)
  C:\KEIL\C51\LIB\C51L.LIB (?C?CLDPTR)
  C:\KEIL\C51\LIB\C51L.LIB (?C?CLDOPTR)
  C:\KEIL\C51\LIB\C51L.LIB (?C?CSTPTR)
  C:\KEIL\C51\LIB\C51L.LIB (?C?CSTOPTR)
  C:\KEIL\C51\LIB\C51L.LIB (?C?IMUL)
  C:\KEIL\C51\LIB\C51L.LIB (?C?UIDIV)
  C:\KEIL\C51\LIB\C51L.LIB (?C?SIDIV)
  C:\KEIL\C51\LIB\C51L.LIB (?C?IILDX)
  C:\KEIL\C51\LIB\C51L.LIB (?C?ILDIX)
  C:\KEIL\C51\LIB\C51L.LIB (?C?ILDPTR)
  C:\KEIL\C51\LIB\C51L.LIB (?C?ILDOPTR)
  C:\KEIL\C51\LIB\C51L.LIB (?C?ISTPTR)
  C:\KEIL\C51\LIB\C51L.LIB (?C?LMUL)
  C:\KEIL\C51\LIB\C51L.LIB (?C?ULDIV)
  C:\KEIL\C51\LIB\C51L.LIB (?C?SLDIV)
  C:\KEIL\C51\LIB\C51L.LIB (?C?ULCMP)
  C:\KEIL\C51\LIB\C51L.LIB (?C?ULSHR)
  C:\KEIL\C51\LIB\C51L.LIB (?C?LSHL)
  C:\KEIL\C51\LIB\C51L.LIB (?C?LSTXDATA)
  C:\KEIL\C51\LIB\C51L.LIB (?C?LSTKXDATA)
  C:\KEIL\C51\LIB\C51L.LIB (?C?CCASE)
  C:\KEIL\C51\LIB\C51L.LIB (?C?MEMSET)
  C:\KEIL\C51\LIB\C51L.LIB (?C_INIT)


LINK MAP OF MODULE:  YHFJ-DISP-V21 (GT23)


            TYPE    BASE      LENGTH    RELOCATION   SEGMENT NAME
            -----------------------------------------------------

            * * * * * * *   D A T A   M E M O R Y   * * * * * * *
BL51 BANKED LINKER/LOCATER V6.22                                                      03/06/2019  08:21:13  PAGE 2


            REG     0000H     0008H     ABSOLUTE     "REG BANK 0"
            DATA    0008H     000EH     UNIT         ?DT?SINGLEBUS
            DATA    0016H     000AH     UNIT         ?DT?OS_CORE
            DATA    0020H     0007H     BIT_ADDR     ?BA?SINGLEBUS
            BIT     0027H.0   0000H.2   UNIT         ?BI?SINGLEBUS
            BIT     0027H.2   0000H.2   UNIT         ?BI?UART
            BIT     0027H.4   0000H.1   UNIT         _BIT_GROUP_
                    0027H.5   0000H.3                *** GAP ***
            DATA    0028H     0007H     UNIT         ?DT?OS_CPU_C
            DATA    002FH     0001H     UNIT         ?DT?MAIN
            IDATA   0030H     0010H     UNIT         ?ID?MAIN
            IDATA   0040H     0002H     UNIT         ?STACK

            * * * * * * *  X D A T A   M E M O R Y  * * * * * * *
            XDATA   0000H     009BH     UNIT         ?XD?SINGLEBUS
            XDATA   009BH     0095H     UNIT         ?XD?UART
            XDATA   0130H     0089H     UNIT         ?XD?GT23
            XDATA   01B9H     0086H     UNIT         ?XD?MAIN
            XDATA   023FH     003FH     UNIT         _XDATA_GROUP_
            XDATA   027EH     001EH     UNIT         ?XD?LCD
            XDATA   029CH     0015H     UNIT         ?XD?_LCD_FANGDA_DIS_TEXT?LCD
            XDATA   02B1H     0014H     UNIT         ?XD?SST25VF040_2005
            XDATA   02C5H     000FH     UNIT         ?XD?_HIGHSPEED_READ_CONT?SST25VF040_2005
            XDATA   02D4H     000BH     UNIT         ?XD?_DISPLAYFRAME?LCD
            XDATA   02DFH     0009H     UNIT         ?XD?_DISPLAY_HLINE?LCD
            XDATA   02E8H     0009H     UNIT         ?XD?_DISPLAY_VLINE?LCD
            XDATA   02F1H     0008H     UNIT         ?XD?_GETPSKCRC?UART
            XDATA   02F9H     0007H     UNIT         ?XD?_DISPLAY_DOT?LCD
            XDATA   0300H     0007H     UNIT         ?XD?_DISPLAY_DOT_MUL?LCD
            XDATA   0307H     0006H     UNIT         ?XD?_AUTO_ADD_INCA?SST25VF040_2005
            XDATA   030DH     0006H     UNIT         ?XD?_AUTO_ADD_INCA_EBSY?SST25VF040_2005
            XDATA   0313H     0005H     UNIT         ?XD?_SHOWKEYFACE?LCD
            XDATA   0318H     0005H     UNIT         ?XD?_BYTE_WRITE?SST25VF040_2005
            XDATA   031DH     0005H     UNIT         ?XD?_BYTE_WRITE1?SST25VF040_2005
            XDATA   0322H     0004H     UNIT         ?XD?JEDEC_ID_READ?SST25VF040_2005
            XDATA   0326H     0004H     UNIT         ?XD?_HIGHSPEED_READ?SST25VF040_2005
            XDATA   032AH     0004H     UNIT         ?XD?_BLOCK_ERASE_64K?SST25VF040_2005
            XDATA   032EH     0004H     UNIT         ?XD?_OSMEMNEW?OS_MEM
            XDATA   0332H     0004H     UNIT         ?XD?_OSMEMFREE?OS_MEM
            XDATA   0336H     0002H     UNIT         ?XD?_READ_ID?SST25VF040_2005
            XDATA   0338H     0002H     UNIT         ?XD?_AUTO_ADD_INCB?SST25VF040_2005
            XDATA   033AH     0002H     UNIT         ?XD?_AUTO_ADD_INCB_EBSY?SST25VF040_2005
            XDATA   033CH     0002H     UNIT         ?XD?WAIT_BUSY_AAI?SST25VF040_2005
            XDATA   033EH     0002H     UNIT         ?XD?WREN_CHECK?SST25VF040_2005
            XDATA   0340H     0002H     UNIT         ?XD?WREN_AAI_CHECK?SST25VF040_2005
            XDATA   0342H     0002H     UNIT         ?XD?OS_MEM
            XDATA   0344H     0001H     UNIT         ?XD?_SHOWTOUCHADJUST?LCD
            XDATA   0345H     0001H     UNIT         ?XD?POLL_SO?SST25VF040_2005
            XDATA   0346H     0001H     UNIT         ?XD?OS_CPU_C

            * * * * * * *   C O D E   M E M O R Y   * * * * * * *
            CODE    0000H     0003H     ABSOLUTE     
            CODE    0003H     0003H     ABSOLUTE     
            CODE    0006H     0003H     UNIT         ?PR?EX0INT?MAIN
            CODE    0009H     0002H     UNIT         ?PR?_USERMEMCHKERR?OS_MEM
            CODE    000BH     0003H     ABSOLUTE     
            CODE    000EH     0003H     UNIT         ?PR?TIMER1INT?MAIN
BL51 BANKED LINKER/LOCATER V6.22                                                      03/06/2019  08:21:13  PAGE 3


            CODE    0011H     0001H     UNIT         ?PR?SYSRESET?SINGLEBUS
            CODE    0012H     0001H     UNIT         ?PR?HOLD_LOW?SST25VF040_2005
            CODE    0013H     0003H     ABSOLUTE     
            CODE    0016H     0003H     UNIT         ?PR?ADCINT?MAIN
            CODE    0019H     0001H     UNIT         ?PR?UNHOLD?SST25VF040_2005
            CODE    001AH     0001H     UNIT         ?PR?WP_LOW?SST25VF040_2005
            CODE    001BH     0003H     ABSOLUTE     
            CODE    001EH     0003H     UNIT         ?PR?LVDINT?MAIN
            CODE    0021H     0001H     UNIT         ?PR?UNWP?SST25VF040_2005
                    0022H     0001H                  *** GAP ***
            CODE    0023H     0003H     ABSOLUTE     
            CODE    0026H     0003H     UNIT         ?PR?CE_HIGH?SST25VF040_2005
                    0029H     0002H                  *** GAP ***
            CODE    002BH     0003H     ABSOLUTE     
                    002EH     0005H                  *** GAP ***
            CODE    0033H     0003H     ABSOLUTE     
                    0036H     0005H                  *** GAP ***
            CODE    003BH     0003H     ABSOLUTE     
            CODE    003EH     000DH     UNIT         ?PR?_SPI_WRITEBYTE?SPI
            CODE    004BH     0003H     ABSOLUTE     
            CODE    004EH     41ABH     UNIT         ?PR?BUS0RECDEAL?SINGLEBUS
            CODE    41F9H     0DE3H     UNIT         ?PR?_STORSECINFO?LCD
            CODE    4FDCH     0C4FH     UNIT         ?PR?_SHOWSECINFOSET?LCD
            CODE    5C2BH     0895H     UNIT         ?PR?_STORESECINFO?LCD
            CODE    64C0H     057EH     UNIT         ?PR?_SHOWMAINMENUFACE?LCD
            CODE    6A3EH     0540H     UNIT         ?PR?_SHOWTIMESET?LCD
            CODE    6F7EH     052CH     UNIT         ?PR?_GET_GT23_DATA1?GT23
            CODE    74AAH     04FBH     UNIT         ?PR?_GET_GT23_DATA?GT23
            CODE    79A5H     04C0H     UNIT         ?C?LIB_CODE
            CODE    7E65H     04ACH     UNIT         ?PR?_SHOWVOICETIMERSET?LCD
            CODE    8311H     0493H     UNIT         ?PR?_SHOWCALLFACE2?LCD
            CODE    87A4H     047DH     UNIT         ?PR?_SHOWTALKFACE?LCD
            CODE    8C21H     0437H     UNIT         ?PR?_SHOWCALLFACE1?LCD
            CODE    9058H     03FCH     UNIT         ?PR?_SHOWBACKLIGHTTIMERSET?LCD
            CODE    9454H     03EEH     UNIT         ?PR?_DISPLAYSTRING?LCD
            CODE    9842H     03BFH     UNIT         ?PR?TIMER0INT?SINGLEBUS
            CODE    9C01H     0350H     UNIT         ?CO?LCD
            CODE    9F51H     0331H     UNIT         ?PR?_SHOWBROADFACE?LCD
            CODE    A282H     02E6H     UNIT         ?PR?_SHOWSTARTNUMSET?LCD
            CODE    A568H     029CH     UNIT         ?PR?_SHOWMOVEFJNUMBERSET?LCD
            CODE    A804H     028BH     UNIT         ?PR?_SHOWPOWERUPFACE?LCD
            CODE    AA8FH     024EH     UNIT         ?PR?_SHOWNUMBERSETFACE?LCD
            CODE    ACDDH     0246H     UNIT         ?PR?USART0RECDEAL?UART
            CODE    AF23H     0236H     UNIT         ?PR?_SHOWSELFNUMBERSET?LCD
            CODE    B159H     0211H     UNIT         ?PR?_SHOWCALLFACE0?LCD
            CODE    B36AH     01F2H     UNIT         ?PR?_SHOWBEDFJNUMBERSET?LCD
            CODE    B55CH     01D6H     UNIT         ?PR?TIMEROUTDEAL?SINGLEBUS
            CODE    B732H     01B7H     UNIT         ?PR?_OSMEMFREE?OS_MEM
            CODE    B8E9H     01B1H     UNIT         ?PR?_OSMEMNEW?OS_MEM
            CODE    BA9AH     0194H     UNIT         ?PR?_SAVEPARAMETER?SINGLEBUS
            CODE    BC2EH     0183H     UNIT         ?PR?_DISPLAYDIGITSTRING?LCD
            CODE    BDB1H     017AH     UNIT         ?PR?MAINTASK?MAIN
            CODE    BF2BH     0171H     UNIT         ?PR?_LCD_FANGDA_DIS_TEXT?LCD
            CODE    C09CH     0166H     UNIT         ?PR?_SHOWWCDOORFJNUMBERSET?LCD
            CODE    C202H     0166H     UNIT         ?PR?_SHOWADDFJNUMBERSET?LCD
            CODE    C368H     014EH     UNIT         ?PR?_DISPLAY_CHINESE?LCD
            CODE    C4B6H     0132H     UNIT         ?PR?_DISPLAY_ASCII?LCD
BL51 BANKED LINKER/LOCATER V6.22                                                      03/06/2019  08:21:13  PAGE 4


            CODE    C5E8H     012AH     UNIT         ?PR?INITSSD1963?LCD
            CODE    C712H     0127H     UNIT         ?PR?UART0?UART
            CODE    C839H     011EH     UNIT         ?PR?_DISPLAYASCIISTRING?LCD
            CODE    C957H     011DH     UNIT         ?PR?_DISPLAYCHINESESTRING?LCD
            CODE    CA74H     011CH     UNIT         ?PR?_DISPLAYFRAME?LCD
            CODE    CB90H     010FH     UNIT         ?PR?_ASCIIXDIRECTIONINCREASE?LCD
            CODE    CC9FH     010FH     UNIT         ?PR?_CHINESEXDIRECTIONINCREASE?LCD
            CODE    CDAEH     0109H     UNIT         ?PR?_REMOVECALLNOD?SINGLEBUS
            CODE    CEB7H     00F1H     UNIT         ?PR?_DISPLAYBLOCK?LCD
            CODE    CFA8H     00D7H     UNIT         ?PR?_ADDCALLNOD?SINGLEBUS
            CODE    D07FH     00CFH     UNIT         ?PR?INITPARAMETER?SINGLEBUS
            CODE    D14EH     00C3H     UNIT         ?PR?_SHOWMAXVOLSETFACE?LCD
            CODE    D211H     00BFH     UNIT         ?PR?_HIGHSPEED_READ_CONT?SST25VF040_2005
            CODE    D2D0H     00BAH     UNIT         ?PR?_READ_CONT?SST25VF040_2005
            CODE    D38AH     00AAH     UNIT         ?PR?FRAM_TEST?SST25VF040_2005
            CODE    D434H     00A8H     UNIT         ?PR?INIT?MAIN
            CODE    D4DCH     009DH     UNIT         ?PR?_DISPLAY_VLINE?LCD
            CODE    D579H     009CH     UNIT         ?PR?_SHOWKEYFACE?LCD
            CODE    D615H     0098H     UNIT         ?PR?_SHOWNUMBERPWINPUTFACE?LCD
            CODE    D6ADH     0097H     UNIT         ?PR?_BUS0OUTPUTDATA?SINGLEBUS
            CODE    D744H     0094H     UNIT         ?PR?_SHOWCALCULATEFACE?LCD
            CODE    D7D8H     0094H     UNIT         ?PR?_OSQPEND?OS_Q
            CODE    D86CH     008CH     UNIT         ?PR?C_OSCTXSW?OS_CPU_A
            CODE    D8F8H     008CH     UNIT         ?C_C51STARTUP
            CODE    D984H     008AH     UNIT         ?PR?_BUS0RECDATA?SINGLEBUS
            CODE    DA0EH     0088H     UNIT         ?PR?_OSQPOST?OS_Q
            CODE    DA96H     0087H     UNIT         ?PR?_DISPLAY_DOT_MUL?LCD
            CODE    DB1DH     0087H     UNIT         ?PR?_DISPLAY_HLINE?LCD
            CODE    DBA4H     007CH     UNIT         ?PR?_OSTASKSTKINIT?OS_CPU_A
            CODE    DC20H     007AH     UNIT         ?PR?_CHECKPSK?UART
            CODE    DC9AH     0077H     UNIT         ?PR?_DISPLAYDIGIT?LCD
            CODE    DD11H     0074H     UNIT         ?PR?USARTINIT?UART
            CODE    DD85H     0070H     UNIT         ?PR?_SET_DISPLAY_AREA?LCD
            CODE    DDF5H     006FH     UNIT         ?PR?_LCD_CLEAR?LCD
            CODE    DE64H     0069H     UNIT         ?PR?_DISPLAYASCII?LCD
            CODE    DECDH     0067H     UNIT         ?PR?_AAI_WRITE?SST25VF040_2005
            CODE    DF34H     0066H     UNIT         ?PR?_GETPSKCRC?UART
            CODE    DF9AH     0065H     UNIT         ?PR?_SHOWNUMSETOK?LCD
            CODE    DFFFH     0065H     UNIT         ?PR?_PARACRCCHECK?SINGLEBUS
            CODE    E064H     0063H     UNIT         ?PR?_READPARAMETER?SINGLEBUS
            CODE    E0C7H     005EH     UNIT         ?PR?_OSWAIT?OS_CORE
            CODE    E125H     005DH     UNIT         ?PR?_BYTE_PROGRAM?SST25VF040_2005
            CODE    E182H     005BH     UNIT         ?PR?_DISPLAY_DOT?LCD
            CODE    E1DDH     005BH     UNIT         ?PR?_AAI_WRITE1?SST25VF040_2005
            CODE    E238H     0053H     UNIT         ?PR?_SHOWTOUCHADJUST?LCD
            CODE    E28BH     0053H     UNIT         ?PR?_AUTO_ADD_INCA_EBSY?SST25VF040_2005
            CODE    E2DEH     0053H     UNIT         ?PR?OSTICKISR?OS_CPU_C
            CODE    E331H     004BH     UNIT         ?PR?_GETCOLOR?LCD
            CODE    E37CH     004AH     UNIT         ?PR?BUS0SENDDEAL?SINGLEBUS
            CODE    E3C6H     004AH     UNIT         ?PR?_AUTO_ADD_INCA?SST25VF040_2005
            CODE    E410H     0048H     UNIT         ?PR?JEDEC_ID_READ?SST25VF040_2005
            CODE    E458H     0048H     UNIT         ?PR?_HIGHSPEED_READ?SST25VF040_2005
            CODE    E4A0H     0048H     UNIT         ?PR?_SECTOR_ERASE?SST25VF040_2005
            CODE    E4E8H     0046H     UNIT         ?PR?CALCPARACRC?SINGLEBUS
            CODE    E52EH     0046H     UNIT         ?PR?_OSMEMINIT?OS_MEM
            CODE    E574H     0044H     UNIT         ?C?LDIV
            CODE    E5B8H     0043H     UNIT         ?PR?_STKDELA?OS_CPU_C
BL51 BANKED LINKER/LOCATER V6.22                                                      03/06/2019  08:21:13  PAGE 5


            CODE    E5FBH     0042H     UNIT         ?C_INITSEG
            CODE    E63DH     0042H     UNIT         ?PR?_STKDELB?OS_CPU_C
            CODE    E67FH     0041H     UNIT         ?PR?_ADDRCOMPARE?SINGLEBUS
            CODE    E6C0H     003FH     UNIT         ?PR?_READ?SST25VF040_2005
            CODE    E6FFH     003DH     UNIT         ?PR?_BLOCK_ERASE_32K?SST25VF040_2005
            CODE    E73CH     003DH     UNIT         ?PR?_BLOCK_ERASE_64K?SST25VF040_2005
            CODE    E779H     003CH     UNIT         ?PR?__OSTASKCREATE?OS_CORE
            CODE    E7B5H     0039H     UNIT         ?PR?_OSQCREATE?OS_Q
            CODE    E7EEH     0038H     UNIT         ?PR?SINGLEBUSINIT?SINGLEBUS
            CODE    E826H     0033H     UNIT         ?PR?LOADCTX?OS_CPU_A
            CODE    E859H     0032H     UNIT         ?PR?_DIRADDRCOMPARE?SINGLEBUS
            CODE    E88BH     002FH     UNIT         ?PR?OSINTCTXSW?OS_CPU_A
            CODE    E8BAH     002CH     UNIT         ?PR?_AUTO_ADD_INCB_EBSY?SST25VF040_2005
            CODE    E8E6H     002BH     UNIT         ?PR?DISPMANAGER?LCD
            CODE    E911H     002BH     UNIT         ?PR?_BYTE_WRITE?SST25VF040_2005
            CODE    E93CH     002AH     UNIT         ?PR?_READ_ID?SST25VF040_2005
            CODE    E966H     0029H     UNIT         ?PR?WAIT_BUSY_AAI?SST25VF040_2005
            CODE    E98FH     0027H     UNIT         ?PR?_SETSCROLLAREA?LCD
            CODE    E9B6H     0026H     UNIT         ?PR?GET_BYTE?SST25VF040_2005
            CODE    E9DCH     0026H     UNIT         ?PR?_OSTASKSTKDEL?OS_CPU_C
            CODE    EA02H     0025H     UNIT         ?PR?EPH1660MASTERSPI?SPI
            CODE    EA27H     0025H     UNIT         ?PR?WREN_AAI_CHECK?SST25VF040_2005
            CODE    EA4CH     0024H     UNIT         ?PR?OSINTEXIT?OS_CORE
            CODE    EA70H     0023H     UNIT         ?PR?SST25VF_INIT?SST25VF040_2005
            CODE    EA93H     0023H     UNIT         ?PR?_AUTO_ADD_INCB?SST25VF040_2005
            CODE    EAB6H     0023H     UNIT         ?PR?_OSTIMEDLY?OS_CORE
            CODE    EAD9H     0022H     UNIT         ?PR?USERTICKTIMER?MAIN
            CODE    EAFBH     0022H     UNIT         ?PR?TIMEROUTMANAGER?SINGLEBUS
            CODE    EB1DH     0022H     UNIT         ?PR?WAIT_BUSY?SST25VF040_2005
            CODE    EB3FH     0022H     UNIT         ?PR?WREN_CHECK?SST25VF040_2005
            CODE    EB61H     0020H     UNIT         ?PR?BUS0MANAGE?SINGLEBUS
            CODE    EB81H     0020H     UNIT         ?PR?MCUMASTERSPI?SPI
            CODE    EBA1H     001FH     UNIT         ?PR?_BYTE_WRITE1?SST25VF040_2005
            CODE    EBC0H     001FH     UNIT         ?PR?OSTIMETICK?OS_CORE
            CODE    EBDFH     001CH     UNIT         ?PR?_DELAYMS?MAIN
            CODE    EBFBH     001CH     UNIT         ?PR?MAIN?MAIN
            CODE    EC17H     001CH     UNIT         ?PR?BUS0RECINT?SINGLEBUS
            CODE    EC33H     001CH     UNIT         ?PR?_WRSR?SST25VF040_2005
            CODE    EC4FH     001AH     UNIT         ?PR?POLL_SO?SST25VF040_2005
            CODE    EC69H     001AH     UNIT         ?PR?_DELAY_NMS?SST25VF040_2005
            CODE    EC83H     0019H     UNIT         ?CO?SINGLEBUS
            CODE    EC9CH     0019H     UNIT         ?PR?_OSTASKRESUME?OS_CORE
            CODE    ECB5H     0018H     UNIT         ?PR?_OS_TASKSUSPEND?OS_CORE
            CODE    ECCDH     0018H     UNIT         ?PR?OSFINDNEXTRUNNINGTASK?OS_CORE
            CODE    ECE5H     0018H     UNIT         ?PR?_STKDELC?OS_CPU_C
            CODE    ECFDH     0016H     UNIT         ?PR?_IAPWRITEBYTE?IAP
            CODE    ED13H     0016H     UNIT         ?PR?USARTMANAGER?UART
            CODE    ED29H     0014H     UNIT         ?PR?_IAPREADBYTE?IAP
            CODE    ED3DH     0014H     UNIT         ?PR?OSSCHED?OS_CORE
            CODE    ED51H     0013H     UNIT         ?PR?_SEND_SSD1963_DATA?LCD
            CODE    ED64H     0013H     UNIT         ?PR?_SETSCROLLSTART?LCD
            CODE    ED77H     0013H     UNIT         ?PR?_SEND_BYTE?SST25VF040_2005
            CODE    ED8AH     0013H     UNIT         ?PR?_DELAY_NUS?SST25VF040_2005
            CODE    ED9DH     0012H     UNIT         ?PR?_IAPERASE?IAP
            CODE    EDAFH     0012H     UNIT         ?PR?_DISPATCHMESSAGE?MAIN
            CODE    EDC1H     0011H     UNIT         ?PR?READ_STATUS_REGISTER?SST25VF040_2005
            CODE    EDD2H     0011H     UNIT         ?PR?OSINIT?OS_CORE
BL51 BANKED LINKER/LOCATER V6.22                                                      03/06/2019  08:21:13  PAGE 6


            CODE    EDE3H     0010H     UNIT         ?PR?OSCPUINIT?OS_CPU_C
            CODE    EDF3H     000FH     UNIT         ?PR?_SEND_SSD1963_COMMAND?LCD
            CODE    EE02H     000FH     UNIT         ?PR?_SEND_DATA?MAIN
            CODE    EE11H     000FH     UNIT         ?PR?_BCDTOHEX?SINGLEBUS
            CODE    EE20H     000EH     UNIT         ?PR?_SSD1963DATA_16?LCD
            CODE    EE2EH     000EH     UNIT         ?PR?WREN?SST25VF040_2005
            CODE    EE3CH     000DH     UNIT         ?PR?OSCTXSW?OS_CPU_A
            CODE    EE49H     000CH     UNIT         ?PR?_SET_VISUALPAGE?LCD
            CODE    EE55H     000CH     UNIT         ?PR?_OSTASKSUSPEND?OS_CORE
            CODE    EE61H     000BH     UNIT         ?PR?_MAKECH0TIMEROUT?SINGLEBUS
            CODE    EE6CH     000BH     UNIT         ?PR?EWSR?SST25VF040_2005
            CODE    EE77H     000BH     UNIT         ?PR?WRDI?SST25VF040_2005
            CODE    EE82H     000BH     UNIT         ?PR?EBSY?SST25VF040_2005
            CODE    EE8DH     000BH     UNIT         ?PR?DBSY?SST25VF040_2005
            CODE    EE98H     000BH     UNIT         ?PR?CHIP_ERASE?SST25VF040_2005
            CODE    EEA3H     0009H     UNIT         ?CO?OS_CORE
            CODE    EEACH     0008H     UNIT         ?PR?REC_GT23_DATA?GT23
            CODE    EEB4H     0008H     UNIT         ?PR?DISABLEIAP?IAP
            CODE    EEBCH     0008H     UNIT         ?PR?SPIINT?SPI
            CODE    EEC4H     0007H     UNIT         ?PR?_GETMESSAGE?MAIN
            CODE    EECBH     0006H     UNIT         ?PR?_ENABLEIAP?IAP
            CODE    EED1H     0006H     UNIT         ?PR?_SEND_DATA_BYTE?MAIN
            CODE    EED7H     0006H     UNIT         ?PR?CE_LOW?SST25VF040_2005



OVERLAY MAP OF MODULE:   YHFJ-DISP-V21 (GT23)


SEGMENT                                             BIT_GROUP          XDATA_GROUP
  +--> CALLED SEGMENT                            START    LENGTH     START    LENGTH
------------------------------------------------------------------------------------
?PR?TIMER0INT?SINGLEBUS                          -----    -----      -----    -----
  +--> ?PR?_BUS0RECDATA?SINGLEBUS

?PR?_BUS0RECDATA?SINGLEBUS                       -----    -----      023FH    0004H

*** NEW ROOT ***************************************************

?PR?OSTICKISR?OS_CPU_C                           -----    -----      -----    -----
  +--> ?PR?USERTICKTIMER?MAIN
  +--> ?PR?OSTIMETICK?OS_CORE
  +--> ?PR?OSINTEXIT?OS_CORE

?PR?OSTIMETICK?OS_CORE                           -----    -----      -----    -----
  +--> ?CO?OS_CORE
  +--> ?PR?OSSCHED?OS_CORE

?PR?OSSCHED?OS_CORE                              -----    -----      -----    -----
  +--> ?PR?OSFINDNEXTRUNNINGTASK?OS_CORE
  +--> ?PR?OSCTXSW?OS_CPU_A

?PR?OSCTXSW?OS_CPU_A                             -----    -----      -----    -----
  +--> ?CO?OS_CORE
  +--> ?PR?C_OSCTXSW?OS_CPU_A

?PR?C_OSCTXSW?OS_CPU_A                           -----    -----      -----    -----
BL51 BANKED LINKER/LOCATER V6.22                                                      03/06/2019  08:21:13  PAGE 7


  +--> ?PR?LOADCTX?OS_CPU_A

?PR?LOADCTX?OS_CPU_A                             -----    -----      -----    -----
  +--> ?CO?OS_CORE

?PR?OSINTEXIT?OS_CORE                            -----    -----      -----    -----
  +--> ?PR?OSFINDNEXTRUNNINGTASK?OS_CORE
  +--> ?PR?OSINTCTXSW?OS_CPU_A

?PR?OSINTCTXSW?OS_CPU_A                          -----    -----      -----    -----
  +--> ?PR?OSCTXSW?OS_CPU_A
  +--> ?CO?OS_CORE
  +--> ?PR?C_OSCTXSW?OS_CPU_A

*** NEW ROOT ***************************************************

?C_C51STARTUP                                    -----    -----      -----    -----
  +--> ?PR?MAIN?MAIN
  +--> ?C_INITSEG

?PR?MAIN?MAIN                                    -----    -----      -----    -----
  +--> ?PR?_DELAYMS?MAIN
  +--> ?PR?OSINIT?OS_CORE
  +--> ?PR?MAINTASK?MAIN
  +--> ?PR?__OSTASKCREATE?OS_CORE

?PR?OSINIT?OS_CORE                               -----    -----      -----    -----
  +--> ?PR?OSCPUINIT?OS_CPU_C

?PR?MAINTASK?MAIN                                -----    -----      -----    -----
  +--> ?PR?INIT?MAIN
  +--> ?PR?_OSQCREATE?OS_Q
  +--> ?PR?BUS0MANAGE?SINGLEBUS
  +--> ?PR?__OSTASKCREATE?OS_CORE
  +--> ?PR?TIMEROUTMANAGER?SINGLEBUS
  +--> ?PR?DISPMANAGER?LCD
  +--> ?PR?_GETMESSAGE?MAIN
  +--> ?PR?_DISPATCHMESSAGE?MAIN
  +--> ?PR?USART0RECDEAL?UART
  +--> ?PR?BUS0RECDEAL?SINGLEBUS

?PR?INIT?MAIN                                    -----    -----      -----    -----
  +--> ?PR?_DELAYMS?MAIN
  +--> ?PR?INITPARAMETER?SINGLEBUS
  +--> ?PR?USARTINIT?UART
  +--> ?PR?SINGLEBUSINIT?SINGLEBUS
  +--> ?PR?MCUMASTERSPI?SPI
  +--> ?PR?SST25VF_INIT?SST25VF040_2005
  +--> ?PR?INITSSD1963?LCD
  +--> ?PR?_MAKECH0TIMEROUT?SINGLEBUS
  +--> ?PR?_SHOWPOWERUPFACE?LCD
  +--> ?PR?_READ_CONT?SST25VF040_2005
  +--> ?PR?_STORSECINFO?LCD

?PR?INITPARAMETER?SINGLEBUS                      -----    -----      0243H    0002H
  +--> ?PR?_PARACRCCHECK?SINGLEBUS
  +--> ?PR?_ENABLEIAP?IAP
BL51 BANKED LINKER/LOCATER V6.22                                                      03/06/2019  08:21:13  PAGE 8


  +--> ?PR?_IAPREADBYTE?IAP
  +--> ?PR?DISABLEIAP?IAP
  +--> ?PR?_READPARAMETER?SINGLEBUS
  +--> ?PR?_SAVEPARAMETER?SINGLEBUS
  +--> ?PR?CALCPARACRC?SINGLEBUS

?PR?_PARACRCCHECK?SINGLEBUS                      -----    -----      0245H    0005H
  +--> ?PR?_ENABLEIAP?IAP
  +--> ?PR?_IAPREADBYTE?IAP
  +--> ?PR?DISABLEIAP?IAP

?PR?_READPARAMETER?SINGLEBUS                     -----    -----      0245H    0006H
  +--> ?PR?_ENABLEIAP?IAP
  +--> ?PR?_IAPREADBYTE?IAP
  +--> ?PR?DISABLEIAP?IAP

?PR?_SAVEPARAMETER?SINGLEBUS                     -----    -----      0248H    000AH
  +--> ?PR?CALCPARACRC?SINGLEBUS
  +--> ?PR?_ENABLEIAP?IAP
  +--> ?PR?_IAPERASE?IAP
  +--> ?PR?_IAPWRITEBYTE?IAP
  +--> ?PR?_IAPREADBYTE?IAP
  +--> ?PR?DISABLEIAP?IAP

?PR?CALCPARACRC?SINGLEBUS                        -----    -----      0252H    0004H
  +--> ?PR?_ENABLEIAP?IAP
  +--> ?PR?DISABLEIAP?IAP

?PR?SST25VF_INIT?SST25VF040_2005                 -----    -----      -----    -----
  +--> ?PR?READ_STATUS_REGISTER?SST25VF040_2005
  +--> ?PR?_SEND_DATA_BYTE?MAIN
  +--> ?PR?EWSR?SST25VF040_2005
  +--> ?PR?_DELAYMS?MAIN
  +--> ?PR?_WRSR?SST25VF040_2005

?PR?READ_STATUS_REGISTER?SST25VF040_2005         -----    -----      -----    -----
  +--> ?PR?CE_LOW?SST25VF040_2005
  +--> ?PR?_SEND_BYTE?SST25VF040_2005
  +--> ?PR?GET_BYTE?SST25VF040_2005
  +--> ?PR?CE_HIGH?SST25VF040_2005

?PR?_SEND_BYTE?SST25VF040_2005                   -----    -----      -----    -----
  +--> ?PR?_SPI_WRITEBYTE?SPI

?PR?GET_BYTE?SST25VF040_2005                     -----    -----      -----    -----
  +--> ?PR?_SPI_WRITEBYTE?SPI

?PR?_SEND_DATA_BYTE?MAIN                         -----    -----      0243H    0001H

?PR?EWSR?SST25VF040_2005                         -----    -----      -----    -----
  +--> ?PR?CE_LOW?SST25VF040_2005
  +--> ?PR?_SEND_BYTE?SST25VF040_2005
  +--> ?PR?CE_HIGH?SST25VF040_2005

?PR?_WRSR?SST25VF040_2005                        -----    -----      0243H    0002H
  +--> ?PR?CE_LOW?SST25VF040_2005
  +--> ?PR?_SEND_BYTE?SST25VF040_2005
BL51 BANKED LINKER/LOCATER V6.22                                                      03/06/2019  08:21:13  PAGE 9


  +--> ?PR?CE_HIGH?SST25VF040_2005

?PR?INITSSD1963?LCD                              -----    -----      -----    -----
  +--> ?PR?_DELAYMS?MAIN
  +--> ?PR?_SEND_SSD1963_COMMAND?LCD
  +--> ?PR?_SEND_SSD1963_DATA?LCD
  +--> ?PR?_SETSCROLLAREA?LCD
  +--> ?PR?_LCD_CLEAR?LCD
  +--> ?PR?_SET_VISUALPAGE?LCD

?PR?_SETSCROLLAREA?LCD                           -----    -----      0243H    0002H
  +--> ?PR?_SEND_SSD1963_COMMAND?LCD
  +--> ?PR?_SEND_SSD1963_DATA?LCD

?PR?_LCD_CLEAR?LCD                               -----    -----      024FH    0002H
  +--> ?PR?_SET_DISPLAY_AREA?LCD
  +--> ?PR?_SEND_SSD1963_COMMAND?LCD

?PR?_SET_DISPLAY_AREA?LCD                        -----    -----      0272H    000CH
  +--> ?PR?_SEND_SSD1963_COMMAND?LCD
  +--> ?PR?_SEND_SSD1963_DATA?LCD

?PR?_SET_VISUALPAGE?LCD                          -----    -----      -----    -----
  +--> ?PR?_SETSCROLLSTART?LCD

?PR?_SETSCROLLSTART?LCD                          -----    -----      -----    -----
  +--> ?PR?_SEND_SSD1963_COMMAND?LCD
  +--> ?PR?_SEND_SSD1963_DATA?LCD

?PR?_SHOWPOWERUPFACE?LCD                         -----    -----      0243H    0005H
  +--> ?PR?_LCD_CLEAR?LCD
  +--> ?CO?LCD
  +--> ?PR?_DISPLAYCHINESESTRING?LCD
  +--> ?PR?_DISPLAYASCIISTRING?LCD
  +--> ?PR?_DISPLAYDIGITSTRING?LCD
  +--> ?PR?_SET_VISUALPAGE?LCD

?PR?_DISPLAYCHINESESTRING?LCD                    -----    -----      024FH    0014H
  +--> ?PR?_GET_GT23_DATA1?GT23
  +--> ?PR?_DISPLAY_CHINESE?LCD
  +--> ?PR?_CHINESEXDIRECTIONINCREASE?LCD

?PR?_GET_GT23_DATA1?GT23                         -----    -----      0263H    0013H
  +--> ?PR?_SPI_WRITEBYTE?SPI
  +--> ?PR?REC_GT23_DATA?GT23

?PR?REC_GT23_DATA?GT23                           -----    -----      -----    -----
  +--> ?PR?_SPI_WRITEBYTE?SPI

?PR?_DISPLAY_CHINESE?LCD                         -----    -----      0263H    000FH
  +--> ?PR?_SET_DISPLAY_AREA?LCD
  +--> ?PR?_SEND_SSD1963_COMMAND?LCD

?PR?_CHINESEXDIRECTIONINCREASE?LCD               -----    -----      0263H    0009H

?PR?_DISPLAYASCIISTRING?LCD                      -----    -----      0248H    0014H
  +--> ?PR?_GET_GT23_DATA?GT23
BL51 BANKED LINKER/LOCATER V6.22                                                      03/06/2019  08:21:13  PAGE 10


  +--> ?PR?_DISPLAY_ASCII?LCD
  +--> ?PR?_ASCIIXDIRECTIONINCREASE?LCD

?PR?_GET_GT23_DATA?GT23                          -----    -----      0263H    0013H
  +--> ?PR?_SPI_WRITEBYTE?SPI
  +--> ?PR?REC_GT23_DATA?GT23

?PR?_DISPLAY_ASCII?LCD                           -----    -----      0263H    000FH
  +--> ?PR?_SET_DISPLAY_AREA?LCD
  +--> ?PR?_SEND_SSD1963_COMMAND?LCD

?PR?_ASCIIXDIRECTIONINCREASE?LCD                 -----    -----      0263H    0009H

?PR?_DISPLAYDIGITSTRING?LCD                      -----    -----      024FH    0014H
  +--> ?PR?_GET_GT23_DATA?GT23
  +--> ?PR?_DISPLAY_ASCII?LCD
  +--> ?PR?_ASCIIXDIRECTIONINCREASE?LCD

?PR?_READ_CONT?SST25VF040_2005                   -----    -----      024DH    000FH
  +--> ?PR?CE_LOW?SST25VF040_2005
  +--> ?PR?_SEND_BYTE?SST25VF040_2005
  +--> ?PR?GET_BYTE?SST25VF040_2005
  +--> ?PR?CE_HIGH?SST25VF040_2005

?PR?_STORSECINFO?LCD                             -----    -----      0243H    0005H
  +--> ?PR?_LCD_CLEAR?LCD
  +--> ?PR?_DISPLAYBLOCK?LCD
  +--> ?CO?LCD
  +--> ?PR?_DISPLAYASCIISTRING?LCD
  +--> ?PR?_DISPLAYDIGIT?LCD
  +--> ?PR?_DISPLAYASCII?LCD
  +--> ?PR?_DISPLAY_ASCII?LCD
  +--> ?PR?_DISPLAYDIGITSTRING?LCD
  +--> ?PR?_DISPLAYCHINESESTRING?LCD

?PR?_DISPLAYBLOCK?LCD                            -----    -----      024EH    000FH
  +--> ?PR?_SET_DISPLAY_AREA?LCD
  +--> ?PR?_SEND_SSD1963_COMMAND?LCD

?PR?_DISPLAYDIGIT?LCD                            -----    -----      0248H    000BH
  +--> ?PR?_GET_GT23_DATA?GT23
  +--> ?PR?_DISPLAY_ASCII?LCD

?PR?_DISPLAYASCII?LCD                            -----    -----      0248H    000BH
  +--> ?PR?_GET_GT23_DATA?GT23
  +--> ?PR?_DISPLAY_ASCII?LCD

?PR?BUS0MANAGE?SINGLEBUS                         -----    -----      -----    -----
  +--> ?PR?_OSQPOST?OS_Q
  +--> ?PR?_OSWAIT?OS_CORE

?PR?_OSQPOST?OS_Q                                -----    -----      -----    -----
  +--> ?CO?OS_CORE
  +--> ?PR?_OSTASKRESUME?OS_CORE

?PR?_OSTASKRESUME?OS_CORE                        -----    -----      -----    -----
  +--> ?CO?OS_CORE
BL51 BANKED LINKER/LOCATER V6.22                                                      03/06/2019  08:21:13  PAGE 11


  +--> ?PR?OSSCHED?OS_CORE

?PR?_OSWAIT?OS_CORE                              -----    -----      -----    -----
  +--> ?PR?_OSTASKSUSPEND?OS_CORE
  +--> ?PR?_OSTIMEDLY?OS_CORE
  +--> ?PR?_OS_TASKSUSPEND?OS_CORE
  +--> ?PR?OSSCHED?OS_CORE

?PR?_OSTASKSUSPEND?OS_CORE                       -----    -----      -----    -----
  +--> ?PR?_OS_TASKSUSPEND?OS_CORE
  +--> ?PR?OSSCHED?OS_CORE

?PR?_OS_TASKSUSPEND?OS_CORE                      -----    -----      -----    -----
  +--> ?CO?OS_CORE

?PR?_OSTIMEDLY?OS_CORE                           -----    -----      -----    -----
  +--> ?PR?_OS_TASKSUSPEND?OS_CORE
  +--> ?PR?OSSCHED?OS_CORE

?PR?__OSTASKCREATE?OS_CORE                       -----    -----      -----    -----
  +--> ?CO?OS_CORE
  +--> ?PR?_OSTASKSTKINIT?OS_CPU_A
  +--> ?PR?OSSCHED?OS_CORE

?PR?_OSTASKSTKINIT?OS_CPU_A                      -----    -----      -----    -----
  +--> ?CO?OS_CORE

?PR?TIMEROUTMANAGER?SINGLEBUS                    -----    -----      -----    -----
  +--> ?PR?_OSWAIT?OS_CORE
  +--> ?PR?_OSQPOST?OS_Q

?PR?DISPMANAGER?LCD                              -----    -----      -----    -----
  +--> ?PR?_OSWAIT?OS_CORE
  +--> ?PR?_LCD_CLEAR?LCD
  +--> ?PR?_SET_VISUALPAGE?LCD

?PR?_GETMESSAGE?MAIN                             -----    -----      -----    -----
  +--> ?PR?_OSQPEND?OS_Q

?PR?_OSQPEND?OS_Q                                -----    -----      -----    -----
  +--> ?CO?OS_CORE
  +--> ?PR?_OS_TASKSUSPEND?OS_CORE
  +--> ?PR?OSSCHED?OS_CORE

?PR?_DISPATCHMESSAGE?MAIN                        -----    -----      -----    -----
  +--> ?PR?BUS0SENDDEAL?SINGLEBUS
  +--> ?PR?TIMEROUTDEAL?SINGLEBUS

?PR?BUS0SENDDEAL?SINGLEBUS                       -----    -----      -----    -----
  +--> ?PR?_SEND_DATA?MAIN
  +--> ?PR?_MAKECH0TIMEROUT?SINGLEBUS
  +--> ?PR?_SAVEPARAMETER?SINGLEBUS

?PR?_SEND_DATA?MAIN                              -----    -----      0248H    0004H

?PR?TIMEROUTDEAL?SINGLEBUS                       -----    -----      0243H    0004H
  +--> ?PR?_BUS0OUTPUTDATA?SINGLEBUS
BL51 BANKED LINKER/LOCATER V6.22                                                      03/06/2019  08:21:13  PAGE 12


  +--> ?CO?LCD
  +--> ?PR?_DISPLAY_ASCII?LCD
  +--> ?PR?_DISPLAYBLOCK?LCD
  +--> ?PR?_SET_VISUALPAGE?LCD
  +--> ?PR?_DISPLAYDIGITSTRING?LCD

?PR?_BUS0OUTPUTDATA?SINGLEBUS                    -----    -----      0248H    0004H

?PR?USART0RECDEAL?UART                           -----    -----      0243H    0005H
  +--> ?PR?_ADDRCOMPARE?SINGLEBUS
  +--> ?PR?_CHECKPSK?UART
  +--> ?PR?_BUS0OUTPUTDATA?SINGLEBUS
  +--> ?PR?_READ_CONT?SST25VF040_2005
  +--> ?PR?WREN?SST25VF040_2005
  +--> ?PR?_BLOCK_ERASE_32K?SST25VF040_2005
  +--> ?PR?WAIT_BUSY?SST25VF040_2005
  +--> ?PR?_AAI_WRITE?SST25VF040_2005
  +--> ?PR?_AAI_WRITE1?SST25VF040_2005
  +--> ?PR?_STORESECINFO?LCD

?PR?_CHECKPSK?UART                               -----    -----      0248H    0008H

?PR?WREN?SST25VF040_2005                         -----    -----      -----    -----
  +--> ?PR?CE_LOW?SST25VF040_2005
  +--> ?PR?_SEND_BYTE?SST25VF040_2005
  +--> ?PR?CE_HIGH?SST25VF040_2005
  +--> ?PR?WAIT_BUSY?SST25VF040_2005

?PR?WAIT_BUSY?SST25VF040_2005                    -----    -----      0250H    0002H
  +--> ?PR?READ_STATUS_REGISTER?SST25VF040_2005
  +--> ?PR?_DELAY_NUS?SST25VF040_2005

?PR?_BLOCK_ERASE_32K?SST25VF040_2005             -----    -----      0248H    0004H
  +--> ?PR?CE_LOW?SST25VF040_2005
  +--> ?PR?_SEND_BYTE?SST25VF040_2005
  +--> ?PR?CE_HIGH?SST25VF040_2005

?PR?_AAI_WRITE?SST25VF040_2005                   -----    -----      0248H    0008H
  +--> ?PR?WREN?SST25VF040_2005
  +--> ?PR?_SECTOR_ERASE?SST25VF040_2005
  +--> ?PR?WAIT_BUSY?SST25VF040_2005
  +--> ?PR?_BYTE_PROGRAM?SST25VF040_2005

?PR?_SECTOR_ERASE?SST25VF040_2005                -----    -----      0250H    0004H
  +--> ?PR?CE_LOW?SST25VF040_2005
  +--> ?PR?_SEND_BYTE?SST25VF040_2005
  +--> ?PR?CE_HIGH?SST25VF040_2005

?PR?_BYTE_PROGRAM?SST25VF040_2005                -----    -----      0250H    0005H
  +--> ?PR?CE_LOW?SST25VF040_2005
  +--> ?PR?_SEND_BYTE?SST25VF040_2005
  +--> ?PR?CE_HIGH?SST25VF040_2005

?PR?_AAI_WRITE1?SST25VF040_2005                  -----    -----      0248H    0008H
  +--> ?PR?WREN?SST25VF040_2005
  +--> ?PR?_BYTE_PROGRAM?SST25VF040_2005
  +--> ?PR?WAIT_BUSY?SST25VF040_2005
BL51 BANKED LINKER/LOCATER V6.22                                                      03/06/2019  08:21:13  PAGE 13



?PR?_STORESECINFO?LCD                            -----    -----      0248H    0005H
  +--> ?PR?_DISPLAYBLOCK?LCD
  +--> ?PR?_DISPLAYDIGITSTRING?LCD
  +--> ?PR?_SET_VISUALPAGE?LCD

?PR?BUS0RECDEAL?SINGLEBUS                        -----    -----      0243H    0005H
  +--> ?PR?_SEND_DATA?MAIN
  +--> ?PR?_MAKECH0TIMEROUT?SINGLEBUS
  +--> ?PR?_DIRADDRCOMPARE?SINGLEBUS
  +--> ?PR?_DISPLAYDIGIT?LCD
  +--> ?PR?_SHOWTALKFACE?LCD
  +--> ?PR?_SHOWBROADFACE?LCD
  +--> ?PR?_ADDCALLNOD?SINGLEBUS
  +--> ?PR?_SHOWCALLFACE1?LCD
  +--> ?PR?_SHOWCALLFACE0?LCD
  +--> ?PR?_DISPLAYBLOCK?LCD
  +--> ?PR?_REMOVECALLNOD?SINGLEBUS
  +--> ?PR?_SHOWCALLFACE2?LCD
  +--> ?PR?_ADDRCOMPARE?SINGLEBUS
  +--> ?PR?_LCD_CLEAR?LCD
  +--> ?PR?_SET_VISUALPAGE?LCD
  +--> ?PR?_SHOWTIMESET?LCD
  +--> ?PR?_SHOWNUMBERPWINPUTFACE?LCD
  +--> ?PR?_SHOWSECINFOSET?LCD
  +--> ?PR?_SHOWCALCULATEFACE?LCD
  +--> ?PR?_SHOWMAXVOLSETFACE?LCD
  +--> ?PR?_BUS0OUTPUTDATA?SINGLEBUS
  +--> ?CO?SINGLEBUS
  +--> ?PR?_SHOWMAINMENUFACE?LCD
  +--> ?PR?_SHOWSELFNUMBERSET?LCD
  +--> ?PR?_SHOWWCDOORFJNUMBERSET?LCD
  +--> ?PR?_SHOWMOVEFJNUMBERSET?LCD
  +--> ?PR?_SHOWADDFJNUMBERSET?LCD
  +--> ?PR?_SHOWBEDFJNUMBERSET?LCD
  +--> ?PR?_DISPLAYDIGITSTRING?LCD
  +--> ?PR?_DISPLAYSTRING?LCD
  +--> ?PR?_AAI_WRITE?SST25VF040_2005
  +--> ?PR?_STORESECINFO?LCD
  +--> ?PR?_DELAYMS?MAIN
  +--> ?PR?_SAVEPARAMETER?SINGLEBUS
  +--> ?PR?_SHOWNUMBERSETFACE?LCD
  +--> ?PR?_DISPLAYASCII?LCD
  +--> ?PR?_DISPLAYCHINESESTRING?LCD
  +--> ?PR?_DISPLAYASCIISTRING?LCD
  +--> ?PR?_SHOWSTARTNUMSET?LCD
  +--> ?PR?_SHOWNUMSETOK?LCD
  +--> ?PR?_READ?SST25VF040_2005
  +--> ?PR?_SHOWVOICETIMERSET?LCD
  +--> ?PR?_SHOWBACKLIGHTTIMERSET?LCD
  +--> ?PR?USARTINIT?UART

?PR?_SHOWTALKFACE?LCD                            -----    -----      0248H    0007H
  +--> ?PR?_LCD_CLEAR?LCD
  +--> ?CO?LCD
  +--> ?PR?_DISPLAYCHINESESTRING?LCD
  +--> ?PR?_DISPLAYDIGITSTRING?LCD
BL51 BANKED LINKER/LOCATER V6.22                                                      03/06/2019  08:21:13  PAGE 14


  +--> ?PR?_SET_VISUALPAGE?LCD

?PR?_SHOWBROADFACE?LCD                           0027H.4  0000H.1    0248H    0007H
  +--> ?PR?_LCD_CLEAR?LCD
  +--> ?CO?LCD
  +--> ?PR?_DISPLAYDIGITSTRING?LCD
  +--> ?PR?_DISPLAYCHINESESTRING?LCD
  +--> ?PR?_SET_VISUALPAGE?LCD

?PR?_ADDCALLNOD?SINGLEBUS                        -----    -----      0248H    0003H

?PR?_SHOWCALLFACE1?LCD                           -----    -----      0248H    0006H
  +--> ?PR?_LCD_CLEAR?LCD
  +--> ?PR?_DISPLAYBLOCK?LCD
  +--> ?CO?LCD
  +--> ?PR?_DISPLAYDIGITSTRING?LCD
  +--> ?PR?_DISPLAYCHINESESTRING?LCD
  +--> ?PR?_SET_VISUALPAGE?LCD

?PR?_SHOWCALLFACE0?LCD                           -----    -----      0248H    0006H
  +--> ?PR?_LCD_CLEAR?LCD
  +--> ?CO?LCD
  +--> ?PR?_DISPLAYDIGITSTRING?LCD
  +--> ?PR?_DISPLAYCHINESESTRING?LCD
  +--> ?PR?_SET_VISUALPAGE?LCD

?PR?_REMOVECALLNOD?SINGLEBUS                     -----    -----      0248H    0001H

?PR?_SHOWCALLFACE2?LCD                           -----    -----      0248H    0006H
  +--> ?PR?_DISPLAYBLOCK?LCD
  +--> ?CO?LCD
  +--> ?PR?_DISPLAYDIGITSTRING?LCD
  +--> ?PR?_DISPLAYCHINESESTRING?LCD
  +--> ?PR?_SET_VISUALPAGE?LCD

?PR?_SHOWTIMESET?LCD                             -----    -----      0248H    0005H
  +--> ?PR?_LCD_CLEAR?LCD
  +--> ?CO?LCD
  +--> ?PR?_DISPLAYSTRING?LCD
  +--> ?PR?_DISPLAYBLOCK?LCD
  +--> ?PR?_DISPLAYDIGITSTRING?LCD
  +--> ?PR?_SET_VISUALPAGE?LCD

?PR?_DISPLAYSTRING?LCD                           -----    -----      024DH    0014H
  +--> ?CO?LCD
  +--> ?PR?_GET_GT23_DATA1?GT23
  +--> ?PR?_DISPLAY_CHINESE?LCD
  +--> ?PR?_CHINESEXDIRECTIONINCREASE?LCD
  +--> ?PR?_GET_GT23_DATA?GT23
  +--> ?PR?_DISPLAY_ASCII?LCD
  +--> ?PR?_ASCIIXDIRECTIONINCREASE?LCD

?PR?_SHOWNUMBERPWINPUTFACE?LCD                   -----    -----      0248H    0005H
  +--> ?PR?_LCD_CLEAR?LCD
  +--> ?CO?LCD
  +--> ?PR?_DISPLAYSTRING?LCD
  +--> ?PR?_SET_VISUALPAGE?LCD
BL51 BANKED LINKER/LOCATER V6.22                                                      03/06/2019  08:21:13  PAGE 15



?PR?_SHOWSECINFOSET?LCD                          -----    -----      0248H    0005H
  +--> ?PR?_LCD_CLEAR?LCD
  +--> ?PR?_READ_CONT?SST25VF040_2005
  +--> ?CO?LCD
  +--> ?PR?_DISPLAYCHINESESTRING?LCD
  +--> ?PR?_DISPLAYBLOCK?LCD
  +--> ?PR?_DISPLAYDIGITSTRING?LCD
  +--> ?PR?_DISPLAYSTRING?LCD
  +--> ?PR?_SET_VISUALPAGE?LCD

?PR?_SHOWCALCULATEFACE?LCD                       -----    -----      0248H    0005H
  +--> ?PR?_LCD_CLEAR?LCD
  +--> ?CO?LCD
  +--> ?PR?_DISPLAYCHINESESTRING?LCD
  +--> ?PR?_DISPLAYBLOCK?LCD
  +--> ?PR?_SET_VISUALPAGE?LCD

?PR?_SHOWMAXVOLSETFACE?LCD                       -----    -----      0248H    0005H
  +--> ?PR?_LCD_CLEAR?LCD
  +--> ?CO?LCD
  +--> ?PR?_DISPLAYSTRING?LCD
  +--> ?PR?_DISPLAYDIGITSTRING?LCD
  +--> ?PR?_SET_VISUALPAGE?LCD

?PR?_SHOWMAINMENUFACE?LCD                        -----    -----      0248H    0005H
  +--> ?PR?_LCD_CLEAR?LCD
  +--> ?PR?_DISPLAYBLOCK?LCD
  +--> ?CO?LCD
  +--> ?PR?_DISPLAYSTRING?LCD
  +--> ?PR?_SET_VISUALPAGE?LCD

?PR?_SHOWSELFNUMBERSET?LCD                       -----    -----      0248H    0005H
  +--> ?PR?_LCD_CLEAR?LCD
  +--> ?CO?LCD
  +--> ?PR?_DISPLAYSTRING?LCD
  +--> ?PR?_DISPLAYDIGITSTRING?LCD
  +--> ?PR?_SET_VISUALPAGE?LCD

?PR?_SHOWWCDOORFJNUMBERSET?LCD                   -----    -----      0248H    0005H
  +--> ?PR?_LCD_CLEAR?LCD
  +--> ?CO?LCD
  +--> ?PR?_DISPLAYSTRING?LCD
  +--> ?PR?_DISPLAYDIGITSTRING?LCD
  +--> ?PR?_SET_VISUALPAGE?LCD

?PR?_SHOWMOVEFJNUMBERSET?LCD                     -----    -----      0248H    0005H
  +--> ?PR?_LCD_CLEAR?LCD
  +--> ?CO?LCD
  +--> ?PR?_DISPLAYSTRING?LCD
  +--> ?PR?_DISPLAYDIGITSTRING?LCD
  +--> ?PR?_SET_VISUALPAGE?LCD

?PR?_SHOWADDFJNUMBERSET?LCD                      -----    -----      0248H    0005H
  +--> ?PR?_LCD_CLEAR?LCD
  +--> ?CO?LCD
  +--> ?PR?_DISPLAYSTRING?LCD
BL51 BANKED LINKER/LOCATER V6.22                                                      03/06/2019  08:21:13  PAGE 16


  +--> ?PR?_DISPLAYDIGITSTRING?LCD
  +--> ?PR?_SET_VISUALPAGE?LCD

?PR?_SHOWBEDFJNUMBERSET?LCD                      -----    -----      0248H    0005H
  +--> ?PR?_LCD_CLEAR?LCD
  +--> ?CO?LCD
  +--> ?PR?_DISPLAYSTRING?LCD
  +--> ?PR?_DISPLAYDIGITSTRING?LCD
  +--> ?PR?_SET_VISUALPAGE?LCD

?PR?_SHOWNUMBERSETFACE?LCD                       -----    -----      0248H    0005H
  +--> ?PR?_LCD_CLEAR?LCD
  +--> ?PR?_DISPLAYBLOCK?LCD
  +--> ?CO?LCD
  +--> ?PR?_DISPLAYSTRING?LCD
  +--> ?PR?_SET_VISUALPAGE?LCD

?PR?_SHOWSTARTNUMSET?LCD                         -----    -----      0248H    0005H
  +--> ?PR?_LCD_CLEAR?LCD
  +--> ?PR?_DISPLAYDIGITSTRING?LCD
  +--> ?CO?LCD
  +--> ?PR?_DISPLAYCHINESESTRING?LCD
  +--> ?PR?_SET_VISUALPAGE?LCD

?PR?_SHOWNUMSETOK?LCD                            -----    -----      0248H    0005H
  +--> ?PR?_LCD_CLEAR?LCD
  +--> ?CO?LCD
  +--> ?PR?_DISPLAYCHINESESTRING?LCD
  +--> ?PR?_SET_VISUALPAGE?LCD

?PR?_READ?SST25VF040_2005                        -----    -----      0248H    0004H
  +--> ?PR?CE_LOW?SST25VF040_2005
  +--> ?PR?_SEND_BYTE?SST25VF040_2005
  +--> ?PR?GET_BYTE?SST25VF040_2005
  +--> ?PR?CE_HIGH?SST25VF040_2005

?PR?_SHOWVOICETIMERSET?LCD                       -----    -----      0248H    0005H
  +--> ?PR?_LCD_CLEAR?LCD
  +--> ?CO?LCD
  +--> ?PR?_DISPLAYCHINESESTRING?LCD
  +--> ?PR?_DISPLAYSTRING?LCD
  +--> ?PR?_DISPLAYDIGITSTRING?LCD
  +--> ?PR?_SET_VISUALPAGE?LCD

?PR?_SHOWBACKLIGHTTIMERSET?LCD                   -----    -----      0248H    0005H
  +--> ?PR?_LCD_CLEAR?LCD
  +--> ?CO?LCD
  +--> ?PR?_DISPLAYCHINESESTRING?LCD
  +--> ?PR?_DISPLAYSTRING?LCD
  +--> ?PR?_DISPLAYDIGITSTRING?LCD
  +--> ?PR?_SET_VISUALPAGE?LCD



SYMBOL TABLE OF MODULE:  YHFJ-DISP-V21 (GT23)

  VALUE           TYPE          NAME
BL51 BANKED LINKER/LOCATER V6.22                                                      03/06/2019  08:21:13  PAGE 17


  ----------------------------------

  -------         MODULE        GT23
  C:0000H         SYMBOL        _ICE_DUMMY_
  D:0080H         PUBLIC        P0
  D:0090H         PUBLIC        P1
  D:00A0H         PUBLIC        P2
  D:00B0H         PUBLIC        P3
  D:00C0H         PUBLIC        P4
  D:00C8H         PUBLIC        P5
  D:00A8H         PUBLIC        IE
  C:6F7EH         PUBLIC        _Get_GT23_Data1
  X:0130H         PUBLIC        GT23_32Address
  D:00B8H         PUBLIC        IP
  D:00D8H         PUBLIC        CCON
  D:0098H         PUBLIC        SCON
  D:0088H         PUBLIC        TCON
  X:0134H         PUBLIC        GT23_Rec_Length
  B:00C0H.5       PUBLIC        GT23L_CS
  D:00E0H         PUBLIC        ACC
  D:00C1H         PUBLIC        WDT_CONTR
  C:EEACH         PUBLIC        Rec_GT23_Data
  X:0135H         PUBLIC        GT23_Rec_Data
  X:01B5H         PUBLIC        GT23_16HAddress
  C:74AAH         PUBLIC        _Get_GT23_Data
  X:01B7H         PUBLIC        GT23_16LAddress
  D:00D0H         PUBLIC        PSW
  D:00CFH         PUBLIC        SPDAT
  -------         PROC          REC_GT23_DATA
  C:EEACH         LINE#         41
  C:EEACH         LINE#         42
  C:EEACH         LINE#         43
  C:EEB1H         LINE#         44
  C:EEB3H         LINE#         45
  -------         ENDPROC       REC_GT23_DATA
  -------         PROC          _GET_GT23_DATA
  X:0263H         SYMBOL        highbyte
  X:0264H         SYMBOL        lowbyte
  X:0265H         SYMBOL        word_size
  -------         DO            
  X:0266H         SYMBOL        address1
  X:026AH         SYMBOL        address2
  X:026EH         SYMBOL        address3
  X:0272H         SYMBOL        address4
  -------         ENDDO         
  C:74AAH         LINE#         78
  C:74B7H         LINE#         79
  C:74B7H         LINE#         81
  C:74B9H         LINE#         83
  C:74BCH         LINE#         84
  C:74DAH         LINE#         85
  C:74DAH         LINE#         86
  C:74E0H         LINE#         87
  C:74E0H         LINE#         88
  C:74F5H         LINE#         89
  C:74FCH         LINE#         90
  C:74FCH         LINE#         91
BL51 BANKED LINKER/LOCATER V6.22                                                      03/06/2019  08:21:13  PAGE 18


  C:74FCH         LINE#         92
  C:74FFH         LINE#         93
  C:7507H         LINE#         94
  C:7507H         LINE#         95
  C:7521H         LINE#         96
  C:752BH         LINE#         97
  C:752BH         LINE#         98
  C:752BH         LINE#         99
  C:752EH         LINE#         100
  C:7539H         LINE#         101
  C:7539H         LINE#         102
  C:7553H         LINE#         103
  C:755DH         LINE#         104
  C:755DH         LINE#         105
  C:755DH         LINE#         106
  C:755DH         LINE#         107
  C:7560H         LINE#         110
  C:7581H         LINE#         111
  C:7581H         LINE#         112
  C:7587H         LINE#         113
  C:7587H         LINE#         114
  C:75A1H         LINE#         115
  C:75C8H         LINE#         116
  C:75E5H         LINE#         117
  C:75FCH         LINE#         118
  C:75FFH         LINE#         119
  C:7607H         LINE#         120
  C:7607H         LINE#         121
  C:7621H         LINE#         122
  C:764BH         LINE#         123
  C:7668H         LINE#         124
  C:767FH         LINE#         125
  C:7682H         LINE#         126
  C:768DH         LINE#         127
  C:768DH         LINE#         128
  C:76A7H         LINE#         129
  C:76D1H         LINE#         130
  C:76EEH         LINE#         131
  C:770AH         LINE#         132
  C:770AH         LINE#         133
  C:770DH         LINE#         135
  C:772AH         LINE#         136
  C:772AH         LINE#         137
  C:7730H         LINE#         138
  C:7730H         LINE#         139
  C:7752H         LINE#         140
  C:7770H         LINE#         141
  C:7773H         LINE#         142
  C:7777H         LINE#         143
  C:7777H         LINE#         144
  C:7791H         LINE#         145
  C:77AFH         LINE#         146
  C:77B1H         LINE#         147
  C:77B8H         LINE#         148
  C:77B8H         LINE#         149
  C:77D7H         LINE#         150
  C:77F8H         LINE#         152
BL51 BANKED LINKER/LOCATER V6.22                                                      03/06/2019  08:21:13  PAGE 19


  C:77F8H         LINE#         153
  C:77F8H         LINE#         155
  C:780CH         LINE#         156
  C:782BH         LINE#         157
  C:7841H         LINE#         158
  C:7843H         LINE#         159
  C:7848H         LINE#         160
  C:7850H         LINE#         161
  C:7858H         LINE#         162
  C:7860H         LINE#         164
  C:7880H         LINE#         165
  C:7880H         LINE#         166
  C:7885H         LINE#         167
  C:7885H         LINE#         168
  C:788AH         LINE#         169
  C:78A8H         LINE#         170
  C:78A8H         LINE#         171
  C:78AFH         LINE#         172
  C:78AFH         LINE#         173
  C:78B4H         LINE#         174
  C:78D5H         LINE#         175
  C:78D5H         LINE#         176
  C:78E0H         LINE#         177
  C:78E0H         LINE#         178
  C:78E4H         LINE#         179
  C:7905H         LINE#         180
  C:7905H         LINE#         181
  C:7905H         LINE#         182
  C:7922H         LINE#         183
  C:7922H         LINE#         184
  C:7927H         LINE#         185
  C:7927H         LINE#         186
  C:792CH         LINE#         187
  C:794CH         LINE#         188
  C:794CH         LINE#         189
  C:7953H         LINE#         190
  C:7953H         LINE#         191
  C:7958H         LINE#         192
  C:7978H         LINE#         193
  C:7978H         LINE#         194
  C:797FH         LINE#         195
  C:797FH         LINE#         196
  C:7984H         LINE#         197
  C:79A2H         LINE#         198
  C:79A2H         LINE#         199
  C:79A2H         LINE#         200
  C:79A4H         LINE#         201
  -------         ENDPROC       _GET_GT23_DATA
  -------         PROC          _GET_GT23_DATA1
  D:0001H         SYMBOL        word
  X:0263H         SYMBOL        word_size
  -------         DO            
  X:0264H         SYMBOL        address1
  X:0268H         SYMBOL        address2
  X:026CH         SYMBOL        address3
  X:0270H         SYMBOL        address4
  X:0274H         SYMBOL        highbyte
BL51 BANKED LINKER/LOCATER V6.22                                                      03/06/2019  08:21:13  PAGE 20


  X:0275H         SYMBOL        lowbyte
  -------         ENDDO         
  C:6F7EH         LINE#         215
  C:6F83H         LINE#         216
  C:6F83H         LINE#         219
  C:6F85H         LINE#         221
  C:6F8DH         LINE#         222
  C:6F94H         LINE#         223
  C:6F9BH         LINE#         225
  C:6F9EH         LINE#         227
  C:6FA4H         LINE#         228
  C:6FA4H         LINE#         229
  C:6FAAH         LINE#         230
  C:6FAFH         LINE#         231
  C:6FAFH         LINE#         233
  C:6FD0H         LINE#         234
  C:6FD0H         LINE#         235
  C:6FD8H         LINE#         236
  C:6FD8H         LINE#         237
  C:6FF2H         LINE#         238
  C:6FF9H         LINE#         239
  C:6FF9H         LINE#         240
  C:6FF9H         LINE#         241
  C:6FFCH         LINE#         242
  C:7004H         LINE#         243
  C:7004H         LINE#         244
  C:701EH         LINE#         245
  C:7028H         LINE#         246
  C:7028H         LINE#         247
  C:7028H         LINE#         248
  C:702BH         LINE#         249
  C:7036H         LINE#         250
  C:7036H         LINE#         251
  C:7050H         LINE#         252
  C:705AH         LINE#         253
  C:705AH         LINE#         254
  C:705AH         LINE#         255
  C:705AH         LINE#         257
  C:705DH         LINE#         260
  C:707EH         LINE#         261
  C:707EH         LINE#         262
  C:7086H         LINE#         263
  C:7086H         LINE#         264
  C:70A0H         LINE#         265
  C:70C7H         LINE#         266
  C:70E4H         LINE#         267
  C:70FBH         LINE#         268
  C:70FEH         LINE#         269
  C:7106H         LINE#         270
  C:7106H         LINE#         271
  C:7120H         LINE#         272
  C:714AH         LINE#         273
  C:7167H         LINE#         274
  C:717EH         LINE#         275
  C:7181H         LINE#         276
  C:718CH         LINE#         277
  C:718CH         LINE#         278
BL51 BANKED LINKER/LOCATER V6.22                                                      03/06/2019  08:21:13  PAGE 21


  C:71A6H         LINE#         279
  C:71D0H         LINE#         280
  C:71EDH         LINE#         281
  C:7209H         LINE#         282
  C:7209H         LINE#         283
  C:720CH         LINE#         285
  C:7229H         LINE#         286
  C:7229H         LINE#         287
  C:7231H         LINE#         288
  C:7231H         LINE#         289
  C:7253H         LINE#         290
  C:7271H         LINE#         291
  C:7274H         LINE#         292
  C:7278H         LINE#         293
  C:7278H         LINE#         294
  C:7292H         LINE#         295
  C:72B0H         LINE#         296
  C:72B2H         LINE#         297
  C:72B9H         LINE#         298
  C:72B9H         LINE#         299
  C:72D8H         LINE#         300
  C:72F9H         LINE#         302
  C:72F9H         LINE#         303
  C:72F9H         LINE#         305
  C:730DH         LINE#         306
  C:732CH         LINE#         307
  C:7342H         LINE#         308
  C:7344H         LINE#         309
  C:7349H         LINE#         310
  C:7351H         LINE#         311
  C:7359H         LINE#         312
  C:7361H         LINE#         314
  C:7381H         LINE#         315
  C:7381H         LINE#         316
  C:7388H         LINE#         317
  C:7388H         LINE#         318
  C:738DH         LINE#         319
  C:73ABH         LINE#         320
  C:73ABH         LINE#         321
  C:73B2H         LINE#         322
  C:73B2H         LINE#         323
  C:73B7H         LINE#         324
  C:73D8H         LINE#         325
  C:73D8H         LINE#         326
  C:73E3H         LINE#         327
  C:73E3H         LINE#         328
  C:73E7H         LINE#         329
  C:7408H         LINE#         330
  C:7408H         LINE#         331
  C:7408H         LINE#         332
  C:7425H         LINE#         333
  C:7425H         LINE#         334
  C:742CH         LINE#         335
  C:742CH         LINE#         336
  C:7431H         LINE#         337
  C:7451H         LINE#         338
  C:7451H         LINE#         339
BL51 BANKED LINKER/LOCATER V6.22                                                      03/06/2019  08:21:13  PAGE 22


  C:7458H         LINE#         340
  C:7458H         LINE#         341
  C:745DH         LINE#         342
  C:747DH         LINE#         343
  C:747DH         LINE#         344
  C:7484H         LINE#         345
  C:7484H         LINE#         346
  C:7489H         LINE#         347
  C:74A7H         LINE#         348
  C:74A7H         LINE#         349
  C:74A7H         LINE#         351
  C:74A9H         LINE#         352
  -------         ENDPROC       _GET_GT23_DATA1
  -------         ENDMOD        GT23

  -------         MODULE        IAP
  C:0000H         SYMBOL        _ICE_DUMMY_
  D:0080H         PUBLIC        P0
  D:0090H         PUBLIC        P1
  D:00A0H         PUBLIC        P2
  D:00B0H         PUBLIC        P3
  D:00C0H         PUBLIC        P4
  D:00C8H         PUBLIC        P5
  D:00A8H         PUBLIC        IE
  C:ED9DH         PUBLIC        _IapErase
  D:00C5H         PUBLIC        IAP_CMD
  C:EEB4H         PUBLIC        DisableIAP
  D:00B8H         PUBLIC        IP
  D:00C3H         PUBLIC        IAP_ADDRH
  D:00D8H         PUBLIC        CCON
  D:00C4H         PUBLIC        IAP_ADDRL
  C:EECBH         PUBLIC        _EnableIAP
  C:ED29H         PUBLIC        _IapReadByte
  D:0098H         PUBLIC        SCON
  D:0088H         PUBLIC        TCON
  C:ECFDH         PUBLIC        _IapWriteByte
  D:00C7H         PUBLIC        IAP_CONTR
  D:00E0H         PUBLIC        ACC
  D:00C2H         PUBLIC        IAP_DATA
  D:00C6H         PUBLIC        IAP_TRIG
  D:00D0H         PUBLIC        PSW
  -------         PROC          _ENABLEIAP
  D:0007H         SYMBOL        byCmd
  C:EECBH         LINE#         42
  C:EECBH         LINE#         43
  C:EECBH         LINE#         44
  C:EECEH         LINE#         45
  C:EED0H         LINE#         46
  -------         ENDPROC       _ENABLEIAP
  -------         PROC          DISABLEIAP
  C:EEB4H         LINE#         62
  C:EEB4H         LINE#         63
  C:EEB4H         LINE#         64
  C:EEB7H         LINE#         65
  C:EEB9H         LINE#         66
  C:EEBBH         LINE#         67
  -------         ENDPROC       DISABLEIAP
BL51 BANKED LINKER/LOCATER V6.22                                                      03/06/2019  08:21:13  PAGE 23


  -------         PROC          _IAPWRITEBYTE
  D:0002H         SYMBOL        uiAddr
  D:0005H         SYMBOL        byData
  C:ECFDH         LINE#         83
  C:ED01H         LINE#         84
  C:ED01H         LINE#         85
  C:ED05H         LINE#         86
  C:ED08H         LINE#         87
  C:ED0CH         LINE#         88
  C:ED0FH         LINE#         89
  C:ED12H         LINE#         90
  -------         ENDPROC       _IAPWRITEBYTE
  -------         PROC          _IAPREADBYTE
  D:0004H         SYMBOL        uiAddr
  C:ED29H         LINE#         106
  C:ED2DH         LINE#         107
  C:ED2DH         LINE#         108
  C:ED30H         LINE#         109
  C:ED34H         LINE#         110
  C:ED37H         LINE#         111
  C:ED3AH         LINE#         112
  C:ED3CH         LINE#         113
  -------         ENDPROC       _IAPREADBYTE
  -------         PROC          _IAPERASE
  D:0004H         SYMBOL        uiAddr
  C:ED9DH         LINE#         130
  C:EDA1H         LINE#         131
  C:EDA1H         LINE#         132
  C:EDA4H         LINE#         133
  C:EDA8H         LINE#         134
  C:EDABH         LINE#         135
  C:EDAEH         LINE#         136
  -------         ENDPROC       _IAPERASE
  -------         ENDMOD        IAP

  -------         MODULE        LCD
  C:0000H         SYMBOL        _ICE_DUMMY_
  C:C368H         PUBLIC        _Display_Chinese
  D:0080H         PUBLIC        P0
  C:9F51H         PUBLIC        _ShowBroadFace
  D:00B2H         PUBLIC        P3M0
  D:0090H         PUBLIC        P1
  D:00B1H         PUBLIC        P3M1
  D:00A0H         PUBLIC        P2
  D:00B0H         PUBLIC        P3
  C:EE20H         PUBLIC        _SSD1963Data_16
  D:00C0H         PUBLIC        P4
  D:00C8H         PUBLIC        P5
  C:EE49H         PUBLIC        _Set_VisualPage
  C:A568H         PUBLIC        _ShowMoveFjNumberSet
  C:DB1DH         PUBLIC        _Display_HLine
  D:00A8H         PUBLIC        IE
  C:EDF3H         PUBLIC        _Send_Ssd1963_Command
  X:027EH         PUBLIC        WardDataBuff
  C:A282H         PUBLIC        _ShowStartNumSet
  B:00B0H.5       PUBLIC        BL_SW
  D:00B8H         PUBLIC        IP
BL51 BANKED LINKER/LOCATER V6.22                                                      03/06/2019  08:21:13  PAGE 24


  C:E238H         PUBLIC        _ShowTouchAdjust
  B:0090H.1       PUBLIC        SSD1963_RST
  C:C97CH         PUBLIC        _DisplayChineseString
  C:CB90H         PUBLIC        _ASCIIXDirectionIncrease
  C:D4DCH         PUBLIC        _Display_VLine
  C:E98FH         PUBLIC        _SetScrollArea
  C:D14EH         PUBLIC        _ShowMaxVolSetFace
  C:E331H         PUBLIC        _GetColor
  C:87A4H         PUBLIC        _ShowTalkFace
  D:00D8H         PUBLIC        CCON
  C:C4BBH         PUBLIC        _Display_ASCII
  B:00C8H.3       PUBLIC        SSD1963_CD
  X:028FH         PUBLIC        fontbuf1
  C:D744H         PUBLIC        _ShowCalculateFace
  X:0290H         PUBLIC        fontbuf2
  X:0291H         PUBLIC        fontbuf3
  C:AA8FH         PUBLIC        _ShowNumberSetFace
  C:ED64H         PUBLIC        _SetScrollStart
  D:0098H         PUBLIC        SCON
  C:64C0H         PUBLIC        _ShowMainMenuFace
  D:0088H         PUBLIC        TCON
  B:00B0H.7       PUBLIC        SSD1963_RD
  B:0090H.0       PUBLIC        SSD1963_CS
  B:00C0H.2       PUBLIC        SSD1963_TE
  C:5C2BH         PUBLIC        _StoreSecInfo
  C:D615H         PUBLIC        _ShowNumberPWInputFace
  C:DF9AH         PUBLIC        _ShowNumSetOk
  C:D579H         PUBLIC        _ShowKeyFace
  C:C85EH         PUBLIC        _DisplayASCIIString
  C:9F11H         PUBLIC        ColonCode16x32
  C:C09CH         PUBLIC        _ShowWcDoorFjNumberSet
  C:BF2BH         PUBLIC        _lcd_fangda_dis_text
  C:B159H         PUBLIC        _ShowCallFace0
  C:DD9DH         PUBLIC        _Set_Display_Area
  C:8C21H         PUBLIC        _ShowCallFace1
  C:8311H         PUBLIC        _ShowCallFace2
  C:9058H         PUBLIC        _ShowBackLightTimerSet
  C:DE6AH         PUBLIC        _DisplayASCII
  D:00E0H         PUBLIC        ACC
  C:CA74H         PUBLIC        _DisplayFrame
  C:CEC8H         PUBLIC        _DisplayBlock
  C:ED59H         PUBLIC        _Send_Ssd1963_Data
  B:00B0H.6       PUBLIC        SSD1963_WR
  C:BC9DH         PUBLIC        _DisplayDigitString
  C:AF23H         PUBLIC        _ShowSelfNumberSet
  C:DC9EH         PUBLIC        _DisplayDigit
  C:7E65H         PUBLIC        _ShowVoiceTimerSet
  C:E8E6H         PUBLIC        DispManager
  C:94A8H         PUBLIC        _DisplayString
  C:41F9H         PUBLIC        _StorSecInfo
  C:C5E8H         PUBLIC        InitSSD1963
  D:00C1H         PUBLIC        WDT_CONTR
  C:DDFCH         PUBLIC        _Lcd_Clear
  C:6A3EH         PUBLIC        _ShowTimeSet
  C:E182H         PUBLIC        _Display_Dot
  C:A804H         PUBLIC        _ShowPowerUpFace
  C:DA96H         PUBLIC        _Display_Dot_Mul
BL51 BANKED LINKER/LOCATER V6.22                                                      03/06/2019  08:21:13  PAGE 25


  C:CC9FH         PUBLIC        _ChineseXDirectionIncrease
  X:0292H         PUBLIC        unOperData
  D:00D0H         PUBLIC        PSW
  C:C202H         PUBLIC        _ShowAddFjNumberSet
  C:B36AH         PUBLIC        _ShowBedFjNumberSet
  C:4FDCH         PUBLIC        _ShowSecInfoSet
  -------         PROC          _SEND_SSD1963_COMMAND
  D:0007H         SYMBOL        ssd1963_command
  C:EDF3H         LINE#         77
  C:EDF3H         LINE#         78
  C:EDF3H         LINE#         79
  C:EDF5H         LINE#         80
  C:EDF7H         LINE#         81
  C:EDF9H         LINE#         82
  C:EDFBH         LINE#         83
  C:EDFDH         LINE#         84
  C:EDFFH         LINE#         85
  C:EE01H         LINE#         87
  -------         ENDPROC       _SEND_SSD1963_COMMAND
  C:ED51H         SYMBOL        L?0595
  -------         PROC          L?0594
  -------         ENDPROC       L?0594
  C:ED51H         SYMBOL        L?0595
  -------         PROC          _SEND_SSD1963_DATA
  D:0007H         SYMBOL        ssd1963_data
  C:ED59H         LINE#         94
  C:ED59H         LINE#         95
  C:ED59H         LINE#         96
  C:ED5BH         LINE#         97
  C:ED5DH         LINE#         98
  C:ED5FH         LINE#         99
  C:ED61H         LINE#         100
  C:ED63H         LINE#         102
  -------         ENDPROC       _SEND_SSD1963_DATA
  -------         PROC          _SSD1963DATA_16
  D:0006H         SYMBOL        sdata
  C:EE20H         LINE#         105
  C:EE20H         LINE#         107
  C:EE20H         LINE#         108
  C:EE22H         LINE#         109
  C:EE24H         LINE#         110
  C:EE27H         LINE#         111
  C:EE29H         LINE#         112
  C:EE2BH         LINE#         113
  C:EE2DH         LINE#         114
  -------         ENDPROC       _SSD1963DATA_16
  -------         PROC          _SETSCROLLAREA
  X:0243H         SYMBOL        top
  D:0004H         SYMBOL        scroll
  D:0002H         SYMBOL        bottom
  C:E98FH         LINE#         117
  C:E997H         LINE#         118
  C:E997H         LINE#         120
  C:E99CH         LINE#         121
  C:E99FH         LINE#         122
  C:E9A2H         LINE#         123
  C:E9A7H         LINE#         124
BL51 BANKED LINKER/LOCATER V6.22                                                      03/06/2019  08:21:13  PAGE 26


  C:E9ACH         LINE#         125
  C:E9B1H         LINE#         126
  -------         ENDPROC       _SETSCROLLAREA
  -------         PROC          _SETSCROLLSTART
  D:0004H         SYMBOL        line
  C:ED64H         LINE#         129
  C:ED68H         LINE#         130
  C:ED68H         LINE#         131
  C:ED6DH         LINE#         132
  C:ED72H         LINE#         133
  -------         ENDPROC       _SETSCROLLSTART
  -------         PROC          _SET_VISUALPAGE
  D:0007H         SYMBOL        VisualPage
  C:EE49H         LINE#         136
  C:EE49H         LINE#         137
  C:EE49H         LINE#         138
  -------         ENDPROC       _SET_VISUALPAGE
  C:DD92H         SYMBOL        L?0592
  C:DD99H         SYMBOL        L?0593
  -------         PROC          L?0591
  -------         ENDPROC       L?0591
  C:DD92H         SYMBOL        L?0592
  C:DD99H         SYMBOL        L?0593
  -------         PROC          _SET_DISPLAY_AREA
  X:0272H         SYMBOL        start_x
  D:0004H         SYMBOL        end_x
  D:0002H         SYMBOL        start_y
  X:0278H         SYMBOL        end_y
  -------         DO            
  X:027AH         SYMBOL        shigh_x1
  X:027BH         SYMBOL        slow_x1
  X:027CH         SYMBOL        shigh_x2
  X:027DH         SYMBOL        slow_x2
  D:0001H         SYMBOL        shigh_y1
  D:0005H         SYMBOL        slow_y1
  D:0006H         SYMBOL        shigh_y2
  D:0004H         SYMBOL        slow_y2
  -------         ENDDO         
  C:DD9DH         LINE#         150
  C:DDA5H         LINE#         151
  C:DDA5H         LINE#         154
  C:DDADH         LINE#         155
  C:DDB5H         LINE#         156
  C:DDB8H         LINE#         157
  C:DDBBH         LINE#         158
  C:DDBDH         LINE#         159
  C:DDC1H         LINE#         160
  C:DDCBH         LINE#         161
  C:DDCFH         LINE#         162
  C:DDD4H         LINE#         163
  C:DDD5H         LINE#         164
  C:DDD8H         LINE#         165
  C:DDD9H         LINE#         166
  C:DDDCH         LINE#         167
  C:DDE1H         LINE#         168
  C:DDE6H         LINE#         169
  C:DDEBH         LINE#         170
BL51 BANKED LINKER/LOCATER V6.22                                                      03/06/2019  08:21:13  PAGE 27


  C:DDF0H         LINE#         171
  -------         ENDPROC       _SET_DISPLAY_AREA
  -------         PROC          _GETCOLOR
  D:0007H         SYMBOL        srgb
  C:E331H         LINE#         175
  C:E331H         LINE#         176
  C:E331H         LINE#         177
  C:E337H         LINE#         178
  C:E340H         LINE#         179
  C:E349H         LINE#         180
  C:E352H         LINE#         181
  C:E35BH         LINE#         182
  C:E364H         LINE#         183
  C:E36DH         LINE#         184
  C:E376H         LINE#         185
  C:E377H         LINE#         186
  C:E37BH         LINE#         187
  -------         ENDPROC       _GETCOLOR
  C:DDF5H         SYMBOL        L?0586
  C:DDF7H         SYMBOL        L?0587
  C:DDF8H         SYMBOL        L?0588
  -------         PROC          L?0585
  -------         ENDPROC       L?0585
  C:DDF5H         SYMBOL        L?0586
  C:DDF7H         SYMBOL        L?0587
  C:DDF8H         SYMBOL        L?0588
  -------         PROC          _LCD_CLEAR
  X:024FH         SYMBOL        color
  D:0001H         SYMBOL        page
  -------         DO            
  D:0004H         SYMBOL        k
  D:0002H         SYMBOL        j
  -------         ENDDO         
  C:DDFCH         LINE#         194
  C:DE06H         LINE#         195
  C:DE06H         LINE#         198
  C:DE2BH         LINE#         199
  C:DE30H         LINE#         201
  C:DE33H         LINE#         202
  C:DE35H         LINE#         203
  C:DE38H         LINE#         204
  C:DE38H         LINE#         205
  C:DE3BH         LINE#         206
  C:DE3BH         LINE#         207
  C:DE4BH         LINE#         208
  C:DE56H         LINE#         209
  C:DE61H         LINE#         210
  C:DE63H         LINE#         211
  -------         ENDPROC       _LCD_CLEAR
  -------         PROC          _DISPLAY_DOT
  X:02F9H         SYMBOL        x
  X:02FBH         SYMBOL        y
  X:02FDH         SYMBOL        color
  X:02FFH         SYMBOL        page
  C:E182H         LINE#         219
  C:E196H         LINE#         220
  C:E196H         LINE#         222
BL51 BANKED LINKER/LOCATER V6.22                                                      03/06/2019  08:21:13  PAGE 28


  C:E1C3H         LINE#         223
  C:E1C8H         LINE#         224
  C:E1CAH         LINE#         225
  C:E1DAH         LINE#         226
  C:E1DCH         LINE#         227
  -------         ENDPROC       _DISPLAY_DOT
  -------         PROC          _DISPLAY_DOT_MUL
  X:0300H         SYMBOL        x
  X:0302H         SYMBOL        y
  X:0304H         SYMBOL        color
  X:0306H         SYMBOL        page
  -------         DO            
  D:0005H         SYMBOL        i
  -------         ENDDO         
  C:DA96H         LINE#         245
  C:DAAAH         LINE#         246
  C:DAAAH         LINE#         248
  C:DAF9H         LINE#         249
  C:DAFEH         LINE#         250
  C:DB01H         LINE#         251
  C:DB03H         LINE#         252
  C:DB05H         LINE#         253
  C:DB1AH         LINE#         254
  C:DB1CH         LINE#         256
  -------         ENDPROC       _DISPLAY_DOT_MUL
  -------         PROC          _DISPLAY_HLINE
  X:02DFH         SYMBOL        x
  X:02E1H         SYMBOL        y
  X:02E3H         SYMBOL        width
  X:02E5H         SYMBOL        color
  X:02E7H         SYMBOL        page
  C:DB1DH         LINE#         264
  C:DB31H         LINE#         265
  C:DB31H         LINE#         267
  C:DB77H         LINE#         268
  C:DB7CH         LINE#         269
  C:DB7FH         LINE#         270
  C:DB81H         LINE#         271
  C:DB8FH         LINE#         272
  C:DB8FH         LINE#         273
  C:DB9FH         LINE#         274
  C:DBA1H         LINE#         275
  C:DBA3H         LINE#         276
  -------         ENDPROC       _DISPLAY_HLINE
  -------         PROC          _DISPLAY_VLINE
  X:02E8H         SYMBOL        x
  X:02EAH         SYMBOL        y
  X:02ECH         SYMBOL        height
  X:02EEH         SYMBOL        color
  X:02F0H         SYMBOL        page
  C:D4DCH         LINE#         285
  C:D4F0H         LINE#         286
  C:D4F0H         LINE#         288
  C:D54CH         LINE#         289
  C:D551H         LINE#         290
  C:D554H         LINE#         291
  C:D556H         LINE#         292
BL51 BANKED LINKER/LOCATER V6.22                                                      03/06/2019  08:21:13  PAGE 29


  C:D564H         LINE#         293
  C:D564H         LINE#         294
  C:D574H         LINE#         295
  C:D576H         LINE#         296
  C:D578H         LINE#         297
  -------         ENDPROC       _DISPLAY_VLINE
  -------         PROC          _DISPLAYFRAME
  X:02D4H         SYMBOL        start_x
  X:02D6H         SYMBOL        start_y
  X:02D8H         SYMBOL        end_x
  X:02DAH         SYMBOL        end_y
  X:02DCH         SYMBOL        color
  X:02DEH         SYMBOL        page
  C:CA74H         LINE#         304
  C:CA8AH         LINE#         305
  C:CA8AH         LINE#         306
  C:CAC7H         LINE#         307
  C:CB0AH         LINE#         309
  C:CB4DH         LINE#         310
  -------         ENDPROC       _DISPLAYFRAME
  C:CEB7H         SYMBOL        L?0581
  C:CEBEH         SYMBOL        L?0582
  C:CEC2H         SYMBOL        L?0583
  C:CEC4H         SYMBOL        L?0584
  -------         PROC          L?0580
  -------         ENDPROC       L?0580
  C:CEB7H         SYMBOL        L?0581
  C:CEBEH         SYMBOL        L?0582
  C:CEC2H         SYMBOL        L?0583
  C:CEC4H         SYMBOL        L?0584
  -------         PROC          _DISPLAYBLOCK
  X:024EH         SYMBOL        start_x
  X:0250H         SYMBOL        start_y
  X:0252H         SYMBOL        end_x
  X:0254H         SYMBOL        end_y
  X:0256H         SYMBOL        color
  X:0258H         SYMBOL        page
  -------         DO            
  X:0259H         SYMBOL        width
  X:025BH         SYMBOL        height
  D:0002H         SYMBOL        i
  D:0004H         SYMBOL        j
  -------         ENDDO         
  C:CEC8H         LINE#         319
  C:CEDCH         LINE#         320
  C:CEDCH         LINE#         324
  C:CF1BH         LINE#         325
  C:CF20H         LINE#         328
  C:CF41H         LINE#         330
  C:CF62H         LINE#         332
  C:CF65H         LINE#         334
  C:CF67H         LINE#         335
  C:CF77H         LINE#         336
  C:CF77H         LINE#         337
  C:CF87H         LINE#         338
  C:CF87H         LINE#         339
  C:CF97H         LINE#         340
BL51 BANKED LINKER/LOCATER V6.22                                                      03/06/2019  08:21:13  PAGE 30


  C:CF9EH         LINE#         341
  C:CFA5H         LINE#         342
  C:CFA7H         LINE#         343
  -------         ENDPROC       _DISPLAYBLOCK
  C:C4B6H         SYMBOL        L?0598
  -------         PROC          L?0597
  -------         ENDPROC       L?0597
  C:C4B6H         SYMBOL        L?0598
  -------         PROC          _DISPLAY_ASCII
  X:0263H         SYMBOL        x
  X:0265H         SYMBOL        y
  X:0267H         SYMBOL        p
  X:026AH         SYMBOL        fcolor
  X:026CH         SYMBOL        bcolor
  X:026EH         SYMBOL        size
  X:026FH         SYMBOL        page
  -------         DO            
  X:0270H         SYMBOL        i
  X:0271H         SYMBOL        j
  -------         ENDDO         
  C:C4BBH         LINE#         354
  C:C4D2H         LINE#         355
  C:C4D2H         LINE#         358
  C:C4E1H         LINE#         359
  C:C4E1H         LINE#         360
  C:C4E1H         LINE#         361
  C:C515H         LINE#         362
  C:C51BH         LINE#         363
  C:C51DH         LINE#         364
  C:C51DH         LINE#         368
  C:C51DH         LINE#         369
  C:C53DH         LINE#         370
  C:C543H         LINE#         371
  C:C545H         LINE#         372
  C:C545H         LINE#         373
  C:C565H         LINE#         374
  C:C56BH         LINE#         375
  C:C56BH         LINE#         376
  C:C56BH         LINE#         378
  C:C570H         LINE#         379
  C:C573H         LINE#         381
  C:C575H         LINE#         382
  C:C57EH         LINE#         383
  C:C57EH         LINE#         384
  C:C58BH         LINE#         385
  C:C58BH         LINE#         386
  C:C5B6H         LINE#         387
  C:C5B6H         LINE#         388
  C:C5B9H         LINE#         389
  C:C5BBH         LINE#         391
  C:C5BBH         LINE#         392
  C:C5CBH         LINE#         394
  C:C5CBH         LINE#         396
  C:C5D3H         LINE#         397
  C:C5DDH         LINE#         398
  C:C5E5H         LINE#         399
  C:C5E7H         LINE#         400
BL51 BANKED LINKER/LOCATER V6.22                                                      03/06/2019  08:21:13  PAGE 31


  -------         ENDPROC       _DISPLAY_ASCII
  -------         PROC          _DISPLAY_CHINESE
  X:0263H         SYMBOL        x
  X:0265H         SYMBOL        y
  X:0267H         SYMBOL        p
  X:026AH         SYMBOL        fcolor
  X:026CH         SYMBOL        bcolor
  X:026EH         SYMBOL        size
  X:026FH         SYMBOL        page
  -------         DO            
  X:0270H         SYMBOL        i
  X:0271H         SYMBOL        j
  -------         ENDDO         
  C:C368H         LINE#         409
  C:C37FH         LINE#         410
  C:C37FH         LINE#         412
  C:C38EH         LINE#         413
  C:C38EH         LINE#         414
  C:C38EH         LINE#         415
  C:C3BBH         LINE#         416
  C:C3C1H         LINE#         417
  C:C3C3H         LINE#         418
  C:C3C3H         LINE#         422
  C:C3C3H         LINE#         423
  C:C3F7H         LINE#         424
  C:C3FDH         LINE#         425
  C:C3FFH         LINE#         427
  C:C3FFH         LINE#         428
  C:C433H         LINE#         429
  C:C439H         LINE#         430
  C:C439H         LINE#         431
  C:C439H         LINE#         433
  C:C43EH         LINE#         434
  C:C441H         LINE#         435
  C:C443H         LINE#         436
  C:C44CH         LINE#         437
  C:C44CH         LINE#         438
  C:C459H         LINE#         439
  C:C459H         LINE#         440
  C:C484H         LINE#         441
  C:C484H         LINE#         442
  C:C487H         LINE#         443
  C:C489H         LINE#         445
  C:C489H         LINE#         446
  C:C499H         LINE#         448
  C:C499H         LINE#         449
  C:C4A1H         LINE#         450
  C:C4ABH         LINE#         451
  C:C4B3H         LINE#         452
  C:C4B5H         LINE#         453
  -------         ENDPROC       _DISPLAY_CHINESE
  -------         PROC          _ASCIIXDIRECTIONINCREASE
  X:0263H         SYMBOL        size
  X:0264H         SYMBOL        px
  X:0267H         SYMBOL        py
  -------         DO            
  D:0006H         SYMBOL        x
BL51 BANKED LINKER/LOCATER V6.22                                                      03/06/2019  08:21:13  PAGE 32


  X:026AH         SYMBOL        y
  -------         ENDDO         
  C:CB90H         LINE#         457
  C:CB9EH         LINE#         458
  C:CB9EH         LINE#         460
  C:CBA4H         LINE#         461
  C:CBBCH         LINE#         462
  C:CBC8H         LINE#         463
  C:CBC8H         LINE#         464
  C:CBC8H         LINE#         466
  C:CBDCH         LINE#         468
  C:CBDCH         LINE#         469
  C:CBF9H         LINE#         473
  C:CBF9H         LINE#         474
  C:CBF9H         LINE#         475
  C:CC0DH         LINE#         477
  C:CC0DH         LINE#         478
  C:CC2AH         LINE#         479
  C:CC2AH         LINE#         480
  C:CC2AH         LINE#         481
  C:CC2CH         LINE#         482
  C:CC2CH         LINE#         483
  C:CC45H         LINE#         485
  C:CC45H         LINE#         486
  C:CC6DH         LINE#         487
  C:CC76H         LINE#         488
  C:CC76H         LINE#         489
  C:CC76H         LINE#         491
  C:CC76H         LINE#         492
  C:CC87H         LINE#         493
  -------         ENDPROC       _ASCIIXDIRECTIONINCREASE
  -------         PROC          _CHINESEXDIRECTIONINCREASE
  X:0263H         SYMBOL        size
  X:0264H         SYMBOL        px
  X:0267H         SYMBOL        py
  -------         DO            
  D:0006H         SYMBOL        x
  X:026AH         SYMBOL        y
  -------         ENDDO         
  C:CC9FH         LINE#         498
  C:CCADH         LINE#         499
  C:CCADH         LINE#         501
  C:CCB3H         LINE#         502
  C:CCCBH         LINE#         503
  C:CCD7H         LINE#         504
  C:CCD7H         LINE#         505
  C:CCD7H         LINE#         507
  C:CCEBH         LINE#         509
  C:CCEBH         LINE#         510
  C:CD08H         LINE#         514
  C:CD08H         LINE#         515
  C:CD08H         LINE#         516
  C:CD1CH         LINE#         518
  C:CD1CH         LINE#         519
  C:CD39H         LINE#         520
  C:CD39H         LINE#         521
  C:CD39H         LINE#         522
BL51 BANKED LINKER/LOCATER V6.22                                                      03/06/2019  08:21:13  PAGE 33


  C:CD3BH         LINE#         523
  C:CD3BH         LINE#         524
  C:CD54H         LINE#         526
  C:CD54H         LINE#         527
  C:CD7CH         LINE#         528
  C:CD85H         LINE#         529
  C:CD85H         LINE#         530
  C:CD85H         LINE#         532
  C:CD85H         LINE#         533
  C:CD96H         LINE#         534
  -------         ENDPROC       _CHINESEXDIRECTIONINCREASE
  C:BC2EH         SYMBOL        L?0573
  C:BC3DH         SYMBOL        L?0574
  -------         PROC          L?0572
  -------         ENDPROC       L?0572
  C:BC2EH         SYMBOL        L?0573
  C:BC3DH         SYMBOL        L?0574
  -------         PROC          _DISPLAYDIGITSTRING
  X:024FH         SYMBOL        px
  X:0252H         SYMBOL        py
  X:0255H         SYMBOL        pDigit
  X:0258H         SYMBOL        Length
  X:0259H         SYMBOL        fcolor
  X:025BH         SYMBOL        bcolor
  X:025DH         SYMBOL        size
  X:025EH         SYMBOL        page
  -------         DO            
  X:025FH         SYMBOL        x
  X:0261H         SYMBOL        y
  -------         ENDDO         
  C:BC9DH         LINE#         540
  C:BCA8H         LINE#         541
  C:BCA8H         LINE#         543
  C:BCB5H         LINE#         544
  C:BCCDH         LINE#         546
  C:BCD0H         LINE#         547
  C:BCDCH         LINE#         548
  C:BCDCH         LINE#         549
  C:BCF5H         LINE#         550
  C:BD10H         LINE#         551
  C:BD52H         LINE#         553
  C:BD6EH         LINE#         554
  C:BD78H         LINE#         555
  C:BD81H         LINE#         557
  C:BD99H         LINE#         558
  -------         ENDPROC       _DISPLAYDIGITSTRING
  -------         PROC          L?0596
  -------         ENDPROC       L?0596
  -------         PROC          _DISPLAYDIGIT
  X:0248H         SYMBOL        x
  X:024AH         SYMBOL        y
  X:024CH         SYMBOL        Digit
  X:024DH         SYMBOL        fcolor
  X:024FH         SYMBOL        bcolor
  X:0251H         SYMBOL        size
  X:0252H         SYMBOL        page
  C:DC9EH         LINE#         565
BL51 BANKED LINKER/LOCATER V6.22                                                      03/06/2019  08:21:13  PAGE 34


  C:DCAFH         LINE#         566
  C:DCAFH         LINE#         568
  C:DCB9H         LINE#         569
  C:DCCAH         LINE#         570
  -------         ENDPROC       _DISPLAYDIGIT
  C:C83DH         SYMBOL        L?0590
  -------         PROC          L?0589
  -------         ENDPROC       L?0589
  C:C83DH         SYMBOL        L?0590
  -------         PROC          _DISPLAYASCIISTRING
  X:0248H         SYMBOL        px
  X:024BH         SYMBOL        py
  X:024EH         SYMBOL        pASCII
  X:0251H         SYMBOL        Length
  X:0252H         SYMBOL        fcolor
  X:0254H         SYMBOL        bcolor
  X:0256H         SYMBOL        size
  X:0257H         SYMBOL        page
  -------         DO            
  X:0258H         SYMBOL        x
  X:025AH         SYMBOL        y
  -------         ENDDO         
  C:C85EH         LINE#         577
  C:C869H         LINE#         578
  C:C869H         LINE#         580
  C:C876H         LINE#         581
  C:C88EH         LINE#         583
  C:C891H         LINE#         585
  C:C89DH         LINE#         586
  C:C89DH         LINE#         587
  C:C8B6H         LINE#         588
  C:C8F8H         LINE#         590
  C:C914H         LINE#         591
  C:C91EH         LINE#         592
  C:C927H         LINE#         593
  C:C93FH         LINE#         594
  -------         ENDPROC       _DISPLAYASCIISTRING
  -------         PROC          L?0599
  -------         ENDPROC       L?0599
  -------         PROC          _DISPLAYASCII
  X:0248H         SYMBOL        x
  X:024AH         SYMBOL        y
  D:0003H         SYMBOL        ASCII
  X:024DH         SYMBOL        fcolor
  X:024FH         SYMBOL        bcolor
  X:0251H         SYMBOL        size
  X:0252H         SYMBOL        page
  C:DE6AH         LINE#         600
  C:DE78H         LINE#         601
  C:DE78H         LINE#         603
  C:DE86H         LINE#         604
  -------         ENDPROC       _DISPLAYASCII
  C:C958H         SYMBOL        L?0576
  C:C968H         SYMBOL        L?0577
  C:C969H         SYMBOL        L?0578
  C:C96CH         SYMBOL        L?0579
  -------         PROC          L?0575
BL51 BANKED LINKER/LOCATER V6.22                                                      03/06/2019  08:21:13  PAGE 35


  -------         ENDPROC       L?0575
  C:C958H         SYMBOL        L?0576
  C:C968H         SYMBOL        L?0577
  C:C969H         SYMBOL        L?0578
  C:C96CH         SYMBOL        L?0579
  -------         PROC          _DISPLAYCHINESESTRING
  X:024FH         SYMBOL        px
  X:0252H         SYMBOL        py
  X:0255H         SYMBOL        pChinese
  X:0258H         SYMBOL        Length
  X:0259H         SYMBOL        fcolor
  X:025BH         SYMBOL        bcolor
  X:025DH         SYMBOL        size
  X:025EH         SYMBOL        page
  -------         DO            
  X:025FH         SYMBOL        x
  X:0261H         SYMBOL        y
  -------         ENDDO         
  C:C97CH         LINE#         613
  C:C987H         LINE#         614
  C:C987H         LINE#         616
  C:C994H         LINE#         617
  C:C9ACH         LINE#         619
  C:C9AFH         LINE#         621
  C:C9BBH         LINE#         622
  C:C9BBH         LINE#         623
  C:C9CEH         LINE#         624
  C:CA15H         LINE#         626
  C:CA31H         LINE#         627
  C:CA3BH         LINE#         628
  C:CA44H         LINE#         629
  C:CA5CH         LINE#         630
  -------         ENDPROC       _DISPLAYCHINESESTRING
  C:945BH         SYMBOL        L?0567
  C:945CH         SYMBOL        L?0568
  C:9483H         SYMBOL        L?0569
  C:9487H         SYMBOL        L?0570
  C:9488H         SYMBOL        L?0571
  -------         PROC          L?0566
  -------         ENDPROC       L?0566
  C:945BH         SYMBOL        L?0567
  C:945CH         SYMBOL        L?0568
  C:9483H         SYMBOL        L?0569
  C:9487H         SYMBOL        L?0570
  C:9488H         SYMBOL        L?0571
  -------         PROC          _DISPLAYSTRING
  X:024DH         SYMBOL        px
  X:0250H         SYMBOL        py
  X:0253H         SYMBOL        pDispData
  X:0256H         SYMBOL        Length
  X:0257H         SYMBOL        fcolor
  X:0259H         SYMBOL        bcolor
  X:025BH         SYMBOL        size
  X:025CH         SYMBOL        page
  -------         DO            
  X:025DH         SYMBOL        x
  X:025FH         SYMBOL        y
BL51 BANKED LINKER/LOCATER V6.22                                                      03/06/2019  08:21:13  PAGE 36


  -------         ENDDO         
  C:94A8H         LINE#         636
  C:94B3H         LINE#         637
  C:94B3H         LINE#         639
  C:94C0H         LINE#         640
  C:94D8H         LINE#         642
  C:94DBH         LINE#         644
  C:94E7H         LINE#         645
  C:94E7H         LINE#         646
  C:9507H         LINE#         647
  C:9507H         LINE#         648
  C:9511H         LINE#         649
  C:9527H         LINE#         650
  C:9527H         LINE#         651
  C:9531H         LINE#         652
  C:9544H         LINE#         655
  C:9559H         LINE#         656
  C:9559H         LINE#         657
  C:9559H         LINE#         658
  C:9573H         LINE#         659
  C:9573H         LINE#         660
  C:9577H         LINE#         661
  C:9590H         LINE#         662
  C:9596H         LINE#         663
  C:9596H         LINE#         664
  C:9598H         LINE#         665
  C:9598H         LINE#         666
  C:95AFH         LINE#         667
  C:95AFH         LINE#         668
  C:95B3H         LINE#         669
  C:95CCH         LINE#         670
  C:95D2H         LINE#         671
  C:95D2H         LINE#         672
  C:95D4H         LINE#         673
  C:95D4H         LINE#         674
  C:95EBH         LINE#         675
  C:95EBH         LINE#         676
  C:95EFH         LINE#         677
  C:960CH         LINE#         678
  C:961AH         LINE#         679
  C:961AH         LINE#         680
  C:961AH         LINE#         681
  C:961AH         LINE#         682
  C:9661H         LINE#         684
  C:967DH         LINE#         685
  C:9687H         LINE#         686
  C:968EH         LINE#         687
  C:9691H         LINE#         693
  C:96B1H         LINE#         694
  C:96B1H         LINE#         695
  C:96BFH         LINE#         697
  C:96D4H         LINE#         698
  C:96D4H         LINE#         699
  C:96D4H         LINE#         700
  C:96EEH         LINE#         701
  C:96EEH         LINE#         702
  C:96F2H         LINE#         703
BL51 BANKED LINKER/LOCATER V6.22                                                      03/06/2019  08:21:13  PAGE 37


  C:970BH         LINE#         704
  C:9711H         LINE#         705
  C:9711H         LINE#         706
  C:9713H         LINE#         707
  C:9713H         LINE#         708
  C:972AH         LINE#         709
  C:972AH         LINE#         710
  C:972EH         LINE#         711
  C:9747H         LINE#         712
  C:974DH         LINE#         713
  C:974DH         LINE#         714
  C:974FH         LINE#         715
  C:974FH         LINE#         716
  C:9766H         LINE#         717
  C:9766H         LINE#         718
  C:976AH         LINE#         719
  C:9787H         LINE#         720
  C:9795H         LINE#         721
  C:9795H         LINE#         722
  C:9795H         LINE#         723
  C:9795H         LINE#         724
  C:97D7H         LINE#         726
  C:97F3H         LINE#         727
  C:97FDH         LINE#         728
  C:97FDH         LINE#         729
  C:97FFH         LINE#         731
  C:97FFH         LINE#         732
  C:9809H         LINE#         733
  C:980FH         LINE#         734
  C:980FH         LINE#         735
  C:9812H         LINE#         737
  C:982AH         LINE#         738
  -------         ENDPROC       _DISPLAYSTRING
  -------         PROC          _SHOWCALLFACE0
  X:0248H         SYMBOL        page
  -------         DO            
  X:0249H         SYMBOL        x
  X:024BH         SYMBOL        y
  X:024DH         SYMBOL        i
  -------         ENDDO         
  C:B159H         LINE#         806
  C:B15FH         LINE#         807
  C:B15FH         LINE#         811
  C:B16BH         LINE#         812
  C:B171H         LINE#         815
  C:B174H         LINE#         817
  C:B18AH         LINE#         818
  C:B18AH         LINE#         819
  C:B1A1H         LINE#         820
  C:B1B1H         LINE#         822
  C:B1D4H         LINE#         823
  C:B1D4H         LINE#         824
  C:B1D4H         LINE#         825
  C:B1EAH         LINE#         826
  C:B1EAH         LINE#         827
  C:B222H         LINE#         828
  C:B225H         LINE#         830
BL51 BANKED LINKER/LOCATER V6.22                                                      03/06/2019  08:21:13  PAGE 38


  C:B225H         LINE#         831
  C:B225H         LINE#         832
  C:B225H         LINE#         833
  C:B225H         LINE#         835
  C:B228H         LINE#         836
  C:B268H         LINE#         837
  C:B268H         LINE#         839
  C:B277H         LINE#         840
  C:B277H         LINE#         841
  C:B277H         LINE#         842
  C:B27AH         LINE#         843
  C:B297H         LINE#         844
  C:B29AH         LINE#         846
  C:B29AH         LINE#         847
  C:B29AH         LINE#         848
  C:B29AH         LINE#         849
  C:B29AH         LINE#         850
  C:B29DH         LINE#         851
  C:B2DDH         LINE#         853
  C:B2ECH         LINE#         854
  C:B2ECH         LINE#         855
  C:B2ECH         LINE#         856
  C:B2EFH         LINE#         857
  C:B30CH         LINE#         858
  C:B30FH         LINE#         860
  C:B30FH         LINE#         861
  C:B30FH         LINE#         862
  C:B30FH         LINE#         863
  C:B30FH         LINE#         864
  C:B312H         LINE#         865
  C:B352H         LINE#         866
  C:B352H         LINE#         868
  C:B352H         LINE#         870
  C:B35BH         LINE#         873
  C:B363H         LINE#         874
  C:B369H         LINE#         876
  -------         ENDPROC       _SHOWCALLFACE0
  -------         PROC          _SHOWCALLFACE1
  X:0248H         SYMBOL        page
  -------         DO            
  X:0249H         SYMBOL        x
  X:024BH         SYMBOL        y
  X:024DH         SYMBOL        i
  -------         ENDDO         
  C:8C21H         LINE#         882
  C:8C26H         LINE#         883
  C:8C26H         LINE#         888
  C:8C32H         LINE#         889
  C:8C32H         LINE#         890
  C:8C42H         LINE#         892
  C:8C46H         LINE#         893
  C:8C46H         LINE#         894
  C:8C4DH         LINE#         895
  C:8C4FH         LINE#         897
  C:8C4FH         LINE#         898
  C:8C7CH         LINE#         899
  C:8C7CH         LINE#         902
BL51 BANKED LINKER/LOCATER V6.22                                                      03/06/2019  08:21:13  PAGE 39


  C:8C85H         LINE#         903
  C:8C98H         LINE#         904
  C:8C9CH         LINE#         905
  C:8CBEH         LINE#         906
  C:8CBEH         LINE#         907
  C:8CBEH         LINE#         908
  C:8CD4H         LINE#         909
  C:8CD4H         LINE#         910
  C:8D0CH         LINE#         911
  C:8D0FH         LINE#         913
  C:8D0FH         LINE#         914
  C:8D2AH         LINE#         915
  C:8D38H         LINE#         916
  C:8D41H         LINE#         918
  C:8D81H         LINE#         919
  C:8DC1H         LINE#         920
  C:8DC1H         LINE#         922
  C:8DDCH         LINE#         923
  C:8DEAH         LINE#         924
  C:8DF3H         LINE#         925
  C:8E33H         LINE#         926
  C:8E50H         LINE#         927
  C:8E53H         LINE#         929
  C:8E53H         LINE#         930
  C:8E6EH         LINE#         931
  C:8E7CH         LINE#         932
  C:8E85H         LINE#         933
  C:8EC5H         LINE#         934
  C:8F05H         LINE#         936
  C:8F20H         LINE#         937
  C:8F2EH         LINE#         938
  C:8F37H         LINE#         939
  C:8F77H         LINE#         940
  C:8F94H         LINE#         941
  C:8F97H         LINE#         943
  C:8F97H         LINE#         944
  C:8FB2H         LINE#         945
  C:8FC0H         LINE#         946
  C:8FC9H         LINE#         947
  C:9009H         LINE#         948
  C:9049H         LINE#         949
  C:9049H         LINE#         951
  C:9049H         LINE#         953
  C:9051H         LINE#         954
  C:9057H         LINE#         956
  C:9057H         LINE#         957
  -------         ENDPROC       _SHOWCALLFACE1
  -------         PROC          _SHOWCALLFACE2
  X:0248H         SYMBOL        page
  -------         DO            
  X:0249H         SYMBOL        x
  X:024BH         SYMBOL        y
  X:024DH         SYMBOL        i
  -------         ENDDO         
  C:8311H         LINE#         962
  C:8316H         LINE#         963
  C:8316H         LINE#         967
BL51 BANKED LINKER/LOCATER V6.22                                                      03/06/2019  08:21:13  PAGE 40


  C:8320H         LINE#         968
  C:8320H         LINE#         969
  C:833DH         LINE#         970
  C:8373H         LINE#         971
  C:8373H         LINE#         973
  C:8380H         LINE#         974
  C:8380H         LINE#         975
  C:838CH         LINE#         976
  C:838CH         LINE#         977
  C:8395H         LINE#         978
  C:83AFH         LINE#         979
  C:83B2H         LINE#         980
  C:83D4H         LINE#         981
  C:83D4H         LINE#         982
  C:83D4H         LINE#         983
  C:83EAH         LINE#         984
  C:83EAH         LINE#         985
  C:8422H         LINE#         986
  C:8425H         LINE#         988
  C:8425H         LINE#         989
  C:8440H         LINE#         990
  C:844EH         LINE#         991
  C:8457H         LINE#         993
  C:8497H         LINE#         994
  C:84D7H         LINE#         995
  C:84D7H         LINE#         997
  C:84F2H         LINE#         998
  C:8500H         LINE#         999
  C:8509H         LINE#         1000
  C:8549H         LINE#         1001
  C:8566H         LINE#         1002
  C:8569H         LINE#         1004
  C:8569H         LINE#         1005
  C:8584H         LINE#         1006
  C:8592H         LINE#         1007
  C:859BH         LINE#         1008
  C:85DBH         LINE#         1009
  C:861BH         LINE#         1011
  C:8636H         LINE#         1012
  C:8644H         LINE#         1013
  C:864DH         LINE#         1014
  C:868DH         LINE#         1015
  C:86AAH         LINE#         1016
  C:86ADH         LINE#         1018
  C:86ADH         LINE#         1019
  C:86C8H         LINE#         1020
  C:86D6H         LINE#         1021
  C:86DFH         LINE#         1022
  C:871FH         LINE#         1023
  C:875FH         LINE#         1024
  C:875FH         LINE#         1026
  C:875FH         LINE#         1027
  C:8795H         LINE#         1028
  C:8795H         LINE#         1029
  C:8795H         LINE#         1030
  C:879DH         LINE#         1031
  C:87A3H         LINE#         1032
BL51 BANKED LINKER/LOCATER V6.22                                                      03/06/2019  08:21:13  PAGE 41


  -------         ENDPROC       _SHOWCALLFACE2
  -------         PROC          _SHOWTALKFACE
  X:0248H         SYMBOL        byRoomAddr
  X:0249H         SYMBOL        byBedAddr
  X:024AH         SYMBOL        page
  -------         DO            
  X:024BH         SYMBOL        x
  X:024DH         SYMBOL        y
  -------         ENDDO         
  C:87A4H         LINE#         1049
  C:87AFH         LINE#         1050
  C:87AFH         LINE#         1054
  C:87BAH         LINE#         1057
  C:87C1H         LINE#         1058
  C:87CAH         LINE#         1059
  C:87D1H         LINE#         1061
  C:87DAH         LINE#         1062
  C:87DAH         LINE#         1063
  C:87E2H         LINE#         1064
  C:87E9H         LINE#         1065
  C:8829H         LINE#         1066
  C:8836H         LINE#         1067
  C:8844H         LINE#         1068
  C:884DH         LINE#         1069
  C:8853H         LINE#         1070
  C:8853H         LINE#         1071
  C:8870H         LINE#         1072
  C:8872H         LINE#         1074
  C:8872H         LINE#         1075
  C:887BH         LINE#         1076
  C:887BH         LINE#         1077
  C:8895H         LINE#         1078
  C:8897H         LINE#         1079
  C:88D4H         LINE#         1080
  C:88D4H         LINE#         1081
  C:88D4H         LINE#         1083
  C:88D7H         LINE#         1086
  C:88D7H         LINE#         1087
  C:88E0H         LINE#         1088
  C:88E7H         LINE#         1089
  C:88F2H         LINE#         1090
  C:88F2H         LINE#         1091
  C:8931H         LINE#         1092
  C:893EH         LINE#         1093
  C:894CH         LINE#         1094
  C:8955H         LINE#         1095
  C:895BH         LINE#         1096
  C:895BH         LINE#         1097
  C:8978H         LINE#         1098
  C:897AH         LINE#         1100
  C:897AH         LINE#         1101
  C:8983H         LINE#         1102
  C:8983H         LINE#         1103
  C:899DH         LINE#         1104
  C:899FH         LINE#         1105
  C:89DCH         LINE#         1106
  C:89DCH         LINE#         1107
BL51 BANKED LINKER/LOCATER V6.22                                                      03/06/2019  08:21:13  PAGE 42


  C:89F9H         LINE#         1108
  C:89FCH         LINE#         1110
  C:89FCH         LINE#         1111
  C:8A3CH         LINE#         1112
  C:8A49H         LINE#         1113
  C:8A57H         LINE#         1114
  C:8A60H         LINE#         1115
  C:8A66H         LINE#         1116
  C:8A66H         LINE#         1117
  C:8A83H         LINE#         1118
  C:8A85H         LINE#         1120
  C:8A85H         LINE#         1121
  C:8A8EH         LINE#         1122
  C:8A8EH         LINE#         1123
  C:8AA8H         LINE#         1124
  C:8AAAH         LINE#         1125
  C:8AE7H         LINE#         1126
  C:8AE7H         LINE#         1127
  C:8B27H         LINE#         1128
  C:8B34H         LINE#         1129
  C:8B42H         LINE#         1130
  C:8B4BH         LINE#         1131
  C:8B51H         LINE#         1132
  C:8B51H         LINE#         1133
  C:8B6EH         LINE#         1134
  C:8B70H         LINE#         1136
  C:8B70H         LINE#         1137
  C:8B79H         LINE#         1138
  C:8B79H         LINE#         1139
  C:8B93H         LINE#         1140
  C:8B95H         LINE#         1141
  C:8BD2H         LINE#         1142
  C:8BD2H         LINE#         1143
  C:8C12H         LINE#         1144
  C:8C12H         LINE#         1145
  C:8C12H         LINE#         1146
  C:8C1AH         LINE#         1148
  C:8C20H         LINE#         1150
  -------         ENDPROC       _SHOWTALKFACE
  -------         PROC          _SHOWKEYFACE
  X:0313H         SYMBOL        page
  -------         DO            
  X:0314H         SYMBOL        x
  X:0316H         SYMBOL        y
  -------         ENDDO         
  C:D579H         LINE#         1153
  C:D57EH         LINE#         1154
  C:D57EH         LINE#         1156
  C:D584H         LINE#         1157
  C:D584H         LINE#         1158
  C:D5BCH         LINE#         1159
  C:D5BCH         LINE#         1160
  C:D5CEH         LINE#         1161
  C:D5D5H         LINE#         1162
  -------         ENDPROC       _SHOWKEYFACE
  -------         PROC          _STORSECINFO
  X:0243H         SYMBOL        page
BL51 BANKED LINKER/LOCATER V6.22                                                      03/06/2019  08:21:13  PAGE 43


  -------         DO            
  X:0244H         SYMBOL        x
  X:0246H         SYMBOL        y
  -------         ENDDO         
  C:41F9H         LINE#         1167
  C:41FFH         LINE#         1168
  C:41FFH         LINE#         1171
  C:4206H         LINE#         1173
  C:422AH         LINE#         1175
  C:4233H         LINE#         1176
  C:4238H         LINE#         1177
  C:4277H         LINE#         1178
  C:429FH         LINE#         1179
  C:42C6H         LINE#         1181
  C:42E6H         LINE#         1183
  C:4312H         LINE#         1184
  C:433DH         LINE#         1187
  C:435DH         LINE#         1189
  C:4389H         LINE#         1190
  C:43B4H         LINE#         1194
  C:43E1H         LINE#         1195
  C:440DH         LINE#         1197
  C:4438H         LINE#         1199
  C:4465H         LINE#         1200
  C:4491H         LINE#         1203
  C:44B8H         LINE#         1206
  C:44C1H         LINE#         1207
  C:44C1H         LINE#         1208
  C:44CAH         LINE#         1209
  C:44D1H         LINE#         1210
  C:44DEH         LINE#         1211
  C:44ECH         LINE#         1212
  C:44F5H         LINE#         1213
  C:44FBH         LINE#         1214
  C:44FBH         LINE#         1215
  C:4518H         LINE#         1217
  C:451AH         LINE#         1218
  C:4523H         LINE#         1219
  C:4523H         LINE#         1220
  C:452EH         LINE#         1221
  C:454BH         LINE#         1223
  C:454DH         LINE#         1225
  C:454DH         LINE#         1226
  C:4558H         LINE#         1227
  C:4598H         LINE#         1228
  C:4598H         LINE#         1229
  C:4598H         LINE#         1232
  C:45A1H         LINE#         1233
  C:45A8H         LINE#         1234
  C:45E8H         LINE#         1236
  C:45F5H         LINE#         1237
  C:4635H         LINE#         1239
  C:4645H         LINE#         1240
  C:4668H         LINE#         1241
  C:4675H         LINE#         1242
  C:467EH         LINE#         1243
  C:468DH         LINE#         1244
BL51 BANKED LINKER/LOCATER V6.22                                                      03/06/2019  08:21:13  PAGE 44


  C:469CH         LINE#         1246
  C:46A2H         LINE#         1247
  C:46A2H         LINE#         1248
  C:46BFH         LINE#         1249
  C:46C1H         LINE#         1251
  C:46C1H         LINE#         1252
  C:46CAH         LINE#         1253
  C:46E6H         LINE#         1254
  C:4723H         LINE#         1255
  C:4723H         LINE#         1258
  C:4730H         LINE#         1259
  C:4770H         LINE#         1261
  C:4780H         LINE#         1262
  C:4796H         LINE#         1263
  C:47A3H         LINE#         1265
  C:47ACH         LINE#         1266
  C:47BBH         LINE#         1267
  C:47CAH         LINE#         1269
  C:47D0H         LINE#         1270
  C:47D0H         LINE#         1271
  C:47EDH         LINE#         1272
  C:47EFH         LINE#         1274
  C:47EFH         LINE#         1275
  C:47F8H         LINE#         1276
  C:4814H         LINE#         1277
  C:4851H         LINE#         1278
  C:4851H         LINE#         1281
  C:485AH         LINE#         1282
  C:489AH         LINE#         1284
  C:48AAH         LINE#         1285
  C:48D1H         LINE#         1286
  C:48DEH         LINE#         1288
  C:48E7H         LINE#         1289
  C:48F6H         LINE#         1290
  C:4905H         LINE#         1292
  C:490BH         LINE#         1293
  C:490BH         LINE#         1294
  C:4928H         LINE#         1295
  C:492AH         LINE#         1297
  C:492AH         LINE#         1298
  C:4933H         LINE#         1299
  C:494FH         LINE#         1300
  C:498CH         LINE#         1301
  C:498CH         LINE#         1304
  C:4996H         LINE#         1305
  C:49D6H         LINE#         1307
  C:49E7H         LINE#         1308
  C:4A0EH         LINE#         1309
  C:4A1BH         LINE#         1311
  C:4A24H         LINE#         1312
  C:4A33H         LINE#         1313
  C:4A42H         LINE#         1315
  C:4A48H         LINE#         1316
  C:4A48H         LINE#         1317
  C:4A65H         LINE#         1318
  C:4A67H         LINE#         1320
  C:4A67H         LINE#         1321
BL51 BANKED LINKER/LOCATER V6.22                                                      03/06/2019  08:21:13  PAGE 45


  C:4A70H         LINE#         1322
  C:4A8CH         LINE#         1323
  C:4AC9H         LINE#         1324
  C:4AC9H         LINE#         1327
  C:4AD6H         LINE#         1328
  C:4B16H         LINE#         1330
  C:4B26H         LINE#         1331
  C:4B43H         LINE#         1332
  C:4B50H         LINE#         1334
  C:4B59H         LINE#         1335
  C:4B68H         LINE#         1336
  C:4B77H         LINE#         1338
  C:4B7DH         LINE#         1339
  C:4B7DH         LINE#         1340
  C:4B9AH         LINE#         1341
  C:4B9CH         LINE#         1343
  C:4B9CH         LINE#         1344
  C:4BA5H         LINE#         1345
  C:4BC1H         LINE#         1346
  C:4BFEH         LINE#         1347
  C:4BFEH         LINE#         1351
  C:4C07H         LINE#         1352
  C:4C47H         LINE#         1354
  C:4C58H         LINE#         1355
  C:4C7FH         LINE#         1356
  C:4C8CH         LINE#         1358
  C:4C95H         LINE#         1359
  C:4CA4H         LINE#         1360
  C:4CB3H         LINE#         1362
  C:4CB9H         LINE#         1363
  C:4CB9H         LINE#         1364
  C:4CD6H         LINE#         1365
  C:4CD8H         LINE#         1367
  C:4CD8H         LINE#         1368
  C:4CE1H         LINE#         1369
  C:4CFDH         LINE#         1370
  C:4D3AH         LINE#         1371
  C:4D3AH         LINE#         1422
  C:4D47H         LINE#         1423
  C:4D87H         LINE#         1425
  C:4D97H         LINE#         1426
  C:4DBEH         LINE#         1427
  C:4DCBH         LINE#         1429
  C:4DD4H         LINE#         1430
  C:4DE3H         LINE#         1431
  C:4DF2H         LINE#         1433
  C:4DF8H         LINE#         1434
  C:4DF8H         LINE#         1435
  C:4E15H         LINE#         1436
  C:4E17H         LINE#         1438
  C:4E17H         LINE#         1439
  C:4E20H         LINE#         1440
  C:4E3CH         LINE#         1441
  C:4E79H         LINE#         1442
  C:4E79H         LINE#         1447
  C:4E82H         LINE#         1448
  C:4EC2H         LINE#         1449
BL51 BANKED LINKER/LOCATER V6.22                                                      03/06/2019  08:21:13  PAGE 46


  C:4ED3H         LINE#         1450
  C:4EFAH         LINE#         1451
  C:4F07H         LINE#         1453
  C:4F10H         LINE#         1454
  C:4F1FH         LINE#         1455
  C:4F2EH         LINE#         1457
  C:4F34H         LINE#         1458
  C:4F34H         LINE#         1459
  C:4F51H         LINE#         1460
  C:4F53H         LINE#         1462
  C:4F53H         LINE#         1463
  C:4F5CH         LINE#         1464
  C:4F78H         LINE#         1465
  C:4FB5H         LINE#         1466
  C:4FB5H         LINE#         1468
  -------         ENDPROC       _STORSECINFO
  -------         PROC          _SHOWSTARTNUMSET
  X:0248H         SYMBOL        page
  -------         DO            
  X:0249H         SYMBOL        x
  X:024BH         SYMBOL        y
  -------         ENDDO         
  C:A282H         LINE#         1784
  C:A285H         LINE#         1785
  C:A285H         LINE#         1789
  C:A288H         LINE#         1791
  C:A291H         LINE#         1792
  C:A298H         LINE#         1794
  C:A2A5H         LINE#         1795
  C:A2B3H         LINE#         1796
  C:A2BCH         LINE#         1798
  C:A2C2H         LINE#         1799
  C:A2C2H         LINE#         1800
  C:A2DFH         LINE#         1801
  C:A2E1H         LINE#         1803
  C:A2E1H         LINE#         1804
  C:A2EAH         LINE#         1805
  C:A2EAH         LINE#         1806
  C:A304H         LINE#         1807
  C:A306H         LINE#         1808
  C:A343H         LINE#         1809
  C:A343H         LINE#         1810
  C:A383H         LINE#         1812
  C:A390H         LINE#         1813
  C:A39EH         LINE#         1814
  C:A3A7H         LINE#         1816
  C:A3ADH         LINE#         1817
  C:A3ADH         LINE#         1818
  C:A3CAH         LINE#         1819
  C:A3CCH         LINE#         1821
  C:A3CCH         LINE#         1822
  C:A3D5H         LINE#         1823
  C:A3D5H         LINE#         1824
  C:A3EFH         LINE#         1825
  C:A3F1H         LINE#         1826
  C:A42EH         LINE#         1827
  C:A42EH         LINE#         1828
BL51 BANKED LINKER/LOCATER V6.22                                                      03/06/2019  08:21:13  PAGE 47


  C:A46EH         LINE#         1830
  C:A47BH         LINE#         1831
  C:A489H         LINE#         1832
  C:A492H         LINE#         1834
  C:A498H         LINE#         1835
  C:A498H         LINE#         1836
  C:A4B5H         LINE#         1837
  C:A4B7H         LINE#         1839
  C:A4B7H         LINE#         1840
  C:A4C0H         LINE#         1841
  C:A4C0H         LINE#         1842
  C:A4DAH         LINE#         1843
  C:A4DCH         LINE#         1844
  C:A519H         LINE#         1845
  C:A519H         LINE#         1846
  C:A559H         LINE#         1848
  C:A561H         LINE#         1849
  C:A567H         LINE#         1851
  -------         ENDPROC       _SHOWSTARTNUMSET
  -------         PROC          _SHOWNUMSETOK
  X:0248H         SYMBOL        page
  -------         DO            
  X:0249H         SYMBOL        x
  X:024BH         SYMBOL        y
  -------         ENDDO         
  C:DF9AH         LINE#         1854
  C:DF9DH         LINE#         1855
  C:DF9DH         LINE#         1857
  C:DFA0H         LINE#         1859
  C:DFA9H         LINE#         1860
  C:DFB0H         LINE#         1861
  C:DFF0H         LINE#         1863
  C:DFF8H         LINE#         1864
  C:DFFEH         LINE#         1865
  -------         ENDPROC       _SHOWNUMSETOK
  -------         PROC          _SHOWBROADFACE
  X:0248H         SYMBOL        byRoomAddr
  X:0249H         SYMBOL        byBedAddr
  B:0027H.4       SYMBOL        bSelf
  X:024AH         SYMBOL        page
  -------         DO            
  X:024BH         SYMBOL        x
  X:024DH         SYMBOL        y
  -------         ENDDO         
  C:9F51H         LINE#         1883
  C:9F59H         LINE#         1884
  C:9F59H         LINE#         1886
  C:9F64H         LINE#         1889
  C:9F6BH         LINE#         1890
  C:9F6EH         LINE#         1891
  C:9F6EH         LINE#         1892
  C:9F77H         LINE#         1893
  C:9F7EH         LINE#         1894
  C:9F9BH         LINE#         1896
  C:9F9EH         LINE#         1898
  C:9F9EH         LINE#         1899
  C:9FA9H         LINE#         1900
BL51 BANKED LINKER/LOCATER V6.22                                                      03/06/2019  08:21:13  PAGE 48


  C:9FA9H         LINE#         1901
  C:9FB1H         LINE#         1902
  C:9FB8H         LINE#         1903
  C:9FC5H         LINE#         1904
  C:9FD3H         LINE#         1905
  C:9FDCH         LINE#         1906
  C:9FE2H         LINE#         1907
  C:9FE2H         LINE#         1908
  C:9FFFH         LINE#         1909
  C:A001H         LINE#         1911
  C:A001H         LINE#         1912
  C:A00AH         LINE#         1913
  C:A00AH         LINE#         1914
  C:A024H         LINE#         1915
  C:A026H         LINE#         1917
  C:A026H         LINE#         1918
  C:A063H         LINE#         1919
  C:A063H         LINE#         1920
  C:A063H         LINE#         1921
  C:A071H         LINE#         1922
  C:A08EH         LINE#         1923
  C:A091H         LINE#         1925
  C:A091H         LINE#         1926
  C:A09AH         LINE#         1927
  C:A0A1H         LINE#         1928
  C:A0ADH         LINE#         1929
  C:A0ADH         LINE#         1930
  C:A0B7H         LINE#         1931
  C:A0C5H         LINE#         1932
  C:A0CEH         LINE#         1933
  C:A10EH         LINE#         1934
  C:A12BH         LINE#         1936
  C:A12EH         LINE#         1938
  C:A12EH         LINE#         1939
  C:A138H         LINE#         1940
  C:A146H         LINE#         1941
  C:A14FH         LINE#         1942
  C:A18FH         LINE#         1943
  C:A1CFH         LINE#         1944
  C:A1DCH         LINE#         1945
  C:A1EAH         LINE#         1946
  C:A1F3H         LINE#         1947
  C:A233H         LINE#         1948
  C:A273H         LINE#         1949
  C:A273H         LINE#         1950
  C:A273H         LINE#         1951
  C:A273H         LINE#         1952
  C:A27BH         LINE#         1953
  C:A281H         LINE#         1954
  -------         ENDPROC       _SHOWBROADFACE
  -------         PROC          _LCD_FANGDA_DIS_TEXT
  X:029CH         SYMBOL        x
  X:029EH         SYMBOL        y
  X:02A0H         SYMBOL        type_x_wide
  X:02A1H         SYMBOL        type_y_height
  X:02A2H         SYMBOL        mul_row
  X:02A3H         SYMBOL        mul_col
BL51 BANKED LINKER/LOCATER V6.22                                                      03/06/2019  08:21:13  PAGE 49


  X:02A4H         SYMBOL        fcolor
  X:02A6H         SYMBOL        bcolor
  X:02A8H         SYMBOL        p
  X:02ABH         SYMBOL        page
  -------         DO            
  X:02ACH         SYMBOL        i
  X:02ADH         SYMBOL        j
  X:02AEH         SYMBOL        k
  X:02AFH         SYMBOL        m
  X:02B0H         SYMBOL        n
  -------         ENDDO         
  C:BF2BH         LINE#         2044
  C:BF3CH         LINE#         2046
  C:BF3CH         LINE#         2050
  C:BFA8H         LINE#         2051
  C:BFADH         LINE#         2053
  C:BFB0H         LINE#         2055
  C:BFB2H         LINE#         2056
  C:BFC7H         LINE#         2057
  C:BFC7H         LINE#         2059
  C:BFDCH         LINE#         2060
  C:BFDCH         LINE#         2062
  C:BFF6H         LINE#         2063
  C:BFF6H         LINE#         2065
  C:BFF9H         LINE#         2066
  C:BFF9H         LINE#         2068
  C:C00BH         LINE#         2069
  C:C00BH         LINE#         2072
  C:C053H         LINE#         2073
  C:C053H         LINE#         2074
  C:C056H         LINE#         2075
  C:C058H         LINE#         2078
  C:C058H         LINE#         2079
  C:C068H         LINE#         2080
  C:C068H         LINE#         2083
  C:C070H         LINE#         2084
  C:C07EH         LINE#         2085
  C:C087H         LINE#         2086
  C:C090H         LINE#         2087
  C:C099H         LINE#         2088
  C:C09BH         LINE#         2089
  -------         ENDPROC       _LCD_FANGDA_DIS_TEXT
  -------         PROC          _SHOWPOWERUPFACE
  X:0243H         SYMBOL        page
  -------         DO            
  X:0244H         SYMBOL        x
  X:0246H         SYMBOL        y
  -------         ENDDO         
  C:A804H         LINE#         2092
  C:A807H         LINE#         2093
  C:A807H         LINE#         2095
  C:A80AH         LINE#         2097
  C:A813H         LINE#         2098
  C:A81AH         LINE#         2099
  C:A85AH         LINE#         2100
  C:A879H         LINE#         2102
  C:A887H         LINE#         2103
BL51 BANKED LINKER/LOCATER V6.22                                                      03/06/2019  08:21:13  PAGE 50


  C:A890H         LINE#         2104
  C:A8D0H         LINE#         2105
  C:A8EBH         LINE#         2106
  C:A8F0H         LINE#         2107
  C:A8F2H         LINE#         2108
  C:A8F6H         LINE#         2109
  C:A8FCH         LINE#         2110
  C:A8FCH         LINE#         2111
  C:A919H         LINE#         2112
  C:A91BH         LINE#         2114
  C:A91BH         LINE#         2115
  C:A924H         LINE#         2116
  C:A924H         LINE#         2117
  C:A93EH         LINE#         2118
  C:A940H         LINE#         2119
  C:A97DH         LINE#         2120
  C:A97DH         LINE#         2121
  C:A998H         LINE#         2123
  C:A99DH         LINE#         2124
  C:A99FH         LINE#         2125
  C:A9A2H         LINE#         2126
  C:A9A8H         LINE#         2127
  C:A9A8H         LINE#         2128
  C:A9C5H         LINE#         2129
  C:A9C7H         LINE#         2131
  C:A9C7H         LINE#         2132
  C:A9D0H         LINE#         2133
  C:A9D0H         LINE#         2134
  C:A9EAH         LINE#         2135
  C:A9ECH         LINE#         2136
  C:AA29H         LINE#         2137
  C:AA29H         LINE#         2147
  C:AA37H         LINE#         2148
  C:AA40H         LINE#         2149
  C:AA80H         LINE#         2152
  C:AA88H         LINE#         2153
  C:AA8EH         LINE#         2154
  -------         ENDPROC       _SHOWPOWERUPFACE
  -------         PROC          _SHOWMAINMENUFACE
  X:0248H         SYMBOL        page
  -------         DO            
  X:0249H         SYMBOL        x
  X:024BH         SYMBOL        y
  -------         ENDDO         
  C:64C0H         LINE#         2158
  C:64C3H         LINE#         2159
  C:64C3H         LINE#         2161
  C:64C6H         LINE#         2164
  C:64E8H         LINE#         2165
  C:650DH         LINE#         2166
  C:6532H         LINE#         2167
  C:6558H         LINE#         2170
  C:657CH         LINE#         2171
  C:65A1H         LINE#         2172
  C:65C7H         LINE#         2173
  C:65EDH         LINE#         2176
  C:65F6H         LINE#         2177
BL51 BANKED LINKER/LOCATER V6.22                                                      03/06/2019  08:21:13  PAGE 51


  C:65FDH         LINE#         2178
  C:663DH         LINE#         2179
  C:6646H         LINE#         2180
  C:6654H         LINE#         2181
  C:6694H         LINE#         2184
  C:669DH         LINE#         2185
  C:66A4H         LINE#         2186
  C:66E4H         LINE#         2187
  C:66EDH         LINE#         2188
  C:66FBH         LINE#         2189
  C:673BH         LINE#         2192
  C:6745H         LINE#         2193
  C:674CH         LINE#         2194
  C:678CH         LINE#         2195
  C:6796H         LINE#         2196
  C:67A4H         LINE#         2197
  C:67E4H         LINE#         2200
  C:67EDH         LINE#         2201
  C:67F4H         LINE#         2202
  C:6834H         LINE#         2203
  C:683DH         LINE#         2204
  C:684BH         LINE#         2205
  C:688BH         LINE#         2208
  C:6894H         LINE#         2209
  C:689BH         LINE#         2210
  C:68DBH         LINE#         2211
  C:68E4H         LINE#         2212
  C:68F2H         LINE#         2213
  C:6932H         LINE#         2216
  C:693CH         LINE#         2217
  C:6943H         LINE#         2218
  C:6983H         LINE#         2222
  C:698CH         LINE#         2223
  C:6993H         LINE#         2224
  C:69D3H         LINE#         2225
  C:69DCH         LINE#         2226
  C:69EAH         LINE#         2227
  C:6A2AH         LINE#         2230
  C:6A32H         LINE#         2231
  C:6A38H         LINE#         2233
  C:6A3DH         LINE#         2234
  -------         ENDPROC       _SHOWMAINMENUFACE
  -------         PROC          _SHOWNUMBERPWINPUTFACE
  X:0248H         SYMBOL        page
  -------         DO            
  X:0249H         SYMBOL        x
  X:024BH         SYMBOL        y
  -------         ENDDO         
  C:D615H         LINE#         2237
  C:D618H         LINE#         2238
  C:D618H         LINE#         2240
  C:D61BH         LINE#         2241
  C:D632H         LINE#         2242
  C:D632H         LINE#         2243
  C:D63EH         LINE#         2244
  C:D64EH         LINE#         2245
  C:D657H         LINE#         2246
BL51 BANKED LINKER/LOCATER V6.22                                                      03/06/2019  08:21:13  PAGE 52


  C:D65EH         LINE#         2247
  C:D69EH         LINE#         2248
  C:D6A6H         LINE#         2249
  C:D6ACH         LINE#         2250
  -------         ENDPROC       _SHOWNUMBERPWINPUTFACE
  -------         PROC          _SHOWNUMBERSETFACE
  X:0248H         SYMBOL        page
  -------         DO            
  X:0249H         SYMBOL        x
  X:024BH         SYMBOL        y
  -------         ENDDO         
  C:AA8FH         LINE#         2255
  C:AA92H         LINE#         2256
  C:AA92H         LINE#         2258
  C:AA95H         LINE#         2261
  C:AAB7H         LINE#         2262
  C:AADCH         LINE#         2263
  C:AB01H         LINE#         2264
  C:AB27H         LINE#         2267
  C:AB4BH         LINE#         2268
  C:AB70H         LINE#         2269
  C:AB96H         LINE#         2270
  C:ABBCH         LINE#         2273
  C:ABC5H         LINE#         2274
  C:ABCCH         LINE#         2275
  C:ABE7H         LINE#         2276
  C:ABE7H         LINE#         2277
  C:ABE7H         LINE#         2278
  C:ABEAH         LINE#         2281
  C:ABF3H         LINE#         2282
  C:ABFAH         LINE#         2283
  C:AC19H         LINE#         2284
  C:AC20H         LINE#         2285
  C:AC20H         LINE#         2286
  C:AC23H         LINE#         2289
  C:AC2DH         LINE#         2290
  C:AC34H         LINE#         2291
  C:AC54H         LINE#         2292
  C:AC5DH         LINE#         2293
  C:AC5DH         LINE#         2294
  C:AC60H         LINE#         2297
  C:AC69H         LINE#         2298
  C:AC70H         LINE#         2299
  C:AC90H         LINE#         2300
  C:AC90H         LINE#         2301
  C:AC90H         LINE#         2302
  C:AC93H         LINE#         2305
  C:AC9CH         LINE#         2306
  C:ACA3H         LINE#         2307
  C:ACC3H         LINE#         2308
  C:ACCBH         LINE#         2309
  C:ACCBH         LINE#         2310
  C:ACCEH         LINE#         2312
  C:ACD6H         LINE#         2313
  C:ACDCH         LINE#         2314
  -------         ENDPROC       _SHOWNUMBERSETFACE
  -------         PROC          _SHOWTIMESET
BL51 BANKED LINKER/LOCATER V6.22                                                      03/06/2019  08:21:13  PAGE 53


  X:0248H         SYMBOL        page
  -------         DO            
  X:0249H         SYMBOL        x
  X:024BH         SYMBOL        y
  -------         ENDDO         
  C:6A3EH         LINE#         2316
  C:6A41H         LINE#         2317
  C:6A41H         LINE#         2319
  C:6A44H         LINE#         2321
  C:6A4DH         LINE#         2322
  C:6A54H         LINE#         2324
  C:6A94H         LINE#         2325
  C:6AD8H         LINE#         2326
  C:6AE4H         LINE#         2327
  C:6AE9H         LINE#         2328
  C:6AF7H         LINE#         2329
  C:6B37H         LINE#         2330
  C:6B45H         LINE#         2331
  C:6B87H         LINE#         2334
  C:6B90H         LINE#         2335
  C:6B9EH         LINE#         2336
  C:6BDEH         LINE#         2337
  C:6C22H         LINE#         2338
  C:6C2EH         LINE#         2339
  C:6C33H         LINE#         2340
  C:6C41H         LINE#         2341
  C:6C81H         LINE#         2344
  C:6C8AH         LINE#         2345
  C:6C98H         LINE#         2346
  C:6CD8H         LINE#         2347
  C:6D1CH         LINE#         2348
  C:6D28H         LINE#         2349
  C:6D2DH         LINE#         2350
  C:6D3BH         LINE#         2351
  C:6D7BH         LINE#         2354
  C:6D84H         LINE#         2355
  C:6D92H         LINE#         2356
  C:6DD2H         LINE#         2357
  C:6E16H         LINE#         2358
  C:6E22H         LINE#         2359
  C:6E27H         LINE#         2360
  C:6E35H         LINE#         2361
  C:6E75H         LINE#         2364
  C:6E7EH         LINE#         2365
  C:6E8CH         LINE#         2366
  C:6ECCH         LINE#         2367
  C:6F10H         LINE#         2368
  C:6F1CH         LINE#         2369
  C:6F21H         LINE#         2370
  C:6F2FH         LINE#         2371
  C:6F6FH         LINE#         2374
  C:6F77H         LINE#         2375
  C:6F7DH         LINE#         2377
  -------         ENDPROC       _SHOWTIMESET
  -------         PROC          _SHOWBEDFJNUMBERSET
  X:0248H         SYMBOL        page
  -------         DO            
BL51 BANKED LINKER/LOCATER V6.22                                                      03/06/2019  08:21:13  PAGE 54


  X:0249H         SYMBOL        x
  X:024BH         SYMBOL        y
  -------         ENDDO         
  C:B36AH         LINE#         2417
  C:B36DH         LINE#         2418
  C:B36DH         LINE#         2420
  C:B370H         LINE#         2421
  C:B37FH         LINE#         2423
  C:B388H         LINE#         2424
  C:B38FH         LINE#         2426
  C:B3CFH         LINE#         2428
  C:B3D8H         LINE#         2429
  C:B3E6H         LINE#         2453
  C:B426H         LINE#         2454
  C:B466H         LINE#         2456
  C:B474H         LINE#         2457
  C:B4B6H         LINE#         2460
  C:B4BFH         LINE#         2461
  C:B4CDH         LINE#         2462
  C:B50DH         LINE#         2463
  C:B54DH         LINE#         2467
  C:B555H         LINE#         2468
  C:B55BH         LINE#         2469
  -------         ENDPROC       _SHOWBEDFJNUMBERSET
  -------         PROC          _SHOWWCDOORFJNUMBERSET
  X:0248H         SYMBOL        page
  -------         DO            
  X:0249H         SYMBOL        x
  X:024BH         SYMBOL        y
  -------         ENDDO         
  C:C09CH         LINE#         2472
  C:C09FH         LINE#         2473
  C:C09FH         LINE#         2475
  C:C0A2H         LINE#         2476
  C:C0B1H         LINE#         2478
  C:C0BAH         LINE#         2479
  C:C0C1H         LINE#         2481
  C:C101H         LINE#         2500
  C:C10AH         LINE#         2501
  C:C115H         LINE#         2502
  C:C123H         LINE#         2503
  C:C163H         LINE#         2504
  C:C1A3H         LINE#         2506
  C:C1B1H         LINE#         2507
  C:C1F3H         LINE#         2510
  C:C1FBH         LINE#         2511
  C:C201H         LINE#         2512
  -------         ENDPROC       _SHOWWCDOORFJNUMBERSET
  -------         PROC          _SHOWMOVEFJNUMBERSET
  X:0248H         SYMBOL        page
  -------         DO            
  X:0249H         SYMBOL        x
  X:024BH         SYMBOL        y
  -------         ENDDO         
  C:A568H         LINE#         2515
  C:A56BH         LINE#         2516
  C:A56BH         LINE#         2518
BL51 BANKED LINKER/LOCATER V6.22                                                      03/06/2019  08:21:13  PAGE 55


  C:A56EH         LINE#         2519
  C:A57DH         LINE#         2520
  C:A583H         LINE#         2521
  C:A587H         LINE#         2522
  C:A58AH         LINE#         2523
  C:A58EH         LINE#         2524
  C:A590H         LINE#         2527
  C:A599H         LINE#         2528
  C:A5A0H         LINE#         2529
  C:A5E0H         LINE#         2532
  C:A5E9H         LINE#         2533
  C:A5F7H         LINE#         2534
  C:A637H         LINE#         2535
  C:A677H         LINE#         2536
  C:A685H         LINE#         2537
  C:A6C7H         LINE#         2539
  C:A6D0H         LINE#         2540
  C:A6DEH         LINE#         2541
  C:A71EH         LINE#         2542
  C:A75EH         LINE#         2544
  C:A767H         LINE#         2545
  C:A775H         LINE#         2546
  C:A7B5H         LINE#         2547
  C:A7F5H         LINE#         2549
  C:A7FDH         LINE#         2550
  C:A803H         LINE#         2551
  -------         ENDPROC       _SHOWMOVEFJNUMBERSET
  -------         PROC          _SHOWADDFJNUMBERSET
  X:0248H         SYMBOL        page
  -------         DO            
  X:0249H         SYMBOL        x
  X:024BH         SYMBOL        y
  -------         ENDDO         
  C:C202H         LINE#         2554
  C:C205H         LINE#         2555
  C:C205H         LINE#         2557
  C:C208H         LINE#         2558
  C:C217H         LINE#         2560
  C:C220H         LINE#         2561
  C:C227H         LINE#         2563
  C:C267H         LINE#         2581
  C:C270H         LINE#         2582
  C:C27BH         LINE#         2583
  C:C289H         LINE#         2584
  C:C2C9H         LINE#         2585
  C:C309H         LINE#         2587
  C:C317H         LINE#         2588
  C:C359H         LINE#         2591
  C:C361H         LINE#         2592
  C:C367H         LINE#         2593
  -------         ENDPROC       _SHOWADDFJNUMBERSET
  -------         PROC          _SHOWSELFNUMBERSET
  X:0248H         SYMBOL        page
  -------         DO            
  X:0249H         SYMBOL        x
  X:024BH         SYMBOL        y
  -------         ENDDO         
BL51 BANKED LINKER/LOCATER V6.22                                                      03/06/2019  08:21:13  PAGE 56


  C:AF23H         LINE#         2598
  C:AF26H         LINE#         2599
  C:AF26H         LINE#         2601
  C:AF29H         LINE#         2603
  C:AF36H         LINE#         2604
  C:AF44H         LINE#         2605
  C:AF4DH         LINE#         2607
  C:AF56H         LINE#         2608
  C:AF5DH         LINE#         2610
  C:AF9DH         LINE#         2612
  C:AFA6H         LINE#         2613
  C:AFB4H         LINE#         2614
  C:AFF4H         LINE#         2616
  C:B034H         LINE#         2617
  C:B042H         LINE#         2618
  C:B084H         LINE#         2622
  C:B091H         LINE#         2623
  C:B09FH         LINE#         2624
  C:B0A8H         LINE#         2626
  C:B0B1H         LINE#         2627
  C:B0BCH         LINE#         2628
  C:B0CAH         LINE#         2629
  C:B10AH         LINE#         2631
  C:B14AH         LINE#         2634
  C:B152H         LINE#         2635
  C:B158H         LINE#         2636
  -------         ENDPROC       _SHOWSELFNUMBERSET
  -------         PROC          _SHOWVOICETIMERSET
  X:0248H         SYMBOL        page
  -------         DO            
  X:0249H         SYMBOL        x
  X:024BH         SYMBOL        y
  -------         ENDDO         
  C:7E65H         LINE#         2639
  C:7E6BH         LINE#         2640
  C:7E6BH         LINE#         2642
  C:7E72H         LINE#         2644
  C:7E7BH         LINE#         2645
  C:7E82H         LINE#         2647
  C:7EC2H         LINE#         2649
  C:7ECBH         LINE#         2650
  C:7ED9H         LINE#         2651
  C:7F19H         LINE#         2653
  C:7F29H         LINE#         2654
  C:7F33H         LINE#         2655
  C:7F75H         LINE#         2657
  C:7F83H         LINE#         2658
  C:7FC5H         LINE#         2660
  C:7FCEH         LINE#         2661
  C:7FDCH         LINE#         2662
  C:801CH         LINE#         2664
  C:802CH         LINE#         2665
  C:8036H         LINE#         2666
  C:8078H         LINE#         2670
  C:8081H         LINE#         2671
  C:808FH         LINE#         2672
  C:80CFH         LINE#         2674
BL51 BANKED LINKER/LOCATER V6.22                                                      03/06/2019  08:21:13  PAGE 57


  C:80D8H         LINE#         2675
  C:80E6H         LINE#         2676
  C:8126H         LINE#         2678
  C:8136H         LINE#         2679
  C:8140H         LINE#         2680
  C:8182H         LINE#         2683
  C:818BH         LINE#         2684
  C:8199H         LINE#         2685
  C:81D9H         LINE#         2687
  C:81E9H         LINE#         2688
  C:81F3H         LINE#         2689
  C:8235H         LINE#         2692
  C:823EH         LINE#         2693
  C:824CH         LINE#         2694
  C:828CH         LINE#         2696
  C:829CH         LINE#         2697
  C:82A6H         LINE#         2698
  C:82E8H         LINE#         2701
  C:82F8H         LINE#         2702
  C:8302H         LINE#         2704
  C:830AH         LINE#         2705
  C:8310H         LINE#         2707
  -------         ENDPROC       _SHOWVOICETIMERSET
  -------         PROC          _SHOWMAXVOLSETFACE
  X:0248H         SYMBOL        page
  -------         DO            
  X:0249H         SYMBOL        x
  X:024BH         SYMBOL        y
  -------         ENDDO         
  C:D14EH         LINE#         2710
  C:D154H         LINE#         2711
  C:D154H         LINE#         2713
  C:D15BH         LINE#         2716
  C:D164H         LINE#         2717
  C:D16BH         LINE#         2719
  C:D1AEH         LINE#         2721
  C:D1B8H         LINE#         2722
  C:D1C0H         LINE#         2724
  C:D202H         LINE#         2726
  C:D20AH         LINE#         2727
  C:D210H         LINE#         2728
  -------         ENDPROC       _SHOWMAXVOLSETFACE
  -------         PROC          _SHOWBACKLIGHTTIMERSET
  X:0248H         SYMBOL        page
  -------         DO            
  X:0249H         SYMBOL        x
  X:024BH         SYMBOL        y
  -------         ENDDO         
  C:9058H         LINE#         2733
  C:905EH         LINE#         2734
  C:905EH         LINE#         2736
  C:9065H         LINE#         2738
  C:906EH         LINE#         2739
  C:9075H         LINE#         2741
  C:90B7H         LINE#         2743
  C:90C0H         LINE#         2744
  C:90CEH         LINE#         2745
BL51 BANKED LINKER/LOCATER V6.22                                                      03/06/2019  08:21:13  PAGE 58


  C:9110H         LINE#         2746
  C:9120H         LINE#         2747
  C:912AH         LINE#         2748
  C:916AH         LINE#         2751
  C:9178H         LINE#         2752
  C:91B9H         LINE#         2754
  C:91C2H         LINE#         2755
  C:91D0H         LINE#         2756
  C:9212H         LINE#         2757
  C:9222H         LINE#         2758
  C:922CH         LINE#         2759
  C:926CH         LINE#         2763
  C:9275H         LINE#         2764
  C:9283H         LINE#         2765
  C:92C5H         LINE#         2767
  C:92CEH         LINE#         2768
  C:92DCH         LINE#         2769
  C:931EH         LINE#         2770
  C:932EH         LINE#         2771
  C:9338H         LINE#         2772
  C:9378H         LINE#         2776
  C:9381H         LINE#         2777
  C:938FH         LINE#         2778
  C:93D1H         LINE#         2779
  C:93E1H         LINE#         2780
  C:93EBH         LINE#         2781
  C:942BH         LINE#         2783
  C:943BH         LINE#         2784
  C:9445H         LINE#         2786
  C:944DH         LINE#         2787
  C:9453H         LINE#         2789
  -------         ENDPROC       _SHOWBACKLIGHTTIMERSET
  -------         PROC          _SHOWSECINFOSET
  X:0248H         SYMBOL        page
  -------         DO            
  X:0249H         SYMBOL        x
  X:024BH         SYMBOL        y
  -------         ENDDO         
  C:4FDCH         LINE#         2792
  C:4FE2H         LINE#         2793
  C:4FE2H         LINE#         2795
  C:4FE9H         LINE#         2797
  C:500CH         LINE#         2800
  C:501CH         LINE#         2801
  C:504CH         LINE#         2803
  C:5059H         LINE#         2804
  C:5085H         LINE#         2806
  C:5095H         LINE#         2807
  C:50B6H         LINE#         2808
  C:50C3H         LINE#         2809
  C:50D1H         LINE#         2810
  C:50DAH         LINE#         2813
  C:50E0H         LINE#         2814
  C:50E0H         LINE#         2815
  C:50FDH         LINE#         2816
  C:50FFH         LINE#         2818
  C:50FFH         LINE#         2819
BL51 BANKED LINKER/LOCATER V6.22                                                      03/06/2019  08:21:13  PAGE 59


  C:5108H         LINE#         2820
  C:5124H         LINE#         2821
  C:5161H         LINE#         2822
  C:5161H         LINE#         2825
  C:5171H         LINE#         2826
  C:519EH         LINE#         2828
  C:51AFH         LINE#         2829
  C:51D6H         LINE#         2830
  C:51E3H         LINE#         2831
  C:51F1H         LINE#         2832
  C:51FAH         LINE#         2835
  C:5200H         LINE#         2836
  C:5200H         LINE#         2837
  C:521DH         LINE#         2838
  C:521FH         LINE#         2840
  C:521FH         LINE#         2841
  C:5228H         LINE#         2842
  C:5244H         LINE#         2843
  C:5281H         LINE#         2844
  C:5281H         LINE#         2847
  C:528EH         LINE#         2848
  C:52A9H         LINE#         2850
  C:52B9H         LINE#         2851
  C:52CFH         LINE#         2852
  C:52DCH         LINE#         2854
  C:52EAH         LINE#         2855
  C:52F3H         LINE#         2857
  C:52F9H         LINE#         2858
  C:52F9H         LINE#         2859
  C:5316H         LINE#         2860
  C:5318H         LINE#         2862
  C:5318H         LINE#         2863
  C:5321H         LINE#         2864
  C:533DH         LINE#         2865
  C:537AH         LINE#         2866
  C:537AH         LINE#         2869
  C:5383H         LINE#         2870
  C:539EH         LINE#         2872
  C:53AEH         LINE#         2873
  C:53D5H         LINE#         2874
  C:53E2H         LINE#         2876
  C:53F0H         LINE#         2877
  C:53F9H         LINE#         2879
  C:53FFH         LINE#         2880
  C:53FFH         LINE#         2881
  C:541CH         LINE#         2882
  C:541EH         LINE#         2884
  C:541EH         LINE#         2885
  C:5427H         LINE#         2886
  C:5443H         LINE#         2887
  C:5480H         LINE#         2888
  C:5480H         LINE#         2891
  C:548AH         LINE#         2892
  C:54A6H         LINE#         2894
  C:54B7H         LINE#         2895
  C:54DEH         LINE#         2896
  C:54EBH         LINE#         2898
BL51 BANKED LINKER/LOCATER V6.22                                                      03/06/2019  08:21:13  PAGE 60


  C:54F9H         LINE#         2899
  C:5502H         LINE#         2901
  C:5508H         LINE#         2902
  C:5508H         LINE#         2903
  C:5525H         LINE#         2904
  C:5527H         LINE#         2906
  C:5527H         LINE#         2907
  C:5530H         LINE#         2908
  C:554CH         LINE#         2909
  C:5589H         LINE#         2910
  C:5589H         LINE#         2913
  C:5596H         LINE#         2914
  C:55B2H         LINE#         2916
  C:55C2H         LINE#         2917
  C:55E3H         LINE#         2918
  C:55F0H         LINE#         2920
  C:55FEH         LINE#         2921
  C:5607H         LINE#         2923
  C:560DH         LINE#         2924
  C:560DH         LINE#         2925
  C:562AH         LINE#         2926
  C:562CH         LINE#         2928
  C:562CH         LINE#         2929
  C:5635H         LINE#         2930
  C:5651H         LINE#         2931
  C:568EH         LINE#         2932
  C:568EH         LINE#         2936
  C:5697H         LINE#         2937
  C:56B3H         LINE#         2939
  C:56C4H         LINE#         2940
  C:56EBH         LINE#         2941
  C:56F8H         LINE#         2943
  C:5706H         LINE#         2944
  C:570FH         LINE#         2947
  C:5715H         LINE#         2948
  C:5715H         LINE#         2949
  C:5732H         LINE#         2950
  C:5734H         LINE#         2952
  C:5734H         LINE#         2953
  C:573DH         LINE#         2954
  C:5759H         LINE#         2955
  C:5796H         LINE#         2956
  C:5796H         LINE#         2959
  C:57A3H         LINE#         2960
  C:57BFH         LINE#         2962
  C:57CFH         LINE#         2963
  C:57F0H         LINE#         2964
  C:57FDH         LINE#         2966
  C:580BH         LINE#         2967
  C:5814H         LINE#         2969
  C:581AH         LINE#         2970
  C:581AH         LINE#         2971
  C:5837H         LINE#         2972
  C:5839H         LINE#         2974
  C:5839H         LINE#         2975
  C:5842H         LINE#         2976
  C:585EH         LINE#         2977
BL51 BANKED LINKER/LOCATER V6.22                                                      03/06/2019  08:21:13  PAGE 61


  C:589BH         LINE#         2978
  C:589BH         LINE#         2981
  C:58A4H         LINE#         2982
  C:58C0H         LINE#         2984
  C:58D1H         LINE#         2985
  C:58F8H         LINE#         2986
  C:5905H         LINE#         2988
  C:5913H         LINE#         2989
  C:591CH         LINE#         2991
  C:5922H         LINE#         2992
  C:5922H         LINE#         2993
  C:593FH         LINE#         2994
  C:5941H         LINE#         2996
  C:5941H         LINE#         2997
  C:594AH         LINE#         2998
  C:5966H         LINE#         2999
  C:59A3H         LINE#         3000
  C:59A3H         LINE#         3004
  C:59B0H         LINE#         3005
  C:59DDH         LINE#         3007
  C:59EDH         LINE#         3008
  C:5A14H         LINE#         3009
  C:5A21H         LINE#         3011
  C:5A2FH         LINE#         3012
  C:5A38H         LINE#         3014
  C:5A3EH         LINE#         3015
  C:5A3EH         LINE#         3016
  C:5A5BH         LINE#         3017
  C:5A5DH         LINE#         3019
  C:5A5DH         LINE#         3020
  C:5A66H         LINE#         3021
  C:5A82H         LINE#         3022
  C:5ABFH         LINE#         3023
  C:5ABFH         LINE#         3028
  C:5AC8H         LINE#         3029
  C:5AE4H         LINE#         3030
  C:5AF5H         LINE#         3031
  C:5B1CH         LINE#         3032
  C:5B29H         LINE#         3034
  C:5B37H         LINE#         3035
  C:5B40H         LINE#         3037
  C:5B46H         LINE#         3038
  C:5B46H         LINE#         3039
  C:5B63H         LINE#         3040
  C:5B65H         LINE#         3042
  C:5B65H         LINE#         3043
  C:5B6EH         LINE#         3044
  C:5B8AH         LINE#         3045
  C:5BC7H         LINE#         3046
  C:5BC7H         LINE#         3048
  C:5BD7H         LINE#         3049
  C:5C17H         LINE#         3052
  C:5C1FH         LINE#         3053
  C:5C25H         LINE#         3054
  C:5C2AH         LINE#         3056
  -------         ENDPROC       _SHOWSECINFOSET
  -------         PROC          _SHOWCALCULATEFACE
BL51 BANKED LINKER/LOCATER V6.22                                                      03/06/2019  08:21:13  PAGE 62


  X:0248H         SYMBOL        page
  -------         DO            
  X:0249H         SYMBOL        x
  X:024BH         SYMBOL        y
  -------         ENDDO         
  C:D744H         LINE#         3059
  C:D74AH         LINE#         3060
  C:D74AH         LINE#         3062
  C:D751H         LINE#         3065
  C:D75AH         LINE#         3066
  C:D761H         LINE#         3068
  C:D7A3H         LINE#         3070
  C:D7C9H         LINE#         3072
  C:D7D1H         LINE#         3073
  C:D7D7H         LINE#         3074
  -------         ENDPROC       _SHOWCALCULATEFACE
  -------         PROC          _SHOWTOUCHADJUST
  X:0344H         SYMBOL        page
  C:E238H         LINE#         3081
  C:E23BH         LINE#         3082
  C:E23BH         LINE#         3083
  C:E23EH         LINE#         3084
  C:E25DH         LINE#         3085
  C:E27CH         LINE#         3086
  C:E284H         LINE#         3087
  C:E28AH         LINE#         3089
  -------         ENDPROC       _SHOWTOUCHADJUST
  -------         PROC          _STORESECINFO
  X:0248H         SYMBOL        page
  -------         DO            
  X:0249H         SYMBOL        x
  X:024BH         SYMBOL        y
  -------         ENDDO         
  C:5C2BH         LINE#         3092
  C:5C31H         LINE#         3093
  C:5C31H         LINE#         3096
  C:5C54H         LINE#         3097
  C:5C5DH         LINE#         3098
  C:5C5DH         LINE#         3099
  C:5C66H         LINE#         3100
  C:5C6DH         LINE#         3101
  C:5C7AH         LINE#         3102
  C:5C88H         LINE#         3103
  C:5C91H         LINE#         3104
  C:5C97H         LINE#         3105
  C:5C97H         LINE#         3106
  C:5CB4H         LINE#         3108
  C:5CB6H         LINE#         3109
  C:5CBFH         LINE#         3110
  C:5CBFH         LINE#         3111
  C:5CCAH         LINE#         3112
  C:5CE7H         LINE#         3114
  C:5CE9H         LINE#         3116
  C:5CE9H         LINE#         3117
  C:5CF4H         LINE#         3118
  C:5D34H         LINE#         3119
  C:5D34H         LINE#         3120
BL51 BANKED LINKER/LOCATER V6.22                                                      03/06/2019  08:21:13  PAGE 63


  C:5D34H         LINE#         3123
  C:5D44H         LINE#         3124
  C:5D6BH         LINE#         3125
  C:5D78H         LINE#         3126
  C:5D81H         LINE#         3127
  C:5D90H         LINE#         3128
  C:5D9FH         LINE#         3130
  C:5DA5H         LINE#         3131
  C:5DA5H         LINE#         3132
  C:5DC2H         LINE#         3133
  C:5DC4H         LINE#         3135
  C:5DC4H         LINE#         3136
  C:5DCDH         LINE#         3137
  C:5DE9H         LINE#         3138
  C:5E26H         LINE#         3139
  C:5E26H         LINE#         3145
  C:5E36H         LINE#         3146
  C:5E4CH         LINE#         3147
  C:5E59H         LINE#         3149
  C:5E62H         LINE#         3150
  C:5E71H         LINE#         3151
  C:5E80H         LINE#         3153
  C:5E86H         LINE#         3154
  C:5E86H         LINE#         3155
  C:5EA3H         LINE#         3156
  C:5EA5H         LINE#         3158
  C:5EA5H         LINE#         3159
  C:5EAEH         LINE#         3160
  C:5ECAH         LINE#         3161
  C:5F07H         LINE#         3162
  C:5F07H         LINE#         3168
  C:5F17H         LINE#         3169
  C:5F3EH         LINE#         3170
  C:5F4BH         LINE#         3172
  C:5F54H         LINE#         3173
  C:5F63H         LINE#         3174
  C:5F72H         LINE#         3176
  C:5F78H         LINE#         3177
  C:5F78H         LINE#         3178
  C:5F95H         LINE#         3179
  C:5F97H         LINE#         3181
  C:5F97H         LINE#         3182
  C:5FA0H         LINE#         3183
  C:5FBCH         LINE#         3184
  C:5FF9H         LINE#         3185
  C:5FF9H         LINE#         3191
  C:600AH         LINE#         3192
  C:6031H         LINE#         3193
  C:603EH         LINE#         3195
  C:6047H         LINE#         3196
  C:6056H         LINE#         3197
  C:6065H         LINE#         3199
  C:606BH         LINE#         3200
  C:606BH         LINE#         3201
  C:6088H         LINE#         3202
  C:608AH         LINE#         3204
  C:608AH         LINE#         3205
BL51 BANKED LINKER/LOCATER V6.22                                                      03/06/2019  08:21:13  PAGE 64


  C:6093H         LINE#         3206
  C:60AFH         LINE#         3207
  C:60ECH         LINE#         3208
  C:60ECH         LINE#         3214
  C:60FCH         LINE#         3215
  C:611DH         LINE#         3216
  C:612AH         LINE#         3218
  C:6133H         LINE#         3219
  C:6142H         LINE#         3220
  C:6151H         LINE#         3222
  C:6157H         LINE#         3223
  C:6157H         LINE#         3224
  C:6174H         LINE#         3225
  C:6176H         LINE#         3227
  C:6176H         LINE#         3228
  C:617FH         LINE#         3229
  C:619BH         LINE#         3230
  C:61D8H         LINE#         3231
  C:61D8H         LINE#         3238
  C:61E9H         LINE#         3239
  C:6210H         LINE#         3240
  C:621DH         LINE#         3242
  C:6226H         LINE#         3243
  C:6235H         LINE#         3244
  C:6244H         LINE#         3246
  C:624AH         LINE#         3247
  C:624AH         LINE#         3248
  C:6267H         LINE#         3249
  C:6269H         LINE#         3251
  C:6269H         LINE#         3252
  C:6272H         LINE#         3253
  C:628EH         LINE#         3254
  C:62CBH         LINE#         3255
  C:62CBH         LINE#         3310
  C:62DBH         LINE#         3311
  C:6302H         LINE#         3312
  C:630FH         LINE#         3314
  C:6318H         LINE#         3315
  C:6327H         LINE#         3316
  C:6336H         LINE#         3318
  C:633CH         LINE#         3319
  C:633CH         LINE#         3320
  C:6359H         LINE#         3321
  C:635BH         LINE#         3323
  C:635BH         LINE#         3324
  C:6364H         LINE#         3325
  C:6380H         LINE#         3326
  C:63BDH         LINE#         3327
  C:63BDH         LINE#         3334
  C:63CEH         LINE#         3335
  C:63F5H         LINE#         3336
  C:6402H         LINE#         3338
  C:640BH         LINE#         3339
  C:641AH         LINE#         3340
  C:6429H         LINE#         3342
  C:642FH         LINE#         3343
  C:642FH         LINE#         3344
BL51 BANKED LINKER/LOCATER V6.22                                                      03/06/2019  08:21:13  PAGE 65


  C:644CH         LINE#         3345
  C:644EH         LINE#         3347
  C:644EH         LINE#         3348
  C:6457H         LINE#         3349
  C:6473H         LINE#         3350
  C:64B0H         LINE#         3351
  C:64B0H         LINE#         3354
  C:64BFH         LINE#         3356
  -------         ENDPROC       _STORESECINFO
  -------         PROC          INITSSD1963
  C:C5E8H         LINE#         3365
  C:C5E8H         LINE#         3366
  C:C5E8H         LINE#         3370
  C:C5EAH         LINE#         3371
  C:C5ECH         LINE#         3372
  C:C5EEH         LINE#         3374
  C:C5F0H         LINE#         3375
  C:C5F7H         LINE#         3376
  C:C5F9H         LINE#         3377
  C:C600H         LINE#         3378
  C:C602H         LINE#         3379
  C:C609H         LINE#         3384
  C:C60EH         LINE#         3385
  C:C613H         LINE#         3386
  C:C618H         LINE#         3387
  C:C61DH         LINE#         3389
  C:C622H         LINE#         3390
  C:C627H         LINE#         3392
  C:C62CH         LINE#         3393
  C:C631H         LINE#         3394
  C:C636H         LINE#         3398
  C:C63BH         LINE#         3402
  C:C640H         LINE#         3403
  C:C645H         LINE#         3404
  C:C64AH         LINE#         3405
  C:C64EH         LINE#         3408
  C:C653H         LINE#         3409
  C:C658H         LINE#         3410
  C:C65DH         LINE#         3411
  C:C662H         LINE#         3412
  C:C667H         LINE#         3413
  C:C66CH         LINE#         3414
  C:C671H         LINE#         3415
  C:C676H         LINE#         3420
  C:C67BH         LINE#         3423
  C:C680H         LINE#         3424
  C:C685H         LINE#         3426
  C:C689H         LINE#         3427
  C:C68EH         LINE#         3428
  C:C693H         LINE#         3429
  C:C697H         LINE#         3430
  C:C69AH         LINE#         3431
  C:C69DH         LINE#         3434
  C:C6A2H         LINE#         3437
  C:C6A7H         LINE#         3438
  C:C6ACH         LINE#         3440
  C:C6B0H         LINE#         3441
BL51 BANKED LINKER/LOCATER V6.22                                                      03/06/2019  08:21:13  PAGE 66


  C:C6B5H         LINE#         3442
  C:C6BAH         LINE#         3443
  C:C6BEH         LINE#         3444
  C:C6C1H         LINE#         3447
  C:C6C6H         LINE#         3449
  C:C6CBH         LINE#         3456
  C:C6D0H         LINE#         3458
  C:C6D5H         LINE#         3486
  C:C6DAH         LINE#         3487
  C:C6DFH         LINE#         3488
  C:C6E2H         LINE#         3489
  C:C6E7H         LINE#         3490
  C:C6ECH         LINE#         3492
  C:C6F7H         LINE#         3495
  C:C6FCH         LINE#         3499
  C:C704H         LINE#         3500
  C:C709H         LINE#         3502
  C:C70CH         LINE#         3503
  C:C70FH         LINE#         3504
  C:C711H         LINE#         3506
  -------         ENDPROC       INITSSD1963
  -------         PROC          DISPMANAGER
  C:E8E6H         LINE#         3525
  C:E8E6H         LINE#         3526
  C:E8E6H         LINE#         3528
  C:E8E9H         LINE#         3529
  C:E8E9H         LINE#         3530
  C:E8ECH         LINE#         3531
  C:E8F3H         LINE#         3532
  C:E8F5H         LINE#         3534
  C:E8FAH         LINE#         3538
  C:E8FFH         LINE#         3539
  C:E905H         LINE#         3542
  C:E905H         LINE#         3543
  C:E905H         LINE#         3544
  C:E908H         LINE#         3545
  C:E90FH         LINE#         3546
  -------         ENDPROC       DISPMANAGER
  -------         ENDMOD        LCD

  -------         MODULE        MAIN
  C:0000H         SYMBOL        _ICE_DUMMY_
  C:EDAFH         PUBLIC        _DispatchMessage
  D:0080H         PUBLIC        P0
  D:0090H         PUBLIC        P1
  D:00A0H         PUBLIC        P2
  D:00B0H         PUBLIC        P3
  D:00C0H         PUBLIC        P4
  D:00C8H         PUBLIC        P5
  B:00A8H.7       PUBLIC        EA
  D:00F9H         PUBLIC        CH
  B:00A8H.5       PUBLIC        EADC
  D:00A8H         PUBLIC        IE
  D:00E9H         PUBLIC        CL
  D:00FBH         PUBLIC        CCAP1H
  B:00D8H.6       PUBLIC        CR
  C:D434H         PUBLIC        Init
BL51 BANKED LINKER/LOCATER V6.22                                                      03/06/2019  08:21:13  PAGE 67


  D:00EBH         PUBLIC        CCAP1L
  D:00DAH         PUBLIC        CCAPM0
  D:00DBH         PUBLIC        CCAPM1
  D:00B8H         PUBLIC        IP
  C:0006H         PUBLIC        Ex0Int
  C:BDB1H         PUBLIC        MainTask
  X:01B9H         PUBLIC        uiIsrTimerCount
  B:0090H.4       PUBLIC        EPH1660_CS
  D:00D9H         PUBLIC        CMOD
  D:00D8H         PUBLIC        CCON
  C:EBFBH         PUBLIC        main
  B:00C0H.4       PUBLIC        ADS7843_CS
  B:00A8H.6       PUBLIC        ELVD
  D:00BBH         PUBLIC        P4SW
  C:EAD9H         PUBLIC        UserTickTimer
  D:0098H         PUBLIC        SCON
  D:0088H         PUBLIC        TCON
  C:0016H         PUBLIC        AdcInt
  B:0090H.0       PUBLIC        SSD1963_CS
  X:01BBH         PUBLIC        stLocalControl
  B:00C0H.5       PUBLIC        GT23L_CS
  D:00E0H         PUBLIC        ACC
  B:00A8H.3       PUBLIC        ET1
  I:0030H         PUBLIC        byMainCmdQ
  B:00A8H.0       PUBLIC        EX0
  C:EBDFH         PUBLIC        _Delayms
  C:001EH         PUBLIC        LvdInt
  D:00C1H         PUBLIC        WDT_CONTR
  C:EED1H         PUBLIC        _Send_Data_Byte
  C:000EH         PUBLIC        TIMER1Int
  B:00C0H.0       PUBLIC        led0
  C:EE02H         PUBLIC        _Send_Data
  C:EEC4H         PUBLIC        _GetMessage
  B:00C0H.1       PUBLIC        SST25VF_CS
  D:00D0H         PUBLIC        PSW
  B:00D8H.1       PUBLIC        CCF1
  -------         PROC          EX0INT
  C:0006H         LINE#         33
  C:0006H         LINE#         35
  C:0008H         LINE#         36
  -------         ENDPROC       EX0INT
  -------         PROC          TIMER1INT
  C:000EH         LINE#         38
  C:000EH         LINE#         40
  C:0010H         LINE#         41
  -------         ENDPROC       TIMER1INT
  -------         PROC          ADCINT
  C:0016H         LINE#         44
  C:0016H         LINE#         46
  C:0018H         LINE#         47
  -------         ENDPROC       ADCINT
  -------         PROC          LVDINT
  C:001EH         LINE#         49
  C:001EH         LINE#         51
  C:0020H         LINE#         52
  -------         ENDPROC       LVDINT
  -------         PROC          USERTICKTIMER
BL51 BANKED LINKER/LOCATER V6.22                                                      03/06/2019  08:21:13  PAGE 68


  C:EAD9H         LINE#         63
  C:EAD9H         LINE#         64
  C:EAD9H         LINE#         69
  C:EAE7H         LINE#         70
  C:EAEDH         LINE#         71
  C:EAF0H         LINE#         72
  C:EAF2H         LINE#         75
  C:EAFAH         LINE#         76
  -------         ENDPROC       USERTICKTIMER
  -------         PROC          _SEND_DATA
  X:0248H         SYMBOL        Databuf
  X:024BH         SYMBOL        l
  C:EE02H         LINE#         79
  C:EE10H         LINE#         80
  C:EE10H         LINE#         95
  -------         ENDPROC       _SEND_DATA
  -------         PROC          _SEND_DATA_BYTE
  X:0243H         SYMBOL        SendData
  C:EED1H         LINE#         98
  C:EED6H         LINE#         99
  C:EED6H         LINE#         107
  -------         ENDPROC       _SEND_DATA_BYTE
  -------         PROC          _DELAYMS
  D:0006H         SYMBOL        ms
  -------         DO            
  D:0004H         SYMBOL        i
  -------         ENDDO         
  C:EBDFH         LINE#         115
  C:EBDFH         LINE#         116
  C:EBDFH         LINE#         118
  C:EBE3H         LINE#         119
  C:EBE3H         LINE#         120
  C:EBF0H         LINE#         121
  C:EBF3H         LINE#         122
  C:EBFAH         LINE#         123
  -------         ENDPROC       _DELAYMS
  -------         PROC          INIT
  C:D434H         LINE#         142
  C:D434H         LINE#         143
  C:D434H         LINE#         144
  C:D437H         LINE#         145
  C:D43AH         LINE#         146
  C:D43CH         LINE#         147
  C:D43EH         LINE#         149
  C:D441H         LINE#         152
  C:D44AH         LINE#         153
  C:D44DH         LINE#         155
  C:D450H         LINE#         158
  C:D452H         LINE#         162
  C:D455H         LINE#         168
  C:D458H         LINE#         172
  C:D45AH         LINE#         173
  C:D45CH         LINE#         174
  C:D45EH         LINE#         175
  C:D460H         LINE#         176
  C:D462H         LINE#         182
  C:D471H         LINE#         184
BL51 BANKED LINKER/LOCATER V6.22                                                      03/06/2019  08:21:13  PAGE 69


  C:D478H         LINE#         188
  C:D47BH         LINE#         191
  C:D47EH         LINE#         195
  C:D481H         LINE#         203
  C:D484H         LINE#         207
  C:D487H         LINE#         212
  C:D48AH         LINE#         216
  C:D48CH         LINE#         217
  C:D493H         LINE#         219
  C:D498H         LINE#         221
  C:D49EH         LINE#         222
  C:D4A0H         LINE#         223
  C:D4A2H         LINE#         224
  C:D4A4H         LINE#         225
  C:D4A6H         LINE#         226
  C:D4ABH         LINE#         228
  C:D4B1H         LINE#         229
  C:D4B4H         LINE#         231
  C:D4D7H         LINE#         232
  -------         ENDPROC       INIT
  -------         PROC          _GETMESSAGE
  D:0007H         SYMBOL        Msg
  C:EEC4H         LINE#         251
  C:EEC4H         LINE#         252
  C:EEC4H         LINE#         253
  -------         ENDPROC       _GETMESSAGE
  -------         PROC          _DISPATCHMESSAGE
  D:0007H         SYMBOL        Msg
  C:EDAFH         LINE#         270
  C:EDAFH         LINE#         271
  C:EDAFH         LINE#         272
  C:EDBAH         LINE#         273
  C:EDBAH         LINE#         274
  C:EDBAH         LINE#         278
  C:EDBAH         LINE#         279
  C:EDBAH         LINE#         280
  C:EDBDH         LINE#         281
  C:EDBDH         LINE#         282
  C:EDBDH         LINE#         283
  C:EDC0H         LINE#         284
  C:EDC0H         LINE#         285
  C:EDC0H         LINE#         286
  -------         ENDPROC       _DISPATCHMESSAGE
  -------         PROC          MAINTASK
  -------         DO            
  D:002FH         SYMBOL        Msg
  -------         ENDDO         
  C:BDB1H         LINE#         302
  C:BDB1H         LINE#         303
  C:BDB1H         LINE#         307
  C:BDB4H         LINE#         309
  C:BDBBH         LINE#         311
  C:BDC7H         LINE#         312
  C:BDD3H         LINE#         314
  C:BDDFH         LINE#         317
  C:BDDFH         LINE#         318
  C:BDDFH         LINE#         319
BL51 BANKED LINKER/LOCATER V6.22                                                      03/06/2019  08:21:13  PAGE 70


  C:BDE2H         LINE#         320
  C:BDE7H         LINE#         321
  C:BDECH         LINE#         322
  C:BDEFH         LINE#         323
  C:BDEFH         LINE#         324
  C:BDF1H         LINE#         325
  C:BDF4H         LINE#         326
  C:BDF4H         LINE#         335
  C:BE1CH         LINE#         336
  C:BE1CH         LINE#         337
  C:BE20H         LINE#         338
  C:BE2FH         LINE#         339
  C:BE42H         LINE#         340
  C:BE52H         LINE#         341
  C:BE65H         LINE#         342
  C:BE75H         LINE#         343
  C:BE88H         LINE#         344
  C:BE98H         LINE#         345
  C:BEABH         LINE#         346
  C:BEBBH         LINE#         347
  C:BECEH         LINE#         348
  C:BEDEH         LINE#         349
  C:BEF1H         LINE#         350
  C:BF01H         LINE#         351
  C:BF14H         LINE#         352
  C:BF19H         LINE#         353
  C:BF1CH         LINE#         354
  C:BF1FH         LINE#         356
  C:BF1FH         LINE#         357
  C:BF28H         LINE#         358
  C:BF28H         LINE#         360
  -------         ENDPROC       MAINTASK
  -------         PROC          MAIN
  C:EBFBH         LINE#         377
  C:EBFBH         LINE#         378
  C:EBFBH         LINE#         379
  C:EBFDH         LINE#         380
  C:EC04H         LINE#         382
  C:EC07H         LINE#         384
  C:EC09H         LINE#         386
  C:EC14H         LINE#         388
  C:EC14H         LINE#         389
  C:EC14H         LINE#         390
  C:EC15H         LINE#         392
  -------         ENDPROC       MAIN
  -------         ENDMOD        MAIN

  -------         MODULE        SINGLEBUS
  C:0000H         SYMBOL        _ICE_DUMMY_
  C:EAFBH         PUBLIC        TimerOutManager
  X:0000H         PUBLIC        byBus0DisableCount
  D:0080H         PUBLIC        P0
  D:00B2H         PUBLIC        P3M0
  D:0090H         PUBLIC        P1
  C:DFFFH         PUBLIC        _ParaCrcCheck
  D:00B1H         PUBLIC        P3M1
  D:00A0H         PUBLIC        P2
BL51 BANKED LINKER/LOCATER V6.22                                                      03/06/2019  08:21:13  PAGE 71


  D:00B0H         PUBLIC        P3
  D:00C0H         PUBLIC        P4
  D:00C8H         PUBLIC        P5
  X:0001H         PUBLIC        VolumnValue
  B:00A8H.7       PUBLIC        EA
  B:0020H.7       PUBLIC        bBusy
  B:0021H.2       PUBLIC        bBus0Enable
  B:0022H.7       PUBLIC        bWaitAck
  B:0023H.4       PUBLIC        bEnCallDeal
  D:00A8H         PUBLIC        IE
  B:0024H.0       PUBLIC        bPWState
  X:0002H         PUBLIC        byBus0RxTail
  B:0024H.4       PUBLIC        bConfusionNoting
  B:00B0H.4       PUBLIC        Bus0SendPin
  B:0027H.0       PUBLIC        bSignflag
  X:0003H         PUBLIC        byBus0TxTail
  C:CDB5H         PUBLIC        _RemoveCallNod
  C:E4E8H         PUBLIC        CalcParaCrc
  D:00DAH         PUBLIC        CCAPM0
  B:0021H.1       PUBLIC        bBus0OnRec
  D:00B8H         PUBLIC        IP
  B:0021H.5       PUBLIC        bBus0OnSendFreq
  B:0023H.2       PUBLIC        bEnHelpDeal
  B:0025H.2       PUBLIC        bEnAllBroad
  B:0022H.2       PUBLIC        bOfficeBroad
  B:00B0H.3       PUBLIC        Bus0RecPin
  X:0004H         PUBLIC        byBus0RecTimeOut
  B:0020H.5       PUBLIC        bDealKeyDown
  B:0020H.0       PUBLIC        bLanding
  D:00D8H         PUBLIC        CCON
  C:EC17H         PUBLIC        Bus0RecInt
  C:E064H         PUBLIC        _ReadParameter
  B:0025H.5       PUBLIC        bEnAutoListen
  C:EB61H         PUBLIC        Bus0Manage
  C:E7EEH         PUBLIC        SingleBusInit
  B:0025H.6       PUBLIC        bEnVoiceNote
  B:0022H.5       PUBLIC        bChannel0Talked
  B:0021H.4       PUBLIC        bBus0OnSendBit
  B:0020H.3       PUBLIC        bChannel1Talked
  B:0020H.4       PUBLIC        bNurseIn
  C:CFA8H         PUBLIC        _AddCallNod
  B:0024H.3       PUBLIC        bServiceNoting
  B:0023H.6       PUBLIC        bEnHandDown
  B:0025H.0       PUBLIC        bEnSickRoomBroad
  B:0026H.2       PUBLIC        bBus0SendFinish
  D:0020H         PUBLIC        byDevState1
  D:0022H         PUBLIC        byDevState2
  D:0098H         PUBLIC        SCON
  B:0026H.1       PUBLIC        bBus0RecBit9
  B:0023H.3       PUBLIC        bEnEmergencyDeal
  D:0024H         PUBLIC        byDevState3
  D:0089H         PUBLIC        TMOD
  D:0088H         PUBLIC        TCON
  C:EC95H         PUBLIC        byNumPW
  C:B55CH         PUBLIC        TimerOutDeal
  C:BA9AH         PUBLIC        _SaveParameter
  B:0025H.3       PUBLIC        bEnSoundNote
BL51 BANKED LINKER/LOCATER V6.22                                                      03/06/2019  08:21:13  PAGE 72


  C:D07FH         PUBLIC        InitParameter
  B:0024H.7       PUBLIC        bCalledRing
  B:0088H.3       PUBLIC        IE1
  B:0026H.0       PUBLIC        bBus0RecFinish
  B:0024H.5       PUBLIC        bMusicPlaying
  D:008EH         PUBLIC        AUXR
  D:0008H         PUBLIC        byBus0SendData
  D:00C7H         PUBLIC        IAP_CONTR
  C:0011H         PUBLIC        SysReset
  D:00E0H         PUBLIC        ACC
  C:E685H         PUBLIC        _AddrCompare
  B:00A8H.1       PUBLIC        ET0
  B:0088H.5       PUBLIC        TF0
  B:0021H.7       PUBLIC        bBus0Error
  D:008CH         PUBLIC        TH0
  B:0088H.2       PUBLIC        IT1
  B:00A8H.2       PUBLIC        EX1
  B:0024H.6       PUBLIC        bVoiceNoting
  D:008AH         PUBLIC        TL0
  D:000FH         PUBLIC        byBus0RecData
  X:0005H         PUBLIC        byBus0SendCount
  B:0025H.1       PUBLIC        bEnOfficeBroad
  B:0023H.5       PUBLIC        bEnMusicplay
  X:0006H         PUBLIC        byBus0RxQ
  B:0020H.6       PUBLIC        bSetKeyDown
  B:0088H.4       PUBLIC        TR0
  X:004DH         PUBLIC        byBus0TxQ
  D:0025H         PUBLIC        byEnable1
  D:00C1H         PUBLIC        WDT_CONTR
  B:0021H.6       PUBLIC        bBus0SendError
  D:0023H         PUBLIC        byEnable2
  B:0022H.0       PUBLIC        bSelfBroad
  B:0025H.7       PUBLIC        bEnHandleDeal
  B:0022H.4       PUBLIC        bChannel0Talk
  B:0023H.0       PUBLIC        bEnInfusionDeal
  B:0020H.2       PUBLIC        bChannel1Talk
  C:E37CH         PUBLIC        Bus0SendDeal
  C:9842H         PUBLIC        Timer0Int
  X:0094H         PUBLIC        byBus0RecCount
  B:0024H.2       PUBLIC        bHelpNoting
  B:0025H.4       PUBLIC        bEnOutRing
  X:0095H         PUBLIC        byBus0SendBuf
  B:0023H.1       PUBLIC        bEnServiceDeal
  B:0022H.1       PUBLIC        bAllBroad
  B:0027H.1       PUBLIC        bSecondDisState
  B:0020H.1       PUBLIC        bIndicatingOther
  C:E859H         PUBLIC        _DirAddrCompare
  B:0026H.4       PUBLIC        bBus0SendBit
  B:0021H.0       PUBLIC        bBus0StartRec
  D:0021H         PUBLIC        byBus0State0
  B:0022H.6       PUBLIC        bWaitListen
  C:D6BAH         PUBLIC        _Bus0OutputData
  X:0096H         PUBLIC        byBus0RecSendCount
  D:0026H         PUBLIC        byBus0State1
  C:004EH         PUBLIC        Bus0RecDeal
  X:0097H         PUBLIC        byBus0RecBuf
  C:D984H         PUBLIC        _Bus0RecData
BL51 BANKED LINKER/LOCATER V6.22                                                      03/06/2019  08:21:13  PAGE 73


  C:EE11H         PUBLIC        _BcdToHex
  B:0021H.3       PUBLIC        bBus0ReqSend
  B:0026H.3       PUBLIC        bBus0Disable
  X:0098H         PUBLIC        byBus0RxHead
  X:0099H         PUBLIC        byBus0TxHead
  B:0022H.3       PUBLIC        bSickRoomBroad
  D:00D0H         PUBLIC        PSW
  C:EE61H         PUBLIC        _MakeCH0TimerOut
  X:009AH         PUBLIC        byBus0SendStopCount
  B:0026H.5       PUBLIC        bBus0RecBit
  B:0024H.1       PUBLIC        bEmergencyNoting
  -------         PROC          SINGLEBUSINIT
  C:E7EEH         LINE#         92
  C:E7EEH         LINE#         93
  C:E7EEH         LINE#         101
  C:E7F1H         LINE#         102
  C:E7F4H         LINE#         109
  C:E7F7H         LINE#         110
  C:E7FAH         LINE#         114
  C:E7FCH         LINE#         115
  C:E7FEH         LINE#         119
  C:E801H         LINE#         120
  C:E804H         LINE#         122
  C:E807H         LINE#         123
  C:E80AH         LINE#         129
  C:E80CH         LINE#         130
  C:E80FH         LINE#         131
  C:E811H         LINE#         132
  C:E813H         LINE#         134
  C:E819H         LINE#         135
  C:E81BH         LINE#         136
  C:E81DH         LINE#         137
  C:E820H         LINE#         138
  C:E820H         LINE#         139
  C:E822H         LINE#         140
  C:E823H         LINE#         142
  C:E823H         LINE#         143
  C:E825H         LINE#         144
  C:E825H         LINE#         145
  -------         ENDPROC       SINGLEBUSINIT
  -------         PROC          BUS0RECINT
  C:EC17H         LINE#         162
  C:EC1FH         LINE#         164
  C:EC21H         LINE#         165
  C:EC23H         LINE#         166
  C:EC25H         LINE#         167
  C:EC2AH         LINE#         168
  -------         ENDPROC       BUS0RECINT
  -------         PROC          TIMER0INT
  C:9842H         LINE#         186
  C:9861H         LINE#         188
  C:9863H         LINE#         189
  C:9866H         LINE#         190
  C:9869H         LINE#         191
  C:986BH         LINE#         193
  C:986FH         LINE#         195
  C:9872H         LINE#         196
BL51 BANKED LINKER/LOCATER V6.22                                                      03/06/2019  08:21:13  PAGE 74


  C:9872H         LINE#         197
  C:9879H         LINE#         198
  C:9883H         LINE#         199
  C:9883H         LINE#         200
  C:9885H         LINE#         201
  C:9886H         LINE#         202
  C:9889H         LINE#         203
  C:9889H         LINE#         204
  C:988FH         LINE#         205
  C:988FH         LINE#         206
  C:9892H         LINE#         207
  C:9894H         LINE#         208
  C:9896H         LINE#         209
  C:9896H         LINE#         210
  C:989CH         LINE#         211
  C:98A0H         LINE#         212
  C:98A0H         LINE#         213
  C:98A3H         LINE#         215
  C:98A3H         LINE#         216
  C:98A5H         LINE#         217
  C:98A5H         LINE#         218
  C:98A5H         LINE#         219
  C:98A8H         LINE#         220
  C:98AEH         LINE#         221
  C:98AEH         LINE#         222
  C:98B5H         LINE#         223
  C:98C0H         LINE#         224
  C:98C0H         LINE#         225
  C:98C4H         LINE#         226
  C:98C7H         LINE#         227
  C:98D1H         LINE#         228
  C:98D1H         LINE#         229
  C:98D3H         LINE#         230
  C:98D6H         LINE#         231
  C:98D6H         LINE#         232
  C:98E5H         LINE#         233
  C:98E5H         LINE#         234
  C:98EAH         LINE#         235
  C:98F1H         LINE#         236
  C:98F3H         LINE#         238
  C:98F3H         LINE#         239
  C:98F9H         LINE#         240
  C:990BH         LINE#         241
  C:990FH         LINE#         242
  C:9918H         LINE#         243
  C:9918H         LINE#         244
  C:991CH         LINE#         245
  C:9922H         LINE#         246
  C:9922H         LINE#         247
  C:992BH         LINE#         248
  C:992BH         LINE#         250
  C:992BH         LINE#         251
  C:992BH         LINE#         252
  C:9930H         LINE#         253
  C:9936H         LINE#         254
  C:9938H         LINE#         255
  C:9938H         LINE#         256
BL51 BANKED LINKER/LOCATER V6.22                                                      03/06/2019  08:21:13  PAGE 75


  C:9938H         LINE#         257
  C:993EH         LINE#         258
  C:9942H         LINE#         259
  C:9944H         LINE#         261
  C:9944H         LINE#         262
  C:9946H         LINE#         263
  C:994CH         LINE#         264
  C:994CH         LINE#         265
  C:994FH         LINE#         266
  C:9951H         LINE#         267
  C:9953H         LINE#         268
  C:9953H         LINE#         269
  C:9958H         LINE#         270
  C:9958H         LINE#         271
  C:995AH         LINE#         272
  C:9964H         LINE#         273
  C:9964H         LINE#         274
  C:9968H         LINE#         275
  C:996AH         LINE#         277
  C:996AH         LINE#         278
  C:9971H         LINE#         279
  C:9974H         LINE#         280
  C:9974H         LINE#         281
  C:9978H         LINE#         282
  C:9978H         LINE#         283
  C:9978H         LINE#         284
  C:9978H         LINE#         285
  C:9978H         LINE#         287
  C:9980H         LINE#         288
  C:9980H         LINE#         289
  C:9983H         LINE#         290
  C:9983H         LINE#         291
  C:9985H         LINE#         292
  C:9987H         LINE#         293
  C:998BH         LINE#         294
  C:998EH         LINE#         295
  C:999CH         LINE#         296
  C:999EH         LINE#         297
  C:99A1H         LINE#         299
  C:99A1H         LINE#         300
  C:99A4H         LINE#         301
  C:99A6H         LINE#         302
  C:99ADH         LINE#         303
  C:99ADH         LINE#         304
  C:99ADH         LINE#         305
  C:99ADH         LINE#         306
  C:99B0H         LINE#         307
  C:99B6H         LINE#         308
  C:99B6H         LINE#         309
  C:99C1H         LINE#         310
  C:99C1H         LINE#         311
  C:99C8H         LINE#         312
  C:99D3H         LINE#         313
  C:99D3H         LINE#         314
  C:99D7H         LINE#         315
  C:99DAH         LINE#         316
  C:99E1H         LINE#         317
BL51 BANKED LINKER/LOCATER V6.22                                                      03/06/2019  08:21:13  PAGE 76


  C:99E1H         LINE#         318
  C:99ECH         LINE#         319
  C:99F0H         LINE#         320
  C:99F2H         LINE#         321
  C:99F5H         LINE#         322
  C:99F5H         LINE#         323
  C:99F7H         LINE#         324
  C:99F9H         LINE#         325
  C:99FBH         LINE#         326
  C:9A05H         LINE#         327
  C:9A05H         LINE#         328
  C:9A07H         LINE#         329
  C:9A0DH         LINE#         330
  C:9A16H         LINE#         331
  C:9A16H         LINE#         332
  C:9A1AH         LINE#         333
  C:9A1DH         LINE#         334
  C:9A23H         LINE#         335
  C:9A26H         LINE#         336
  C:9A2CH         LINE#         337
  C:9A2EH         LINE#         339
  C:9A2EH         LINE#         340
  C:9A34H         LINE#         341
  C:9A36H         LINE#         342
  C:9A36H         LINE#         343
  C:9A3AH         LINE#         344
  C:9A3CH         LINE#         346
  C:9A3CH         LINE#         347
  C:9A44H         LINE#         348
  C:9A44H         LINE#         349
  C:9A46H         LINE#         350
  C:9A48H         LINE#         351
  C:9A4AH         LINE#         353
  C:9A4AH         LINE#         354
  C:9A4CH         LINE#         355
  C:9A4EH         LINE#         356
  C:9A4EH         LINE#         357
  C:9A55H         LINE#         358
  C:9A55H         LINE#         359
  C:9A55H         LINE#         360
  C:9A57H         LINE#         362
  C:9A57H         LINE#         363
  C:9A5AH         LINE#         364
  C:9A61H         LINE#         365
  C:9A63H         LINE#         366
  C:9A65H         LINE#         367
  C:9A6BH         LINE#         368
  C:9A6BH         LINE#         369
  C:9A6BH         LINE#         371
  C:9A71H         LINE#         372
  C:9A71H         LINE#         373
  C:9A77H         LINE#         374
  C:9A77H         LINE#         375
  C:9A7BH         LINE#         376
  C:9A7BH         LINE#         377
  C:9A7DH         LINE#         378
  C:9A7DH         LINE#         379
BL51 BANKED LINKER/LOCATER V6.22                                                      03/06/2019  08:21:13  PAGE 77


  C:9A7DH         LINE#         380
  C:9A80H         LINE#         381
  C:9A80H         LINE#         382
  C:9A82H         LINE#         383
  C:9A85H         LINE#         384
  C:9A85H         LINE#         385
  C:9A87H         LINE#         386
  C:9A8BH         LINE#         387
  C:9A91H         LINE#         388
  C:9A91H         LINE#         389
  C:9A91H         LINE#         390
  C:9A91H         LINE#         392
  C:9A97H         LINE#         393
  C:9A97H         LINE#         394
  C:9A9BH         LINE#         395
  C:9A9BH         LINE#         396
  C:9AA2H         LINE#         397
  C:9AA2H         LINE#         398
  C:9AA2H         LINE#         399
  C:9AA8H         LINE#         400
  C:9AA8H         LINE#         401
  C:9AACH         LINE#         402
  C:9AACH         LINE#         403
  C:9AAEH         LINE#         404
  C:9AAEH         LINE#         405
  C:9AAEH         LINE#         407
  C:9AB7H         LINE#         408
  C:9AB7H         LINE#         409
  C:9ABAH         LINE#         410
  C:9ABAH         LINE#         411
  C:9ABCH         LINE#         412
  C:9ABCH         LINE#         413
  C:9ABFH         LINE#         415
  C:9ABFH         LINE#         416
  C:9AC8H         LINE#         417
  C:9AC8H         LINE#         418
  C:9AF0H         LINE#         419
  C:9AF0H         LINE#         420
  C:9AFDH         LINE#         421
  C:9B10H         LINE#         422
  C:9B1EH         LINE#         423
  C:9B31H         LINE#         424
  C:9B3FH         LINE#         425
  C:9B52H         LINE#         426
  C:9B60H         LINE#         427
  C:9B73H         LINE#         428
  C:9B81H         LINE#         429
  C:9B94H         LINE#         430
  C:9BA2H         LINE#         431
  C:9BB5H         LINE#         432
  C:9BC3H         LINE#         433
  C:9BD6H         LINE#         434
  C:9BD9H         LINE#         435
  C:9BDBH         LINE#         437
  C:9BDBH         LINE#         438
  C:9BE4H         LINE#         439
  C:9BE4H         LINE#         440
BL51 BANKED LINKER/LOCATER V6.22                                                      03/06/2019  08:21:13  PAGE 78


  C:9BE4H         LINE#         441
  C:9BE4H         LINE#         442
  C:9BE4H         LINE#         443
  -------         ENDPROC       TIMER0INT
  C:D6B3H         SYMBOL        L?0714
  C:D6B4H         SYMBOL        L?0715
  C:D6B6H         SYMBOL        L?0716
  -------         PROC          L?0713
  -------         ENDPROC       L?0713
  C:D6B3H         SYMBOL        L?0714
  C:D6B4H         SYMBOL        L?0715
  C:D6B6H         SYMBOL        L?0716
  -------         PROC          _BUS0OUTPUTDATA
  X:0248H         SYMBOL        pbyData
  -------         DO            
  X:024BH         SYMBOL        byTemp
  -------         ENDDO         
  C:D6BAH         LINE#         460
  C:D6C5H         LINE#         461
  C:D6C5H         LINE#         462
  C:D6C9H         LINE#         464
  C:D6CDH         LINE#         465
  C:D6F1H         LINE#         466
  C:D6F1H         LINE#         467
  C:D6F6H         LINE#         468
  C:D6F9H         LINE#         469
  C:D6F9H         LINE#         470
  C:D703H         LINE#         471
  C:D703H         LINE#         472
  C:D727H         LINE#         473
  C:D73AH         LINE#         474
  C:D73CH         LINE#         475
  C:D741H         LINE#         476
  C:D743H         LINE#         477
  -------         ENDPROC       _BUS0OUTPUTDATA
  -------         PROC          _BUS0RECDATA
  X:023FH         SYMBOL        pbyData
  -------         DO            
  X:0242H         SYMBOL        byTemp
  -------         ENDDO         
  C:D984H         LINE#         495
  C:D98FH         LINE#         496
  C:D98FH         LINE#         497
  C:D993H         LINE#         499
  C:D997H         LINE#         500
  C:D9BBH         LINE#         501
  C:D9BBH         LINE#         502
  C:D9C0H         LINE#         503
  C:D9C3H         LINE#         504
  C:D9C3H         LINE#         505
  C:D9CDH         LINE#         506
  C:D9CDH         LINE#         507
  C:D9F1H         LINE#         508
  C:DA04H         LINE#         509
  C:DA06H         LINE#         510
  C:DA0BH         LINE#         511
  C:DA0DH         LINE#         513
BL51 BANKED LINKER/LOCATER V6.22                                                      03/06/2019  08:21:13  PAGE 79


  -------         ENDPROC       _BUS0RECDATA
  -------         PROC          _BCDTOHEX
  D:0007H         SYMBOL        byData
  -------         DO            
  D:0006H         SYMBOL        byRet
  -------         ENDDO         
  C:EE11H         LINE#         530
  C:EE11H         LINE#         531
  C:EE11H         LINE#         534
  C:EE15H         LINE#         535
  C:EE1AH         LINE#         536
  C:EE1DH         LINE#         537
  C:EE1EH         LINE#         538
  C:EE1FH         LINE#         539
  -------         ENDPROC       _BCDTOHEX
  -------         PROC          L?0718
  -------         ENDPROC       L?0718
  -------         PROC          _ADDRCOMPARE
  D:0001H         SYMBOL        pstBusFreq
  C:E685H         LINE#         556
  C:E685H         LINE#         557
  C:E685H         LINE#         558
  C:E696H         LINE#         559
  C:E696H         LINE#         560
  C:E698H         LINE#         561
  C:E698H         LINE#         562
  C:E6A9H         LINE#         563
  C:E6A9H         LINE#         564
  C:E6ABH         LINE#         565
  C:E6ABH         LINE#         566
  C:E6BCH         LINE#         567
  C:E6BCH         LINE#         568
  C:E6BEH         LINE#         569
  C:E6BEH         LINE#         570
  C:E6BFH         LINE#         582
  -------         ENDPROC       _ADDRCOMPARE
  -------         PROC          _DIRADDRCOMPARE
  D:0001H         SYMBOL        pstBusFreq
  C:E859H         LINE#         598
  C:E859H         LINE#         599
  C:E859H         LINE#         600
  C:E867H         LINE#         601
  C:E867H         LINE#         602
  C:E869H         LINE#         603
  C:E869H         LINE#         604
  C:E877H         LINE#         605
  C:E877H         LINE#         606
  C:E879H         LINE#         607
  C:E879H         LINE#         608
  C:E887H         LINE#         609
  C:E887H         LINE#         610
  C:E889H         LINE#         611
  C:E889H         LINE#         612
  C:E88AH         LINE#         613
  -------         ENDPROC       _DIRADDRCOMPARE
  -------         PROC          _MAKECH0TIMEROUT
  D:0007H         SYMBOL        byTimerOut
BL51 BANKED LINKER/LOCATER V6.22                                                      03/06/2019  08:21:13  PAGE 80


  D:0005H         SYMBOL        byTimerOutCount
  C:EE61H         LINE#         629
  C:EE61H         LINE#         630
  C:EE61H         LINE#         631
  C:EE66H         LINE#         632
  C:EE68H         LINE#         633
  C:EE6BH         LINE#         634
  -------         ENDPROC       _MAKECH0TIMEROUT
  -------         PROC          _ADDCALLNOD
  X:0248H         SYMBOL        pstBusFreq
  -------         DO            
  D:0007H         SYMBOL        i
  -------         ENDDO         
  C:CFA8H         LINE#         653
  C:CFB3H         LINE#         654
  C:CFB3H         LINE#         656
  C:CFB6H         LINE#         657
  C:CFBCH         LINE#         658
  C:CFBCH         LINE#         659
  C:CFC0H         LINE#         660
  C:CFC0H         LINE#         661
  C:CFC3H         LINE#         662
  C:CFC3H         LINE#         664
  C:CFC3H         LINE#         665
  C:CFCFH         LINE#         666
  C:CFCFH         LINE#         667
  C:D03BH         LINE#         671
  C:D03BH         LINE#         672
  C:D03EH         LINE#         673
  C:D048H         LINE#         674
  C:D048H         LINE#         675
  C:D04DH         LINE#         676
  C:D04DH         LINE#         678
  C:D070H         LINE#         679
  C:D076H         LINE#         680
  C:D079H         LINE#         681
  C:D079H         LINE#         682
  C:D07CH         LINE#         684
  C:D07CH         LINE#         685
  C:D07EH         LINE#         686
  C:D07EH         LINE#         688
  -------         ENDPROC       _ADDCALLNOD
  -------         PROC          L?0717
  -------         ENDPROC       L?0717
  -------         PROC          _REMOVECALLNOD
  D:0001H         SYMBOL        pstBusFreq
  -------         DO            
  X:0248H         SYMBOL        i
  -------         ENDDO         
  C:CDB5H         LINE#         704
  C:CDB5H         LINE#         705
  C:CDB5H         LINE#         708
  C:CDB8H         LINE#         709
  C:CDBEH         LINE#         710
  C:CDBFH         LINE#         712
  C:CDBFH         LINE#         714
  C:CDBFH         LINE#         715
BL51 BANKED LINKER/LOCATER V6.22                                                      03/06/2019  08:21:13  PAGE 81


  C:CDD2H         LINE#         716
  C:CDD2H         LINE#         717
  C:CE3CH         LINE#         721
  C:CE3CH         LINE#         722
  C:CE44H         LINE#         723
  C:CE52H         LINE#         724
  C:CE53H         LINE#         726
  C:CE53H         LINE#         728
  C:CE53H         LINE#         729
  C:CE58H         LINE#         730
  C:CE5EH         LINE#         731
  C:CE65H         LINE#         732
  C:CE65H         LINE#         733
  C:CE93H         LINE#         734
  C:CE93H         LINE#         735
  C:CEB6H         LINE#         736
  C:CEB6H         LINE#         737
  C:CEB6H         LINE#         738
  -------         ENDPROC       _REMOVECALLNOD
  -------         PROC          SYSRESET
  C:0011H         LINE#         758
  C:0011H         LINE#         759
  C:0011H         LINE#         761
  -------         ENDPROC       SYSRESET
  -------         PROC          _PARACRCCHECK
  X:0245H         SYMBOL        addr
  -------         DO            
  X:0247H         SYMBOL        crcResult
  X:0248H         SYMBOL        crcData
  X:0249H         SYMBOL        i
  D:0007H         SYMBOL        paraData
  -------         ENDDO         
  C:DFFFH         LINE#         763
  C:E007H         LINE#         764
  C:E007H         LINE#         765
  C:E00AH         LINE#         766
  C:E00CH         LINE#         769
  C:E011H         LINE#         770
  C:E016H         LINE#         771
  C:E016H         LINE#         772
  C:E021H         LINE#         773
  C:E027H         LINE#         774
  C:E035H         LINE#         775
  C:E041H         LINE#         776
  C:E051H         LINE#         777
  C:E054H         LINE#         779
  C:E061H         LINE#         780
  C:E063H         LINE#         781
  -------         ENDPROC       _PARACRCCHECK
  -------         PROC          CALCPARACRC
  -------         DO            
  X:0252H         SYMBOL        crcResult
  D:0007H         SYMBOL        i
  X:0253H         SYMBOL        addr
  -------         ENDDO         
  C:E4E8H         LINE#         785
  C:E4E8H         LINE#         786
BL51 BANKED LINKER/LOCATER V6.22                                                      03/06/2019  08:21:13  PAGE 82


  C:E4E8H         LINE#         787
  C:E4EDH         LINE#         789
  C:E4FAH         LINE#         790
  C:E4FFH         LINE#         791
  C:E501H         LINE#         792
  C:E501H         LINE#         793
  C:E516H         LINE#         794
  C:E520H         LINE#         795
  C:E525H         LINE#         796
  C:E528H         LINE#         797
  C:E52DH         LINE#         798
  -------         ENDPROC       CALCPARACRC
  -------         PROC          _SAVEPARAMETER
  X:0248H         SYMBOL        addr
  -------         DO            
  X:024AH         SYMBOL        i
  X:024BH         SYMBOL        addr_temp
  X:024DH         SYMBOL        pbyData
  X:0250H         SYMBOL        readtimes
  X:0251H         SYMBOL        writetimes
  -------         ENDDO         
  C:BA9AH         LINE#         821
  C:BAA2H         LINE#         822
  C:BAA2H         LINE#         824
  C:BAAAH         LINE#         829
  C:BAB2H         LINE#         830
  C:BAB5H         LINE#         831
  C:BABBH         LINE#         833
  C:BABBH         LINE#         834
  C:BAC0H         LINE#         835
  C:BACBH         LINE#         838
  C:BAD0H         LINE#         839
  C:BADFH         LINE#         840
  C:BAEDH         LINE#         841
  C:BAF2H         LINE#         842
  C:BAF2H         LINE#         843
  C:BB0CH         LINE#         844
  C:BB16H         LINE#         845
  C:BB24H         LINE#         846
  C:BB30H         LINE#         849
  C:BB3EH         LINE#         850
  C:BB43H         LINE#         851
  C:BB43H         LINE#         852
  C:BB5DH         LINE#         853
  C:BB67H         LINE#         854
  C:BB75H         LINE#         855
  C:BB81H         LINE#         858
  C:BB86H         LINE#         859
  C:BB8CH         LINE#         861
  C:BB8CH         LINE#         862
  C:BB8FH         LINE#         863
  C:BB9DH         LINE#         864
  C:BBACH         LINE#         867
  C:BBB8H         LINE#         868
  C:BBB8H         LINE#         869
  C:BBD4H         LINE#         871
  C:BBDEH         LINE#         872
BL51 BANKED LINKER/LOCATER V6.22                                                      03/06/2019  08:21:13  PAGE 83


  C:BBECH         LINE#         873
  C:BBF2H         LINE#         874
  C:BC04H         LINE#         875
  C:BC06H         LINE#         877
  C:BC0FH         LINE#         878
  C:BC0FH         LINE#         879
  C:BC0FH         LINE#         880
  C:BC0FH         LINE#         882
  C:BC1AH         LINE#         884
  C:BC20H         LINE#         885
  C:BC20H         LINE#         886
  C:BC20H         LINE#         887
  C:BC20H         LINE#         888
  C:BC2BH         LINE#         891
  -------         ENDPROC       _SAVEPARAMETER
  -------         PROC          _READPARAMETER
  X:0245H         SYMBOL        addr
  -------         DO            
  X:0247H         SYMBOL        i
  X:0248H         SYMBOL        pbyData
  -------         ENDDO         
  C:E064H         LINE#         910
  C:E06CH         LINE#         911
  C:E06CH         LINE#         912
  C:E06FH         LINE#         913
  C:E07CH         LINE#         915
  C:E081H         LINE#         916
  C:E086H         LINE#         917
  C:E086H         LINE#         918
  C:E0A0H         LINE#         919
  C:E0AAH         LINE#         920
  C:E0B8H         LINE#         921
  C:E0C4H         LINE#         922
  -------         ENDPROC       _READPARAMETER
  -------         PROC          INITPARAMETER
  -------         DO            
  X:0243H         SYMBOL        flagData
  X:0244H         SYMBOL        readtimes
  C:D085H         SYMBOL        CheckIapSec0
  C:D0BEH         SYMBOL        CheckIapSec1
  C:D106H         SYMBOL        UseInitValue
  -------         ENDDO         
  C:D07FH         LINE#         940
  C:D07FH         LINE#         941
  C:D07FH         LINE#         943
  C:D085H         LINE#         944
  C:D085H         LINE#         947
  C:D085H         LINE#         949
  C:D090H         LINE#         952
  C:D098H         LINE#         955
  C:D09EH         LINE#         956
  C:D09EH         LINE#         958
  C:D0A3H         LINE#         959
  C:D0AEH         LINE#         960
  C:D0B1H         LINE#         962
  C:D0B8H         LINE#         963
  C:D0B8H         LINE#         964
BL51 BANKED LINKER/LOCATER V6.22                                                      03/06/2019  08:21:13  PAGE 84


  C:D0BEH         LINE#         966
  C:D0BEH         LINE#         967
  C:D0BEH         LINE#         968
  C:D0BEH         LINE#         971
  C:D0BEH         LINE#         972
  C:D0BEH         LINE#         973
  C:D0C4H         LINE#         975
  C:D0C4H         LINE#         976
  C:D0D0H         LINE#         978
  C:D0D8H         LINE#         981
  C:D0DEH         LINE#         982
  C:D0DEH         LINE#         983
  C:D0E3H         LINE#         984
  C:D0EFH         LINE#         985
  C:D0F2H         LINE#         987
  C:D0F9H         LINE#         988
  C:D0F9H         LINE#         989
  C:D100H         LINE#         990
  C:D106H         LINE#         992
  C:D106H         LINE#         993
  C:D106H         LINE#         994
  C:D106H         LINE#         996
  C:D106H         LINE#         997
  C:D106H         LINE#         998
  C:D10CH         LINE#         999
  C:D110H         LINE#         1000
  C:D114H         LINE#         1001
  C:D118H         LINE#         1002
  C:D11CH         LINE#         1003
  C:D11EH         LINE#         1004
  C:D120H         LINE#         1005
  C:D124H         LINE#         1006
  C:D127H         LINE#         1007
  C:D12BH         LINE#         1008
  C:D12FH         LINE#         1010
  C:D133H         LINE#         1011
  C:D137H         LINE#         1013
  C:D13EH         LINE#         1014
  C:D142H         LINE#         1016
  C:D14AH         LINE#         1018
  C:D14AH         LINE#         1019
  C:D14AH         LINE#         1020
  C:D14DH         LINE#         1021
  -------         ENDPROC       INITPARAMETER
  -------         PROC          BUS0RECDEAL
  -------         DO            
  X:0243H         SYMBOL        x
  X:0245H         SYMBOL        y
  -------         DO            
  X:0247H         SYMBOL        i
  X:0247H         SYMBOL        i
  -------         ENDDO         
  -------         DO            
  X:0247H         SYMBOL        i
  -------         ENDDO         
  -------         ENDDO         
  C:004EH         LINE#         1039
BL51 BANKED LINKER/LOCATER V6.22                                                      03/06/2019  08:21:13  PAGE 85


  C:004EH         LINE#         1040
  C:004EH         LINE#         1060
  C:0059H         LINE#         1066
  C:0067H         LINE#         1067
  C:0067H         LINE#         1069
  C:0067H         LINE#         1070
  C:00DBH         LINE#         1071
  C:00DBH         LINE#         1072
  C:00DBH         LINE#         1073
  C:00E1H         LINE#         1074
  C:00E1H         LINE#         1075
  C:00E3H         LINE#         1076
  C:00E9H         LINE#         1077
  C:00F1H         LINE#         1078
  C:00F9H         LINE#         1079
  C:0101H         LINE#         1080
  C:0102H         LINE#         1081
  C:0102H         LINE#         1082
  C:0105H         LINE#         1083
  C:0105H         LINE#         1084
  C:0113H         LINE#         1085
  C:0113H         LINE#         1086
  C:011BH         LINE#         1087
  C:0123H         LINE#         1088
  C:012BH         LINE#         1089
  C:012FH         LINE#         1090
  C:012FH         LINE#         1091
  C:012FH         LINE#         1092
  C:0132H         LINE#         1094
  C:0132H         LINE#         1095
  C:013CH         LINE#         1096
  C:0146H         LINE#         1097
  C:0150H         LINE#         1098
  C:015AH         LINE#         1099
  C:0164H         LINE#         1100
  C:016CH         LINE#         1103
  C:018FH         LINE#         1104
  C:01B4H         LINE#         1106
  C:01DAH         LINE#         1107
  C:01FFH         LINE#         1109
  C:0225H         LINE#         1110
  C:024AH         LINE#         1112
  C:0271H         LINE#         1113
  C:0297H         LINE#         1115
  C:02BEH         LINE#         1116
  C:02E4H         LINE#         1119
  C:02EFH         LINE#         1120
  C:02F2H         LINE#         1122
  C:02F2H         LINE#         1123
  C:02FFH         LINE#         1124
  C:02FFH         LINE#         1125
  C:0302H         LINE#         1126
  C:0302H         LINE#         1127
  C:0302H         LINE#         1128
  C:0302H         LINE#         1129
  C:0326H         LINE#         1132
  C:0326H         LINE#         1133
BL51 BANKED LINKER/LOCATER V6.22                                                      03/06/2019  08:21:13  PAGE 86


  C:0330H         LINE#         1134
  C:0332H         LINE#         1136
  C:0332H         LINE#         1137
  C:0345H         LINE#         1138
  C:0345H         LINE#         1139
  C:0345H         LINE#         1152
  C:0345H         LINE#         1153
  C:0345H         LINE#         1154
  C:0345H         LINE#         1155
  C:0345H         LINE#         1156
  C:034DH         LINE#         1157
  C:0355H         LINE#         1158
  C:035DH         LINE#         1159
  C:0362H         LINE#         1160
  C:036BH         LINE#         1161
  C:0370H         LINE#         1162
  C:0370H         LINE#         1164
  C:0370H         LINE#         1165
  C:037BH         LINE#         1166
  C:037BH         LINE#         1167
  C:0384H         LINE#         1168
  C:0384H         LINE#         1169
  C:0389H         LINE#         1170
  C:0389H         LINE#         1171
  C:0389H         LINE#         1172
  C:0389H         LINE#         1174
  C:0389H         LINE#         1176
  C:03A8H         LINE#         1177
  C:03B1H         LINE#         1178
  C:03B1H         LINE#         1179
  C:03B1H         LINE#         1180
  C:03B1H         LINE#         1181
  C:03B1H         LINE#         1182
  C:03B4H         LINE#         1183
  C:03B4H         LINE#         1184
  C:03B4H         LINE#         1185
  C:03B4H         LINE#         1186
  C:03B4H         LINE#         1187
  C:03BAH         LINE#         1188
  C:03BDH         LINE#         1190
  C:03C3H         LINE#         1191
  C:03C3H         LINE#         1192
  C:03C3H         LINE#         1193
  C:03C5H         LINE#         1201
  C:03C5H         LINE#         1202
  C:03C5H         LINE#         1203
  C:03C5H         LINE#         1204
  C:03C5H         LINE#         1205
  C:03CBH         LINE#         1206
  C:03CEH         LINE#         1207
  C:03F5H         LINE#         1210
  C:03F5H         LINE#         1211
  C:0400H         LINE#         1212
  C:0400H         LINE#         1213
  C:0406H         LINE#         1214
  C:0406H         LINE#         1215
  C:040BH         LINE#         1216
BL51 BANKED LINKER/LOCATER V6.22                                                      03/06/2019  08:21:13  PAGE 87


  C:040BH         LINE#         1218
  C:040BH         LINE#         1219
  C:040BH         LINE#         1220
  C:040BH         LINE#         1221
  C:040BH         LINE#         1222
  C:040EH         LINE#         1223
  C:040EH         LINE#         1224
  C:040EH         LINE#         1226
  C:040EH         LINE#         1230
  C:040EH         LINE#         1231
  C:0416H         LINE#         1232
  C:0416H         LINE#         1233
  C:041FH         LINE#         1234
  C:041FH         LINE#         1235
  C:041FH         LINE#         1237
  C:041FH         LINE#         1238
  C:0427H         LINE#         1239
  C:0427H         LINE#         1240
  C:042BH         LINE#         1242
  C:042EH         LINE#         1243
  C:0430H         LINE#         1244
  C:0432H         LINE#         1245
  C:0434H         LINE#         1246
  C:0437H         LINE#         1247
  C:0437H         LINE#         1248
  C:0438H         LINE#         1251
  C:0438H         LINE#         1253
  C:0457H         LINE#         1254
  C:0479H         LINE#         1255
  C:047EH         LINE#         1256
  C:0484H         LINE#         1257
  C:0484H         LINE#         1258
  C:0487H         LINE#         1260
  C:0487H         LINE#         1261
  C:04BFH         LINE#         1262
  C:04BFH         LINE#         1263
  C:04BFH         LINE#         1264
  C:04F8H         LINE#         1265
  C:04F8H         LINE#         1266
  C:04F8H         LINE#         1267
  C:0507H         LINE#         1268
  C:050DH         LINE#         1269
  C:0514H         LINE#         1270
  C:051BH         LINE#         1271
  C:0520H         LINE#         1272
  C:0520H         LINE#         1273
  C:0520H         LINE#         1274
  C:0525H         LINE#         1276
  C:0525H         LINE#         1277
  C:0525H         LINE#         1278
  C:052BH         LINE#         1279
  C:0531H         LINE#         1280
  C:0534H         LINE#         1281
  C:0534H         LINE#         1282
  C:053AH         LINE#         1283
  C:0540H         LINE#         1284
  C:0543H         LINE#         1285
BL51 BANKED LINKER/LOCATER V6.22                                                      03/06/2019  08:21:13  PAGE 88


  C:0543H         LINE#         1286
  C:0552H         LINE#         1287
  C:0557H         LINE#         1288
  C:055DH         LINE#         1289
  C:0564H         LINE#         1290
  C:0569H         LINE#         1291
  C:056EH         LINE#         1292
  C:056EH         LINE#         1294
  C:056EH         LINE#         1295
  C:057DH         LINE#         1297
  C:0587H         LINE#         1298
  C:058EH         LINE#         1299
  C:0593H         LINE#         1300
  C:0595H         LINE#         1301
  C:0597H         LINE#         1302
  C:059CH         LINE#         1303
  C:059CH         LINE#         1306
  C:059CH         LINE#         1310
  C:05ABH         LINE#         1311
  C:05B1H         LINE#         1312
  C:05B7H         LINE#         1313
  C:05BEH         LINE#         1314
  C:05C3H         LINE#         1315
  C:05C3H         LINE#         1317
  C:05C3H         LINE#         1318
  C:05C3H         LINE#         1319
  C:05C3H         LINE#         1320
  C:05C3H         LINE#         1321
  C:05C8H         LINE#         1322
  C:05CEH         LINE#         1323
  C:05E1H         LINE#         1324
  C:05F4H         LINE#         1325
  C:05F9H         LINE#         1326
  C:05FCH         LINE#         1327
  C:05FCH         LINE#         1328
  C:05FFH         LINE#         1329
  C:05FFH         LINE#         1330
  C:05FFH         LINE#         1332
  C:05FFH         LINE#         1333
  C:05FFH         LINE#         1334
  C:05FFH         LINE#         1335
  C:0608H         LINE#         1336
  C:0608H         LINE#         1337
  C:060DH         LINE#         1338
  C:061EH         LINE#         1339
  C:061EH         LINE#         1340
  C:061EH         LINE#         1341
  C:063AH         LINE#         1343
  C:0644H         LINE#         1344
  C:064CH         LINE#         1345
  C:067EH         LINE#         1346
  C:0681H         LINE#         1347
  C:0689H         LINE#         1348
  C:0689H         LINE#         1349
  C:068DH         LINE#         1350
  C:0697H         LINE#         1351
  C:0697H         LINE#         1352
BL51 BANKED LINKER/LOCATER V6.22                                                      03/06/2019  08:21:13  PAGE 89


  C:06ACH         LINE#         1353
  C:06B4H         LINE#         1354
  C:06BDH         LINE#         1355
  C:06BDH         LINE#         1356
  C:06BDH         LINE#         1357
  C:06BDH         LINE#         1358
  C:06C0H         LINE#         1359
  C:06CBH         LINE#         1360
  C:06CBH         LINE#         1361
  C:06D0H         LINE#         1362
  C:06D0H         LINE#         1363
  C:06D0H         LINE#         1364
  C:06D3H         LINE#         1366
  C:06D3H         LINE#         1367
  C:06F8H         LINE#         1368
  C:06F8H         LINE#         1369
  C:06F8H         LINE#         1370
  C:0707H         LINE#         1371
  C:070DH         LINE#         1373
  C:0714H         LINE#         1374
  C:071BH         LINE#         1375
  C:0720H         LINE#         1376
  C:0720H         LINE#         1378
  C:0720H         LINE#         1379
  C:072FH         LINE#         1381
  C:0735H         LINE#         1382
  C:073CH         LINE#         1383
  C:0743H         LINE#         1384
  C:0748H         LINE#         1385
  C:0748H         LINE#         1387
  C:0748H         LINE#         1388
  C:0757H         LINE#         1390
  C:075DH         LINE#         1391
  C:0764H         LINE#         1392
  C:076BH         LINE#         1393
  C:0770H         LINE#         1394
  C:0770H         LINE#         1396
  C:0770H         LINE#         1397
  C:077FH         LINE#         1399
  C:0785H         LINE#         1400
  C:078CH         LINE#         1401
  C:0793H         LINE#         1402
  C:0798H         LINE#         1403
  C:0798H         LINE#         1405
  C:0798H         LINE#         1406
  C:07A7H         LINE#         1408
  C:07ADH         LINE#         1409
  C:07B4H         LINE#         1410
  C:07BBH         LINE#         1411
  C:07C0H         LINE#         1412
  C:07C0H         LINE#         1414
  C:07C0H         LINE#         1415
  C:07C5H         LINE#         1416
  C:07C5H         LINE#         1417
  C:07C8H         LINE#         1418
  C:07C8H         LINE#         1419
  C:07C8H         LINE#         1421
BL51 BANKED LINKER/LOCATER V6.22                                                      03/06/2019  08:21:13  PAGE 90


  C:07C8H         LINE#         1422
  C:07ECH         LINE#         1423
  C:07ECH         LINE#         1424
  C:07ECH         LINE#         1425
  C:07F5H         LINE#         1426
  C:07F5H         LINE#         1427
  C:07FDH         LINE#         1428
  C:0805H         LINE#         1430
  C:0814H         LINE#         1431
  C:0823H         LINE#         1432
  C:083CH         LINE#         1433
  C:083FH         LINE#         1434
  C:084AH         LINE#         1435
  C:084AH         LINE#         1436
  C:0859H         LINE#         1437
  C:0868H         LINE#         1438
  C:0876H         LINE#         1439
  C:08B0H         LINE#         1440
  C:08F0H         LINE#         1441
  C:08F6H         LINE#         1442
  C:08FDH         LINE#         1443
  C:0904H         LINE#         1444
  C:0918H         LINE#         1445
  C:091EH         LINE#         1446
  C:091EH         LINE#         1447
  C:091EH         LINE#         1448
  C:0921H         LINE#         1449
  C:0921H         LINE#         1450
  C:092AH         LINE#         1451
  C:092AH         LINE#         1452
  C:0932H         LINE#         1453
  C:093AH         LINE#         1455
  C:0949H         LINE#         1456
  C:0958H         LINE#         1457
  C:0971H         LINE#         1458
  C:0974H         LINE#         1459
  C:097FH         LINE#         1460
  C:097FH         LINE#         1461
  C:09DAH         LINE#         1462
  C:09DAH         LINE#         1463
  C:09E9H         LINE#         1464
  C:09F8H         LINE#         1465
  C:0A06H         LINE#         1466
  C:0A40H         LINE#         1467
  C:0A80H         LINE#         1468
  C:0A86H         LINE#         1469
  C:0A8DH         LINE#         1470
  C:0A94H         LINE#         1471
  C:0AA8H         LINE#         1472
  C:0AAEH         LINE#         1473
  C:0AAEH         LINE#         1475
  C:0AAEH         LINE#         1476
  C:0AAEH         LINE#         1477
  C:0AB1H         LINE#         1478
  C:0AB1H         LINE#         1479
  C:0ABAH         LINE#         1480
  C:0ABAH         LINE#         1481
BL51 BANKED LINKER/LOCATER V6.22                                                      03/06/2019  08:21:13  PAGE 91


  C:0AC2H         LINE#         1482
  C:0ACAH         LINE#         1484
  C:0AD9H         LINE#         1485
  C:0AE8H         LINE#         1486
  C:0B01H         LINE#         1487
  C:0B04H         LINE#         1488
  C:0B0FH         LINE#         1489
  C:0B0FH         LINE#         1490
  C:0B6AH         LINE#         1491
  C:0B6AH         LINE#         1492
  C:0B79H         LINE#         1493
  C:0B88H         LINE#         1494
  C:0B96H         LINE#         1495
  C:0BD0H         LINE#         1496
  C:0C10H         LINE#         1497
  C:0C16H         LINE#         1498
  C:0C1DH         LINE#         1499
  C:0C24H         LINE#         1500
  C:0C38H         LINE#         1501
  C:0C3EH         LINE#         1502
  C:0C3EH         LINE#         1503
  C:0C3EH         LINE#         1504
  C:0C3EH         LINE#         1505
  C:0C41H         LINE#         1506
  C:0C41H         LINE#         1507
  C:0C4AH         LINE#         1508
  C:0C4AH         LINE#         1509
  C:0C52H         LINE#         1510
  C:0C5AH         LINE#         1512
  C:0C69H         LINE#         1513
  C:0C78H         LINE#         1514
  C:0C91H         LINE#         1515
  C:0C94H         LINE#         1516
  C:0C9FH         LINE#         1517
  C:0C9FH         LINE#         1518
  C:0CD1H         LINE#         1519
  C:0CD1H         LINE#         1520
  C:0CE0H         LINE#         1521
  C:0CEFH         LINE#         1522
  C:0CFDH         LINE#         1523
  C:0D37H         LINE#         1524
  C:0D77H         LINE#         1525
  C:0D7DH         LINE#         1526
  C:0D84H         LINE#         1527
  C:0D8BH         LINE#         1528
  C:0D9FH         LINE#         1529
  C:0DA6H         LINE#         1530
  C:0DE2H         LINE#         1531
  C:0DE2H         LINE#         1532
  C:0DE2H         LINE#         1533
  C:0DE5H         LINE#         1534
  C:0DE5H         LINE#         1535
  C:0DEEH         LINE#         1536
  C:0DEEH         LINE#         1537
  C:0DF6H         LINE#         1538
  C:0DFEH         LINE#         1540
  C:0E0DH         LINE#         1541
BL51 BANKED LINKER/LOCATER V6.22                                                      03/06/2019  08:21:13  PAGE 92


  C:0E1CH         LINE#         1542
  C:0E56H         LINE#         1543
  C:0E59H         LINE#         1544
  C:0E64H         LINE#         1545
  C:0E64H         LINE#         1546
  C:0E96H         LINE#         1547
  C:0E96H         LINE#         1548
  C:0EA5H         LINE#         1549
  C:0EB4H         LINE#         1550
  C:0EC2H         LINE#         1551
  C:0EFCH         LINE#         1553
  C:0F0BH         LINE#         1554
  C:0F1AH         LINE#         1555
  C:0F29H         LINE#         1556
  C:0F38H         LINE#         1557
  C:0F47H         LINE#         1558
  C:0F4AH         LINE#         1561
  C:0F4EH         LINE#         1562
  C:0F56H         LINE#         1563
  C:0F5EH         LINE#         1564
  C:0F62H         LINE#         1565
  C:0F6AH         LINE#         1566
  C:0F72H         LINE#         1567
  C:0F79H         LINE#         1568
  C:0F7CH         LINE#         1570
  C:0F81H         LINE#         1571
  C:0F81H         LINE#         1573
  C:0F81H         LINE#         1574
  C:0F81H         LINE#         1575
  C:0F81H         LINE#         1576
  C:0F8CH         LINE#         1577
  C:0F8CH         LINE#         1578
  C:0F8CH         LINE#         1579
  C:0F8CH         LINE#         1580
  C:0F8FH         LINE#         1582
  C:0F8FH         LINE#         1583
  C:0FA0H         LINE#         1584
  C:0FA0H         LINE#         1617
  C:0FA0H         LINE#         1618
  C:0FA9H         LINE#         1619
  C:0FA9H         LINE#         1620
  C:0FB1H         LINE#         1621
  C:0FB9H         LINE#         1622
  C:0FC1H         LINE#         1624
  C:0FD0H         LINE#         1625
  C:0FDFH         LINE#         1626
  C:0FF8H         LINE#         1627
  C:0FFBH         LINE#         1628
  C:1006H         LINE#         1629
  C:1006H         LINE#         1630
  C:104BH         LINE#         1631
  C:104BH         LINE#         1632
  C:105AH         LINE#         1633
  C:1069H         LINE#         1634
  C:10A3H         LINE#         1635
  C:10E3H         LINE#         1636
  C:10E9H         LINE#         1637
BL51 BANKED LINKER/LOCATER V6.22                                                      03/06/2019  08:21:13  PAGE 93


  C:10F0H         LINE#         1639
  C:10F7H         LINE#         1641
  C:1106H         LINE#         1642
  C:110DH         LINE#         1643
  C:1126H         LINE#         1644
  C:1126H         LINE#         1645
  C:1126H         LINE#         1646
  C:1126H         LINE#         1647
  C:1126H         LINE#         1648
  C:1126H         LINE#         1649
  C:1129H         LINE#         1650
  C:1129H         LINE#         1651
  C:1132H         LINE#         1652
  C:1132H         LINE#         1653
  C:113AH         LINE#         1654
  C:1142H         LINE#         1655
  C:114AH         LINE#         1657
  C:1159H         LINE#         1658
  C:1168H         LINE#         1659
  C:11A2H         LINE#         1660
  C:11A5H         LINE#         1661
  C:11B0H         LINE#         1662
  C:11B0H         LINE#         1663
  C:11F5H         LINE#         1664
  C:11F5H         LINE#         1665
  C:1204H         LINE#         1666
  C:1213H         LINE#         1667
  C:124DH         LINE#         1668
  C:128DH         LINE#         1671
  C:1295H         LINE#         1672
  C:12B1H         LINE#         1673
  C:12CDH         LINE#         1674
  C:12D1H         LINE#         1675
  C:12D5H         LINE#         1676
  C:12D9H         LINE#         1679
  C:12DFH         LINE#         1680
  C:12E3H         LINE#         1681
  C:12E3H         LINE#         1682
  C:12E5H         LINE#         1683
  C:12EBH         LINE#         1684
  C:12EFH         LINE#         1685
  C:12EFH         LINE#         1686
  C:12F1H         LINE#         1687
  C:12F7H         LINE#         1688
  C:12F7H         LINE#         1689
  C:12F7H         LINE#         1692
  C:12FDH         LINE#         1693
  C:1304H         LINE#         1694
  C:130BH         LINE#         1695
  C:131AH         LINE#         1696
  C:1321H         LINE#         1697
  C:135BH         LINE#         1699
  C:136FH         LINE#         1700
  C:137EH         LINE#         1701
  C:13BAH         LINE#         1703
  C:13BAH         LINE#         1704
  C:13BAH         LINE#         1705
BL51 BANKED LINKER/LOCATER V6.22                                                      03/06/2019  08:21:13  PAGE 94


  C:13BAH         LINE#         1707
  C:13BAH         LINE#         1708
  C:13C5H         LINE#         1709
  C:13C5H         LINE#         1710
  C:13C5H         LINE#         1711
  C:13C5H         LINE#         1712
  C:13C8H         LINE#         1714
  C:13C8H         LINE#         1715
  C:13ECH         LINE#         1716
  C:13ECH         LINE#         1717
  C:13ECH         LINE#         1718
  C:13F5H         LINE#         1719
  C:13F5H         LINE#         1720
  C:13F5H         LINE#         1721
  C:13F5H         LINE#         1723
  C:13F5H         LINE#         1724
  C:13F5H         LINE#         1725
  C:13F5H         LINE#         1726
  C:13F8H         LINE#         1727
  C:1403H         LINE#         1728
  C:1403H         LINE#         1729
  C:1412H         LINE#         1730
  C:141DH         LINE#         1731
  C:141DH         LINE#         1732
  C:142CH         LINE#         1733
  C:143BH         LINE#         1734
  C:1475H         LINE#         1735
  C:14B7H         LINE#         1736
  C:14BDH         LINE#         1737
  C:14C4H         LINE#         1738
  C:14CBH         LINE#         1739
  C:14DFH         LINE#         1740
  C:14E6H         LINE#         1741
  C:1521H         LINE#         1742
  C:1531H         LINE#         1743
  C:1534H         LINE#         1745
  C:1534H         LINE#         1746
  C:1534H         LINE#         1747
  C:1537H         LINE#         1748
  C:1537H         LINE#         1749
  C:1540H         LINE#         1750
  C:1540H         LINE#         1751
  C:1540H         LINE#         1752
  C:1540H         LINE#         1754
  C:1540H         LINE#         1755
  C:1540H         LINE#         1756
  C:1540H         LINE#         1757
  C:1543H         LINE#         1758
  C:154EH         LINE#         1759
  C:154EH         LINE#         1760
  C:155DH         LINE#         1761
  C:1568H         LINE#         1762
  C:1568H         LINE#         1763
  C:1577H         LINE#         1764
  C:1586H         LINE#         1765
  C:15C0H         LINE#         1766
  C:1602H         LINE#         1767
BL51 BANKED LINKER/LOCATER V6.22                                                      03/06/2019  08:21:13  PAGE 95


  C:1608H         LINE#         1768
  C:160FH         LINE#         1769
  C:1616H         LINE#         1770
  C:162AH         LINE#         1771
  C:1631H         LINE#         1772
  C:166CH         LINE#         1773
  C:167CH         LINE#         1774
  C:167FH         LINE#         1775
  C:167FH         LINE#         1776
  C:167FH         LINE#         1777
  C:1682H         LINE#         1778
  C:1682H         LINE#         1779
  C:168BH         LINE#         1780
  C:168BH         LINE#         1781
  C:168BH         LINE#         1782
  C:168BH         LINE#         1784
  C:168BH         LINE#         1785
  C:168BH         LINE#         1786
  C:168BH         LINE#         1787
  C:168EH         LINE#         1788
  C:1699H         LINE#         1789
  C:1699H         LINE#         1790
  C:16A8H         LINE#         1791
  C:16B3H         LINE#         1792
  C:16B3H         LINE#         1793
  C:16C2H         LINE#         1794
  C:16D1H         LINE#         1795
  C:170BH         LINE#         1796
  C:174DH         LINE#         1797
  C:1753H         LINE#         1798
  C:175AH         LINE#         1799
  C:1761H         LINE#         1800
  C:1775H         LINE#         1801
  C:177CH         LINE#         1802
  C:17B7H         LINE#         1803
  C:17C7H         LINE#         1804
  C:17CAH         LINE#         1805
  C:17CAH         LINE#         1806
  C:17CAH         LINE#         1807
  C:17CDH         LINE#         1809
  C:17CDH         LINE#         1810
  C:17D6H         LINE#         1811
  C:17D6H         LINE#         1812
  C:17D6H         LINE#         1813
  C:17D6H         LINE#         1815
  C:17D6H         LINE#         1816
  C:17D6H         LINE#         1817
  C:17D6H         LINE#         1818
  C:17D9H         LINE#         1819
  C:17E4H         LINE#         1820
  C:17E4H         LINE#         1821
  C:17F3H         LINE#         1822
  C:17FEH         LINE#         1823
  C:17FEH         LINE#         1824
  C:180DH         LINE#         1825
  C:181CH         LINE#         1826
  C:1856H         LINE#         1827
BL51 BANKED LINKER/LOCATER V6.22                                                      03/06/2019  08:21:13  PAGE 96


  C:1898H         LINE#         1829
  C:189EH         LINE#         1830
  C:18A5H         LINE#         1831
  C:18ACH         LINE#         1832
  C:18C0H         LINE#         1833
  C:18C7H         LINE#         1834
  C:1902H         LINE#         1835
  C:1912H         LINE#         1836
  C:191CH         LINE#         1837
  C:191CH         LINE#         1838
  C:191CH         LINE#         1839
  C:191FH         LINE#         1841
  C:191FH         LINE#         1842
  C:1928H         LINE#         1843
  C:1928H         LINE#         1844
  C:1930H         LINE#         1845
  C:1938H         LINE#         1847
  C:1947H         LINE#         1848
  C:1956H         LINE#         1849
  C:1992H         LINE#         1850
  C:1995H         LINE#         1851
  C:19A0H         LINE#         1852
  C:19A0H         LINE#         1853
  C:19B0H         LINE#         1854
  C:19BBH         LINE#         1855
  C:19BBH         LINE#         1856
  C:19CAH         LINE#         1857
  C:19D9H         LINE#         1858
  C:1A13H         LINE#         1859
  C:1A55H         LINE#         1861
  C:1A5DH         LINE#         1862
  C:1A65H         LINE#         1863
  C:1A68H         LINE#         1864
  C:1A6CH         LINE#         1865
  C:1A74H         LINE#         1866
  C:1A7CH         LINE#         1867
  C:1A84H         LINE#         1869
  C:1A87H         LINE#         1870
  C:1A8CH         LINE#         1871
  C:1A8CH         LINE#         1872
  C:1A8CH         LINE#         1873
  C:1A8CH         LINE#         1874
  C:1A8CH         LINE#         1875
  C:1A97H         LINE#         1876
  C:1A97H         LINE#         1877
  C:1A97H         LINE#         1878
  C:1A97H         LINE#         1879
  C:1A9AH         LINE#         1881
  C:1A9AH         LINE#         1882
  C:1AA3H         LINE#         1883
  C:1AA3H         LINE#         1884
  C:1AA8H         LINE#         1885
  C:1AB7H         LINE#         1886
  C:1AC6H         LINE#         1887
  C:1AF9H         LINE#         1888
  C:1AFCH         LINE#         1890
  C:1B03H         LINE#         1891
BL51 BANKED LINKER/LOCATER V6.22                                                      03/06/2019  08:21:13  PAGE 97


  C:1B03H         LINE#         1892
  C:1B0BH         LINE#         1894
  C:1B10H         LINE#         1895
  C:1B15H         LINE#         1896
  C:1B18H         LINE#         1897
  C:1B1DH         LINE#         1898
  C:1B1FH         LINE#         1899
  C:1B22H         LINE#         1900
  C:1B2DH         LINE#         1901
  C:1B2DH         LINE#         1902
  C:1B2DH         LINE#         1903
  C:1B2DH         LINE#         1904
  C:1B30H         LINE#         1906
  C:1B30H         LINE#         1907
  C:1B4EH         LINE#         1908
  C:1B4EH         LINE#         1909
  C:1B4EH         LINE#         1910
  C:1B57H         LINE#         1911
  C:1B57H         LINE#         1912
  C:1B57H         LINE#         1913
  C:1B57H         LINE#         1915
  C:1B57H         LINE#         1916
  C:1B57H         LINE#         1917
  C:1B57H         LINE#         1918
  C:1B5AH         LINE#         1919
  C:1B65H         LINE#         1920
  C:1B65H         LINE#         1921
  C:1B74H         LINE#         1922
  C:1B7FH         LINE#         1923
  C:1B7FH         LINE#         1924
  C:1B8EH         LINE#         1925
  C:1B9DH         LINE#         1926
  C:1BD7H         LINE#         1927
  C:1C19H         LINE#         1928
  C:1C1FH         LINE#         1929
  C:1C26H         LINE#         1930
  C:1C2DH         LINE#         1931
  C:1C41H         LINE#         1932
  C:1C48H         LINE#         1933
  C:1C83H         LINE#         1934
  C:1C93H         LINE#         1935
  C:1C96H         LINE#         1936
  C:1C96H         LINE#         1937
  C:1C96H         LINE#         1938
  C:1C99H         LINE#         1939
  C:1C99H         LINE#         1940
  C:1CA2H         LINE#         1941
  C:1CA2H         LINE#         1942
  C:1CA2H         LINE#         1943
  C:1CA2H         LINE#         1945
  C:1CA2H         LINE#         1946
  C:1CA2H         LINE#         1947
  C:1CA2H         LINE#         1948
  C:1CA5H         LINE#         1949
  C:1CB0H         LINE#         1950
  C:1CB0H         LINE#         1951
  C:1CBFH         LINE#         1952
BL51 BANKED LINKER/LOCATER V6.22                                                      03/06/2019  08:21:13  PAGE 98


  C:1CCAH         LINE#         1953
  C:1CCAH         LINE#         1954
  C:1CD9H         LINE#         1955
  C:1CE8H         LINE#         1956
  C:1D22H         LINE#         1957
  C:1D64H         LINE#         1958
  C:1D6AH         LINE#         1959
  C:1D71H         LINE#         1960
  C:1D78H         LINE#         1961
  C:1D8CH         LINE#         1962
  C:1D93H         LINE#         1963
  C:1DCEH         LINE#         1964
  C:1DDEH         LINE#         1965
  C:1DE1H         LINE#         1966
  C:1DE1H         LINE#         1967
  C:1DE1H         LINE#         1968
  C:1DE4H         LINE#         1969
  C:1DE4H         LINE#         1970
  C:1DEDH         LINE#         1971
  C:1DEDH         LINE#         1972
  C:1DEDH         LINE#         1973
  C:1DEDH         LINE#         1975
  C:1DEDH         LINE#         1976
  C:1DEDH         LINE#         1977
  C:1DEDH         LINE#         1978
  C:1DF0H         LINE#         1979
  C:1DFBH         LINE#         1980
  C:1DFBH         LINE#         1981
  C:1E0AH         LINE#         1982
  C:1E15H         LINE#         1983
  C:1E15H         LINE#         1984
  C:1E24H         LINE#         1985
  C:1E33H         LINE#         1986
  C:1E6DH         LINE#         1987
  C:1EAFH         LINE#         1988
  C:1EB5H         LINE#         1989
  C:1EBCH         LINE#         1990
  C:1EC3H         LINE#         1991
  C:1ED7H         LINE#         1992
  C:1EDEH         LINE#         1993
  C:1F19H         LINE#         1994
  C:1F29H         LINE#         1995
  C:1F33H         LINE#         1996
  C:1F33H         LINE#         1997
  C:1F33H         LINE#         1998
  C:1F36H         LINE#         2000
  C:1F36H         LINE#         2001
  C:1F3FH         LINE#         2002
  C:1F3FH         LINE#         2003
  C:1F47H         LINE#         2004
  C:1F4FH         LINE#         2006
  C:1F5EH         LINE#         2007
  C:1F6DH         LINE#         2008
  C:1FA5H         LINE#         2009
  C:1FA8H         LINE#         2010
  C:1FB3H         LINE#         2011
  C:1FB3H         LINE#         2012
BL51 BANKED LINKER/LOCATER V6.22                                                      03/06/2019  08:21:13  PAGE 99


  C:1FC2H         LINE#         2013
  C:1FCDH         LINE#         2014
  C:1FCDH         LINE#         2015
  C:1FDCH         LINE#         2016
  C:1FEBH         LINE#         2017
  C:2025H         LINE#         2018
  C:2067H         LINE#         2019
  C:206FH         LINE#         2020
  C:2077H         LINE#         2021
  C:207AH         LINE#         2022
  C:207EH         LINE#         2023
  C:2086H         LINE#         2024
  C:208AH         LINE#         2025
  C:208AH         LINE#         2027
  C:208DH         LINE#         2028
  C:2092H         LINE#         2029
  C:2092H         LINE#         2030
  C:2092H         LINE#         2031
  C:2092H         LINE#         2032
  C:2092H         LINE#         2033
  C:209DH         LINE#         2034
  C:209DH         LINE#         2035
  C:209DH         LINE#         2036
  C:209DH         LINE#         2037
  C:20A0H         LINE#         2039
  C:20A0H         LINE#         2040
  C:20A5H         LINE#         2041
  C:20B1H         LINE#         2042
  C:20B1H         LINE#         2043
  C:20BEH         LINE#         2044
  C:20BEH         LINE#         2045
  C:20CEH         LINE#         2046
  C:20D4H         LINE#         2047
  C:20D6H         LINE#         2049
  C:20D6H         LINE#         2050
  C:20DAH         LINE#         2051
  C:20E0H         LINE#         2052
  C:20E0H         LINE#         2054
  C:20EFH         LINE#         2055
  C:20FEH         LINE#         2056
  C:2140H         LINE#         2057
  C:2175H         LINE#         2058
  C:2178H         LINE#         2059
  C:2183H         LINE#         2060
  C:2183H         LINE#         2061
  C:218FH         LINE#         2062
  C:218FH         LINE#         2063
  C:2192H         LINE#         2064
  C:21A1H         LINE#         2065
  C:21B0H         LINE#         2066
  C:21F2H         LINE#         2067
  C:2227H         LINE#         2068
  C:2227H         LINE#         2069
  C:222AH         LINE#         2070
  C:2235H         LINE#         2071
  C:2235H         LINE#         2072
  C:223BH         LINE#         2073
BL51 BANKED LINKER/LOCATER V6.22                                                      03/06/2019  08:21:13  PAGE 100


  C:2244H         LINE#         2074
  C:2244H         LINE#         2075
  C:225BH         LINE#         2076
  C:226FH         LINE#         2077
  C:2290H         LINE#         2078
  C:22B3H         LINE#         2079
  C:22B9H         LINE#         2080
  C:22B9H         LINE#         2081
  C:22BFH         LINE#         2082
  C:22C2H         LINE#         2083
  C:22C8H         LINE#         2084
  C:22C8H         LINE#         2085
  C:22CDH         LINE#         2086
  C:22D5H         LINE#         2087
  C:22DBH         LINE#         2088
  C:22DEH         LINE#         2090
  C:22DEH         LINE#         2091
  C:22E6H         LINE#         2092
  C:22ECH         LINE#         2093
  C:22ECH         LINE#         2094
  C:22EEH         LINE#         2097
  C:22EEH         LINE#         2098
  C:22F6H         LINE#         2099
  C:22F6H         LINE#         2100
  C:2321H         LINE#         2102
  C:2323H         LINE#         2103
  C:232AH         LINE#         2104
  C:232AH         LINE#         2105
  C:234DH         LINE#         2107
  C:234FH         LINE#         2108
  C:2356H         LINE#         2109
  C:2356H         LINE#         2110
  C:2365H         LINE#         2112
  C:2365H         LINE#         2113
  C:2365H         LINE#         2114
  C:2379H         LINE#         2115
  C:2379H         LINE#         2116
  C:2388H         LINE#         2117
  C:2397H         LINE#         2118
  C:23D7H         LINE#         2119
  C:2413H         LINE#         2121
  C:2447H         LINE#         2122
  C:2447H         LINE#         2123
  C:2447H         LINE#         2124
  C:2451H         LINE#         2125
  C:2457H         LINE#         2126
  C:245DH         LINE#         2127
  C:2464H         LINE#         2128
  C:2467H         LINE#         2129
  C:2467H         LINE#         2130
  C:2471H         LINE#         2131
  C:2477H         LINE#         2132
  C:247DH         LINE#         2133
  C:247DH         LINE#         2134
  C:247FH         LINE#         2135
  C:247FH         LINE#         2136
  C:2489H         LINE#         2137
BL51 BANKED LINKER/LOCATER V6.22                                                      03/06/2019  08:21:13  PAGE 101


  C:248FH         LINE#         2138
  C:2495H         LINE#         2139
  C:2495H         LINE#         2140
  C:2497H         LINE#         2141
  C:2497H         LINE#         2142
  C:24A1H         LINE#         2143
  C:24A7H         LINE#         2144
  C:24AFH         LINE#         2145
  C:24B6H         LINE#         2146
  C:24B9H         LINE#         2147
  C:24B9H         LINE#         2148
  C:24C3H         LINE#         2149
  C:24C9H         LINE#         2150
  C:24CFH         LINE#         2151
  C:24CFH         LINE#         2152
  C:24D1H         LINE#         2153
  C:24D1H         LINE#         2154
  C:24DBH         LINE#         2155
  C:24E1H         LINE#         2156
  C:24E9H         LINE#         2157
  C:24F0H         LINE#         2158
  C:24F3H         LINE#         2159
  C:24F3H         LINE#         2160
  C:24FDH         LINE#         2161
  C:2503H         LINE#         2162
  C:2509H         LINE#         2163
  C:2509H         LINE#         2164
  C:250BH         LINE#         2165
  C:250BH         LINE#         2166
  C:2515H         LINE#         2167
  C:251BH         LINE#         2168
  C:2523H         LINE#         2169
  C:252AH         LINE#         2170
  C:252DH         LINE#         2171
  C:252DH         LINE#         2172
  C:2537H         LINE#         2173
  C:253DH         LINE#         2174
  C:2543H         LINE#         2175
  C:2543H         LINE#         2176
  C:2545H         LINE#         2177
  C:2545H         LINE#         2178
  C:254FH         LINE#         2179
  C:2555H         LINE#         2180
  C:255DH         LINE#         2181
  C:2564H         LINE#         2182
  C:2567H         LINE#         2183
  C:2567H         LINE#         2184
  C:2571H         LINE#         2186
  C:2588H         LINE#         2188
  C:258DH         LINE#         2189
  C:2592H         LINE#         2191
  C:25A5H         LINE#         2192
  C:25ABH         LINE#         2193
  C:25B3H         LINE#         2194
  C:25BBH         LINE#         2195
  C:25BFH         LINE#         2196
  C:25C3H         LINE#         2198
BL51 BANKED LINKER/LOCATER V6.22                                                      03/06/2019  08:21:13  PAGE 102


  C:25CAH         LINE#         2200
  C:25DDH         LINE#         2201
  C:25E3H         LINE#         2202
  C:25EBH         LINE#         2203
  C:25F3H         LINE#         2204
  C:25F6H         LINE#         2205
  C:25F9H         LINE#         2207
  C:2600H         LINE#         2209
  C:2608H         LINE#         2210
  C:260EH         LINE#         2211
  C:2613H         LINE#         2212
  C:2616H         LINE#         2213
  C:2616H         LINE#         2214
  C:2616H         LINE#         2215
  C:261BH         LINE#         2216
  C:261BH         LINE#         2217
  C:261CH         LINE#         2219
  C:2627H         LINE#         2220
  C:2627H         LINE#         2221
  C:262DH         LINE#         2222
  C:262DH         LINE#         2223
  C:262DH         LINE#         2224
  C:2630H         LINE#         2227
  C:2630H         LINE#         2228
  C:2648H         LINE#         2229
  C:2648H         LINE#         2231
  C:2648H         LINE#         2232
  C:2651H         LINE#         2233
  C:2651H         LINE#         2234
  C:2659H         LINE#         2235
  C:2661H         LINE#         2236
  C:2669H         LINE#         2238
  C:2678H         LINE#         2239
  C:2687H         LINE#         2240
  C:26A0H         LINE#         2241
  C:26A3H         LINE#         2242
  C:26AEH         LINE#         2243
  C:26AEH         LINE#         2244
  C:26F3H         LINE#         2245
  C:26F3H         LINE#         2246
  C:2702H         LINE#         2247
  C:2711H         LINE#         2248
  C:274BH         LINE#         2249
  C:278BH         LINE#         2251
  C:2791H         LINE#         2252
  C:2798H         LINE#         2253
  C:279FH         LINE#         2254
  C:27AEH         LINE#         2255
  C:27B5H         LINE#         2256
  C:27CEH         LINE#         2257
  C:27CEH         LINE#         2258
  C:27CEH         LINE#         2259
  C:27CEH         LINE#         2260
  C:27CEH         LINE#         2261
  C:27CEH         LINE#         2262
  C:27D1H         LINE#         2265
  C:27D1H         LINE#         2266
BL51 BANKED LINKER/LOCATER V6.22                                                      03/06/2019  08:21:13  PAGE 103


  C:27DAH         LINE#         2267
  C:27DAH         LINE#         2268
  C:27E2H         LINE#         2269
  C:27EAH         LINE#         2270
  C:27F2H         LINE#         2272
  C:2801H         LINE#         2273
  C:2810H         LINE#         2274
  C:2829H         LINE#         2275
  C:282CH         LINE#         2276
  C:2837H         LINE#         2277
  C:2837H         LINE#         2278
  C:287CH         LINE#         2279
  C:287CH         LINE#         2280
  C:288BH         LINE#         2281
  C:289AH         LINE#         2282
  C:28D4H         LINE#         2283
  C:2914H         LINE#         2285
  C:291AH         LINE#         2286
  C:2921H         LINE#         2287
  C:2928H         LINE#         2288
  C:2937H         LINE#         2289
  C:293EH         LINE#         2290
  C:2957H         LINE#         2291
  C:2957H         LINE#         2292
  C:2957H         LINE#         2293
  C:2957H         LINE#         2294
  C:2957H         LINE#         2295
  C:2957H         LINE#         2296
  C:295AH         LINE#         2300
  C:295AH         LINE#         2301
  C:2963H         LINE#         2302
  C:2963H         LINE#         2303
  C:296BH         LINE#         2304
  C:2973H         LINE#         2305
  C:297BH         LINE#         2307
  C:298AH         LINE#         2308
  C:2999H         LINE#         2309
  C:29D3H         LINE#         2310
  C:29D6H         LINE#         2311
  C:29E1H         LINE#         2312
  C:29E1H         LINE#         2313
  C:2A26H         LINE#         2314
  C:2A26H         LINE#         2315
  C:2A35H         LINE#         2316
  C:2A44H         LINE#         2317
  C:2A7EH         LINE#         2318
  C:2ABEH         LINE#         2321
  C:2AC6H         LINE#         2322
  C:2ACAH         LINE#         2323
  C:2AE6H         LINE#         2324
  C:2AEAH         LINE#         2325
  C:2B06H         LINE#         2326
  C:2B1EH         LINE#         2327
  C:2B1EH         LINE#         2328
  C:2B21H         LINE#         2330
  C:2B27H         LINE#         2331
  C:2B2BH         LINE#         2332
BL51 BANKED LINKER/LOCATER V6.22                                                      03/06/2019  08:21:13  PAGE 104


  C:2B2BH         LINE#         2333
  C:2B2DH         LINE#         2334
  C:2B33H         LINE#         2335
  C:2B37H         LINE#         2336
  C:2B37H         LINE#         2337
  C:2B39H         LINE#         2338
  C:2B3FH         LINE#         2339
  C:2B3FH         LINE#         2340
  C:2B3FH         LINE#         2343
  C:2B45H         LINE#         2344
  C:2B4CH         LINE#         2345
  C:2B53H         LINE#         2346
  C:2B62H         LINE#         2347
  C:2B69H         LINE#         2348
  C:2BA3H         LINE#         2350
  C:2BB7H         LINE#         2351
  C:2BC6H         LINE#         2352
  C:2C02H         LINE#         2354
  C:2C02H         LINE#         2355
  C:2C02H         LINE#         2356
  C:2C02H         LINE#         2357
  C:2C02H         LINE#         2360
  C:2C0DH         LINE#         2361
  C:2C0DH         LINE#         2362
  C:2C0DH         LINE#         2364
  C:2C0DH         LINE#         2365
  C:2C10H         LINE#         2369
  C:2C10H         LINE#         2371
  C:2C10H         LINE#         2372
  C:2C1BH         LINE#         2373
  C:2C1BH         LINE#         2374
  C:2C1BH         LINE#         2375
  C:2C24H         LINE#         2376
  C:2C24H         LINE#         2377
  C:2C2CH         LINE#         2378
  C:2C34H         LINE#         2379
  C:2C3CH         LINE#         2381
  C:2C4BH         LINE#         2382
  C:2C5AH         LINE#         2383
  C:2C94H         LINE#         2384
  C:2C97H         LINE#         2385
  C:2CA2H         LINE#         2386
  C:2CA2H         LINE#         2387
  C:2CE7H         LINE#         2388
  C:2CE7H         LINE#         2394
  C:2CF3H         LINE#         2395
  C:2CF3H         LINE#         2397
  C:2CF3H         LINE#         2399
  C:2CFBH         LINE#         2400
  C:2D17H         LINE#         2401
  C:2D1AH         LINE#         2402
  C:2D1AH         LINE#         2403
  C:2D1AH         LINE#         2404
  C:2D1AH         LINE#         2405
  C:2D1CH         LINE#         2409
  C:2D1CH         LINE#         2410
  C:2D1CH         LINE#         2411
BL51 BANKED LINKER/LOCATER V6.22                                                      03/06/2019  08:21:13  PAGE 105


  C:2D1CH         LINE#         2412
  C:2D1CH         LINE#         2413
  C:2D1CH         LINE#         2414
  C:2D1CH         LINE#         2415
  C:2D1CH         LINE#         2417
  C:2D1CH         LINE#         2419
  C:2D24H         LINE#         2420
  C:2D28H         LINE#         2421
  C:2D44H         LINE#         2422
  C:2D48H         LINE#         2423
  C:2D4CH         LINE#         2424
  C:2D50H         LINE#         2425
  C:2D50H         LINE#         2428
  C:2D50H         LINE#         2429
  C:2D50H         LINE#         2430
  C:2D50H         LINE#         2432
  C:2D56H         LINE#         2433
  C:2D5AH         LINE#         2434
  C:2D5AH         LINE#         2435
  C:2D5CH         LINE#         2436
  C:2D62H         LINE#         2437
  C:2D66H         LINE#         2438
  C:2D66H         LINE#         2439
  C:2D68H         LINE#         2440
  C:2D6EH         LINE#         2441
  C:2D6EH         LINE#         2442
  C:2D6EH         LINE#         2445
  C:2D74H         LINE#         2446
  C:2D7BH         LINE#         2447
  C:2D82H         LINE#         2448
  C:2D91H         LINE#         2449
  C:2D98H         LINE#         2450
  C:2DD2H         LINE#         2452
  C:2DE6H         LINE#         2453
  C:2DF5H         LINE#         2454
  C:2E31H         LINE#         2456
  C:2E31H         LINE#         2457
  C:2E31H         LINE#         2458
  C:2E31H         LINE#         2459
  C:2E31H         LINE#         2462
  C:2E3CH         LINE#         2463
  C:2E3CH         LINE#         2464
  C:2E3CH         LINE#         2466
  C:2E3CH         LINE#         2467
  C:2E3FH         LINE#         2470
  C:2E3FH         LINE#         2471
  C:2E51H         LINE#         2472
  C:2E51H         LINE#         2473
  C:2E51H         LINE#         2474
  C:2E5AH         LINE#         2475
  C:2E5AH         LINE#         2476
  C:2E62H         LINE#         2477
  C:2E6AH         LINE#         2478
  C:2E72H         LINE#         2480
  C:2E81H         LINE#         2481
  C:2E90H         LINE#         2482
  C:2EA9H         LINE#         2483
BL51 BANKED LINKER/LOCATER V6.22                                                      03/06/2019  08:21:13  PAGE 106


  C:2EACH         LINE#         2484
  C:2EB7H         LINE#         2485
  C:2EB7H         LINE#         2486
  C:2EFCH         LINE#         2487
  C:2EFCH         LINE#         2488
  C:2F0BH         LINE#         2489
  C:2F1AH         LINE#         2490
  C:2F54H         LINE#         2491
  C:2F94H         LINE#         2492
  C:2F9AH         LINE#         2493
  C:2FA1H         LINE#         2494
  C:2FA8H         LINE#         2495
  C:2FB7H         LINE#         2496
  C:2FBEH         LINE#         2497
  C:2FF8H         LINE#         2498
  C:300CH         LINE#         2499
  C:301BH         LINE#         2500
  C:3057H         LINE#         2502
  C:3057H         LINE#         2503
  C:3057H         LINE#         2504
  C:305AH         LINE#         2507
  C:305AH         LINE#         2508
  C:3063H         LINE#         2509
  C:3063H         LINE#         2510
  C:306BH         LINE#         2511
  C:3073H         LINE#         2512
  C:307BH         LINE#         2514
  C:308AH         LINE#         2515
  C:3099H         LINE#         2516
  C:30D3H         LINE#         2517
  C:30D6H         LINE#         2518
  C:30E1H         LINE#         2519
  C:30E1H         LINE#         2520
  C:3123H         LINE#         2521
  C:3123H         LINE#         2523
  C:313FH         LINE#         2524
  C:3143H         LINE#         2525
  C:315FH         LINE#         2526
  C:3165H         LINE#         2527
  C:316DH         LINE#         2528
  C:3175H         LINE#         2529
  C:317DH         LINE#         2530
  C:3180H         LINE#         2531
  C:3183H         LINE#         2533
  C:3188H         LINE#         2534
  C:3188H         LINE#         2535
  C:3188H         LINE#         2536
  C:3188H         LINE#         2537
  C:3188H         LINE#         2540
  C:3193H         LINE#         2541
  C:3193H         LINE#         2542
  C:3198H         LINE#         2544
  C:3198H         LINE#         2545
  C:3198H         LINE#         2547
  C:3198H         LINE#         2548
  C:31BDH         LINE#         2549
  C:31BDH         LINE#         2550
BL51 BANKED LINKER/LOCATER V6.22                                                      03/06/2019  08:21:13  PAGE 107


  C:31BDH         LINE#         2551
  C:31BDH         LINE#         2552
  C:31BDH         LINE#         2553
  C:31BDH         LINE#         2554
  C:31BDH         LINE#         2555
  C:31BDH         LINE#         2556
  C:31BDH         LINE#         2557
  C:31BDH         LINE#         2558
  C:31BDH         LINE#         2559
  C:31BDH         LINE#         2560
  C:31CCH         LINE#         2561
  C:31CCH         LINE#         2562
  C:31D2H         LINE#         2563
  C:31D2H         LINE#         2564
  C:31F2H         LINE#         2565
  C:31F4H         LINE#         2566
  C:31F4H         LINE#         2567
  C:3208H         LINE#         2568
  C:320EH         LINE#         2569
  C:3213H         LINE#         2570
  C:3213H         LINE#         2571
  C:3232H         LINE#         2572
  C:3237H         LINE#         2573
  C:3240H         LINE#         2574
  C:3248H         LINE#         2575
  C:324EH         LINE#         2576
  C:324EH         LINE#         2577
  C:3273H         LINE#         2578
  C:3282H         LINE#         2579
  C:32BEH         LINE#         2580
  C:32C1H         LINE#         2582
  C:32C1H         LINE#         2583
  C:32C1H         LINE#         2584
  C:32C1H         LINE#         2585
  C:32C1H         LINE#         2586
  C:32E0H         LINE#         2587
  C:32E0H         LINE#         2588
  C:32E0H         LINE#         2589
  C:3327H         LINE#         2594
  C:3329H         LINE#         2595
  C:3329H         LINE#         2596
  C:3369H         LINE#         2600
  C:336BH         LINE#         2601
  C:336BH         LINE#         2602
  C:3396H         LINE#         2605
  C:3398H         LINE#         2606
  C:3398H         LINE#         2607
  C:33BBH         LINE#         2609
  C:33BDH         LINE#         2610
  C:33BDH         LINE#         2611
  C:33CCH         LINE#         2612
  C:33CCH         LINE#         2614
  C:33CCH         LINE#         2615
  C:33CCH         LINE#         2616
  C:33CCH         LINE#         2618
  C:33CFH         LINE#         2619
  C:33CFH         LINE#         2620
BL51 BANKED LINKER/LOCATER V6.22                                                      03/06/2019  08:21:13  PAGE 108


  C:33D9H         LINE#         2621
  C:33E4H         LINE#         2622
  C:33EEH         LINE#         2623
  C:33EEH         LINE#         2626
  C:33F5H         LINE#         2627
  C:33F5H         LINE#         2628
  C:3416H         LINE#         2629
  C:341CH         LINE#         2630
  C:341FH         LINE#         2631
  C:3426H         LINE#         2632
  C:3426H         LINE#         2633
  C:3447H         LINE#         2634
  C:344DH         LINE#         2635
  C:344FH         LINE#         2636
  C:3456H         LINE#         2637
  C:3456H         LINE#         2638
  C:3477H         LINE#         2639
  C:347DH         LINE#         2640
  C:347FH         LINE#         2641
  C:3486H         LINE#         2642
  C:3486H         LINE#         2643
  C:34A7H         LINE#         2644
  C:34ADH         LINE#         2645
  C:34ADH         LINE#         2646
  C:34B2H         LINE#         2647
  C:34B5H         LINE#         2651
  C:34B5H         LINE#         2652
  C:34B5H         LINE#         2653
  C:34B5H         LINE#         2654
  C:34BCH         LINE#         2655
  C:34BCH         LINE#         2656
  C:34C1H         LINE#         2658
  C:34C1H         LINE#         2660
  C:34CCH         LINE#         2661
  C:34CCH         LINE#         2662
  C:34ECH         LINE#         2663
  C:34F2H         LINE#         2664
  C:34F2H         LINE#         2665
  C:34F4H         LINE#         2666
  C:3516H         LINE#         2667
  C:3525H         LINE#         2668
  C:3558H         LINE#         2669
  C:355BH         LINE#         2670
  C:355EH         LINE#         2672
  C:355EH         LINE#         2675
  C:3566H         LINE#         2676
  C:3566H         LINE#         2677
  C:356FH         LINE#         2678
  C:356FH         LINE#         2679
  C:3572H         LINE#         2680
  C:3572H         LINE#         2681
  C:3592H         LINE#         2682
  C:3594H         LINE#         2683
  C:3595H         LINE#         2685
  C:3595H         LINE#         2686
  C:35B5H         LINE#         2687
  C:35B7H         LINE#         2688
BL51 BANKED LINKER/LOCATER V6.22                                                      03/06/2019  08:21:13  PAGE 109


  C:35B7H         LINE#         2689
  C:35B8H         LINE#         2691
  C:35B8H         LINE#         2693
  C:35C3H         LINE#         2694
  C:35C3H         LINE#         2695
  C:35E2H         LINE#         2696
  C:35E2H         LINE#         2697
  C:35E2H         LINE#         2698
  C:3629H         LINE#         2703
  C:362BH         LINE#         2704
  C:362BH         LINE#         2705
  C:366BH         LINE#         2709
  C:366DH         LINE#         2710
  C:366DH         LINE#         2711
  C:3698H         LINE#         2714
  C:369AH         LINE#         2715
  C:369AH         LINE#         2716
  C:36BDH         LINE#         2718
  C:36BFH         LINE#         2719
  C:36BFH         LINE#         2720
  C:36CEH         LINE#         2721
  C:36CEH         LINE#         2723
  C:36CEH         LINE#         2724
  C:36CEH         LINE#         2725
  C:36CEH         LINE#         2727
  C:36D1H         LINE#         2728
  C:36D1H         LINE#         2729
  C:36DBH         LINE#         2730
  C:36E6H         LINE#         2731
  C:36F0H         LINE#         2732
  C:36F2H         LINE#         2733
  C:36F2H         LINE#         2736
  C:3713H         LINE#         2738
  C:3725H         LINE#         2739
  C:3725H         LINE#         2740
  C:3725H         LINE#         2741
  C:3738H         LINE#         2742
  C:373AH         LINE#         2743
  C:373AH         LINE#         2744
  C:3751H         LINE#         2745
  C:3753H         LINE#         2746
  C:3753H         LINE#         2747
  C:376AH         LINE#         2748
  C:376CH         LINE#         2749
  C:376CH         LINE#         2750
  C:3787H         LINE#         2751
  C:3787H         LINE#         2752
  C:3787H         LINE#         2753
  C:3796H         LINE#         2754
  C:37A5H         LINE#         2755
  C:37ACH         LINE#         2756
  C:37ACH         LINE#         2757
  C:37CEH         LINE#         2758
  C:37D5H         LINE#         2759
  C:37E1H         LINE#         2760
  C:37E9H         LINE#         2761
  C:37EBH         LINE#         2762
BL51 BANKED LINKER/LOCATER V6.22                                                      03/06/2019  08:21:13  PAGE 110


  C:37EBH         LINE#         2767
  C:37FFH         LINE#         2768
  C:3816H         LINE#         2769
  C:382AH         LINE#         2770
  C:3841H         LINE#         2771
  C:3855H         LINE#         2772
  C:386CH         LINE#         2773
  C:3880H         LINE#         2774
  C:3896H         LINE#         2776
  C:38B6H         LINE#         2777
  C:38BBH         LINE#         2778
  C:38BDH         LINE#         2781
  C:38C3H         LINE#         2782
  C:38C3H         LINE#         2783
  C:38D4H         LINE#         2784
  C:3905H         LINE#         2785
  C:3908H         LINE#         2786
  C:390EH         LINE#         2787
  C:390EH         LINE#         2788
  C:391FH         LINE#         2789
  C:3950H         LINE#         2790
  C:3953H         LINE#         2791
  C:3959H         LINE#         2792
  C:3959H         LINE#         2793
  C:396AH         LINE#         2794
  C:399BH         LINE#         2795
  C:399DH         LINE#         2796
  C:39A6H         LINE#         2797
  C:39A6H         LINE#         2798
  C:39B4H         LINE#         2799
  C:39D1H         LINE#         2800
  C:39D3H         LINE#         2802
  C:39D3H         LINE#         2803
  C:39E1H         LINE#         2804
  C:3A14H         LINE#         2805
  C:3A17H         LINE#         2807
  C:3A17H         LINE#         2808
  C:3A17H         LINE#         2818
  C:3A17H         LINE#         2819
  C:3A44H         LINE#         2820
  C:3A44H         LINE#         2821
  C:3A44H         LINE#         2822
  C:3A44H         LINE#         2823
  C:3A44H         LINE#         2824
  C:3A44H         LINE#         2825
  C:3A44H         LINE#         2826
  C:3A44H         LINE#         2827
  C:3A44H         LINE#         2828
  C:3A44H         LINE#         2829
  C:3A44H         LINE#         2830
  C:3A44H         LINE#         2831
  C:3A4AH         LINE#         2832
  C:3A4AH         LINE#         2833
  C:3A68H         LINE#         2834
  C:3A68H         LINE#         2835
  C:3A94H         LINE#         2836
  C:3A9FH         LINE#         2837
BL51 BANKED LINKER/LOCATER V6.22                                                      03/06/2019  08:21:13  PAGE 111


  C:3A9FH         LINE#         2838
  C:3A9FH         LINE#         2839
  C:3AA2H         LINE#         2840
  C:3AA2H         LINE#         2841
  C:3ACBH         LINE#         2842
  C:3AD6H         LINE#         2843
  C:3AD6H         LINE#         2844
  C:3AD6H         LINE#         2845
  C:3AD9H         LINE#         2847
  C:3AD9H         LINE#         2848
  C:3B02H         LINE#         2849
  C:3B0DH         LINE#         2850
  C:3B0DH         LINE#         2851
  C:3B0DH         LINE#         2852
  C:3B0FH         LINE#         2854
  C:3B0FH         LINE#         2855
  C:3B38H         LINE#         2856
  C:3B43H         LINE#         2857
  C:3B43H         LINE#         2858
  C:3B43H         LINE#         2859
  C:3B45H         LINE#         2860
  C:3B45H         LINE#         2861
  C:3B6EH         LINE#         2862
  C:3B79H         LINE#         2863
  C:3B7AH         LINE#         2864
  C:3B7AH         LINE#         2865
  C:3B7DH         LINE#         2867
  C:3B7DH         LINE#         2868
  C:3B9CH         LINE#         2869
  C:3BA1H         LINE#         2870
  C:3BA1H         LINE#         2871
  C:3BA1H         LINE#         2872
  C:3BA4H         LINE#         2874
  C:3BA4H         LINE#         2875
  C:3BADH         LINE#         2876
  C:3BADH         LINE#         2877
  C:3BB2H         LINE#         2878
  C:3BC5H         LINE#         2879
  C:3BD8H         LINE#         2880
  C:3BDEH         LINE#         2881
  C:3BE4H         LINE#         2882
  C:3BE4H         LINE#         2883
  C:3BE7H         LINE#         2885
  C:3BE7H         LINE#         2886
  C:3BECH         LINE#         2887
  C:3C0AH         LINE#         2888
  C:3C15H         LINE#         2889
  C:3C15H         LINE#         2890
  C:3C18H         LINE#         2891
  C:3C18H         LINE#         2892
  C:3C18H         LINE#         2894
  C:3C18H         LINE#         2895
  C:3C18H         LINE#         2896
  C:3C18H         LINE#         2897
  C:3C18H         LINE#         2898
  C:3C28H         LINE#         2899
  C:3C33H         LINE#         2900
BL51 BANKED LINKER/LOCATER V6.22                                                      03/06/2019  08:21:13  PAGE 112


  C:3C33H         LINE#         2901
  C:3C6DH         LINE#         2902
  C:3CA8H         LINE#         2903
  C:3CE3H         LINE#         2904
  C:3CE5H         LINE#         2905
  C:3CE8H         LINE#         2907
  C:3CE8H         LINE#         2908
  C:3D23H         LINE#         2909
  C:3D5EH         LINE#         2910
  C:3D99H         LINE#         2911
  C:3D9BH         LINE#         2912
  C:3D9BH         LINE#         2913
  C:3D9EH         LINE#         2915
  C:3D9EH         LINE#         2916
  C:3DA5H         LINE#         2917
  C:3DA5H         LINE#         2918
  C:3DAAH         LINE#         2919
  C:3DAAH         LINE#         2920
  C:3DAAH         LINE#         2921
  C:3DB1H         LINE#         2922
  C:3DB1H         LINE#         2923
  C:3DB6H         LINE#         2924
  C:3DBCH         LINE#         2926
  C:3DC4H         LINE#         2927
  C:3DCCH         LINE#         2928
  C:3DD4H         LINE#         2929
  C:3DDAH         LINE#         2930
  C:3DDAH         LINE#         2931
  C:3DDAH         LINE#         2932
  C:3DE3H         LINE#         2933
  C:3DE3H         LINE#         2934
  C:3DE7H         LINE#         2935
  C:3DEDH         LINE#         2936
  C:3DEEH         LINE#         2937
  C:3DEEH         LINE#         2938
  C:3DEEH         LINE#         2940
  C:3DEEH         LINE#         2941
  C:3DFEH         LINE#         2942
  C:3E01H         LINE#         2943
  C:3E18H         LINE#         2945
  C:3E29H         LINE#         2946
  C:3E49H         LINE#         2947
  C:3E56H         LINE#         2949
  C:3E64H         LINE#         2950
  C:3E6DH         LINE#         2952
  C:3E73H         LINE#         2953
  C:3E73H         LINE#         2954
  C:3EA7H         LINE#         2955
  C:3EAAH         LINE#         2957
  C:3EAAH         LINE#         2958
  C:3EB3H         LINE#         2959
  C:3ECFH         LINE#         2960
  C:3F00H         LINE#         2961
  C:3F00H         LINE#         2962
  C:3F03H         LINE#         2964
  C:3F03H         LINE#         2965
  C:3F13H         LINE#         2966
BL51 BANKED LINKER/LOCATER V6.22                                                      03/06/2019  08:21:13  PAGE 113


  C:3F16H         LINE#         2967
  C:3F2DH         LINE#         2969
  C:3F3EH         LINE#         2970
  C:3F5EH         LINE#         2971
  C:3F6BH         LINE#         2973
  C:3F79H         LINE#         2974
  C:3F82H         LINE#         2976
  C:3F88H         LINE#         2977
  C:3F88H         LINE#         2978
  C:3FBCH         LINE#         2979
  C:3FBEH         LINE#         2981
  C:3FBEH         LINE#         2982
  C:3FC7H         LINE#         2983
  C:3FE3H         LINE#         2984
  C:401BH         LINE#         2985
  C:401BH         LINE#         2986
  C:401BH         LINE#         2988
  C:401BH         LINE#         2989
  C:402AH         LINE#         2990
  C:4032H         LINE#         2991
  C:403AH         LINE#         2992
  C:4042H         LINE#         2993
  C:404AH         LINE#         2994
  C:4052H         LINE#         2995
  C:4058H         LINE#         2996
  C:405FH         LINE#         2997
  C:4066H         LINE#         2998
  C:406BH         LINE#         2999
  C:406BH         LINE#         3000
  C:406BH         LINE#         3001
  C:407AH         LINE#         3002
  C:4082H         LINE#         3003
  C:408AH         LINE#         3004
  C:4092H         LINE#         3005
  C:409AH         LINE#         3006
  C:40A0H         LINE#         3007
  C:40A7H         LINE#         3008
  C:40AEH         LINE#         3009
  C:40B3H         LINE#         3010
  C:40B3H         LINE#         3026
  C:40B3H         LINE#         3027
  C:40C5H         LINE#         3028
  C:40C5H         LINE#         3029
  C:40C5H         LINE#         3030
  C:40D8H         LINE#         3031
  C:40E0H         LINE#         3032
  C:40E8H         LINE#         3036
  C:40E9H         LINE#         3037
  C:40E9H         LINE#         3038
  C:40FCH         LINE#         3039
  C:4104H         LINE#         3040
  C:410CH         LINE#         3044
  C:410DH         LINE#         3046
  C:410DH         LINE#         3047
  C:4115H         LINE#         3048
  C:412CH         LINE#         3049
  C:4131H         LINE#         3050
BL51 BANKED LINKER/LOCATER V6.22                                                      03/06/2019  08:21:13  PAGE 114


  C:4140H         LINE#         3051
  C:4140H         LINE#         3053
  C:4140H         LINE#         3054
  C:4140H         LINE#         3056
  C:4140H         LINE#         3057
  C:4176H         LINE#         3058
  C:4176H         LINE#         3059
  C:4176H         LINE#         3060
  C:4180H         LINE#         3061
  C:4182H         LINE#         3062
  C:4182H         LINE#         3063
  C:418CH         LINE#         3064
  C:418EH         LINE#         3065
  C:418EH         LINE#         3066
  C:4198H         LINE#         3067
  C:419AH         LINE#         3068
  C:419AH         LINE#         3069
  C:419FH         LINE#         3070
  C:41A1H         LINE#         3071
  C:41A1H         LINE#         3072
  C:41ABH         LINE#         3073
  C:41ADH         LINE#         3074
  C:41ADH         LINE#         3075
  C:41B2H         LINE#         3076
  C:41B4H         LINE#         3077
  C:41B4H         LINE#         3078
  C:41BEH         LINE#         3079
  C:41C0H         LINE#         3080
  C:41C0H         LINE#         3081
  C:41C5H         LINE#         3082
  C:41C7H         LINE#         3083
  C:41C7H         LINE#         3084
  C:41D0H         LINE#         3085
  C:41D0H         LINE#         3086
  C:41D0H         LINE#         3089
  C:41D0H         LINE#         3090
  C:41D3H         LINE#         3091
  C:41D9H         LINE#         3092
  C:41DFH         LINE#         3093
  C:41E1H         LINE#         3095
  C:41E1H         LINE#         3096
  C:41E9H         LINE#         3097
  C:41EFH         LINE#         3098
  C:41F8H         LINE#         3099
  C:41F8H         LINE#         3100
  C:41F8H         LINE#         3101
  C:41F8H         LINE#         3103
  C:41F8H         LINE#         3104
  -------         ENDPROC       BUS0RECDEAL
  -------         PROC          BUS0SENDDEAL
  C:E37CH         LINE#         3122
  C:E37CH         LINE#         3123
  C:E37CH         LINE#         3125
  C:E380H         LINE#         3126
  C:E393H         LINE#         3127
  C:E395H         LINE#         3128
  C:E39AH         LINE#         3131
BL51 BANKED LINKER/LOCATER V6.22                                                      03/06/2019  08:21:13  PAGE 115


  C:E3A5H         LINE#         3134
  C:E3B1H         LINE#         3135
  C:E3B1H         LINE#         3136
  C:E3B1H         LINE#         3137
  C:E3B4H         LINE#         3138
  C:E3B4H         LINE#         3145
  C:E3BBH         LINE#         3146
  C:E3BBH         LINE#         3147
  C:E3BBH         LINE#         3149
  C:E3BBH         LINE#         3150
  C:E3BDH         LINE#         3151
  C:E3C3H         LINE#         3152
  C:E3C5H         LINE#         3153
  C:E3C5H         LINE#         3155
  C:E3C5H         LINE#         3156
  C:E3C5H         LINE#         3158
  C:E3C5H         LINE#         3159
  -------         ENDPROC       BUS0SENDDEAL
  -------         PROC          BUS0MANAGE
  C:EB61H         LINE#         3175
  C:EB61H         LINE#         3176
  C:EB61H         LINE#         3177
  C:EB61H         LINE#         3178
  C:EB61H         LINE#         3179
  C:EB64H         LINE#         3180
  C:EB67H         LINE#         3181
  C:EB67H         LINE#         3182
  C:EB6EH         LINE#         3183
  C:EB6EH         LINE#         3184
  C:EB71H         LINE#         3185
  C:EB71H         LINE#         3186
  C:EB78H         LINE#         3187
  C:EB78H         LINE#         3188
  C:EB7FH         LINE#         3189
  -------         ENDPROC       BUS0MANAGE
  -------         PROC          TIMEROUTDEAL
  -------         DO            
  X:0243H         SYMBOL        x
  X:0245H         SYMBOL        y
  C:B576H         SYMBOL        TIMER0OUTDEAL
  -------         ENDDO         
  C:B55CH         LINE#         3207
  C:B55CH         LINE#         3208
  C:B55CH         LINE#         3212
  C:B562H         LINE#         3213
  C:B562H         LINE#         3214
  C:B564H         LINE#         3215
  C:B567H         LINE#         3216
  C:B567H         LINE#         3217
  C:B56BH         LINE#         3218
  C:B56BH         LINE#         3219
  C:B56DH         LINE#         3220
  C:B56DH         LINE#         3222
  C:B56DH         LINE#         3223
  C:B573H         LINE#         3224
  C:B576H         LINE#         3225
  C:B576H         LINE#         3226
BL51 BANKED LINKER/LOCATER V6.22                                                      03/06/2019  08:21:13  PAGE 116


  C:B576H         LINE#         3227
  C:B579H         LINE#         3228
  C:B579H         LINE#         3229
  C:B581H         LINE#         3230
  C:B589H         LINE#         3231
  C:B591H         LINE#         3232
  C:B595H         LINE#         3233
  C:B59DH         LINE#         3234
  C:B5A5H         LINE#         3235
  C:B5ACH         LINE#         3236
  C:B5AFH         LINE#         3237
  C:B5AFH         LINE#         3238
  C:B5B1H         LINE#         3240
  C:B5B1H         LINE#         3241
  C:B5B7H         LINE#         3242
  C:B5B7H         LINE#         3243
  C:B5B7H         LINE#         3244
  C:B5B7H         LINE#         3245
  C:B5B7H         LINE#         3246
  C:B5C2H         LINE#         3247
  C:B5C2H         LINE#         3248
  C:B5C5H         LINE#         3250
  C:B5C7H         LINE#         3251
  C:B5CFH         LINE#         3252
  C:B5CFH         LINE#         3253
  C:B5D2H         LINE#         3254
  C:B5D2H         LINE#         3255
  C:B5F7H         LINE#         3256
  C:B5F9H         LINE#         3258
  C:B5F9H         LINE#         3259
  C:B618H         LINE#         3260
  C:B618H         LINE#         3261
  C:B61DH         LINE#         3262
  C:B620H         LINE#         3263
  C:B62BH         LINE#         3264
  C:B62BH         LINE#         3265
  C:B63BH         LINE#         3266
  C:B64AH         LINE#         3267
  C:B659H         LINE#         3268
  C:B65FH         LINE#         3269
  C:B65FH         LINE#         3270
  C:B66EH         LINE#         3271
  C:B686H         LINE#         3272
  C:B6A1H         LINE#         3274
  C:B6DBH         LINE#         3276
  C:B6DDH         LINE#         3278
  C:B6DDH         LINE#         3279
  C:B71DH         LINE#         3280
  C:B71DH         LINE#         3282
  C:B71DH         LINE#         3283
  C:B71DH         LINE#         3285
  C:B723H         LINE#         3286
  C:B723H         LINE#         3287
  C:B727H         LINE#         3288
  C:B727H         LINE#         3289
  C:B72BH         LINE#         3290
  C:B731H         LINE#         3291
BL51 BANKED LINKER/LOCATER V6.22                                                      03/06/2019  08:21:13  PAGE 117


  C:B731H         LINE#         3292
  C:B731H         LINE#         3294
  -------         ENDPROC       TIMEROUTDEAL
  -------         PROC          TIMEROUTMANAGER
  C:EAFBH         LINE#         3310
  C:EAFBH         LINE#         3311
  C:EAFBH         LINE#         3312
  C:EAFBH         LINE#         3313
  C:EAFBH         LINE#         3314
  C:EAFEH         LINE#         3315
  C:EB05H         LINE#         3316
  C:EB0BH         LINE#         3317
  C:EB0BH         LINE#         3318
  C:EB12H         LINE#         3319
  C:EB14H         LINE#         3321
  C:EB14H         LINE#         3322
  C:EB1BH         LINE#         3323
  C:EB1BH         LINE#         3324
  -------         ENDPROC       TIMEROUTMANAGER
  -------         ENDMOD        SINGLEBUS

  -------         MODULE        SPI
  C:0000H         SYMBOL        _ICE_DUMMY_
  D:0092H         PUBLIC        P1M0
  D:0091H         PUBLIC        P1M1
  D:0080H         PUBLIC        P0
  D:0090H         PUBLIC        P1
  D:00A0H         PUBLIC        P2
  D:00B0H         PUBLIC        P3
  D:00C0H         PUBLIC        P4
  D:00C8H         PUBLIC        P5
  B:00A8H.7       PUBLIC        EA
  D:00CEH         PUBLIC        SPCTL
  C:EA02H         PUBLIC        EPH1660MasterSPI
  D:00A8H         PUBLIC        IE
  D:00B6H         PUBLIC        IP2H
  D:00B8H         PUBLIC        IP
  C:EEBCH         PUBLIC        SPIInt
  B:00C8H.2       PUBLIC        SPI_CMD
  B:0090H.4       PUBLIC        EPH1660_CS
  D:00D8H         PUBLIC        CCON
  B:00C0H.4       PUBLIC        ADS7843_CS
  B:0090H.7       PUBLIC        SCLK
  D:0098H         PUBLIC        SCON
  D:0088H         PUBLIC        TCON
  B:0090H.5       PUBLIC        MOSI
  D:00AFH         PUBLIC        IE2
  C:EB81H         PUBLIC        MCUMasterSPI
  B:00C0H.5       PUBLIC        GT23L_CS
  D:00E0H         PUBLIC        ACC
  D:00B5H         PUBLIC        IP2
  B:0090H.3       PUBLIC        WKICOM
  D:00CDH         PUBLIC        SPSTAT
  C:003EH         PUBLIC        _SPI_WriteByte
  B:00C0H.1       PUBLIC        SST25VF_CS
  D:00D0H         PUBLIC        PSW
  D:00CFH         PUBLIC        SPDAT
BL51 BANKED LINKER/LOCATER V6.22                                                      03/06/2019  08:21:13  PAGE 118


  -------         PROC          MCUMASTERSPI
  C:EB81H         LINE#         45
  C:EB81H         LINE#         46
  C:EB81H         LINE#         49
  C:EB83H         LINE#         50
  C:EB85H         LINE#         51
  C:EB87H         LINE#         52
  C:EB89H         LINE#         54
  C:EB8CH         LINE#         56
  C:EB8FH         LINE#         57
  C:EB92H         LINE#         58
  C:EB94H         LINE#         59
  C:EB97H         LINE#         61
  C:EB9AH         LINE#         62
  C:EB9DH         LINE#         63
  C:EBA0H         LINE#         65
  -------         ENDPROC       MCUMASTERSPI
  -------         PROC          _SPI_WRITEBYTE
  D:0007H         SYMBOL        dat
  C:003EH         LINE#         104
  C:003EH         LINE#         105
  C:003EH         LINE#         106
  C:0040H         LINE#         107
  C:0045H         LINE#         108
  C:0048H         LINE#         109
  C:004AH         LINE#         110
  -------         ENDPROC       _SPI_WRITEBYTE
  -------         PROC          EPH1660MASTERSPI
  C:EA02H         LINE#         114
  C:EA02H         LINE#         115
  C:EA02H         LINE#         117
  C:EA04H         LINE#         118
  C:EA06H         LINE#         119
  C:EA08H         LINE#         120
  C:EA0AH         LINE#         123
  C:EA0CH         LINE#         126
  C:EA0EH         LINE#         129
  C:EA11H         LINE#         132
  C:EA14H         LINE#         133
  C:EA16H         LINE#         134
  C:EA18H         LINE#         135
  C:EA1BH         LINE#         136
  C:EA1EH         LINE#         138
  C:EA21H         LINE#         139
  C:EA24H         LINE#         140
  C:EA26H         LINE#         141
  -------         ENDPROC       EPH1660MASTERSPI
  -------         PROC          SPIINT
  C:EEBCH         LINE#         146
  C:EEBCH         LINE#         149
  C:EEBEH         LINE#         150
  C:EEC1H         LINE#         184
  C:EEC3H         LINE#         186
  -------         ENDPROC       SPIINT
  -------         ENDMOD        SPI

  -------         MODULE        UART
BL51 BANKED LINKER/LOCATER V6.22                                                      03/06/2019  08:21:13  PAGE 119


  C:0000H         SYMBOL        _ICE_DUMMY_
  D:0080H         PUBLIC        P0
  D:0090H         PUBLIC        P1
  D:00A0H         PUBLIC        P2
  D:00B0H         PUBLIC        P3
  D:00C0H         PUBLIC        P4
  D:00C8H         PUBLIC        P5
  X:009BH         PUBLIC        stUsartCfg
  D:00A8H         PUBLIC        IE
  C:DC20H         PUBLIC        _CheckPsk
  B:00A8H.4       PUBLIC        ES
  D:00B8H         PUBLIC        IP
  B:0098H.0       PUBLIC        RI
  B:0098H.1       PUBLIC        TI
  D:00D8H         PUBLIC        CCON
  B:0027H.2       PUBLIC        bUsart0RecFinish
  C:DD11H         PUBLIC        UsartInit
  D:0099H         PUBLIC        SBUF
  D:0087H         PUBLIC        PCON
  D:0098H         PUBLIC        SCON
  B:0027H.3       PUBLIC        bRS485DataError
  D:0089H         PUBLIC        TMOD
  D:0088H         PUBLIC        TCON
  D:008EH         PUBLIC        AUXR
  D:00E0H         PUBLIC        ACC
  B:0088H.7       PUBLIC        TF1
  D:008DH         PUBLIC        TH1
  D:008BH         PUBLIC        TL1
  C:ED13H         PUBLIC        UsartManager
  C:ACDDH         PUBLIC        Usart0RecDeal
  B:0088H.6       PUBLIC        TR1
  D:00C1H         PUBLIC        WDT_CONTR
  X:00A4H         PUBLIC        byUsart0RecBuf
  B:0098H.4       PUBLIC        REN
  C:DF34H         PUBLIC        _GetPskCrc
  C:C712H         PUBLIC        UART0
  D:00D0H         PUBLIC        PSW
  -------         PROC          USARTINIT
  C:DD11H         LINE#         44
  C:DD11H         LINE#         45
  C:DD11H         LINE#         46
  C:DD13H         LINE#         49
  C:DD1DH         LINE#         50
  C:DD20H         LINE#         51
  C:DD24H         LINE#         52
  C:DD28H         LINE#         53
  C:DD2AH         LINE#         55
  C:DD2DH         LINE#         56
  C:DD30H         LINE#         57
  C:DD33H         LINE#         60
  C:DD43H         LINE#         61
  C:DD43H         LINE#         62
  C:DD46H         LINE#         63
  C:DD52H         LINE#         64
  C:DD54H         LINE#         67
  C:DD54H         LINE#         68
  C:DD57H         LINE#         69
BL51 BANKED LINKER/LOCATER V6.22                                                      03/06/2019  08:21:13  PAGE 120


  C:DD72H         LINE#         70
  C:DD72H         LINE#         73
  C:DD75H         LINE#         74
  C:DD78H         LINE#         75
  C:DD7AH         LINE#         76
  C:DD7CH         LINE#         78
  C:DD7EH         LINE#         79
  C:DD80H         LINE#         80
  C:DD82H         LINE#         81
  C:DD84H         LINE#         82
  -------         ENDPROC       USARTINIT
  -------         PROC          UART0
  -------         DO            
  D:0007H         SYMBOL        byTemp
  -------         ENDDO         
  C:C712H         LINE#         101
  C:C729H         LINE#         104
  C:C72FH         LINE#         105
  C:C72FH         LINE#         106
  C:C731H         LINE#         107
  C:C733H         LINE#         108
  C:C73DH         LINE#         109
  C:C73DH         LINE#         110
  C:C743H         LINE#         111
  C:C743H         LINE#         112
  C:C746H         LINE#         113
  C:C749H         LINE#         115
  C:C749H         LINE#         116
  C:C749H         LINE#         117
  C:C74FH         LINE#         118
  C:C767H         LINE#         119
  C:C77EH         LINE#         120
  C:C77EH         LINE#         121
  C:C77EH         LINE#         122
  C:C782H         LINE#         123
  C:C782H         LINE#         124
  C:C788H         LINE#         126
  C:C78EH         LINE#         127
  C:C791H         LINE#         129
  C:C791H         LINE#         130
  C:C795H         LINE#         131
  C:C795H         LINE#         132
  C:C798H         LINE#         133
  C:C798H         LINE#         134
  C:C7A3H         LINE#         135
  C:C7A3H         LINE#         136
  C:C7A9H         LINE#         137
  C:C7AEH         LINE#         138
  C:C7AEH         LINE#         139
  C:C7B0H         LINE#         140
  C:C7B0H         LINE#         141
  C:C7B6H         LINE#         142
  C:C7BBH         LINE#         143
  C:C7BBH         LINE#         144
  C:C7C3H         LINE#         145
  C:C7C5H         LINE#         146
  C:C7C8H         LINE#         147
BL51 BANKED LINKER/LOCATER V6.22                                                      03/06/2019  08:21:13  PAGE 121


  C:C7C8H         LINE#         149
  C:C7D7H         LINE#         150
  C:C7E7H         LINE#         151
  C:C7E7H         LINE#         152
  C:C7EAH         LINE#         153
  C:C7F8H         LINE#         154
  C:C7FAH         LINE#         156
  C:C7FAH         LINE#         157
  C:C7FCH         LINE#         158
  C:C7FDH         LINE#         159
  C:C7FDH         LINE#         160
  C:C7FDH         LINE#         161
  C:C7FFH         LINE#         162
  C:C7FFH         LINE#         163
  C:C80DH         LINE#         164
  C:C80DH         LINE#         165
  C:C811H         LINE#         166
  C:C811H         LINE#         167
  C:C813H         LINE#         168
  C:C813H         LINE#         169
  C:C818H         LINE#         170
  C:C819H         LINE#         171
  C:C819H         LINE#         172
  C:C81BH         LINE#         173
  C:C81BH         LINE#         174
  C:C820H         LINE#         175
  C:C824H         LINE#         176
  C:C824H         LINE#         177
  C:C824H         LINE#         178
  C:C824H         LINE#         179
  -------         ENDPROC       UART0
  -------         PROC          _GETPSKCRC
  X:02F1H         SYMBOL        pstDataFreq
  -------         DO            
  X:02F4H         SYMBOL        pbyData
  X:02F7H         SYMBOL        uiLen
  D:0005H         SYMBOL        byCrc
  -------         ENDDO         
  C:DF34H         LINE#         196
  C:DF3FH         LINE#         197
  C:DF3FH         LINE#         200
  C:DF41H         LINE#         202
  C:DF44H         LINE#         204
  C:DF54H         LINE#         205
  C:DF72H         LINE#         206
  C:DF80H         LINE#         207
  C:DF80H         LINE#         208
  C:DF95H         LINE#         209
  C:DF97H         LINE#         210
  C:DF99H         LINE#         211
  -------         ENDPROC       _GETPSKCRC
  -------         PROC          _CHECKPSK
  X:0248H         SYMBOL        pstDataFreq
  -------         DO            
  X:024BH         SYMBOL        pbyData
  X:024EH         SYMBOL        uiLen
  D:0005H         SYMBOL        byCrc
BL51 BANKED LINKER/LOCATER V6.22                                                      03/06/2019  08:21:13  PAGE 122


  -------         ENDDO         
  C:DC20H         LINE#         227
  C:DC2BH         LINE#         228
  C:DC2BH         LINE#         231
  C:DC2DH         LINE#         233
  C:DC30H         LINE#         235
  C:DC40H         LINE#         236
  C:DC5EH         LINE#         237
  C:DC6CH         LINE#         238
  C:DC6CH         LINE#         239
  C:DC81H         LINE#         240
  C:DC83H         LINE#         241
  C:DC94H         LINE#         242
  C:DC94H         LINE#         243
  C:DC97H         LINE#         244
  C:DC97H         LINE#         245
  C:DC99H         LINE#         246
  -------         ENDPROC       _CHECKPSK
  -------         PROC          USART0RECDEAL
  -------         DO            
  X:0243H         SYMBOL        pstDataFreq
  D:0007H         SYMBOL        i
  X:0246H         SYMBOL        uiDataLen
  -------         ENDDO         
  C:ACDDH         LINE#         263
  C:ACDDH         LINE#         264
  C:ACDDH         LINE#         269
  C:ACF3H         LINE#         271
  C:ACF5H         LINE#         272
  C:ACFDH         LINE#         273
  C:AD05H         LINE#         274
  C:AD0DH         LINE#         276
  C:AD1EH         LINE#         277
  C:AD28H         LINE#         278
  C:AD32H         LINE#         279
  C:AD3CH         LINE#         281
  C:AD48H         LINE#         282
  C:AD48H         LINE#         283
  C:AD6CH         LINE#         284
  C:AD6CH         LINE#         285
  C:AD72H         LINE#         286
  C:AD72H         LINE#         287
  C:AD78H         LINE#         288
  C:AD78H         LINE#         289
  C:AD7AH         LINE#         290
  C:AD7BH         LINE#         292
  C:AD7BH         LINE#         293
  C:AD81H         LINE#         294
  C:AD8AH         LINE#         295
  C:AD8CH         LINE#         296
  C:AD8CH         LINE#         297
  C:AD8DH         LINE#         301
  C:AD8DH         LINE#         303
  C:AD94H         LINE#         304
  C:AD94H         LINE#         305
  C:AD96H         LINE#         306
  C:AD96H         LINE#         308
BL51 BANKED LINKER/LOCATER V6.22                                                      03/06/2019  08:21:13  PAGE 123


  C:AD9EH         LINE#         309
  C:AD9EH         LINE#         310
  C:ADA4H         LINE#         311
  C:ADA4H         LINE#         312
  C:ADA7H         LINE#         313
  C:ADBBH         LINE#         314
  C:ADBBH         LINE#         315
  C:ADBDH         LINE#         318
  C:ADBDH         LINE#         319
  C:ADC0H         LINE#         320
  C:ADC9H         LINE#         321
  C:ADC9H         LINE#         322
  C:ADC9H         LINE#         324
  C:ADCFH         LINE#         325
  C:ADCFH         LINE#         327
  C:ADDAH         LINE#         328
  C:ADDAH         LINE#         330
  C:AE1BH         LINE#         331
  C:AE32H         LINE#         332
  C:AE32H         LINE#         333
  C:AE40H         LINE#         334
  C:AE40H         LINE#         335
  C:AE58H         LINE#         336
  C:AE58H         LINE#         337
  C:AE5BH         LINE#         340
  C:AE63H         LINE#         341
  C:AE63H         LINE#         342
  C:AE66H         LINE#         343
  C:AE71H         LINE#         344
  C:AE74H         LINE#         346
  C:AE90H         LINE#         348
  C:AEA4H         LINE#         351
  C:AEA6H         LINE#         354
  C:AEA6H         LINE#         355
  C:AEC9H         LINE#         356
  C:AEE3H         LINE#         358
  C:AEE3H         LINE#         360
  C:AEE9H         LINE#         361
  C:AEE9H         LINE#         363
  C:AF0CH         LINE#         364
  C:AF11H         LINE#         365
  C:AF18H         LINE#         366
  C:AF18H         LINE#         367
  C:AF18H         LINE#         369
  C:AF19H         LINE#         371
  C:AF19H         LINE#         372
  C:AF22H         LINE#         373
  C:AF22H         LINE#         374
  C:AF22H         LINE#         375
  C:AF22H         LINE#         376
  C:AF22H         LINE#         377
  -------         ENDPROC       USART0RECDEAL
  -------         PROC          USARTMANAGER
  C:ED13H         LINE#         395
  C:ED13H         LINE#         396
  C:ED13H         LINE#         397
  C:ED13H         LINE#         398
BL51 BANKED LINKER/LOCATER V6.22                                                      03/06/2019  08:21:13  PAGE 124


  C:ED13H         LINE#         399
  C:ED16H         LINE#         400
  C:ED19H         LINE#         401
  C:ED19H         LINE#         402
  C:ED20H         LINE#         403
  C:ED20H         LINE#         405
  C:ED27H         LINE#         407
  -------         ENDPROC       USARTMANAGER
  -------         ENDMOD        UART

  -------         MODULE        SST25VF040_2005
  C:0000H         SYMBOL        _ICE_DUMMY_
  C:EB3FH         PUBLIC        WREN_Check
  D:0080H         PUBLIC        P0
  D:0090H         PUBLIC        P1
  D:00A0H         PUBLIC        P2
  C:ED87H         PUBLIC        _Send_Byte
  D:00B0H         PUBLIC        P3
  D:00C0H         PUBLIC        P4
  C:E911H         PUBLIC        _Byte_Write
  D:00C8H         PUBLIC        P5
  D:00A8H         PUBLIC        IE
  C:EDC1H         PUBLIC        Read_Status_Register
  C:E9D6H         PUBLIC        Get_Byte
  D:00B8H         PUBLIC        IP
  C:EEDAH         PUBLIC        CE_Low
  C:EC4FH         PUBLIC        Poll_SO
  C:EB1DH         PUBLIC        Wait_Busy
  C:0012H         PUBLIC        Hold_Low
  D:00D8H         PUBLIC        CCON
  C:E410H         PUBLIC        Jedec_ID_Read
  C:EA27H         PUBLIC        WREN_AAI_Check
  X:02B1H         PUBLIC        FRAM_BUFF
  C:EE8DH         PUBLIC        DBSY
  C:EE82H         PUBLIC        EBSY
  D:0098H         PUBLIC        SCON
  D:0088H         PUBLIC        TCON
  C:EBA1H         PUBLIC        _Byte_Write1
  C:EE77H         PUBLIC        WRDI
  B:0090H.6       PUBLIC        MISO
  C:DECDH         PUBLIC        _AAI_Write
  C:001AH         PUBLIC        WP_Low
  C:EE2EH         PUBLIC        WREN
  C:EC69H         PUBLIC        _delay_nms
  C:EE6CH         PUBLIC        EWSR
  C:E3C6H         PUBLIC        _Auto_Add_IncA
  C:EA93H         PUBLIC        _Auto_Add_IncB
  C:E4ABH         PUBLIC        _Sector_Erase
  D:00E0H         PUBLIC        ACC
  C:D38AH         PUBLIC        FRAM_TEST
  C:E966H         PUBLIC        Wait_Busy_AAI
  C:ED8FH         PUBLIC        _delay_nus
  C:D211H         PUBLIC        _HighSpeed_Read_Cont
  C:EC33H         PUBLIC        _WRSR
  C:E6FFH         PUBLIC        _Block_Erase_32K
  C:E140H         PUBLIC        _Byte_Program
  C:E458H         PUBLIC        _HighSpeed_Read
BL51 BANKED LINKER/LOCATER V6.22                                                      03/06/2019  08:21:13  PAGE 125


  C:E73CH         PUBLIC        _Block_Erase_64K
  C:E28BH         PUBLIC        _Auto_Add_IncA_EBSY
  D:00C1H         PUBLIC        WDT_CONTR
  C:EE98H         PUBLIC        Chip_Erase
  C:E8BAH         PUBLIC        _Auto_Add_IncB_EBSY
  C:0026H         PUBLIC        CE_High
  C:E1DDH         PUBLIC        _AAI_Write1
  C:E93CH         PUBLIC        _Read_ID
  C:0021H         PUBLIC        UnWP
  C:0019H         PUBLIC        Unhold
  C:D2D0H         PUBLIC        _Read_Cont
  C:EA70H         PUBLIC        SST25VF_Init
  B:00C0H.1       PUBLIC        SST25VF_CS
  D:00D0H         PUBLIC        PSW
  C:E6C0H         PUBLIC        _Read
  -------         PROC          SST25VF_INIT
  C:EA70H         LINE#         162
  C:EA70H         LINE#         163
  C:EA70H         LINE#         166
  C:EA76H         LINE#         168
  C:EA79H         LINE#         169
  C:EA80H         LINE#         170
  C:EA86H         LINE#         171
  C:EA8DH         LINE#         173
  -------         ENDPROC       SST25VF_INIT
  C:ED77H         SYMBOL        L?0088
  C:ED83H         SYMBOL        L?0089
  -------         PROC          L?0087
  -------         ENDPROC       L?0087
  C:ED77H         SYMBOL        L?0088
  C:ED83H         SYMBOL        L?0089
  -------         PROC          _SEND_BYTE
  D:0007H         SYMBOL        out
  C:ED87H         LINE#         188
  C:ED87H         LINE#         189
  C:ED87H         LINE#         191
  -------         ENDPROC       _SEND_BYTE
  -------         PROC          L?0092
  -------         ENDPROC       L?0092
  -------         PROC          GET_BYTE
  -------         DO            
  D:0007H         SYMBOL        in
  -------         ENDDO         
  C:E9D6H         LINE#         206
  C:E9D6H         LINE#         207
  C:E9D6H         LINE#         211
  C:E9DBH         LINE#         212
  C:E9DBH         LINE#         213
  -------         ENDPROC       GET_BYTE
  -------         PROC          POLL_SO
  -------         DO            
  X:0345H         SYMBOL        temp
  -------         ENDDO         
  C:EC4FH         LINE#         228
  C:EC4FH         LINE#         229
  C:EC4FH         LINE#         230
  C:EC54H         LINE#         231
BL51 BANKED LINKER/LOCATER V6.22                                                      03/06/2019  08:21:13  PAGE 126


  C:EC57H         LINE#         232
  C:EC5DH         LINE#         233
  C:EC5DH         LINE#         234
  C:EC61H         LINE#         235
  C:EC64H         LINE#         236
  C:EC66H         LINE#         237
  -------         ENDPROC       POLL_SO
  -------         PROC          CE_HIGH
  C:0026H         LINE#         252
  C:0026H         LINE#         253
  C:0026H         LINE#         254
  C:0028H         LINE#         255
  -------         ENDPROC       CE_HIGH
  -------         PROC          L?0093
  -------         ENDPROC       L?0093
  -------         PROC          CE_LOW
  C:EEDAH         LINE#         269
  C:EEDAH         LINE#         270
  C:EEDAH         LINE#         271
  C:EEDCH         LINE#         272
  -------         ENDPROC       CE_LOW
  -------         PROC          HOLD_LOW
  C:0012H         LINE#         285
  C:0012H         LINE#         286
  C:0012H         LINE#         290
  -------         ENDPROC       HOLD_LOW
  -------         PROC          UNHOLD
  C:0019H         LINE#         303
  C:0019H         LINE#         304
  C:0019H         LINE#         308
  -------         ENDPROC       UNHOLD
  -------         PROC          WP_LOW
  C:001AH         LINE#         321
  C:001AH         LINE#         322
  C:001AH         LINE#         326
  -------         ENDPROC       WP_LOW
  -------         PROC          UNWP
  C:0021H         LINE#         339
  C:0021H         LINE#         340
  C:0021H         LINE#         344
  -------         ENDPROC       UNWP
  -------         PROC          READ_STATUS_REGISTER
  -------         DO            
  D:0007H         SYMBOL        byte
  -------         ENDDO         
  C:EDC1H         LINE#         357
  C:EDC1H         LINE#         358
  C:EDC1H         LINE#         359
  C:EDC3H         LINE#         360
  C:EDC6H         LINE#         361
  C:EDCBH         LINE#         362
  C:EDCEH         LINE#         363
  C:EDD1H         LINE#         364
  C:EDD1H         LINE#         365
  -------         ENDPROC       READ_STATUS_REGISTER
  -------         PROC          EWSR
  C:EE6CH         LINE#         378
BL51 BANKED LINKER/LOCATER V6.22                                                      03/06/2019  08:21:13  PAGE 127


  C:EE6CH         LINE#         379
  C:EE6CH         LINE#         380
  C:EE6FH         LINE#         381
  C:EE74H         LINE#         382
  -------         ENDPROC       EWSR
  -------         PROC          _WRSR
  X:0243H         SYMBOL        byte
  C:EC33H         LINE#         396
  C:EC3BH         LINE#         397
  C:EC3BH         LINE#         398
  C:EC3EH         LINE#         399
  C:EC43H         LINE#         400
  C:EC4CH         LINE#         402
  -------         ENDPROC       _WRSR
  -------         PROC          WREN
  C:EE2EH         LINE#         417
  C:EE2EH         LINE#         418
  C:EE2EH         LINE#         419
  C:EE31H         LINE#         420
  C:EE36H         LINE#         421
  C:EE39H         LINE#         422
  -------         ENDPROC       WREN
  -------         PROC          WRDI
  C:EE77H         LINE#         437
  C:EE77H         LINE#         438
  C:EE77H         LINE#         439
  C:EE7AH         LINE#         440
  C:EE7FH         LINE#         441
  -------         ENDPROC       WRDI
  -------         PROC          EBSY
  C:EE82H         LINE#         456
  C:EE82H         LINE#         457
  C:EE82H         LINE#         458
  C:EE85H         LINE#         459
  C:EE8AH         LINE#         460
  -------         ENDPROC       EBSY
  -------         PROC          DBSY
  C:EE8DH         LINE#         475
  C:EE8DH         LINE#         476
  C:EE8DH         LINE#         477
  C:EE90H         LINE#         478
  C:EE95H         LINE#         479
  -------         ENDPROC       DBSY
  -------         PROC          _READ_ID
  X:0336H         SYMBOL        ID_addr
  -------         DO            
  D:0007H         SYMBOL        byte
  -------         ENDDO         
  C:E93CH         LINE#         499
  C:E944H         LINE#         500
  C:E944H         LINE#         502
  C:E947H         LINE#         503
  C:E94CH         LINE#         504
  C:E951H         LINE#         505
  C:E956H         LINE#         506
  C:E95FH         LINE#         507
  C:E962H         LINE#         508
BL51 BANKED LINKER/LOCATER V6.22                                                      03/06/2019  08:21:13  PAGE 128


  C:E965H         LINE#         509
  C:E965H         LINE#         510
  -------         ENDPROC       _READ_ID
  -------         PROC          JEDEC_ID_READ
  -------         DO            
  X:0322H         SYMBOL        temp
  -------         ENDDO         
  C:E410H         LINE#         527
  C:E410H         LINE#         528
  C:E410H         LINE#         531
  C:E41AH         LINE#         533
  C:E41DH         LINE#         534
  C:E422H         LINE#         535
  C:E425H         LINE#         536
  C:E428H         LINE#         537
  C:E446H         LINE#         538
  C:E449H         LINE#         540
  C:E457H         LINE#         541
  -------         ENDPROC       JEDEC_ID_READ
  -------         PROC          _READ
  X:0248H         SYMBOL        Dst
  -------         DO            
  D:0007H         SYMBOL        byte
  -------         ENDDO         
  C:E6C0H         LINE#         560
  C:E6C6H         LINE#         561
  C:E6C6H         LINE#         562
  C:E6C8H         LINE#         564
  C:E6CBH         LINE#         565
  C:E6D0H         LINE#         566
  C:E6D6H         LINE#         567
  C:E6E7H         LINE#         568
  C:E6F8H         LINE#         569
  C:E6FBH         LINE#         570
  C:E6FEH         LINE#         571
  C:E6FEH         LINE#         572
  -------         ENDPROC       _READ
  -------         PROC          _READ_CONT
  X:024DH         SYMBOL        Dst
  X:0251H         SYMBOL        no_bytes
  X:0255H         SYMBOL        pBuffer
  -------         DO            
  X:0258H         SYMBOL        i
  -------         ENDDO         
  C:D2D0H         LINE#         589
  C:D2D6H         LINE#         590
  C:D2D6H         LINE#         591
  C:D2E0H         LINE#         592
  C:D2E3H         LINE#         593
  C:D2E6H         LINE#         594
  C:D2EBH         LINE#         595
  C:D2F1H         LINE#         596
  C:D306H         LINE#         597
  C:D317H         LINE#         598
  C:D343H         LINE#         599
  C:D343H         LINE#         600
  C:D366H         LINE#         601
BL51 BANKED LINKER/LOCATER V6.22                                                      03/06/2019  08:21:13  PAGE 129


  C:D387H         LINE#         602
  -------         ENDPROC       _READ_CONT
  -------         PROC          _HIGHSPEED_READ
  X:0326H         SYMBOL        Dst
  -------         DO            
  D:0007H         SYMBOL        byte
  -------         ENDDO         
  C:E458H         LINE#         623
  C:E45EH         LINE#         624
  C:E45EH         LINE#         625
  C:E460H         LINE#         627
  C:E463H         LINE#         628
  C:E468H         LINE#         629
  C:E46EH         LINE#         630
  C:E483H         LINE#         631
  C:E494H         LINE#         632
  C:E499H         LINE#         633
  C:E49CH         LINE#         634
  C:E49FH         LINE#         635
  C:E49FH         LINE#         636
  -------         ENDPROC       _HIGHSPEED_READ
  -------         PROC          _HIGHSPEED_READ_CONT
  X:02C5H         SYMBOL        Dst
  X:02C9H         SYMBOL        no_bytes
  X:02CDH         SYMBOL        pBuffer
  -------         DO            
  X:02D0H         SYMBOL        i
  -------         ENDDO         
  C:D211H         LINE#         652
  C:D217H         LINE#         653
  C:D217H         LINE#         654
  C:D221H         LINE#         655
  C:D224H         LINE#         656
  C:D227H         LINE#         657
  C:D22CH         LINE#         658
  C:D232H         LINE#         659
  C:D247H         LINE#         660
  C:D258H         LINE#         661
  C:D25DH         LINE#         662
  C:D289H         LINE#         663
  C:D289H         LINE#         664
  C:D2ACH         LINE#         665
  C:D2CDH         LINE#         666
  -------         ENDPROC       _HIGHSPEED_READ_CONT
  C:E13CH         SYMBOL        L?0091
  -------         PROC          L?0090
  -------         ENDPROC       L?0090
  C:E13CH         SYMBOL        L?0091
  -------         PROC          _BYTE_PROGRAM
  X:0250H         SYMBOL        Dst
  X:0254H         SYMBOL        byte
  C:E140H         LINE#         687
  C:E143H         LINE#         688
  C:E143H         LINE#         689
  C:E146H         LINE#         690
  C:E14BH         LINE#         691
  C:E151H         LINE#         692
BL51 BANKED LINKER/LOCATER V6.22                                                      03/06/2019  08:21:13  PAGE 130


  C:E166H         LINE#         693
  C:E177H         LINE#         694
  C:E17FH         LINE#         695
  -------         ENDPROC       _BYTE_PROGRAM
  -------         PROC          _AUTO_ADD_INCA
  X:0307H         SYMBOL        Dst
  X:030BH         SYMBOL        byte1
  X:030CH         SYMBOL        byte2
  C:E3C6H         LINE#         726
  C:E3C9H         LINE#         727
  C:E3C9H         LINE#         728
  C:E3CCH         LINE#         729
  C:E3D1H         LINE#         730
  C:E3D7H         LINE#         731
  C:E3ECH         LINE#         732
  C:E3FDH         LINE#         733
  C:E405H         LINE#         734
  C:E40DH         LINE#         735
  -------         ENDPROC       _AUTO_ADD_INCA
  -------         PROC          _AUTO_ADD_INCB
  X:0338H         SYMBOL        byte1
  X:0339H         SYMBOL        byte2
  C:EA93H         LINE#         766
  C:EA9BH         LINE#         767
  C:EA9BH         LINE#         768
  C:EA9EH         LINE#         769
  C:EAA3H         LINE#         770
  C:EAABH         LINE#         771
  C:EAB3H         LINE#         772
  -------         ENDPROC       _AUTO_ADD_INCB
  -------         PROC          _AUTO_ADD_INCA_EBSY
  X:030DH         SYMBOL        Dst
  X:0311H         SYMBOL        byte1
  X:0312H         SYMBOL        byte2
  C:E28BH         LINE#         805
  C:E291H         LINE#         806
  C:E291H         LINE#         807
  C:E294H         LINE#         809
  C:E297H         LINE#         810
  C:E29CH         LINE#         811
  C:E2A2H         LINE#         812
  C:E2B7H         LINE#         813
  C:E2C8H         LINE#         814
  C:E2D0H         LINE#         815
  C:E2D8H         LINE#         816
  C:E2DBH         LINE#         818
  -------         ENDPROC       _AUTO_ADD_INCA_EBSY
  -------         PROC          _AUTO_ADD_INCB_EBSY
  X:033AH         SYMBOL        byte1
  X:033BH         SYMBOL        byte2
  C:E8BAH         LINE#         852
  C:E8C2H         LINE#         853
  C:E8C2H         LINE#         854
  C:E8C5H         LINE#         855
  C:E8CAH         LINE#         856
  C:E8D2H         LINE#         857
  C:E8DAH         LINE#         858
BL51 BANKED LINKER/LOCATER V6.22                                                      03/06/2019  08:21:13  PAGE 131


  C:E8DDH         LINE#         860
  C:E8E0H         LINE#         862
  C:E8E3H         LINE#         863
  -------         ENDPROC       _AUTO_ADD_INCB_EBSY
  -------         PROC          CHIP_ERASE
  C:EE98H         LINE#         877
  C:EE98H         LINE#         878
  C:EE98H         LINE#         879
  C:EE9BH         LINE#         880
  C:EEA0H         LINE#         881
  -------         ENDPROC       CHIP_ERASE
  -------         PROC          L?0094
  -------         ENDPROC       L?0094
  -------         PROC          _SECTOR_ERASE
  X:0250H         SYMBOL        Dst
  C:E4ABH         LINE#         895
  C:E4B1H         LINE#         896
  C:E4B1H         LINE#         899
  C:E4B4H         LINE#         900
  C:E4B9H         LINE#         901
  C:E4BFH         LINE#         902
  C:E4D4H         LINE#         903
  C:E4E5H         LINE#         904
  -------         ENDPROC       _SECTOR_ERASE
  -------         PROC          _BLOCK_ERASE_32K
  X:0248H         SYMBOL        Dst
  C:E6FFH         LINE#         918
  C:E705H         LINE#         919
  C:E705H         LINE#         920
  C:E708H         LINE#         921
  C:E70DH         LINE#         922
  C:E713H         LINE#         923
  C:E728H         LINE#         924
  C:E739H         LINE#         925
  -------         ENDPROC       _BLOCK_ERASE_32K
  -------         PROC          _BLOCK_ERASE_64K
  X:032AH         SYMBOL        Dst
  C:E73CH         LINE#         939
  C:E742H         LINE#         940
  C:E742H         LINE#         941
  C:E745H         LINE#         942
  C:E74AH         LINE#         943
  C:E750H         LINE#         944
  C:E765H         LINE#         945
  C:E776H         LINE#         946
  -------         ENDPROC       _BLOCK_ERASE_64K
  -------         PROC          WAIT_BUSY
  -------         DO            
  X:0250H         SYMBOL        i
  -------         ENDDO         
  C:EB1DH         LINE#         961
  C:EB1DH         LINE#         962
  C:EB1DH         LINE#         963
  C:EB25H         LINE#         964
  C:EB2CH         LINE#         965
  C:EB2CH         LINE#         966
  C:EB2CH         LINE#         967
BL51 BANKED LINKER/LOCATER V6.22                                                      03/06/2019  08:21:13  PAGE 132


  C:EB2FH         LINE#         968
  C:EB3EH         LINE#         971
  -------         ENDPROC       WAIT_BUSY
  -------         PROC          WAIT_BUSY_AAI
  -------         DO            
  X:033CH         SYMBOL        i
  -------         ENDDO         
  C:E966H         LINE#         984
  C:E966H         LINE#         985
  C:E966H         LINE#         986
  C:E96EH         LINE#         987
  C:E975H         LINE#         988
  C:E975H         LINE#         989
  C:E978H         LINE#         990
  C:E97FH         LINE#         991
  C:E98EH         LINE#         993
  -------         ENDPROC       WAIT_BUSY_AAI
  -------         PROC          WREN_CHECK
  -------         DO            
  X:033EH         SYMBOL        i
  -------         ENDDO         
  C:EB3FH         LINE#         1006
  C:EB3FH         LINE#         1007
  C:EB3FH         LINE#         1008
  C:EB47H         LINE#         1009
  C:EB4EH         LINE#         1010
  C:EB4EH         LINE#         1011
  C:EB4EH         LINE#         1012
  C:EB51H         LINE#         1013
  C:EB60H         LINE#         1015
  -------         ENDPROC       WREN_CHECK
  -------         PROC          WREN_AAI_CHECK
  -------         DO            
  X:0340H         SYMBOL        i
  -------         ENDDO         
  C:EA27H         LINE#         1028
  C:EA27H         LINE#         1029
  C:EA27H         LINE#         1030
  C:EA2FH         LINE#         1031
  C:EA39H         LINE#         1032
  C:EA39H         LINE#         1033
  C:EA39H         LINE#         1034
  C:EA3CH         LINE#         1035
  C:EA4BH         LINE#         1037
  -------         ENDPROC       WREN_AAI_CHECK
  -------         PROC          _BYTE_WRITE
  X:0318H         SYMBOL        Dst
  X:031CH         SYMBOL        byte
  C:E911H         LINE#         1042
  C:E917H         LINE#         1043
  C:E917H         LINE#         1044
  C:E91AH         LINE#         1045
  C:E920H         LINE#         1046
  C:E923H         LINE#         1049
  C:E926H         LINE#         1050
  C:E939H         LINE#         1051
  -------         ENDPROC       _BYTE_WRITE
BL51 BANKED LINKER/LOCATER V6.22                                                      03/06/2019  08:21:13  PAGE 133


  -------         PROC          _AAI_WRITE
  X:0248H         SYMBOL        Dst
  X:024CH         SYMBOL        p
  X:024FH         SYMBOL        no_bytes
  C:DECDH         LINE#         1063
  C:DEDEH         LINE#         1064
  C:DEDEH         LINE#         1065
  C:DEE1H         LINE#         1066
  C:DEE7H         LINE#         1068
  C:DEEAH         LINE#         1070
  C:DEEDH         LINE#         1071
  C:DEF6H         LINE#         1072
  C:DEF6H         LINE#         1073
  C:DEF9H         LINE#         1074
  C:DEFFH         LINE#         1075
  C:DF02H         LINE#         1076
  C:DF21H         LINE#         1077
  C:DF2BH         LINE#         1078
  C:DF33H         LINE#         1080
  -------         ENDPROC       _AAI_WRITE
  -------         PROC          _BYTE_WRITE1
  X:031DH         SYMBOL        Dst
  X:0321H         SYMBOL        byte
  C:EBA1H         LINE#         1086
  C:EBA7H         LINE#         1087
  C:EBA7H         LINE#         1088
  C:EBAAH         LINE#         1089
  C:EBBDH         LINE#         1090
  -------         ENDPROC       _BYTE_WRITE1
  -------         PROC          _AAI_WRITE1
  X:0248H         SYMBOL        Dst
  X:024CH         SYMBOL        p
  X:024FH         SYMBOL        no_bytes
  C:E1DDH         LINE#         1103
  C:E1EEH         LINE#         1104
  C:E1EEH         LINE#         1105
  C:E1F1H         LINE#         1107
  C:E1FAH         LINE#         1108
  C:E1FAH         LINE#         1109
  C:E1FDH         LINE#         1110
  C:E203H         LINE#         1111
  C:E206H         LINE#         1112
  C:E225H         LINE#         1113
  C:E22FH         LINE#         1114
  C:E237H         LINE#         1116
  -------         ENDPROC       _AAI_WRITE1
  -------         PROC          FRAM_TEST
  -------         DO            
  D:0007H         SYMBOL        i
  -------         ENDDO         
  C:D38AH         LINE#         1136
  C:D38AH         LINE#         1137
  C:D38AH         LINE#         1140
  C:D390H         LINE#         1141
  C:D394H         LINE#         1142
  C:D398H         LINE#         1143
  C:D39CH         LINE#         1144
BL51 BANKED LINKER/LOCATER V6.22                                                      03/06/2019  08:21:13  PAGE 134


  C:D3A0H         LINE#         1145
  C:D3A4H         LINE#         1147
  C:D3A8H         LINE#         1148
  C:D3ACH         LINE#         1149
  C:D3B0H         LINE#         1150
  C:D3B4H         LINE#         1151
  C:D3B8H         LINE#         1154
  C:D3CBH         LINE#         1155
  C:D3E2H         LINE#         1157
  C:D3ECH         LINE#         1158
  C:D3F1H         LINE#         1160
  C:D401H         LINE#         1161
  C:D424H         LINE#         1162
  C:D429H         LINE#         1164
  -------         ENDPROC       FRAM_TEST
  -------         PROC          _DELAY_NMS
  D:0007H         SYMBOL        i
  -------         DO            
  D:0004H         SYMBOL        j
  -------         ENDDO         
  C:EC69H         LINE#         1183
  C:EC69H         LINE#         1184
  C:EC69H         LINE#         1187
  C:EC6FH         LINE#         1188
  C:EC6FH         LINE#         1189
  C:EC7CH         LINE#         1190
  C:EC7FH         LINE#         1191
  C:EC82H         LINE#         1193
  -------         ENDPROC       _DELAY_NMS
  C:ED8AH         SYMBOL        L?0096
  -------         PROC          L?0095
  -------         ENDPROC       L?0095
  C:ED8AH         SYMBOL        L?0096
  -------         PROC          _DELAY_NUS
  D:0007H         SYMBOL        i
  -------         DO            
  D:0006H         SYMBOL        j
  -------         ENDDO         
  C:ED8FH         LINE#         1211
  C:ED8FH         LINE#         1212
  C:ED8FH         LINE#         1215
  C:ED95H         LINE#         1216
  C:ED95H         LINE#         1217
  C:ED99H         LINE#         1218
  C:ED9CH         LINE#         1220
  -------         ENDPROC       _DELAY_NUS
  -------         ENDMOD        SST25VF040_2005

  -------         MODULE        OS_CORE
  C:0000H         SYMBOL        _ICE_DUMMY_
  C:ECB5H         PUBLIC        _OS_TaskSuspend
  D:0080H         PUBLIC        P0
  D:0090H         PUBLIC        P1
  D:00A0H         PUBLIC        P2
  D:00B0H         PUBLIC        P3
  D:00C0H         PUBLIC        P4
  D:00C8H         PUBLIC        P5
BL51 BANKED LINKER/LOCATER V6.22                                                      03/06/2019  08:21:13  PAGE 135


  B:00A8H.7       PUBLIC        EA
  C:ED3DH         PUBLIC        OSSched
  D:00A8H         PUBLIC        IE
  D:00B8H         PUBLIC        IP
  C:EE55H         PUBLIC        _OSTaskSuspend
  D:00D8H         PUBLIC        CCON
  D:0016H         PUBLIC        OSIntNesting
  C:EC9CH         PUBLIC        _OSTaskResume
  D:0017H         PUBLIC        OSTaskRuning
  D:0098H         PUBLIC        SCON
  D:0088H         PUBLIC        TCON
  C:EDD2H         PUBLIC        OSInit
  C:E0C7H         PUBLIC        _OSWait
  D:0018H         PUBLIC        Os_Enter_Sum
  C:EBC0H         PUBLIC        OSTimeTick
  C:ECCDH         PUBLIC        OSFindNextRunningTask
  D:0019H         PUBLIC        OSTaskID
  D:00E0H         PUBLIC        ACC
  D:001AH         PUBLIC        OSWaitTick
  C:EAB6H         PUBLIC        _OSTimeDly
  C:EEA3H         PUBLIC        OSMapTbl
  D:001EH         PUBLIC        OSNextTaskID
  C:EA4CH         PUBLIC        OSIntExit
  C:E779H         PUBLIC        __OSTaskCreate
  D:001FH         PUBLIC        OSTaskCreated
  D:00D0H         PUBLIC        PSW
  -------         PROC          OSINIT
  C:EDD2H         LINE#         87
  C:EDD2H         LINE#         89
  C:EDD5H         LINE#         90
  C:EDD7H         LINE#         95
  C:EDD9H         LINE#         96
  C:EDDCH         LINE#         97
  C:EDDEH         LINE#         98
  C:EDE0H         LINE#         99
  -------         ENDPROC       OSINIT
  -------         PROC          __OSTASKCREATE
  D:0001H         SYMBOL        TaskID
  D:0006H         SYMBOL        task
  D:0002H         SYMBOL        ptos
  C:E779H         LINE#         119
  C:E77FH         LINE#         121
  C:E785H         LINE#         122
  C:E785H         LINE#         123
  C:E789H         LINE#         125
  C:E792H         LINE#         126
  C:E792H         LINE#         127
  C:E795H         LINE#         128
  C:E795H         LINE#         129
  C:E79CH         LINE#         130
  C:E79EH         LINE#         151
  C:E7A7H         LINE#         152
  C:E7AAH         LINE#         153
  C:E7AFH         LINE#         154
  C:E7B2H         LINE#         155
  C:E7B2H         LINE#         156
  C:E7B4H         LINE#         157
BL51 BANKED LINKER/LOCATER V6.22                                                      03/06/2019  08:21:13  PAGE 136


  -------         ENDPROC       __OSTASKCREATE
  -------         PROC          _OSTASKRESUME
  D:0007H         SYMBOL        TaskID
  C:EC9CH         LINE#         217
  C:EC9CH         LINE#         219
  C:ECA2H         LINE#         220
  C:ECA2H         LINE#         221
  C:ECA6H         LINE#         223
  C:ECADH         LINE#         234
  C:ECB2H         LINE#         235
  C:ECB2H         LINE#         236
  -------         ENDPROC       _OSTASKRESUME
  -------         PROC          _OS_TASKSUSPEND
  D:0007H         SYMBOL        TaskID
  C:ECB5H         LINE#         254
  C:ECB5H         LINE#         256
  C:ECBBH         LINE#         257
  C:ECBBH         LINE#         258
  C:ECBFH         LINE#         260
  C:ECC7H         LINE#         271
  C:ECCCH         LINE#         272
  C:ECCCH         LINE#         273
  -------         ENDPROC       _OS_TASKSUSPEND
  -------         PROC          _OSTASKSUSPEND
  D:0007H         SYMBOL        TaskID
  C:EE55H         LINE#         291
  C:EE55H         LINE#         293
  C:EE5BH         LINE#         295
  C:EE5EH         LINE#         296
  -------         ENDPROC       _OSTASKSUSPEND
  -------         PROC          OSFINDNEXTRUNNINGTASK
  -------         DO            
  D:0007H         SYMBOL        temp
  -------         ENDDO         
  C:ECCDH         LINE#         314
  C:ECCDH         LINE#         318
  C:ECD2H         LINE#         321
  C:ECD5H         LINE#         322
  C:ECD5H         LINE#         323
  C:ECD9H         LINE#         324
  C:ECD9H         LINE#         325
  C:ECD9H         LINE#         326
  C:ECD9H         LINE#         327
  C:ECDDH         LINE#         328
  C:ECE4H         LINE#         351
  -------         ENDPROC       OSFINDNEXTRUNNINGTASK
  -------         PROC          OSINTEXIT
  C:EA4CH         LINE#         368
  C:EA4CH         LINE#         371
  C:EA50H         LINE#         373
  C:EA57H         LINE#         374
  C:EA57H         LINE#         375
  C:EA59H         LINE#         376
  C:EA59H         LINE#         377
  C:EA5DH         LINE#         378
  C:EA5DH         LINE#         379
  C:EA5FH         LINE#         380
BL51 BANKED LINKER/LOCATER V6.22                                                      03/06/2019  08:21:13  PAGE 137


  C:EA62H         LINE#         381
  C:EA65H         LINE#         382
  C:EA68H         LINE#         383
  C:EA68H         LINE#         384
  C:EA6DH         LINE#         385
  C:EA6FH         LINE#         386
  -------         ENDPROC       OSINTEXIT
  -------         PROC          OSSCHED
  C:ED3DH         LINE#         403
  C:ED3DH         LINE#         406
  C:ED41H         LINE#         407
  C:ED45H         LINE#         408
  C:ED45H         LINE#         409
  C:ED48H         LINE#         410
  C:ED4BH         LINE#         411
  C:ED4BH         LINE#         412
  C:ED50H         LINE#         413
  -------         ENDPROC       OSSCHED
  -------         PROC          OSTIMETICK
  -------         DO            
  D:0007H         SYMBOL        i
  -------         ENDDO         
  C:EBC0H         LINE#         430
  C:EBC0H         LINE#         434
  C:EBC2H         LINE#         435
  C:EBC2H         LINE#         436
  C:EBC9H         LINE#         437
  C:EBC9H         LINE#         438
  C:EBCAH         LINE#         439
  C:EBD1H         LINE#         440
  C:EBD1H         LINE#         442
  C:EBD8H         LINE#         453
  C:EBD8H         LINE#         454
  C:EBD8H         LINE#         455
  C:EBDCH         LINE#         456
  -------         ENDPROC       OSTIMETICK
  -------         PROC          _OSTIMEDLY
  D:0007H         SYMBOL        ticks
  C:EAB6H         LINE#         475
  C:EAB6H         LINE#         477
  C:EABDH         LINE#         478
  C:EAC1H         LINE#         479
  C:EAC9H         LINE#         480
  C:EAC9H         LINE#         481
  C:EACEH         LINE#         482
  C:EAD1H         LINE#         483
  C:EAD3H         LINE#         484
  C:EAD8H         LINE#         485
  -------         ENDPROC       _OSTIMEDLY
  -------         PROC          _OSWAIT
  D:0007H         SYMBOL        typ
  D:0005H         SYMBOL        ticks
  C:E0C7H         LINE#         534
  C:E0C7H         LINE#         536
  C:E0CEH         LINE#         538
  C:E0DAH         LINE#         539
  C:E0DAH         LINE#         540
BL51 BANKED LINKER/LOCATER V6.22                                                      03/06/2019  08:21:13  PAGE 138


  C:E0DAH         LINE#         541
  C:E0DFH         LINE#         542
  C:E0E2H         LINE#         543
  C:E0E2H         LINE#         544
  C:E0ECH         LINE#         545
  C:E0EFH         LINE#         546
  C:E0EFH         LINE#         548
  C:E0F3H         LINE#         549
  C:E0FBH         LINE#         550
  C:E0FBH         LINE#         551
  C:E0FEH         LINE#         552
  C:E0FEH         LINE#         553
  C:E103H         LINE#         554
  C:E106H         LINE#         555
  C:E10BH         LINE#         556
  C:E113H         LINE#         557
  C:E113H         LINE#         558
  C:E115H         LINE#         559
  C:E118H         LINE#         560
  C:E118H         LINE#         561
  C:E11BH         LINE#         562
  C:E11BH         LINE#         563
  C:E122H         LINE#         564
  C:E124H         LINE#         565
  C:E124H         LINE#         566
  -------         ENDPROC       _OSWAIT
  -------         ENDMOD        OS_CORE

  -------         MODULE        OS_MEM
  C:0000H         SYMBOL        _ICE_DUMMY_
  D:0080H         PUBLIC        P0
  D:0090H         PUBLIC        P1
  D:00A0H         PUBLIC        P2
  D:00B0H         PUBLIC        P3
  D:00C0H         PUBLIC        P4
  D:00C8H         PUBLIC        P5
  C:0009H         PUBLIC        _UserMemChkErr
  B:00A8H.7       PUBLIC        EA
  D:00A8H         PUBLIC        IE
  D:00B8H         PUBLIC        IP
  D:00D8H         PUBLIC        CCON
  D:0098H         PUBLIC        SCON
  D:0088H         PUBLIC        TCON
  D:00E0H         PUBLIC        ACC
  C:B732H         PUBLIC        _OSMemFree
  X:0342H         SYMBOL        OSFreeMem
  C:E52EH         PUBLIC        _OSMemInit
  C:B8E9H         PUBLIC        _OSMemNew
  D:00D0H         PUBLIC        PSW
  -------         PROC          _USERMEMCHKERR
  X:0000H         SYMBOL        Addr
  C:0009H         LINE#         60
  C:0009H         LINE#         61
  C:0009H         LINE#         62
  C:0009H         LINE#         63
  -------         ENDPROC       _USERMEMCHKERR
  -------         PROC          _OSMEMINIT
BL51 BANKED LINKER/LOCATER V6.22                                                      03/06/2019  08:21:13  PAGE 139


  D:0006H         SYMBOL        Addr
  D:0004H         SYMBOL        MemSize
  -------         DO            
  D:0006H         SYMBOL        MemFree
  -------         ENDDO         
  C:E52EH         LINE#         84
  C:E52EH         LINE#         85
  C:E52EH         LINE#         89
  C:E532H         LINE#         93
  C:E53FH         LINE#         94
  C:E53FH         LINE#         96
  C:E543H         LINE#         97
  C:E543H         LINE#         98
  C:E54BH         LINE#         99
  C:E558H         LINE#         100
  C:E560H         LINE#         101
  C:E569H         LINE#         102
  C:E56EH         LINE#         103
  C:E571H         LINE#         104
  C:E571H         LINE#         106
  C:E571H         LINE#         107
  C:E573H         LINE#         108
  C:E573H         LINE#         109
  -------         ENDPROC       _OSMEMINIT
  -------         PROC          _OSMEMNEW
  X:032EH         SYMBOL        Size
  -------         DO            
  X:0330H         SYMBOL        ThisFreeMem
  D:0004H         SYMBOL        Rt
  -------         ENDDO         
  C:B8E9H         LINE#         127
  C:B8F1H         LINE#         128
  C:B8F1H         LINE#         132
  C:B8F5H         LINE#         133
  C:B904H         LINE#         136
  C:B918H         LINE#         140
  C:B923H         LINE#         141
  C:B923H         LINE#         142
  C:B940H         LINE#         143
  C:B940H         LINE#         144
  C:B940H         LINE#         145
  C:B940H         LINE#         146
  C:B957H         LINE#         147
  C:B959H         LINE#         148
  C:B967H         LINE#         149
  C:B967H         LINE#         150
  C:B98BH         LINE#         151
  C:B98BH         LINE#         154
  C:B99DH         LINE#         155
  C:B99DH         LINE#         156
  C:B9BBH         LINE#         157
  C:B9BBH         LINE#         158
  C:B9D0H         LINE#         159
  C:B9D0H         LINE#         160
  C:B9ECH         LINE#         161
  C:B9ECH         LINE#         162
  C:BA08H         LINE#         163
BL51 BANKED LINKER/LOCATER V6.22                                                      03/06/2019  08:21:13  PAGE 140


  C:BA0CH         LINE#         164
  C:BA0EH         LINE#         166
  C:BA0EH         LINE#         169
  C:BA3CH         LINE#         170
  C:BA57H         LINE#         172
  C:BA57H         LINE#         174
  C:BA62H         LINE#         175
  C:BA72H         LINE#         177
  C:BA84H         LINE#         178
  C:BA89H         LINE#         179
  C:BA91H         LINE#         180
  C:BA91H         LINE#         182
  C:BA91H         LINE#         183
  C:BA96H         LINE#         184
  C:BA99H         LINE#         185
  C:BA99H         LINE#         187
  -------         ENDPROC       _OSMEMNEW
  -------         PROC          _OSMEMFREE
  D:0006H         SYMBOL        Addr
  -------         DO            
  D:0004H         SYMBOL        ThisFreeMem
  X:0332H         SYMBOL        UserMem
  X:0334H         SYMBOL        Size
  -------         ENDDO         
  C:B732H         LINE#         211
  C:B732H         LINE#         213
  C:B732H         LINE#         218
  C:B736H         LINE#         220
  C:B73EH         LINE#         222
  C:B74DH         LINE#         225
  C:B778H         LINE#         226
  C:B778H         LINE#         227
  C:B77BH         LINE#         228
  C:B787H         LINE#         230
  C:B787H         LINE#         234
  C:B787H         LINE#         235
  C:B787H         LINE#         236
  C:B794H         LINE#         237
  C:B794H         LINE#         238
  C:B7A1H         LINE#         239
  C:B7A3H         LINE#         240
  C:B7A3H         LINE#         241
  C:B7AFH         LINE#         242
  C:B7AFH         LINE#         243
  C:B7AFH         LINE#         244
  C:B7AFH         LINE#         246
  C:B7B3H         LINE#         247
  C:B7B5H         LINE#         249
  C:B7D6H         LINE#         250
  C:B7D6H         LINE#         252
  C:B7F0H         LINE#         253
  C:B7F3H         LINE#         255
  C:B7F3H         LINE#         257
  C:B80DH         LINE#         258
  C:B818H         LINE#         259
  C:B832H         LINE#         260
  C:B848H         LINE#         261
BL51 BANKED LINKER/LOCATER V6.22                                                      03/06/2019  08:21:13  PAGE 141


  C:B859H         LINE#         262
  C:B85DH         LINE#         263
  C:B869H         LINE#         264
  C:B869H         LINE#         265
  C:B874H         LINE#         266
  C:B874H         LINE#         267
  C:B874H         LINE#         269
  C:B896H         LINE#         270
  C:B896H         LINE#         272
  C:B8B3H         LINE#         273
  C:B8CCH         LINE#         274
  C:B8D8H         LINE#         275
  C:B8D8H         LINE#         276
  C:B8E3H         LINE#         277
  C:B8E3H         LINE#         278
  C:B8E3H         LINE#         279
  C:B8E8H         LINE#         281
  -------         ENDPROC       _OSMEMFREE
  -------         ENDMOD        OS_MEM

  -------         MODULE        OS_Q
  C:0000H         SYMBOL        _ICE_DUMMY_
  D:0080H         PUBLIC        P0
  D:0090H         PUBLIC        P1
  D:00A0H         PUBLIC        P2
  D:00B0H         PUBLIC        P3
  D:00C0H         PUBLIC        P4
  D:00C8H         PUBLIC        P5
  B:00A8H.7       PUBLIC        EA
  D:00A8H         PUBLIC        IE
  D:00B8H         PUBLIC        IP
  C:DA0EH         PUBLIC        _OSQPost
  D:0081H         PUBLIC        SP
  D:00D8H         PUBLIC        CCON
  D:0098H         PUBLIC        SCON
  D:0088H         PUBLIC        TCON
  D:00E0H         PUBLIC        ACC
  C:E7B5H         PUBLIC        _OSQCreate
  D:00D0H         PUBLIC        PSW
  C:D7D8H         PUBLIC        _OSQPend
  -------         PROC          _OSQCREATE
  D:0007H         SYMBOL        Buf
  D:0005H         SYMBOL        SizeOfBuf
  C:E7B5H         LINE#         62
  C:E7B5H         LINE#         64
  C:E7B5H         LINE#         65
  C:E7B9H         LINE#         67
  C:E7C2H         LINE#         68
  C:E7C2H         LINE#         69
  C:E7C5H         LINE#         70
  C:E7CCH         LINE#         72
  C:E7D2H         LINE#         76
  C:E7D8H         LINE#         77
  C:E7DEH         LINE#         80
  C:E7E3H         LINE#         81
  C:E7E6H         LINE#         82
  C:E7E6H         LINE#         84
BL51 BANKED LINKER/LOCATER V6.22                                                      03/06/2019  08:21:13  PAGE 142


  C:E7E6H         LINE#         85
  C:E7EBH         LINE#         86
  C:E7EDH         LINE#         87
  C:E7EDH         LINE#         89
  -------         ENDPROC       _OSQCREATE
  -------         PROC          _OSQPEND
  D:0007H         SYMBOL        Ret
  D:0005H         SYMBOL        Buf
  D:0003H         SYMBOL        Tick
  -------         DO            
  D:0007H         SYMBOL        cp
  -------         ENDDO         
  C:D7D8H         LINE#         119
  C:D7D8H         LINE#         120
  C:D7D8H         LINE#         132
  C:D7DCH         LINE#         134
  C:D7E5H         LINE#         139
  C:D7E7H         LINE#         140
  C:D7EDH         LINE#         145
  C:D7F9H         LINE#         157
  C:D7FEH         LINE#         158
  C:D7FEH         LINE#         161
  C:D800H         LINE#         162
  C:D806H         LINE#         165
  C:D80BH         LINE#         166
  C:D80EH         LINE#         169
  C:D814H         LINE#         170
  C:D816H         LINE#         173
  C:D81EH         LINE#         174
  C:D81EH         LINE#         175
  C:D81EH         LINE#         176
  C:D81EH         LINE#         181
  C:D82BH         LINE#         193
  C:D833H         LINE#         194
  C:D833H         LINE#         196
  C:D834H         LINE#         198
  C:D839H         LINE#         199
  C:D845H         LINE#         200
  C:D845H         LINE#         202
  C:D847H         LINE#         206
  C:D847H         LINE#         208
  C:D84DH         LINE#         209
  C:D84FH         LINE#         210
  C:D85AH         LINE#         214
  C:D85FH         LINE#         215
  C:D862H         LINE#         216
  C:D862H         LINE#         218
  C:D862H         LINE#         221
  C:D864H         LINE#         224
  C:D869H         LINE#         225
  C:D86BH         LINE#         226
  C:D86BH         LINE#         227
  -------         ENDPROC       _OSQPEND
  -------         PROC          _OSQPOST
  D:0007H         SYMBOL        Buf
  D:0005H         SYMBOL        Data
  -------         DO            
BL51 BANKED LINKER/LOCATER V6.22                                                      03/06/2019  08:21:13  PAGE 143


  D:0006H         SYMBOL        temp
  D:0005H         SYMBOL        i
  -------         ENDDO         
  C:DA0EH         LINE#         307
  C:DA0EH         LINE#         308
  C:DA0EH         LINE#         318
  C:DA12H         LINE#         322
  C:DA20H         LINE#         326
  C:DA20H         LINE#         329
  C:DA22H         LINE#         330
  C:DA2AH         LINE#         333
  C:DA36H         LINE#         334
  C:DA40H         LINE#         335
  C:DA40H         LINE#         337
  C:DA45H         LINE#         341
  C:DA45H         LINE#         344
  C:DA50H         LINE#         345
  C:DA52H         LINE#         350
  C:DA55H         LINE#         352
  C:DA5AH         LINE#         353
  C:DA5AH         LINE#         355
  C:DA60H         LINE#         357
  C:DA62H         LINE#         358
  C:DA62H         LINE#         359
  C:DA66H         LINE#         360
  C:DA66H         LINE#         361
  C:DA66H         LINE#         362
  C:DA66H         LINE#         363
  C:DA6AH         LINE#         364
  C:DA6FH         LINE#         365
  C:DA75H         LINE#         366
  C:DA75H         LINE#         368
  C:DA81H         LINE#         369
  C:DA86H         LINE#         370
  C:DA86H         LINE#         406
  C:DA86H         LINE#         407
  C:DA8BH         LINE#         408
  C:DA8EH         LINE#         409
  C:DA8EH         LINE#         411
  C:DA8EH         LINE#         412
  C:DA93H         LINE#         413
  C:DA95H         LINE#         414
  C:DA95H         LINE#         415
  -------         ENDPROC       _OSQPOST
  -------         ENDMOD        OS_Q

  -------         MODULE        OS_SEM
  C:0000H         SYMBOL        _ICE_DUMMY_
  D:0080H         PUBLIC        P0
  D:0090H         PUBLIC        P1
  D:00A0H         PUBLIC        P2
  D:00B0H         PUBLIC        P3
  D:00C0H         PUBLIC        P4
  D:00C8H         PUBLIC        P5
  D:00A8H         PUBLIC        IE
  D:00B8H         PUBLIC        IP
  D:00D8H         PUBLIC        CCON
BL51 BANKED LINKER/LOCATER V6.22                                                      03/06/2019  08:21:13  PAGE 144


  D:0098H         PUBLIC        SCON
  D:0088H         PUBLIC        TCON
  D:00E0H         PUBLIC        ACC
  D:00D0H         PUBLIC        PSW
  -------         ENDMOD        OS_SEM

  -------         MODULE        OS_CPU_C
  C:0000H         SYMBOL        _ICE_DUMMY_
  D:0080H         PUBLIC        P0
  D:0090H         PUBLIC        P1
  D:00A0H         PUBLIC        P2
  D:00B0H         PUBLIC        P3
  C:E9DCH         PUBLIC        _OSTaskStkDel
  D:00C0H         PUBLIC        P4
  D:00C8H         PUBLIC        P5
  B:00A8H.7       PUBLIC        EA
  C:E5B8H         PUBLIC        _StkDelA
  C:E63DH         PUBLIC        _StkDelB
  C:ECE5H         PUBLIC        _StkDelC
  D:00A8H         PUBLIC        IE
  D:00B8H         PUBLIC        IP
  C:E2DEH         PUBLIC        OSTickISR
  C:EDE3H         PUBLIC        OSCPUInit
  D:0081H         PUBLIC        SP
  D:00D8H         PUBLIC        CCON
  D:0028H         PUBLIC        OSTsakStackBotton
  D:0098H         PUBLIC        SCON
  D:0088H         PUBLIC        TCON
  D:00E0H         PUBLIC        ACC
  D:002EH         PUBLIC        OSFastSwap
  X:0346H         PUBLIC        timer_i
  D:00D0H         PUBLIC        PSW
  B:00D8H.0       PUBLIC        CCF0
  B:00D8H.1       PUBLIC        CCF1
  -------         PROC          OSCPUINIT
  -------         DO            
  D:0007H         SYMBOL        i
  -------         ENDDO         
  C:EDE3H         LINE#         80
  C:EDE3H         LINE#         84
  C:EDE5H         LINE#         85
  C:EDE5H         LINE#         86
  C:EDEBH         LINE#         87
  C:EDEFH         LINE#         88
  C:EDF2H         LINE#         90
  -------         ENDPROC       OSCPUINIT
  -------         PROC          _STKDELA
  D:0007H         SYMBOL        TaskID
  -------         DO            
  D:0006H         SYMBOL        cp
  D:0005H         SYMBOL        cp1
  D:0004H         SYMBOL        temp
  D:0007H         SYMBOL        i
  -------         ENDDO         
  C:E5B8H         LINE#         202
  C:E5B8H         LINE#         203
  C:E5B8H         LINE#         208
BL51 BANKED LINKER/LOCATER V6.22                                                      03/06/2019  08:21:13  PAGE 145


  C:E5BEH         LINE#         209
  C:E5C4H         LINE#         210
  C:E5C9H         LINE#         211
  C:E5D2H         LINE#         212
  C:E5D2H         LINE#         213
  C:E5DDH         LINE#         214
  C:E5E0H         LINE#         215
  C:E5E6H         LINE#         217
  C:E5E6H         LINE#         218
  C:E5F2H         LINE#         219
  C:E5F4H         LINE#         220
  C:E5FAH         LINE#         221
  -------         ENDPROC       _STKDELA
  -------         PROC          _STKDELB
  D:0007H         SYMBOL        TaskID
  -------         DO            
  D:0005H         SYMBOL        cp
  D:0004H         SYMBOL        cp1
  D:0005H         SYMBOL        temp
  D:0006H         SYMBOL        i
  -------         ENDDO         
  C:E63DH         LINE#         224
  C:E63DH         LINE#         225
  C:E63DH         LINE#         230
  C:E644H         LINE#         231
  C:E64AH         LINE#         232
  C:E655H         LINE#         233
  C:E657H         LINE#         234
  C:E657H         LINE#         236
  C:E657H         LINE#         237
  C:E663H         LINE#         238
  C:E665H         LINE#         239
  C:E665H         LINE#         240
  C:E66BH         LINE#         241
  C:E674H         LINE#         242
  C:E674H         LINE#         243
  C:E67BH         LINE#         244
  C:E67EH         LINE#         245
  -------         ENDPROC       _STKDELB
  -------         PROC          _STKDELC
  D:0007H         SYMBOL        TaskID
  -------         DO            
  D:0005H         SYMBOL        cp
  -------         ENDDO         
  C:ECE5H         LINE#         247
  C:ECE5H         LINE#         248
  C:ECE5H         LINE#         253
  C:ECEBH         LINE#         254
  C:ECF1H         LINE#         255
  C:ECF6H         LINE#         256
  C:ECFAH         LINE#         257
  -------         ENDPROC       _STKDELC
  -------         PROC          _OSTASKSTKDEL
  D:0007H         SYMBOL        TaskID
  -------         DO            
  D:0006H         SYMBOL        temp
  -------         ENDDO         
BL51 BANKED LINKER/LOCATER V6.22                                                      03/06/2019  08:21:13  PAGE 146


  C:E9DCH         LINE#         260
  C:E9DCH         LINE#         264
  C:E9DEH         LINE#         265
  C:E9E2H         LINE#         266
  C:E9E2H         LINE#         267
  C:E9E3H         LINE#         268
  C:E9E5H         LINE#         269
  C:E9EBH         LINE#         270
  C:E9EBH         LINE#         271
  C:E9EDH         LINE#         272
  C:E9EDH         LINE#         273
  C:E9F8H         LINE#         274
  C:E9F8H         LINE#         275
  C:E9F8H         LINE#         276
  C:E9FBH         LINE#         277
  C:E9FBH         LINE#         278
  C:E9FBH         LINE#         279
  C:E9FEH         LINE#         280
  C:E9FEH         LINE#         281
  C:E9FEH         LINE#         282
  C:EA01H         LINE#         283
  C:EA01H         LINE#         284
  C:EA01H         LINE#         285
  C:EA01H         LINE#         286
  C:EA01H         LINE#         287
  -------         ENDPROC       _OSTASKSTKDEL
  -------         PROC          OSTICKISR
  C:E2DEH         LINE#         310
  C:E2FDH         LINE#         313
  C:E300H         LINE#         314
  C:E300H         LINE#         315
  C:E302H         LINE#         317
  C:E302H         LINE#         318
  C:E305H         LINE#         319
  C:E305H         LINE#         320
  C:E307H         LINE#         326
  C:E30AH         LINE#         336
  C:E30EH         LINE#         339
  C:E311H         LINE#         344
  C:E314H         LINE#         345
  C:E314H         LINE#         346
  -------         ENDPROC       OSTICKISR
  -------         ENDMOD        OS_CPU_C

  -------         MODULE        OS_CPU_A_ASM
  C:EE3CH         SEGMENT       ?PR?OSCTXSW?OS_CPU_A
  C:E88BH         SEGMENT       ?PR?OSINTCTXSW?OS_CPU_A
  C:E826H         SEGMENT       ?PR?LOADCTX?OS_CPU_A
  C:D86CH         SEGMENT       ?PR?C_OSCTXSW?OS_CPU_A
  C:DBA4H         SEGMENT       ?PR?_OSTASKSTKINIT?OS_CPU_A
  I:0040H         SEGMENT       ?STACK
  C:D86CH         PUBLIC        C_OSCTXSW
  C:E826H         PUBLIC        LOADCTX
  C:EE3CH         PUBLIC        OSCTXSW
  C:E88BH         PUBLIC        OSINTCTXSW
  I:0040H         PUBLIC        STACK
  C:DBA4H         PUBLIC        _OSTASKSTKINIT
BL51 BANKED LINKER/LOCATER V6.22                                                      03/06/2019  08:21:13  PAGE 147


  C:D8B9H         SYMBOL        ?C0001
  C:D88AH         SYMBOL        ?C0002
  C:D890H         SYMBOL        ?C0003
  C:D8ADH         SYMBOL        ?C0004
  C:D8B3H         SYMBOL        ?C0005
  C:D8F2H         SYMBOL        ?C0007
  C:D8C3H         SYMBOL        ?C0008
  C:D8C9H         SYMBOL        ?C0009
  C:D8F5H         SYMBOL        ?C000R
  C:D8E7H         SYMBOL        ?C0010
  C:D8EDH         SYMBOL        ?C0011
  D:00E0H         SYMBOL        ACC
  D:00F0H         SYMBOL        B
  D:0083H         SYMBOL        DPH
  D:0082H         SYMBOL        DPL
  B:00A8H.7       SYMBOL        EA
  C:E82FH         SYMBOL        LOADCTX_0
  C:E851H         SYMBOL        LOADCTX_2
  C:E858H         SYMBOL        LOADCTX_3
  C:E8A0H         SYMBOL        OSINTCTXSW_0
  N:0000H         SYMBOL        OS_CPU_A_ASM
  D:00D0H         SYMBOL        PSW
  D:0081H         SYMBOL        SP
  C:DBDBH         SYMBOL        STKINIT11
  C:DC0FH         SYMBOL        STKINIT12
  C:DBEDH         SYMBOL        STKINIT15
  C:DC09H         SYMBOL        STKINIT18
  C:DBE3H         SYMBOL        STKINIT5
  C:DBBEH         SYMBOL        STKINIT8
  C:DBA4H         LINE#         137
  C:DBA6H         LINE#         138
  C:DBA8H         LINE#         142
  C:DBA9H         LINE#         143
  C:DBACH         LINE#         144
  C:DBADH         LINE#         145
  C:DBAFH         LINE#         173
  C:DBB0H         LINE#         174
  C:DBB1H         LINE#         175
  C:DBB3H         LINE#         176
  C:DBB5H         LINE#         179
  C:DBB6H         LINE#         180
  C:DBB8H         LINE#         181
  C:DBB9H         LINE#         182
  C:DBBAH         LINE#         184
  C:DBBCH         LINE#         185
  C:DBBDH         LINE#         186
  C:DBBEH         LINE#         191
  C:DBC0H         LINE#         192
  C:DBC1H         LINE#         193
  C:DBC2H         LINE#         195
  C:DBC3H         LINE#         197
  C:DBC5H         LINE#         200
  C:DBC7H         LINE#         203
  C:DBC9H         LINE#         204
  C:DBCBH         LINE#         205
  C:DBCDH         LINE#         207
  C:DBCFH         LINE#         208
BL51 BANKED LINKER/LOCATER V6.22                                                      03/06/2019  08:21:13  PAGE 148


  C:DBD0H         LINE#         209
  C:DBD1H         LINE#         210
  C:DBD3H         LINE#         211
  C:DBD4H         LINE#         212
  C:DBD6H         LINE#         213
  C:DBD7H         LINE#         214
  C:DBD8H         LINE#         215
  C:DBD9H         LINE#         217
  C:DBDBH         LINE#         222
  C:DBDCH         LINE#         223
  C:DBDDH         LINE#         224
  C:DBDEH         LINE#         225
  C:DBDFH         LINE#         227
  C:DBE1H         LINE#         229
  C:DBE3H         LINE#         234
  C:DBE5H         LINE#         235
  C:DBE7H         LINE#         236
  C:DBE8H         LINE#         238
  C:DBE9H         LINE#         239
  C:DBEAH         LINE#         240
  C:DBECH         LINE#         241
  C:DBEDH         LINE#         246
  C:DBEFH         LINE#         247
  C:DBF0H         LINE#         248
  C:DBF1H         LINE#         250
  C:DBF2H         LINE#         252
  C:DBF4H         LINE#         255
  C:DBF6H         LINE#         256
  C:DBF8H         LINE#         257
  C:DBF9H         LINE#         258
  C:DBFAH         LINE#         259
  C:DBFBH         LINE#         261
  C:DBFCH         LINE#         262
  C:DBFEH         LINE#         263
  C:DBFFH         LINE#         265
  C:DC01H         LINE#         266
  C:DC02H         LINE#         267
  C:DC03H         LINE#         268
  C:DC04H         LINE#         269
  C:DC05H         LINE#         270
  C:DC06H         LINE#         271
  C:DC07H         LINE#         273
  C:DC09H         LINE#         278
  C:DC0AH         LINE#         279
  C:DC0BH         LINE#         280
  C:DC0CH         LINE#         281
  C:DC0DH         LINE#         283
  C:DC0FH         LINE#         287
  C:DC11H         LINE#         288
  C:DC12H         LINE#         289
  C:DC13H         LINE#         290
  C:DC14H         LINE#         291
  C:DC15H         LINE#         293
  C:DC17H         LINE#         294
  C:DC18H         LINE#         295
  C:DC19H         LINE#         297
  C:DC1BH         LINE#         298
BL51 BANKED LINKER/LOCATER V6.22                                                      03/06/2019  08:21:13  PAGE 149


  C:DC1CH         LINE#         299
  C:DC1DH         LINE#         309
  C:DC1EH         LINE#         310
  C:DC1FH         LINE#         312
  C:E826H         LINE#         340
  C:E828H         LINE#         348
  C:E82AH         LINE#         349
  C:E82DH         LINE#         350
  C:E82FH         LINE#         352
  C:E832H         LINE#         354
  C:E833H         LINE#         355
  C:E835H         LINE#         367
  C:E837H         LINE#         369
  C:E839H         LINE#         370
  C:E83BH         LINE#         371
  C:E83DH         LINE#         372
  C:E83FH         LINE#         373
  C:E841H         LINE#         374
  C:E843H         LINE#         375
  C:E845H         LINE#         376
  C:E847H         LINE#         377
  C:E849H         LINE#         378
  C:E84BH         LINE#         379
  C:E84DH         LINE#         380
  C:E84FH         LINE#         381
  C:E851H         LINE#         384
  C:E853H         LINE#         385
  C:E856H         LINE#         386
  C:E858H         LINE#         388
  C:EE3CH         LINE#         415
  C:EE3EH         LINE#         417
  C:EE41H         LINE#         418
  C:EE43H         LINE#         420
  C:EE44H         LINE#         421
  C:EE46H         LINE#         434
  C:D86CH         LINE#         457
  C:D86EH         LINE#         460
  C:D870H         LINE#         466
  C:D871H         LINE#         468
  C:D873H         LINE#         469
  C:D875H         LINE#         470
  C:D876H         LINE#         471
  C:D877H         LINE#         472
  C:D878H         LINE#         474
  C:D87AH         LINE#         475
  C:D87CH         LINE#         476
  C:D87DH         LINE#         477
  C:D87EH         LINE#         478
  C:D87FH         LINE#         480
  C:D881H         LINE#         481
  C:D882H         LINE#         482
  C:D884H         LINE#         483
  C:D886H         LINE#         489
  C:D887H         LINE#         490
  C:D888H         LINE#         491
  C:D889H         LINE#         492
  C:D88AH         LINE#         494
BL51 BANKED LINKER/LOCATER V6.22                                                      03/06/2019  08:21:13  PAGE 150


  C:D88BH         LINE#         495
  C:D88CH         LINE#         496
  C:D88DH         LINE#         497
  C:D88EH         LINE#         498
  C:D890H         LINE#         501
  C:D892H         LINE#         502
  C:D894H         LINE#         503
  C:D895H         LINE#         504
  C:D896H         LINE#         505
  C:D897H         LINE#         507
  C:D898H         LINE#         508
  C:D899H         LINE#         510
  C:D89AH         LINE#         511
  C:D89CH         LINE#         516
  C:D89EH         LINE#         517
  C:D89FH         LINE#         518
  C:D8A1H         LINE#         519
  C:D8A2H         LINE#         520
  C:D8A4H         LINE#         522
  C:D8A6H         LINE#         523
  C:D8A8H         LINE#         524
  C:D8A9H         LINE#         525
  C:D8AAH         LINE#         526
  C:D8ABH         LINE#         527
  C:D8ACH         LINE#         528
  C:D8ADH         LINE#         530
  C:D8AEH         LINE#         531
  C:D8AFH         LINE#         532
  C:D8B0H         LINE#         533
  C:D8B1H         LINE#         534
  C:D8B3H         LINE#         537
  C:D8B6H         LINE#         539
  C:D8B9H         LINE#         544
  C:D8BBH         LINE#         545
  C:D8BDH         LINE#         546
  C:D8BFH         LINE#         558
  C:D8C0H         LINE#         559
  C:D8C1H         LINE#         560
  C:D8C2H         LINE#         561
  C:D8C3H         LINE#         563
  C:D8C4H         LINE#         564
  C:D8C5H         LINE#         565
  C:D8C6H         LINE#         566
  C:D8C7H         LINE#         567
  C:D8C9H         LINE#         570
  C:D8CBH         LINE#         571
  C:D8CDH         LINE#         572
  C:D8CEH         LINE#         573
  C:D8CFH         LINE#         574
  C:D8D0H         LINE#         576
  C:D8D1H         LINE#         577
  C:D8D2H         LINE#         579
  C:D8D4H         LINE#         580
  C:D8D6H         LINE#         581
  C:D8D7H         LINE#         582
  C:D8D8H         LINE#         583
  C:D8DAH         LINE#         589
BL51 BANKED LINKER/LOCATER V6.22                                                      03/06/2019  08:21:13  PAGE 151


  C:D8DCH         LINE#         590
  C:D8DDH         LINE#         591
  C:D8DFH         LINE#         592
  C:D8E1H         LINE#         594
  C:D8E2H         LINE#         595
  C:D8E4H         LINE#         596
  C:D8E6H         LINE#         597
  C:D8E7H         LINE#         599
  C:D8E8H         LINE#         600
  C:D8E9H         LINE#         601
  C:D8EAH         LINE#         602
  C:D8EBH         LINE#         603
  C:D8EDH         LINE#         607
  C:D8F0H         LINE#         609
  C:D8F2H         LINE#         613
  C:D8F5H         LINE#         618
  C:E88BH         LINE#         642
  C:E88DH         LINE#         643
  C:E88FH         LINE#         644
  C:E891H         LINE#         647
  C:E893H         LINE#         648
  C:E895H         LINE#         649
  C:E897H         LINE#         651
  C:E899H         LINE#         652
  C:E89BH         LINE#         653
  C:E89DH         LINE#         654
  C:E89FH         LINE#         655
  C:E8A0H         LINE#         659
  C:E8A2H         LINE#         660
  C:E8A4H         LINE#         661
  C:E8A6H         LINE#         663
  C:E8A9H         LINE#         664
  C:E8ABH         LINE#         666
  C:E8ACH         LINE#         667
  C:E8ADH         LINE#         668
  C:E8AFH         LINE#         689
  C:E8B1H         LINE#         691
  C:E8B3H         LINE#         692
  C:E8B5H         LINE#         693
  C:E8B7H         LINE#         694
  C:E8B9H         LINE#         695
  -------         ENDMOD        OS_CPU_A_ASM

  -------         MODULE        ?C?COPY
  C:7A75H         PUBLIC        ?C?COPY
  -------         ENDMOD        ?C?COPY

  -------         MODULE        ?C?SCDIV
  C:7A9BH         PUBLIC        ?C?SCDIV
  -------         ENDMOD        ?C?SCDIV

  -------         MODULE        ?C?CLDPTR
  C:7ABDH         PUBLIC        ?C?CLDPTR
  -------         ENDMOD        ?C?CLDPTR

  -------         MODULE        ?C?CLDOPTR
  C:7AD6H         PUBLIC        ?C?CLDOPTR
BL51 BANKED LINKER/LOCATER V6.22                                                      03/06/2019  08:21:13  PAGE 152


  -------         ENDMOD        ?C?CLDOPTR

  -------         MODULE        ?C?CSTPTR
  C:7B03H         PUBLIC        ?C?CSTPTR
  -------         ENDMOD        ?C?CSTPTR

  -------         MODULE        ?C?CSTOPTR
  C:7B15H         PUBLIC        ?C?CSTOPTR
  -------         ENDMOD        ?C?CSTOPTR

  -------         MODULE        ?C?IMUL
  C:7B37H         PUBLIC        ?C?IMUL
  -------         ENDMOD        ?C?IMUL

  -------         MODULE        ?C?UIDIV
  C:7B49H         PUBLIC        ?C?UIDIV
  -------         ENDMOD        ?C?UIDIV

  -------         MODULE        ?C?SIDIV
  C:7B9EH         PUBLIC        ?C?SIDIV
  -------         ENDMOD        ?C?SIDIV

  -------         MODULE        ?C?IILDX
  C:7BD4H         PUBLIC        ?C?IILDX
  -------         ENDMOD        ?C?IILDX

  -------         MODULE        ?C?ILDIX
  C:7BEAH         PUBLIC        ?C?ILDIX
  -------         ENDMOD        ?C?ILDIX

  -------         MODULE        ?C?ILDPTR
  C:7C00H         PUBLIC        ?C?ILDPTR
  -------         ENDMOD        ?C?ILDPTR

  -------         MODULE        ?C?ILDOPTR
  C:7C2BH         PUBLIC        ?C?ILDOPTR
  -------         ENDMOD        ?C?ILDOPTR

  -------         MODULE        ?C?ISTPTR
  C:7C63H         PUBLIC        ?C?ISTPTR
  -------         ENDMOD        ?C?ISTPTR

  -------         MODULE        ?C?LMUL
  C:7C82H         PUBLIC        ?C?LMUL
  -------         ENDMOD        ?C?LMUL

  -------         MODULE        ?C?ULDIV
  C:7D0DH         PUBLIC        ?C?ULDIV
  -------         ENDMOD        ?C?ULDIV

  -------         MODULE        ?C?SLDIV
  C:E574H         PUBLIC        ?C?SLDIV
  -------         ENDMOD        ?C?SLDIV

  -------         MODULE        ?C?ULCMP
  C:7D9FH         PUBLIC        ?C?ULCMP
  -------         ENDMOD        ?C?ULCMP
BL51 BANKED LINKER/LOCATER V6.22                                                      03/06/2019  08:21:13  PAGE 153



  -------         MODULE        ?C?ULSHR
  C:7DB0H         PUBLIC        ?C?ULSHR
  -------         ENDMOD        ?C?ULSHR

  -------         MODULE        ?C?LSHL
  C:7DC3H         PUBLIC        ?C?LSHL
  -------         ENDMOD        ?C?LSHL

  -------         MODULE        ?C?LSTXDATA
  C:7DD6H         PUBLIC        ?C?LSTXDATA
  -------         ENDMOD        ?C?LSTXDATA

  -------         MODULE        ?C?LSTKXDATA
  C:7DE2H         PUBLIC        ?C?LSTKXDATA
  -------         ENDMOD        ?C?LSTKXDATA

  -------         MODULE        ?C?CCASE
  C:7E13H         PUBLIC        ?C?CCASE
  -------         ENDMOD        ?C?CCASE

  -------         MODULE        ?C?MEMSET
  C:7E39H         PUBLIC        ?C?MEMSET
  -------         ENDMOD        ?C?MEMSET

*** WARNING L16: UNCALLED SEGMENT, IGNORED FOR OVERLAY PROCESS
    SEGMENT: ?PR?_SSD1963DATA_16?LCD

*** WARNING L16: UNCALLED SEGMENT, IGNORED FOR OVERLAY PROCESS
    SEGMENT: ?PR?_GETCOLOR?LCD

*** WARNING L16: UNCALLED SEGMENT, IGNORED FOR OVERLAY PROCESS
    SEGMENT: ?PR?_DISPLAY_DOT?LCD

*** WARNING L16: UNCALLED SEGMENT, IGNORED FOR OVERLAY PROCESS
    SEGMENT: ?PR?_DISPLAY_DOT_MUL?LCD

*** WARNING L16: UNCALLED SEGMENT, IGNORED FOR OVERLAY PROCESS
    SEGMENT: ?PR?_DISPLAYFRAME?LCD

*** WARNING L16: UNCALLED SEGMENT, IGNORED FOR OVERLAY PROCESS
    SEGMENT: ?PR?_SHOWKEYFACE?LCD

*** WARNING L16: UNCALLED SEGMENT, IGNORED FOR OVERLAY PROCESS
    SEGMENT: ?PR?_LCD_FANGDA_DIS_TEXT?LCD

*** WARNING L16: UNCALLED SEGMENT, IGNORED FOR OVERLAY PROCESS
    SEGMENT: ?PR?_SHOWTOUCHADJUST?LCD

*** WARNING L16: UNCALLED SEGMENT, IGNORED FOR OVERLAY PROCESS
    SEGMENT: ?PR?_BCDTOHEX?SINGLEBUS

*** WARNING L16: UNCALLED SEGMENT, IGNORED FOR OVERLAY PROCESS
    SEGMENT: ?PR?SYSRESET?SINGLEBUS

*** WARNING L16: UNCALLED SEGMENT, IGNORED FOR OVERLAY PROCESS
    SEGMENT: ?PR?EPH1660MASTERSPI?SPI
BL51 BANKED LINKER/LOCATER V6.22                                                      03/06/2019  08:21:13  PAGE 154



*** WARNING L16: UNCALLED SEGMENT, IGNORED FOR OVERLAY PROCESS
    SEGMENT: ?PR?_GETPSKCRC?UART

*** WARNING L16: UNCALLED SEGMENT, IGNORED FOR OVERLAY PROCESS
    SEGMENT: ?PR?USARTMANAGER?UART

*** WARNING L16: UNCALLED SEGMENT, IGNORED FOR OVERLAY PROCESS
    SEGMENT: ?PR?HOLD_LOW?SST25VF040_2005

*** WARNING L16: UNCALLED SEGMENT, IGNORED FOR OVERLAY PROCESS
    SEGMENT: ?PR?UNHOLD?SST25VF040_2005

*** WARNING L16: UNCALLED SEGMENT, IGNORED FOR OVERLAY PROCESS
    SEGMENT: ?PR?WP_LOW?SST25VF040_2005

*** WARNING L16: UNCALLED SEGMENT, IGNORED FOR OVERLAY PROCESS
    SEGMENT: ?PR?UNWP?SST25VF040_2005

*** WARNING L16: UNCALLED SEGMENT, IGNORED FOR OVERLAY PROCESS
    SEGMENT: ?PR?_READ_ID?SST25VF040_2005

*** WARNING L16: UNCALLED SEGMENT, IGNORED FOR OVERLAY PROCESS
    SEGMENT: ?PR?JEDEC_ID_READ?SST25VF040_2005

*** WARNING L16: UNCALLED SEGMENT, IGNORED FOR OVERLAY PROCESS
    SEGMENT: ?PR?_HIGHSPEED_READ?SST25VF040_2005

*** WARNING L16: UNCALLED SEGMENT, IGNORED FOR OVERLAY PROCESS
    SEGMENT: ?PR?_HIGHSPEED_READ_CONT?SST25VF040_2005

*** WARNING L16: UNCALLED SEGMENT, IGNORED FOR OVERLAY PROCESS
    SEGMENT: ?PR?_AUTO_ADD_INCA?SST25VF040_2005

*** WARNING L16: UNCALLED SEGMENT, IGNORED FOR OVERLAY PROCESS
    SEGMENT: ?PR?_AUTO_ADD_INCB?SST25VF040_2005

*** WARNING L16: UNCALLED SEGMENT, IGNORED FOR OVERLAY PROCESS
    SEGMENT: ?PR?_AUTO_ADD_INCA_EBSY?SST25VF040_2005

*** WARNING L16: UNCALLED SEGMENT, IGNORED FOR OVERLAY PROCESS
    SEGMENT: ?PR?_AUTO_ADD_INCB_EBSY?SST25VF040_2005

*** WARNING L16: UNCALLED SEGMENT, IGNORED FOR OVERLAY PROCESS
    SEGMENT: ?PR?CHIP_ERASE?SST25VF040_2005

*** WARNING L16: UNCALLED SEGMENT, IGNORED FOR OVERLAY PROCESS
    SEGMENT: ?PR?_BLOCK_ERASE_64K?SST25VF040_2005

*** WARNING L16: UNCALLED SEGMENT, IGNORED FOR OVERLAY PROCESS
    SEGMENT: ?PR?WAIT_BUSY_AAI?SST25VF040_2005

*** WARNING L16: UNCALLED SEGMENT, IGNORED FOR OVERLAY PROCESS
    SEGMENT: ?PR?WREN_CHECK?SST25VF040_2005

*** WARNING L16: UNCALLED SEGMENT, IGNORED FOR OVERLAY PROCESS
    SEGMENT: ?PR?WREN_AAI_CHECK?SST25VF040_2005
BL51 BANKED LINKER/LOCATER V6.22                                                      03/06/2019  08:21:13  PAGE 155



*** WARNING L16: UNCALLED SEGMENT, IGNORED FOR OVERLAY PROCESS
    SEGMENT: ?PR?_BYTE_WRITE1?SST25VF040_2005

*** WARNING L16: UNCALLED SEGMENT, IGNORED FOR OVERLAY PROCESS
    SEGMENT: ?PR?FRAM_TEST?SST25VF040_2005

*** WARNING L16: UNCALLED SEGMENT, IGNORED FOR OVERLAY PROCESS
    SEGMENT: ?PR?_OSMEMINIT?OS_MEM

*** WARNING L16: UNCALLED SEGMENT, IGNORED FOR OVERLAY PROCESS
    SEGMENT: ?PR?_OSMEMNEW?OS_MEM

*** WARNING L16: UNCALLED SEGMENT, IGNORED FOR OVERLAY PROCESS
    SEGMENT: ?PR?_OSMEMFREE?OS_MEM

*** WARNING L16: UNCALLED SEGMENT, IGNORED FOR OVERLAY PROCESS
    SEGMENT: ?PR?_OSTASKSTKDEL?OS_CPU_C

Program Size: data=65.5 xdata=839 code=61136
LINK/LOCATE RUN COMPLETE.  36 WARNING(S),  0 ERROR(S)
