BL51 BANKED LINKER/LOCATER V6.22                                                        02/08/2018  14:09:45  PAGE 1


BL51 BANKED LINKER/LOCATER V6.22, INVOKED BY:
C:\KEIL\C51\BIN\BL51.EXE EPH1660.obj, GT23.obj, IAP.obj, LCD.obj, main.obj, parameter.obj, SingleBus.obj, SPI.obj, Uart.
>> obj, PCT25VF.obj, .\OS_CORE.obj, .\OS_MEM.obj, .\OS_Q.obj, .\OS_SEM.obj, .\OS_CPU_C.obj, .\OS_CPU_A.obj TO CTFJ-DISP-
>> V3.0 RAMSIZE (256) CODE (?CO?PARAMETER (0XAA00))


MEMORY MODEL: LARGE


INPUT MODULES INCLUDED:
  EPH1660.obj (EPH1660)
  GT23.obj (GT23)
  IAP.obj (IAP)
  LCD.obj (LCD)
  main.obj (MAIN)
  parameter.obj (PARAMETER)
  SingleBus.obj (SINGLEBUS)
  SPI.obj (SPI)
  Uart.obj (UART)
  PCT25VF.obj (PCT25VF)
  .\OS_CORE.obj (OS_CORE)
  .\OS_MEM.obj (OS_MEM)
  .\OS_Q.obj (OS_Q)
  .\OS_SEM.obj (OS_SEM)
  .\OS_CPU_C.obj (OS_CPU_C)
  .\OS_CPU_A.obj (OS_CPU_A_ASM)
  C:\KEIL\C51\LIB\C51L.LIB (?C_STARTUP)
  C:\KEIL\C51\LIB\C51L.LIB (?C?COPY)
  C:\KEIL\C51\LIB\C51L.LIB (?C?CLDPTR)
  C:\KEIL\C51\LIB\C51L.LIB (?C?CLDOPTR)
  C:\KEIL\C51\LIB\C51L.LIB (?C?CILDOPTR)
  C:\KEIL\C51\LIB\C51L.LIB (?C?CSTPTR)
  C:\KEIL\C51\LIB\C51L.LIB (?C?CSTOPTR)
  C:\KEIL\C51\LIB\C51L.LIB (?C?IMUL)
  C:\KEIL\C51\LIB\C51L.LIB (?C?UIDIV)
  C:\KEIL\C51\LIB\C51L.LIB (?C?SIDIV)
  C:\KEIL\C51\LIB\C51L.LIB (?C?IILDX)
  C:\KEIL\C51\LIB\C51L.LIB (?C?ILDIX)
  C:\KEIL\C51\LIB\C51L.LIB (?C?ILDOPTR)
  C:\KEIL\C51\LIB\C51L.LIB (?C?ISTOPTR)
  C:\KEIL\C51\LIB\C51L.LIB (?C?LMUL)
  C:\KEIL\C51\LIB\C51L.LIB (?C?SLDIV)
  C:\KEIL\C51\LIB\C51L.LIB (?C?ULCMP)
  C:\KEIL\C51\LIB\C51L.LIB (?C?ULSHR)
  C:\KEIL\C51\LIB\C51L.LIB (?C?LSHL)
  C:\KEIL\C51\LIB\C51L.LIB (?C?LSTXDATA)
  C:\KEIL\C51\LIB\C51L.LIB (?C?LSTKXDATA)
  C:\KEIL\C51\LIB\C51L.LIB (?C?CCASE)
  C:\KEIL\C51\LIB\C51L.LIB (?C?MEMSET)
  C:\KEIL\C51\LIB\C51L.LIB (?C_INIT)
  C:\KEIL\C51\LIB\C51L.LIB (?C?ULDIV)


LINK MAP OF MODULE:  CTFJ-DISP-V3.0 (EPH1660)


            TYPE    BASE      LENGTH    RELOCATION   SEGMENT NAME
            -----------------------------------------------------
BL51 BANKED LINKER/LOCATER V6.22                                                      02/08/2018  14:09:45  PAGE 2



            * * * * * * *   D A T A   M E M O R Y   * * * * * * *
            REG     0000H     0008H     ABSOLUTE     "REG BANK 0"
            DATA    0008H     0009H     UNIT         ?DT?OS_CORE
            DATA    0011H     0006H     UNIT         ?DT?OS_CPU_C
            DATA    0017H     0001H     UNIT         ?DT?MAIN
                    0018H     0008H                  *** GAP ***
            DATA    0020H     0001H     BIT_ADDR     ?BA?EPH1660
            DATA    0021H     0007H     BIT_ADDR     ?BA?SINGLEBUS
            BIT     0028H.0   0001H.1   UNIT         ?BI?UART
            BIT     0029H.1   0000H.3   UNIT         ?BI?MAIN
            BIT     0029H.4   0000H.1   UNIT         ?BI?LCD
            BIT     0029H.5   0000H.1   UNIT         _BIT_GROUP_
                    0029H.6   0000H.2                *** GAP ***
            DATA    002AH     003CH     UNIT         ?DT?SINGLEBUS
            IDATA   0066H     0010H     UNIT         ?ID?MAIN
            IDATA   0076H     0002H     UNIT         ?STACK

            * * * * * * *  X D A T A   M E M O R Y  * * * * * * *
            XDATA   0000H     0136H     UNIT         ?XD?UART
            XDATA   0136H     0089H     UNIT         ?XD?GT23
            XDATA   01BFH     0079H     UNIT         ?XD?MAIN
            XDATA   0238H     005BH     UNIT         ?XD?LCD
            XDATA   0293H     003BH     UNIT         _XDATA_GROUP_
            XDATA   02CEH     000FH     UNIT         ?XD?_HIGHSPEED_READ_CONT?PCT25VF
            XDATA   02DDH     000EH     UNIT         ?XD?EPH1660
            XDATA   02EBH     0006H     UNIT         ?XD?_AUTO_ADD_INCA?PCT25VF
            XDATA   02F1H     0005H     UNIT         ?XD?_BYTE_WRITE?PCT25VF
            XDATA   02F6H     0004H     UNIT         ?XD?_GENERATECRC?EPH1660
            XDATA   02FAH     0004H     UNIT         ?XD?JEDEC_ID_READ?PCT25VF
            XDATA   02FEH     0004H     UNIT         ?XD?_HIGHSPEED_READ?PCT25VF
            XDATA   0302H     0004H     UNIT         ?XD?_BLOCK_ERASE_32K?PCT25VF
            XDATA   0306H     0004H     UNIT         ?XD?_BLOCK_ERASE_64K?PCT25VF
            XDATA   030AH     0002H     UNIT         ?XD?_DISPLAY_HLINE?LCD
            XDATA   030CH     0002H     UNIT         ?XD?_DISPLAY_VLINE?LCD
            XDATA   030EH     0002H     UNIT         ?XD?_USARTINITCONFIG?UART
            XDATA   0310H     0002H     UNIT         ?XD?_AUTO_ADD_INCB?PCT25VF
            XDATA   0312H     0002H     UNIT         ?XD?WAIT_BUSY_AAI?PCT25VF
            XDATA   0314H     0002H     UNIT         ?XD?WREN_CHECK?PCT25VF
            XDATA   0316H     0002H     UNIT         ?XD?WREN_AAI_CHECK?PCT25VF
            XDATA   0318H     0002H     UNIT         ?XD?PCT25VF
            XDATA   031AH     0001H     UNIT         ?XD?_SEND_DATA?MAIN
            XDATA   031BH     0001H     UNIT         ?XD?OS_CPU_C

            * * * * * * *   C O D E   M E M O R Y   * * * * * * *
            CODE    0000H     0003H     ABSOLUTE     
            CODE    0003H     0003H     ABSOLUTE     
            CODE    0006H     0003H     UNIT         ?PR?EX0INT?MAIN
            CODE    0009H     0001H     UNIT         ?PR?_SEND_DATA?MAIN
            CODE    000AH     0001H     UNIT         ?PR?_SEND_DATA_BYTE?MAIN
            CODE    000BH     0003H     ABSOLUTE     
            CODE    000EH     0003H     UNIT         ?PR?TIMER1INT?MAIN
            CODE    0011H     0001H     UNIT         ?PR?SYSRESET?SINGLEBUS
            CODE    0012H     0001H     UNIT         ?PR?HOLD_LOW?PCT25VF
            CODE    0013H     0003H     ABSOLUTE     
            CODE    0016H     0003H     UNIT         ?PR?ADCINT?MAIN
            CODE    0019H     0001H     UNIT         ?PR?UNHOLD?PCT25VF
BL51 BANKED LINKER/LOCATER V6.22                                                      02/08/2018  14:09:45  PAGE 3


            CODE    001AH     0001H     UNIT         ?PR?WP_LOW?PCT25VF
            CODE    001BH     0003H     ABSOLUTE     
            CODE    001EH     0003H     UNIT         ?PR?LVDINT?MAIN
            CODE    0021H     0001H     UNIT         ?PR?UNWP?PCT25VF
                    0022H     0001H                  *** GAP ***
            CODE    0023H     0003H     ABSOLUTE     
            CODE    0026H     0003H     UNIT         ?PR?CE_HIGH?PCT25VF
                    0029H     0002H                  *** GAP ***
            CODE    002BH     0003H     ABSOLUTE     
                    002EH     0005H                  *** GAP ***
            CODE    0033H     0003H     ABSOLUTE     
                    0036H     0005H                  *** GAP ***
            CODE    003BH     0003H     ABSOLUTE     
            CODE    003EH     000DH     UNIT         ?PR?RD_ID?MAIN
            CODE    004BH     0003H     ABSOLUTE     
            CODE    004EH     0A86H     UNIT         ?PR?USART0RECDEAL?UART
            CODE    0AD4H     091FH     UNIT         ?PR?BUS0RECDEAL?SINGLEBUS
            CODE    13F3H     05B3H     UNIT         ?PR?_SHOWITEM?LCD
            CODE    19A6H     04B4H     UNIT         ?C?LIB_CODE
            CODE    1E5AH     0402H     UNIT         ?PR?SHOWINFOBLOCKLEN?LCD
            CODE    225CH     03F7H     UNIT         ?PR?BUS0SENDDEAL?SINGLEBUS
            CODE    2653H     0379H     UNIT         ?PR?SHOWPATIENTBASEINFO?LCD
            CODE    29CCH     0371H     UNIT         ?PR?MAINTASK?MAIN
            CODE    2D3DH     035BH     UNIT         ?PR?SHOWBEDFACEFORM?LCD
            CODE    3098H     02F8H     UNIT         ?PR?TIMER0INT?SINGLEBUS
            CODE    3390H     029DH     UNIT         ?PR?USARTSENDSBNEXTFRAME?SINGLEBUS
            CODE    362DH     029CH     UNIT         ?PR?_GET_GT23_DATA?GT23
            CODE    38C9H     029AH     UNIT         ?PR?SHOWBEDFACE?LCD
            CODE    3B63H     023CH     UNIT         ?PR?UART0?UART
            CODE    3D9FH     022AH     UNIT         ?PR?_FLASH_BUFFERWRITE?PCT25VF
            CODE    3FC9H     01EAH     UNIT         ?CO?LCD
            CODE    41B3H     01AAH     UNIT         ?PR?_WRITEAREAHANDLERMUL?LCD
            CODE    435DH     0199H     UNIT         ?PR?TIMEROUTDEAL?SINGLEBUS
            CODE    44F6H     015EH     UNIT         ?PR?FRAM_TEST?PCT25VF
            CODE    4654H     0158H     UNIT         ?CO?EPH1660
            CODE    47ACH     0154H     UNIT         ?PR?_GETTITLE?LCD
            CODE    4900H     0152H     UNIT         ?PR?_STOREDATACHECK?UART
            CODE    4A52H     014EH     UNIT         ?PR?DISPLAY_ASCII_MUL?LCD
            CODE    4BA0H     0148H     UNIT         ?PR?_WRITE_CONT?PCT25VF
            CODE    4CE8H     0140H     UNIT         ?PR?DISPLAYBLOCK?LCD
            CODE    4E28H     0138H     UNIT         ?PR?SHOWPOWERUPFACE?LCD
            CODE    4F60H     012EH     UNIT         ?PR?_LCD_FANGDA_DIS_TEXT?LCD
            CODE    508EH     012EH     UNIT         ?PR?_CRCCHECKDATA?UART
            CODE    51BCH     0123H     UNIT         ?PR?INITPARAMETER?SINGLEBUS
            CODE    52DFH     0121H     UNIT         ?PR?INITSSD1963?LCD
            CODE    5400H     0115H     UNIT         ?PR?DISPLAYSTRING?LCD
            CODE    5515H     0115H     UNIT         ?PR?_SECTORDATACOPY?UART
            CODE    562AH     010FH     UNIT         ?PR?_CHECKFORMDATA?UART
            CODE    5739H     0100H     UNIT         ?PR?INIT?MAIN
            CODE    5839H     00FDH     UNIT         ?PR?DISPLAYSTRINGLEN?LCD
            CODE    5936H     00E3H     UNIT         ?PR?_AAI_WRITE?PCT25VF
            CODE    5A19H     00E2H     UNIT         ?PR?_CHECKFACEDATA?UART
            CODE    5AFBH     00D8H     UNIT         ?PR?_SHOWBROADFACE?LCD
            CODE    5BD3H     00CCH     UNIT         ?PR?_SAVEPARAMETER?SINGLEBUS
            CODE    5C9FH     00C6H     UNIT         ?PR?_READ_CONT?PCT25VF
            CODE    5D65H     00C4H     UNIT         ?PR?_SHOWCALLFACE?LCD
            CODE    5E29H     00C1H     UNIT         ?PR?SPIINT?SPI
BL51 BANKED LINKER/LOCATER V6.22                                                      02/08/2018  14:09:45  PAGE 4


            CODE    5EEAH     00BFH     UNIT         ?PR?_FLASH_PAGEWRITE?PCT25VF
            CODE    5FA9H     00BCH     UNIT         ?PR?_HIGHSPEED_READ_CONT?PCT25VF
            CODE    6065H     00B3H     UNIT         ?PR?GET_DOT_NUMBER?LCD
            CODE    6118H     00B2H     UNIT         ?PR?_DISPLAYONECHAR?LCD
            CODE    61CAH     00AAH     UNIT         ?PR?TIMEINTERVAL?MAIN
            CODE    6274H     0097H     UNIT         ?PR?_DISPLAY_HLINE?LCD
            CODE    630BH     0096H     UNIT         ?PR?DISPLAYFRAME?LCD
            CODE    63A1H     0095H     UNIT         ?PR?SHOWSTARTNUMSET?LCD
            CODE    6436H     0094H     UNIT         ?PR?_OSQPEND?OS_Q
            CODE    64CAH     0092H     UNIT         ?PR?_USARTINITCONFIG?UART
            CODE    655CH     0090H     UNIT         ?PR?_DISPLAY_VLINE?LCD
            CODE    65ECH     0090H     UNIT         ?PR?GET_BASESIZE_MUL?LCD
            CODE    667CH     008CH     UNIT         ?PR?C_OSCTXSW?OS_CPU_A
            CODE    6708H     008CH     UNIT         ?C_C51STARTUP
            CODE    6794H     008AH     UNIT         ?PR?DISSENDPINBUGFACE?LCD
            CODE    681EH     008AH     UNIT         ?PR?USARTINIT?UART
            CODE    68A8H     0088H     UNIT         ?PR?_OSQPOST?OS_Q
            CODE    6930H     0086H     UNIT         ?PR?_BUS0OUTPUTDATA?SINGLEBUS
            CODE    69B6H     007FH     UNIT         ?PR?_SHOWTALKFACE?LCD
            CODE    6A35H     007CH     UNIT         ?PR?_OSTASKSTKINIT?OS_CPU_A
            CODE    6AB1H     0077H     UNIT         ?PR?_CHECKPSK?UART
            CODE    6B28H     0076H     UNIT         ?PR?SHOWSTARTINFUSIONCALL?LCD
            CODE    6B9EH     0073H     UNIT         ?PR?ALLDAY?MAIN
            CODE    6C11H     0070H     UNIT         ?C_INITSEG
            CODE    6C81H     006CH     UNIT         ?PR?DISPLAYDIGITSTRING?LCD
            CODE    6CEDH     0068H     UNIT         ?PR?_SET_DISPLAY_AREA?LCD
            CODE    6D55H     0065H     UNIT         ?PR?_PARACRCCHECK?SINGLEBUS
            CODE    6DBAH     0064H     UNIT         ?PR?SHOWNUMSETOK?LCD
            CODE    6E1EH     0063H     UNIT         ?PR?_READPARAMETER?SINGLEBUS
            CODE    6E81H     0063H     UNIT         ?PR?_GETPSKCRC?UART
            CODE    6EE4H     005EH     UNIT         ?PR?LCD_CLEAR?LCD
            CODE    6F42H     005EH     UNIT         ?PR?_OSWAIT?OS_CORE
            CODE    6FA0H     005BH     UNIT         ?PR?SHOWCALLSUCCESS?LCD
            CODE    6FFBH     005BH     UNIT         ?PR?SHOWSTARTRFNUMSET?LCD
            CODE    7056H     005BH     UNIT         ?PR?SHOWRFNUMSETOK?LCD
            CODE    70B1H     005AH     UNIT         ?PR?_GETCOLOR?LCD
            CODE    710BH     0057H     UNIT         ?PR?_SHOWADDBEDCALLFACE?LCD
            CODE    7162H     0056H     UNIT         ?PR?DIRRFSERIALCOMPARE?MAIN
            CODE    71B8H     0056H     UNIT         ?PR?OSTICKISR?OS_CPU_C
            CODE    720EH     0053H     UNIT         ?PR?SHOWSTARTSERVICECALL?LCD
            CODE    7261H     0053H     UNIT         ?PR?SHOWSTARTEMERGENCYCALL?LCD
            CODE    72B4H     0053H     UNIT         ?PR?SHOWSTARTHELPCALL?LCD
            CODE    7307H     0053H     UNIT         ?PR?_AUTO_ADD_INCA_EBSY?PCT25VF
            CODE    735AH     0050H     UNIT         ?PR?_BYTE_WRITE?PCT25VF
            CODE    73AAH     004FH     UNIT         ?PR?EPH1660MANAGER?EPH1660
            CODE    73F9H     004AH     UNIT         ?PR?_AUTO_ADD_INCA?PCT25VF
            CODE    7443H     0049H     UNIT         ?PR?DISPLAY_DOT?LCD
            CODE    748CH     0048H     UNIT         ?PR?JEDEC_ID_READ?PCT25VF
            CODE    74D4H     0048H     UNIT         ?PR?_HIGHSPEED_READ?PCT25VF
            CODE    751CH     0048H     UNIT         ?PR?_SECTOR_ERASE?PCT25VF
            CODE    7564H     0046H     UNIT         ?PR?CALCPARACRC?SINGLEBUS
            CODE    75AAH     0044H     UNIT         ?PR?_GETTITLELENGTH?LCD
            CODE    75EEH     0044H     UNIT         ?C?LDIV
            CODE    7632H     0043H     UNIT         ?PR?_GENERATECRC?EPH1660
            CODE    7675H     0043H     UNIT         ?PR?_STKDELA?OS_CPU_C
            CODE    76B8H     0042H     UNIT         ?PR?_BYTE_PROGRAM?PCT25VF
            CODE    76FAH     0042H     UNIT         ?PR?_STKDELB?OS_CPU_C
BL51 BANKED LINKER/LOCATER V6.22                                                      02/08/2018  14:09:45  PAGE 5


            CODE    773CH     0041H     UNIT         ?PR?_ADDRCOMPARE?SINGLEBUS
            CODE    777DH     003FH     UNIT         ?PR?_READ?PCT25VF
            CODE    77BCH     003DH     UNIT         ?PR?_BLOCK_ERASE_32K?PCT25VF
            CODE    77F9H     003DH     UNIT         ?PR?_BLOCK_ERASE_64K?PCT25VF
            CODE    7836H     003CH     UNIT         ?PR?__OSTASKCREATE?OS_CORE
            CODE    7872H     0039H     UNIT         ?PR?_OSQCREATE?OS_Q
            CODE    78ABH     0038H     UNIT         ?PR?_DIRADDRCOMPARE?SINGLEBUS
            CODE    78E3H     0035H     UNIT         ?PR?SINGLEBUSINIT?SINGLEBUS
            CODE    7918H     0035H     UNIT         ?PR?_ISSINGLEITEM?UART
            CODE    794DH     0034H     UNIT         ?PR?POLL_SO?PCT25VF
            CODE    7981H     0033H     UNIT         ?PR?LOADCTX?OS_CPU_A
            CODE    79B4H     002FH     UNIT         ?PR?_SETSCROLLAREA?LCD
            CODE    79E3H     002FH     UNIT         ?PR?OSINTCTXSW?OS_CPU_A
            CODE    7A12H     002DH     UNIT         ?PR?WREN_AAI_CHECK?PCT25VF
            CODE    7A3FH     002CH     UNIT         ?PR?_AUTO_ADD_INCB_EBSY?PCT25VF
            CODE    7A6BH     002AH     UNIT         ?PR?_READ_ID?PCT25VF
            CODE    7A95H     002AH     UNIT         ?PR?WAIT_BUSY?PCT25VF
            CODE    7ABFH     002AH     UNIT         ?PR?WAIT_BUSY_AAI?PCT25VF
            CODE    7AE9H     0029H     UNIT         ?PR?_SEND_SSD1963_DATA?LCD
            CODE    7B12H     0028H     UNIT         ?PR?WREN_CHECK?PCT25VF
            CODE    7B3AH     0026H     UNIT         ?PR?GET_BYTE?PCT25VF
            CODE    7B60H     0026H     UNIT         ?PR?_OSTASKSTKDEL?OS_CPU_C
            CODE    7B86H     0024H     UNIT         ?PR?_W25QXX_WRSR?PCT25VF
            CODE    7BAAH     0024H     UNIT         ?PR?OSINTEXIT?OS_CORE
            CODE    7BCEH     0023H     UNIT         ?PR?_MASTERSPI_SEND_EPH1660_COMMAND?EPH1660
            CODE    7BF1H     0023H     UNIT         ?PR?SST25VF_INIT?PCT25VF
            CODE    7C14H     0023H     UNIT         ?PR?_AUTO_ADD_INCB?PCT25VF
            CODE    7C37H     0023H     UNIT         ?PR?_OSTIMEDLY?OS_CORE
            CODE    7C5AH     0022H     UNIT         ?PR?USERTICKTIMER?MAIN
            CODE    7C7CH     0020H     UNIT         ?PR?BL_OFF?LCD
            CODE    7C9CH     0020H     UNIT         ?PR?BUS0MANAGE?SINGLEBUS
            CODE    7CBCH     0020H     UNIT         ?PR?MCUMASTERSPI?SPI
            CODE    7CDCH     001FH     UNIT         ?PR?MAIN?MAIN
            CODE    7CFBH     001FH     UNIT         ?PR?EPH1660MASTERSPI?SPI
            CODE    7D1AH     001FH     UNIT         ?PR?OSTIMETICK?OS_CORE
            CODE    7D39H     001EH     UNIT         ?PR?_DELAY_NMS?PCT25VF
            CODE    7D57H     001CH     UNIT         ?PR?_WRSR?PCT25VF
            CODE    7D73H     001BH     UNIT         ?PR?MASTERSPIINITIEPH1660?EPH1660
            CODE    7D8EH     0019H     UNIT         ?PR?_DELAYMS?EPH1660
            CODE    7DA7H     0019H     UNIT         ?PR?_DISPATCHMESSAGE?MAIN
            CODE    7DC0H     0019H     UNIT         ?PR?_OSTASKRESUME?OS_CORE
            CODE    7DD9H     0018H     UNIT         ?PR?DISPLAY_CHINESE_MUL?LCD
            CODE    7DF1H     0018H     UNIT         ?CO?MAIN
            CODE    7E09H     0018H     UNIT         ?PR?SST25VF_LOCK?PCT25VF
            CODE    7E21H     0018H     UNIT         ?PR?_OS_TASKSUSPEND?OS_CORE
            CODE    7E39H     0018H     UNIT         ?PR?OSFINDNEXTRUNNINGTASK?OS_CORE
            CODE    7E51H     0018H     UNIT         ?PR?_STKDELC?OS_CPU_C
            CODE    7E69H     0017H     UNIT         ?PR?RESETEPH1660?EPH1660
            CODE    7E80H     0017H     UNIT         ?PR?TIMEROUTMANAGER?SINGLEBUS
            CODE    7E97H     0017H     UNIT         ?PR?SST25VF_UNLOCK?PCT25VF
            CODE    7EAEH     0016H     UNIT         ?PR?_IAPWRITEBYTE?IAP
            CODE    7EC4H     0015H     UNIT         ?PR?FLASH_LOCK?PCT25VF
            CODE    7ED9H     0015H     UNIT         ?PR?FLASH_UNLOCK?PCT25VF
            CODE    7EEEH     0015H     UNIT         ?PR?_DELAY_NUS?PCT25VF
            CODE    7F03H     0014H     UNIT         ?PR?_IAPREADBYTE?IAP
            CODE    7F17H     0014H     UNIT         ?PR?OSSCHED?OS_CORE
            CODE    7F2BH     0013H     UNIT         ?PR?_SETSCROLLSTART?LCD
BL51 BANKED LINKER/LOCATER V6.22                                                      02/08/2018  14:09:45  PAGE 6


            CODE    7F3EH     0013H     UNIT         ?PR?_SEND_BYTE?PCT25VF
            CODE    7F51H     0012H     UNIT         ?PR?_IAPERASE?IAP
            CODE    7F63H     0011H     UNIT         ?PR?_SET_VISUALPAGE?LCD
            CODE    7F74H     0011H     UNIT         ?PR?READ_STATUS_REGISTER?PCT25VF
            CODE    7F85H     0011H     UNIT         ?PR?OSINIT?OS_CORE
            CODE    7F96H     0010H     UNIT         ?PR?W25QXX_LOCK?PCT25VF
            CODE    7FA6H     0010H     UNIT         ?PR?OSCPUINIT?OS_CPU_C
            CODE    7FB6H     000FH     UNIT         ?PR?_SEND_SSD1963_COMMAND?LCD
            CODE    7FC5H     000FH     UNIT         ?PR?_BCDTOHEX?SINGLEBUS
            CODE    7FD4H     000FH     UNIT         ?PR?W25QXX_UNLOCK?PCT25VF
            CODE    7FE3H     000EH     UNIT         ?PR?_SSD1963DATA_16?LCD
            CODE    7FF1H     000EH     UNIT         ?PR?BUS0RECINT?SINGLEBUS
            CODE    7FFFH     000EH     UNIT         ?PR?WREN?PCT25VF
            CODE    800DH     000DH     UNIT         ?PR?_SPI_WRITEBYTE?SPI
            CODE    801AH     000DH     UNIT         ?PR?OSCTXSW?OS_CPU_A
            CODE    8027H     000CH     UNIT         ?PR?USARTMANAGER?UART
            CODE    8033H     000CH     UNIT         ?PR?_OSTASKSUSPEND?OS_CORE
            CODE    803FH     000BH     UNIT         ?PR?READ_SSD1963_DATA?LCD
            CODE    804AH     000BH     UNIT         ?PR?_MAKECH0TIMEROUT?SINGLEBUS
            CODE    8055H     000BH     UNIT         ?PR?EWSR?PCT25VF
            CODE    8060H     000BH     UNIT         ?PR?WRDI?PCT25VF
            CODE    806BH     000BH     UNIT         ?PR?EBSY?PCT25VF
            CODE    8076H     000BH     UNIT         ?PR?DBSY?PCT25VF
            CODE    8081H     000BH     UNIT         ?PR?CHIP_ERASE?PCT25VF
            CODE    808CH     0009H     UNIT         ?CO?OS_CORE
            CODE    8095H     0008H     UNIT         ?PR?REC_GT23_DATA?GT23
            CODE    809DH     0008H     UNIT         ?PR?DISABLEIAP?IAP
            CODE    80A5H     0008H     UNIT         ?PR?BL_ON?LCD
            CODE    80ADH     0007H     UNIT         ?PR?_GETMESSAGE?MAIN
            CODE    80B4H     0006H     UNIT         ?PR?_ENABLEIAP?IAP
            CODE    80BAH     0006H     UNIT         ?PR?CE_LOW?PCT25VF
                    80C0H     2940H                  *** GAP ***
            CODE    AA00H     0016H     UNIT         ?CO?PARAMETER



OVERLAY MAP OF MODULE:   CTFJ-DISP-V3.0 (EPH1660)


SEGMENT                                             BIT_GROUP          XDATA_GROUP
  +--> CALLED SEGMENT                            START    LENGTH     START    LENGTH
------------------------------------------------------------------------------------
?PR?UART0?UART                                   -----    -----      0293H    0004H

*** NEW ROOT ***************************************************

?PR?OSTICKISR?OS_CPU_C                           -----    -----      -----    -----
  +--> ?PR?USERTICKTIMER?MAIN
  +--> ?PR?OSTIMETICK?OS_CORE
  +--> ?PR?OSINTEXIT?OS_CORE

?PR?OSTIMETICK?OS_CORE                           -----    -----      -----    -----
  +--> ?CO?OS_CORE
  +--> ?PR?OSSCHED?OS_CORE

?PR?OSSCHED?OS_CORE                              -----    -----      -----    -----
  +--> ?PR?OSFINDNEXTRUNNINGTASK?OS_CORE
BL51 BANKED LINKER/LOCATER V6.22                                                      02/08/2018  14:09:45  PAGE 7


  +--> ?PR?OSCTXSW?OS_CPU_A

?PR?OSCTXSW?OS_CPU_A                             -----    -----      -----    -----
  +--> ?CO?OS_CORE
  +--> ?PR?C_OSCTXSW?OS_CPU_A

?PR?C_OSCTXSW?OS_CPU_A                           -----    -----      -----    -----
  +--> ?PR?LOADCTX?OS_CPU_A

?PR?LOADCTX?OS_CPU_A                             -----    -----      -----    -----
  +--> ?CO?OS_CORE

?PR?OSINTEXIT?OS_CORE                            -----    -----      -----    -----
  +--> ?PR?OSFINDNEXTRUNNINGTASK?OS_CORE
  +--> ?PR?OSINTCTXSW?OS_CPU_A

?PR?OSINTCTXSW?OS_CPU_A                          -----    -----      -----    -----
  +--> ?PR?OSCTXSW?OS_CPU_A
  +--> ?CO?OS_CORE
  +--> ?PR?C_OSCTXSW?OS_CPU_A

*** NEW ROOT ***************************************************

?C_C51STARTUP                                    -----    -----      -----    -----
  +--> ?PR?MAIN?MAIN
  +--> ?C_INITSEG

?PR?MAIN?MAIN                                    -----    -----      -----    -----
  +--> ?PR?_DELAYMS?EPH1660
  +--> ?PR?OSINIT?OS_CORE
  +--> ?PR?MAINTASK?MAIN
  +--> ?PR?__OSTASKCREATE?OS_CORE

?PR?OSINIT?OS_CORE                               -----    -----      -----    -----
  +--> ?PR?OSCPUINIT?OS_CPU_C

?PR?MAINTASK?MAIN                                -----    -----      0297H    0001H
  +--> ?PR?INIT?MAIN
  +--> ?PR?_OSQCREATE?OS_Q
  +--> ?PR?BUS0MANAGE?SINGLEBUS
  +--> ?PR?__OSTASKCREATE?OS_CORE
  +--> ?PR?TIMEROUTMANAGER?SINGLEBUS
  +--> ?PR?_GETMESSAGE?MAIN
  +--> ?PR?_DISPATCHMESSAGE?MAIN
  +--> ?PR?USART0RECDEAL?UART
  +--> ?PR?_STOREDATACHECK?UART
  +--> ?PR?_SHOWITEM?LCD
  +--> ?PR?SHOWPATIENTBASEINFO?LCD
  +--> ?PR?_SET_VISUALPAGE?LCD
  +--> ?PR?_SECTORDATACOPY?UART
  +--> ?PR?_WRITE_CONT?PCT25VF
  +--> ?PR?SHOWBEDFACEFORM?LCD
  +--> ?PR?_READ_CONT?PCT25VF

?PR?INIT?MAIN                                    -----    -----      -----    -----
  +--> ?PR?_DELAYMS?EPH1660
  +--> ?PR?INITPARAMETER?SINGLEBUS
BL51 BANKED LINKER/LOCATER V6.22                                                      02/08/2018  14:09:45  PAGE 8


  +--> ?PR?USARTINIT?UART
  +--> ?PR?_SEND_DATA_BYTE?MAIN
  +--> ?PR?MCUMASTERSPI?SPI
  +--> ?PR?_READ_ID?PCT25VF
  +--> ?PR?FLASH_LOCK?PCT25VF
  +--> ?PR?SINGLEBUSINIT?SINGLEBUS
  +--> ?PR?INITSSD1963?LCD
  +--> ?PR?SHOWPOWERUPFACE?LCD
  +--> ?PR?_MAKECH0TIMEROUT?SINGLEBUS
  +--> ?PR?SHOWBEDFACE?LCD
  +--> ?PR?_SET_VISUALPAGE?LCD
  +--> ?PR?LCD_CLEAR?LCD

?PR?INITPARAMETER?SINGLEBUS                      -----    -----      0298H    0001H
  +--> ?PR?_PARACRCCHECK?SINGLEBUS
  +--> ?PR?_ENABLEIAP?IAP
  +--> ?PR?_IAPREADBYTE?IAP
  +--> ?PR?DISABLEIAP?IAP
  +--> ?CO?PARAMETER
  +--> ?PR?_READPARAMETER?SINGLEBUS
  +--> ?PR?_SAVEPARAMETER?SINGLEBUS

?PR?_PARACRCCHECK?SINGLEBUS                      -----    -----      0299H    0005H
  +--> ?PR?_ENABLEIAP?IAP
  +--> ?PR?_IAPREADBYTE?IAP
  +--> ?PR?DISABLEIAP?IAP

?PR?_READPARAMETER?SINGLEBUS                     -----    -----      0299H    0006H
  +--> ?PR?_ENABLEIAP?IAP
  +--> ?PR?_IAPREADBYTE?IAP
  +--> ?PR?DISABLEIAP?IAP

?PR?_SAVEPARAMETER?SINGLEBUS                     -----    -----      029CH    0006H
  +--> ?PR?_ENABLEIAP?IAP
  +--> ?PR?_IAPERASE?IAP
  +--> ?PR?_IAPWRITEBYTE?IAP
  +--> ?PR?DISABLEIAP?IAP

?PR?_SEND_DATA_BYTE?MAIN                         -----    -----      0298H    0001H

?PR?_READ_ID?PCT25VF                             -----    -----      0298H    0002H
  +--> ?PR?CE_LOW?PCT25VF
  +--> ?PR?_SEND_BYTE?PCT25VF
  +--> ?PR?GET_BYTE?PCT25VF
  +--> ?PR?CE_HIGH?PCT25VF

?PR?_SEND_BYTE?PCT25VF                           -----    -----      -----    -----
  +--> ?PR?_SPI_WRITEBYTE?SPI

?PR?GET_BYTE?PCT25VF                             -----    -----      -----    -----
  +--> ?PR?_SPI_WRITEBYTE?SPI

?PR?FLASH_LOCK?PCT25VF                           -----    -----      -----    -----
  +--> ?PR?W25QXX_LOCK?PCT25VF
  +--> ?PR?SST25VF_LOCK?PCT25VF

?PR?W25QXX_LOCK?PCT25VF                          -----    -----      -----    -----
BL51 BANKED LINKER/LOCATER V6.22                                                      02/08/2018  14:09:45  PAGE 9


  +--> ?PR?EWSR?PCT25VF
  +--> ?PR?WAIT_BUSY?PCT25VF
  +--> ?PR?_W25QXX_WRSR?PCT25VF

?PR?EWSR?PCT25VF                                 -----    -----      -----    -----
  +--> ?PR?CE_LOW?PCT25VF
  +--> ?PR?_SEND_BYTE?PCT25VF
  +--> ?PR?CE_HIGH?PCT25VF

?PR?WAIT_BUSY?PCT25VF                            -----    -----      02C8H    0002H
  +--> ?PR?READ_STATUS_REGISTER?PCT25VF
  +--> ?PR?_DELAY_NUS?PCT25VF

?PR?READ_STATUS_REGISTER?PCT25VF                 -----    -----      -----    -----
  +--> ?PR?CE_LOW?PCT25VF
  +--> ?PR?_SEND_BYTE?PCT25VF
  +--> ?PR?GET_BYTE?PCT25VF
  +--> ?PR?CE_HIGH?PCT25VF

?PR?_W25QXX_WRSR?PCT25VF                         -----    -----      02B2H    0002H
  +--> ?PR?CE_LOW?PCT25VF
  +--> ?PR?_SEND_BYTE?PCT25VF
  +--> ?PR?CE_HIGH?PCT25VF

?PR?SST25VF_LOCK?PCT25VF                         -----    -----      -----    -----
  +--> ?PR?EWSR?PCT25VF
  +--> ?PR?_DELAYMS?EPH1660
  +--> ?PR?_WRSR?PCT25VF

?PR?_WRSR?PCT25VF                                -----    -----      02B2H    0002H
  +--> ?PR?CE_LOW?PCT25VF
  +--> ?PR?_SEND_BYTE?PCT25VF
  +--> ?PR?CE_HIGH?PCT25VF

?PR?INITSSD1963?LCD                              -----    -----      -----    -----
  +--> ?PR?_DELAYMS?EPH1660
  +--> ?PR?_SEND_SSD1963_COMMAND?LCD
  +--> ?PR?_SEND_SSD1963_DATA?LCD
  +--> ?PR?_SETSCROLLAREA?LCD

?PR?_SEND_SSD1963_DATA?LCD                       -----    -----      -----    -----
  +--> ?PR?_SEND_SSD1963_COMMAND?LCD

?PR?_SETSCROLLAREA?LCD                           -----    -----      0298H    0002H
  +--> ?PR?_SEND_SSD1963_COMMAND?LCD
  +--> ?PR?_SEND_SSD1963_DATA?LCD

?PR?SHOWPOWERUPFACE?LCD                          -----    -----      -----    -----
  +--> ?PR?LCD_CLEAR?LCD
  +--> ?PR?GET_DOT_NUMBER?LCD
  +--> ?PR?GET_BASESIZE_MUL?LCD
  +--> ?CO?LCD
  +--> ?PR?DISPLAYSTRING?LCD
  +--> ?PR?_DISPLAYONECHAR?LCD
  +--> ?PR?_SET_VISUALPAGE?LCD

?PR?LCD_CLEAR?LCD                                -----    -----      -----    -----
BL51 BANKED LINKER/LOCATER V6.22                                                      02/08/2018  14:09:45  PAGE 10


  +--> ?PR?_SET_DISPLAY_AREA?LCD
  +--> ?PR?_SEND_SSD1963_COMMAND?LCD

?PR?_SET_DISPLAY_AREA?LCD                        -----    -----      02B3H    000CH
  +--> ?PR?_SEND_SSD1963_COMMAND?LCD
  +--> ?PR?_SEND_SSD1963_DATA?LCD

?PR?DISPLAYSTRING?LCD                            -----    -----      -----    -----
  +--> ?PR?_GET_GT23_DATA?GT23
  +--> ?PR?_WRITEAREAHANDLERMUL?LCD
  +--> ?PR?DISPLAY_CHINESE_MUL?LCD
  +--> ?PR?DISPLAY_ASCII_MUL?LCD

?PR?_GET_GT23_DATA?GT23                          -----    -----      02ACH    0013H
  +--> ?PR?_READ_CONT?PCT25VF

?PR?_READ_CONT?PCT25VF                           -----    -----      02BFH    000FH
  +--> ?PR?CE_LOW?PCT25VF
  +--> ?PR?_SEND_BYTE?PCT25VF
  +--> ?PR?GET_BYTE?PCT25VF
  +--> ?PR?CE_HIGH?PCT25VF

?PR?_WRITEAREAHANDLERMUL?LCD                     -----    -----      02ACH    0004H

?PR?DISPLAY_CHINESE_MUL?LCD                      -----    -----      -----    -----
  +--> ?PR?_LCD_FANGDA_DIS_TEXT?LCD

?PR?_LCD_FANGDA_DIS_TEXT?LCD                     -----    -----      02AFH    0004H
  +--> ?PR?_SET_DISPLAY_AREA?LCD
  +--> ?PR?_SEND_SSD1963_COMMAND?LCD

?PR?DISPLAY_ASCII_MUL?LCD                        -----    -----      02ACH    0003H
  +--> ?PR?_LCD_FANGDA_DIS_TEXT?LCD
  +--> ?PR?_SET_DISPLAY_AREA?LCD
  +--> ?PR?_SEND_SSD1963_COMMAND?LCD
  +--> ?PR?_READ_CONT?PCT25VF

?PR?_DISPLAYONECHAR?LCD                          -----    -----      -----    -----
  +--> ?PR?DISPLAYDIGITSTRING?LCD

?PR?DISPLAYDIGITSTRING?LCD                       -----    -----      029FH    0001H
  +--> ?PR?_GET_GT23_DATA?GT23
  +--> ?PR?_WRITEAREAHANDLERMUL?LCD
  +--> ?PR?DISPLAY_ASCII_MUL?LCD

?PR?_SET_VISUALPAGE?LCD                          -----    -----      -----    -----
  +--> ?PR?_SETSCROLLSTART?LCD

?PR?_SETSCROLLSTART?LCD                          -----    -----      -----    -----
  +--> ?PR?_SEND_SSD1963_COMMAND?LCD
  +--> ?PR?_SEND_SSD1963_DATA?LCD

?PR?SHOWBEDFACE?LCD                              -----    -----      029CH    0001H
  +--> ?PR?_READ_CONT?PCT25VF
  +--> ?PR?_STOREDATACHECK?UART
  +--> ?PR?SHOWBEDFACEFORM?LCD
  +--> ?PR?_SECTORDATACOPY?UART
BL51 BANKED LINKER/LOCATER V6.22                                                      02/08/2018  14:09:45  PAGE 11


  +--> ?PR?_SHOWITEM?LCD
  +--> ?PR?SHOWPATIENTBASEINFO?LCD

?PR?_STOREDATACHECK?UART                         -----    -----      029EH    0008H
  +--> ?PR?_READ_CONT?PCT25VF
  +--> ?PR?_READ?PCT25VF

?PR?_READ?PCT25VF                                -----    -----      02A6H    0004H
  +--> ?PR?CE_LOW?PCT25VF
  +--> ?PR?_SEND_BYTE?PCT25VF
  +--> ?PR?GET_BYTE?PCT25VF
  +--> ?PR?CE_HIGH?PCT25VF

?PR?SHOWBEDFACEFORM?LCD                          -----    -----      029DH    0004H
  +--> ?PR?LCD_CLEAR?LCD
  +--> ?PR?_WRITE_CONT?PCT25VF
  +--> ?PR?_READ_CONT?PCT25VF
  +--> ?PR?_GETCOLOR?LCD
  +--> ?PR?DISPLAYBLOCK?LCD
  +--> ?PR?_GETTITLE?LCD
  +--> ?PR?_GETTITLELENGTH?LCD
  +--> ?PR?DISPLAYSTRING?LCD
  +--> ?PR?GET_DOT_NUMBER?LCD
  +--> ?PR?GET_BASESIZE_MUL?LCD
  +--> ?CO?LCD
  +--> ?PR?_GET_GT23_DATA?GT23
  +--> ?PR?DISPLAY_ASCII_MUL?LCD
  +--> ?PR?_SET_VISUALPAGE?LCD

?PR?_WRITE_CONT?PCT25VF                          -----    -----      02A8H    000AH
  +--> ?PR?FLASH_UNLOCK?PCT25VF
  +--> ?PR?WREN?PCT25VF
  +--> ?PR?_SECTOR_ERASE?PCT25VF
  +--> ?PR?WAIT_BUSY?PCT25VF
  +--> ?PR?_AAI_WRITE?PCT25VF
  +--> ?PR?_FLASH_BUFFERWRITE?PCT25VF
  +--> ?PR?_BYTE_PROGRAM?PCT25VF
  +--> ?PR?FLASH_LOCK?PCT25VF

?PR?FLASH_UNLOCK?PCT25VF                         -----    -----      -----    -----
  +--> ?PR?W25QXX_UNLOCK?PCT25VF
  +--> ?PR?SST25VF_UNLOCK?PCT25VF

?PR?W25QXX_UNLOCK?PCT25VF                        -----    -----      -----    -----
  +--> ?PR?EWSR?PCT25VF
  +--> ?PR?WAIT_BUSY?PCT25VF
  +--> ?PR?_W25QXX_WRSR?PCT25VF

?PR?SST25VF_UNLOCK?PCT25VF                       -----    -----      -----    -----
  +--> ?PR?EWSR?PCT25VF
  +--> ?PR?_DELAYMS?EPH1660
  +--> ?PR?_WRSR?PCT25VF

?PR?WREN?PCT25VF                                 -----    -----      -----    -----
  +--> ?PR?CE_LOW?PCT25VF
  +--> ?PR?_SEND_BYTE?PCT25VF
  +--> ?PR?CE_HIGH?PCT25VF
BL51 BANKED LINKER/LOCATER V6.22                                                      02/08/2018  14:09:45  PAGE 12


  +--> ?PR?WAIT_BUSY?PCT25VF

?PR?_SECTOR_ERASE?PCT25VF                        -----    -----      02B2H    0004H
  +--> ?PR?CE_LOW?PCT25VF
  +--> ?PR?_SEND_BYTE?PCT25VF
  +--> ?PR?CE_HIGH?PCT25VF

?PR?_AAI_WRITE?PCT25VF                           -----    -----      02B2H    0009H
  +--> ?PR?WREN?PCT25VF
  +--> ?PR?_AUTO_ADD_INCA_EBSY?PCT25VF
  +--> ?PR?CE_LOW?PCT25VF
  +--> ?PR?_SEND_BYTE?PCT25VF
  +--> ?PR?CE_HIGH?PCT25VF
  +--> ?PR?POLL_SO?PCT25VF
  +--> ?PR?_AUTO_ADD_INCB_EBSY?PCT25VF

?PR?_AUTO_ADD_INCA_EBSY?PCT25VF                  -----    -----      02BBH    0006H
  +--> ?PR?EBSY?PCT25VF
  +--> ?PR?CE_LOW?PCT25VF
  +--> ?PR?_SEND_BYTE?PCT25VF
  +--> ?PR?CE_HIGH?PCT25VF
  +--> ?PR?POLL_SO?PCT25VF

?PR?EBSY?PCT25VF                                 -----    -----      -----    -----
  +--> ?PR?CE_LOW?PCT25VF
  +--> ?PR?_SEND_BYTE?PCT25VF
  +--> ?PR?CE_HIGH?PCT25VF

?PR?POLL_SO?PCT25VF                              -----    -----      02C1H    0003H
  +--> ?PR?CE_LOW?PCT25VF
  +--> ?PR?_DELAY_NUS?PCT25VF
  +--> ?PR?CE_HIGH?PCT25VF

?PR?_AUTO_ADD_INCB_EBSY?PCT25VF                  -----    -----      02BBH    0002H
  +--> ?PR?CE_LOW?PCT25VF
  +--> ?PR?_SEND_BYTE?PCT25VF
  +--> ?PR?CE_HIGH?PCT25VF
  +--> ?PR?POLL_SO?PCT25VF
  +--> ?PR?WRDI?PCT25VF
  +--> ?PR?DBSY?PCT25VF

?PR?WRDI?PCT25VF                                 -----    -----      -----    -----
  +--> ?PR?CE_LOW?PCT25VF
  +--> ?PR?_SEND_BYTE?PCT25VF
  +--> ?PR?CE_HIGH?PCT25VF

?PR?DBSY?PCT25VF                                 -----    -----      -----    -----
  +--> ?PR?CE_LOW?PCT25VF
  +--> ?PR?_SEND_BYTE?PCT25VF
  +--> ?PR?CE_HIGH?PCT25VF

?PR?_FLASH_BUFFERWRITE?PCT25VF                   -----    -----      02B2H    000DH
  +--> ?PR?_FLASH_PAGEWRITE?PCT25VF

?PR?_FLASH_PAGEWRITE?PCT25VF                     -----    -----      02BFH    0009H
  +--> ?PR?WREN?PCT25VF
  +--> ?PR?CE_LOW?PCT25VF
BL51 BANKED LINKER/LOCATER V6.22                                                      02/08/2018  14:09:45  PAGE 13


  +--> ?PR?_SEND_BYTE?PCT25VF
  +--> ?PR?CE_HIGH?PCT25VF
  +--> ?PR?WAIT_BUSY?PCT25VF

?PR?_BYTE_PROGRAM?PCT25VF                        -----    -----      02B2H    0005H
  +--> ?PR?CE_LOW?PCT25VF
  +--> ?PR?_SEND_BYTE?PCT25VF
  +--> ?PR?CE_HIGH?PCT25VF

?PR?DISPLAYBLOCK?LCD                             -----    -----      02A2H    0004H
  +--> ?PR?_SET_DISPLAY_AREA?LCD
  +--> ?PR?_SEND_SSD1963_COMMAND?LCD

?PR?_GETTITLE?LCD                                -----    -----      -----    -----
  +--> ?CO?LCD

?PR?_SECTORDATACOPY?UART                         -----    -----      029EH    000AH
  +--> ?PR?_READ_CONT?PCT25VF
  +--> ?PR?_WRITE_CONT?PCT25VF

?PR?_SHOWITEM?LCD                                -----    -----      029DH    0004H
  +--> ?PR?_READ_CONT?PCT25VF
  +--> ?PR?_WRITE_CONT?PCT25VF
  +--> ?PR?_READ?PCT25VF
  +--> ?PR?_GETCOLOR?LCD
  +--> ?PR?DISPLAYBLOCK?LCD
  +--> ?PR?DISPLAYSTRING?LCD
  +--> ?PR?SHOWINFOBLOCKLEN?LCD

?PR?SHOWINFOBLOCKLEN?LCD                         -----    -----      02A2H    000AH
  +--> ?PR?_GETTITLELENGTH?LCD
  +--> ?PR?GET_DOT_NUMBER?LCD
  +--> ?PR?GET_BASESIZE_MUL?LCD
  +--> ?PR?_GETTITLE?LCD
  +--> ?PR?DISPLAYSTRING?LCD
  +--> ?CO?LCD
  +--> ?PR?DISPLAYSTRINGLEN?LCD

?PR?DISPLAYSTRINGLEN?LCD                         -----    -----      -----    -----
  +--> ?PR?_GET_GT23_DATA?GT23
  +--> ?PR?_WRITEAREAHANDLERMUL?LCD
  +--> ?PR?DISPLAY_CHINESE_MUL?LCD
  +--> ?PR?DISPLAY_ASCII_MUL?LCD

?PR?SHOWPATIENTBASEINFO?LCD                      -----    -----      029DH    0005H
  +--> ?PR?_READ_CONT?PCT25VF
  +--> ?PR?_WRITE_CONT?PCT25VF
  +--> ?PR?_READ?PCT25VF
  +--> ?PR?_GETCOLOR?LCD
  +--> ?PR?DISPLAYBLOCK?LCD
  +--> ?PR?SHOWINFOBLOCKLEN?LCD

?PR?BUS0MANAGE?SINGLEBUS                         -----    -----      -----    -----
  +--> ?PR?_OSQPOST?OS_Q
  +--> ?PR?_OSWAIT?OS_CORE

?PR?_OSQPOST?OS_Q                                -----    -----      -----    -----
BL51 BANKED LINKER/LOCATER V6.22                                                      02/08/2018  14:09:45  PAGE 14


  +--> ?CO?OS_CORE
  +--> ?PR?_OSTASKRESUME?OS_CORE

?PR?_OSTASKRESUME?OS_CORE                        -----    -----      -----    -----
  +--> ?CO?OS_CORE
  +--> ?PR?OSSCHED?OS_CORE

?PR?_OSWAIT?OS_CORE                              -----    -----      -----    -----
  +--> ?PR?_OSTASKSUSPEND?OS_CORE
  +--> ?PR?_OSTIMEDLY?OS_CORE
  +--> ?PR?_OS_TASKSUSPEND?OS_CORE
  +--> ?PR?OSSCHED?OS_CORE

?PR?_OSTASKSUSPEND?OS_CORE                       -----    -----      -----    -----
  +--> ?PR?_OS_TASKSUSPEND?OS_CORE
  +--> ?PR?OSSCHED?OS_CORE

?PR?_OS_TASKSUSPEND?OS_CORE                      -----    -----      -----    -----
  +--> ?CO?OS_CORE

?PR?_OSTIMEDLY?OS_CORE                           -----    -----      -----    -----
  +--> ?PR?_OS_TASKSUSPEND?OS_CORE
  +--> ?PR?OSSCHED?OS_CORE

?PR?__OSTASKCREATE?OS_CORE                       -----    -----      -----    -----
  +--> ?CO?OS_CORE
  +--> ?PR?_OSTASKSTKINIT?OS_CPU_A
  +--> ?PR?OSSCHED?OS_CORE

?PR?_OSTASKSTKINIT?OS_CPU_A                      -----    -----      -----    -----
  +--> ?CO?OS_CORE

?PR?TIMEROUTMANAGER?SINGLEBUS                    -----    -----      -----    -----
  +--> ?PR?_OSWAIT?OS_CORE
  +--> ?PR?_OSQPOST?OS_Q

?PR?_GETMESSAGE?MAIN                             -----    -----      -----    -----
  +--> ?PR?_OSQPEND?OS_Q

?PR?_OSQPEND?OS_Q                                -----    -----      -----    -----
  +--> ?CO?OS_CORE
  +--> ?PR?_OS_TASKSUSPEND?OS_CORE
  +--> ?PR?OSSCHED?OS_CORE

?PR?_DISPATCHMESSAGE?MAIN                        -----    -----      -----    -----
  +--> ?PR?BUS0RECDEAL?SINGLEBUS
  +--> ?PR?BUS0SENDDEAL?SINGLEBUS
  +--> ?PR?TIMEROUTDEAL?SINGLEBUS

?PR?BUS0RECDEAL?SINGLEBUS                        -----    -----      0298H    0004H
  +--> ?PR?_MAKECH0TIMEROUT?SINGLEBUS
  +--> ?PR?CALCPARACRC?SINGLEBUS
  +--> ?PR?_SAVEPARAMETER?SINGLEBUS
  +--> ?PR?_SHOWITEM?LCD
  +--> ?PR?_SET_VISUALPAGE?LCD
  +--> ?PR?BL_OFF?LCD
  +--> ?PR?_DIRADDRCOMPARE?SINGLEBUS
BL51 BANKED LINKER/LOCATER V6.22                                                      02/08/2018  14:09:45  PAGE 15


  +--> ?PR?_BCDTOHEX?SINGLEBUS
  +--> ?PR?_SHOWBROADFACE?LCD
  +--> ?PR?_SHOWADDBEDCALLFACE?LCD
  +--> ?PR?_SHOWCALLFACE?LCD
  +--> ?PR?_ADDRCOMPARE?SINGLEBUS
  +--> ?PR?_WRITE_CONT?PCT25VF
  +--> ?PR?SHOWBEDFACE?LCD
  +--> ?PR?_BUS0OUTPUTDATA?SINGLEBUS
  +--> ?PR?SHOWSTARTNUMSET?LCD
  +--> ?PR?SHOWNUMSETOK?LCD
  +--> ?PR?SHOWCALLSUCCESS?LCD
  +--> ?PR?_SHOWTALKFACE?LCD
  +--> ?PR?TIMEINTERVAL?MAIN
  +--> ?PR?SHOWSTARTRFNUMSET?LCD
  +--> ?PR?BL_ON?LCD
  +--> ?PR?SHOWRFNUMSETOK?LCD
  +--> ?PR?DISSENDPINBUGFACE?LCD
  +--> ?PR?_DELAY_NMS?PCT25VF
  +--> ?PR?USARTSENDSBNEXTFRAME?SINGLEBUS
  +--> ?PR?USARTINIT?UART

?PR?CALCPARACRC?SINGLEBUS                        -----    -----      029CH    0004H
  +--> ?PR?_ENABLEIAP?IAP
  +--> ?PR?DISABLEIAP?IAP

?PR?BL_OFF?LCD                                   -----    -----      -----    -----
  +--> ?PR?_SEND_SSD1963_COMMAND?LCD
  +--> ?PR?_SEND_SSD1963_DATA?LCD

?PR?_SHOWBROADFACE?LCD                           0029H.5  0000H.1    029CH    0002H
  +--> ?PR?DISPLAYBLOCK?LCD
  +--> ?PR?GET_DOT_NUMBER?LCD
  +--> ?PR?GET_BASESIZE_MUL?LCD
  +--> ?CO?LCD
  +--> ?PR?_DISPLAYONECHAR?LCD
  +--> ?PR?DISPLAYSTRING?LCD
  +--> ?PR?_SET_VISUALPAGE?LCD

?PR?_SHOWADDBEDCALLFACE?LCD                      -----    -----      029CH    0001H
  +--> ?PR?DISPLAYBLOCK?LCD
  +--> ?PR?GET_DOT_NUMBER?LCD
  +--> ?PR?GET_BASESIZE_MUL?LCD
  +--> ?CO?LCD
  +--> ?PR?DISPLAYSTRING?LCD
  +--> ?PR?_DISPLAYONECHAR?LCD
  +--> ?PR?_SET_VISUALPAGE?LCD

?PR?_SHOWCALLFACE?LCD                            -----    -----      029CH    0003H
  +--> ?PR?DISPLAYBLOCK?LCD
  +--> ?PR?GET_DOT_NUMBER?LCD
  +--> ?PR?GET_BASESIZE_MUL?LCD
  +--> ?PR?_DISPLAYONECHAR?LCD
  +--> ?CO?LCD
  +--> ?PR?DISPLAYSTRING?LCD
  +--> ?PR?_SET_VISUALPAGE?LCD

?PR?_BUS0OUTPUTDATA?SINGLEBUS                    -----    -----      029EH    0004H
BL51 BANKED LINKER/LOCATER V6.22                                                      02/08/2018  14:09:45  PAGE 16



?PR?SHOWSTARTNUMSET?LCD                          -----    -----      -----    -----
  +--> ?PR?DISPLAYBLOCK?LCD
  +--> ?PR?GET_DOT_NUMBER?LCD
  +--> ?PR?GET_BASESIZE_MUL?LCD
  +--> ?PR?_DISPLAYONECHAR?LCD
  +--> ?CO?LCD
  +--> ?PR?DISPLAYSTRING?LCD
  +--> ?PR?_SET_VISUALPAGE?LCD

?PR?SHOWNUMSETOK?LCD                             -----    -----      -----    -----
  +--> ?PR?DISPLAYBLOCK?LCD
  +--> ?PR?GET_DOT_NUMBER?LCD
  +--> ?PR?GET_BASESIZE_MUL?LCD
  +--> ?CO?LCD
  +--> ?PR?DISPLAYSTRING?LCD
  +--> ?PR?_SET_VISUALPAGE?LCD
  +--> ?PR?_SHOWITEM?LCD

?PR?SHOWCALLSUCCESS?LCD                          -----    -----      -----    -----
  +--> ?PR?DISPLAYBLOCK?LCD
  +--> ?PR?GET_DOT_NUMBER?LCD
  +--> ?PR?GET_BASESIZE_MUL?LCD
  +--> ?CO?LCD
  +--> ?PR?DISPLAYSTRING?LCD
  +--> ?PR?_SET_VISUALPAGE?LCD

?PR?_SHOWTALKFACE?LCD                            -----    -----      -----    -----
  +--> ?PR?DISPLAYBLOCK?LCD
  +--> ?PR?GET_DOT_NUMBER?LCD
  +--> ?PR?GET_BASESIZE_MUL?LCD
  +--> ?CO?LCD
  +--> ?PR?DISPLAYSTRING?LCD
  +--> ?PR?_SET_VISUALPAGE?LCD

?PR?TIMEINTERVAL?MAIN                            -----    -----      029CH    0012H
  +--> ?PR?ALLDAY?MAIN

?PR?ALLDAY?MAIN                                  -----    -----      02AEH    0006H
  +--> ?CO?MAIN

?PR?SHOWSTARTRFNUMSET?LCD                        -----    -----      -----    -----
  +--> ?PR?DISPLAYBLOCK?LCD
  +--> ?PR?GET_DOT_NUMBER?LCD
  +--> ?PR?GET_BASESIZE_MUL?LCD
  +--> ?CO?LCD
  +--> ?PR?DISPLAYSTRING?LCD
  +--> ?PR?_SET_VISUALPAGE?LCD

?PR?BL_ON?LCD                                    -----    -----      -----    -----
  +--> ?PR?_SEND_SSD1963_DATA?LCD
  +--> ?PR?_SEND_SSD1963_COMMAND?LCD

?PR?SHOWRFNUMSETOK?LCD                           -----    -----      -----    -----
  +--> ?PR?DISPLAYBLOCK?LCD
  +--> ?PR?GET_DOT_NUMBER?LCD
  +--> ?PR?GET_BASESIZE_MUL?LCD
BL51 BANKED LINKER/LOCATER V6.22                                                      02/08/2018  14:09:45  PAGE 17


  +--> ?CO?LCD
  +--> ?PR?DISPLAYSTRING?LCD
  +--> ?PR?_SET_VISUALPAGE?LCD

?PR?DISSENDPINBUGFACE?LCD                        -----    -----      -----    -----
  +--> ?PR?DISPLAYBLOCK?LCD
  +--> ?PR?GET_DOT_NUMBER?LCD
  +--> ?PR?GET_BASESIZE_MUL?LCD
  +--> ?CO?LCD
  +--> ?PR?DISPLAYSTRING?LCD
  +--> ?PR?_SET_VISUALPAGE?LCD
  +--> ?PR?BL_ON?LCD

?PR?USARTSENDSBNEXTFRAME?SINGLEBUS               -----    -----      029CH    0004H
  +--> ?PR?_DELAY_NMS?PCT25VF
  +--> ?PR?_READ_CONT?PCT25VF
  +--> ?PR?_GETPSKCRC?UART

?PR?_GETPSKCRC?UART                              -----    -----      02A0H    0008H

?PR?BUS0SENDDEAL?SINGLEBUS                       -----    -----      0298H    0004H
  +--> ?PR?_MAKECH0TIMEROUT?SINGLEBUS
  +--> ?PR?CALCPARACRC?SINGLEBUS
  +--> ?PR?_SAVEPARAMETER?SINGLEBUS
  +--> ?PR?_DELAY_NMS?PCT25VF
  +--> ?PR?_READ_CONT?PCT25VF
  +--> ?PR?_GETPSKCRC?UART

?PR?TIMEROUTDEAL?SINGLEBUS                       -----    -----      0298H    0004H
  +--> ?PR?_BUS0OUTPUTDATA?SINGLEBUS
  +--> ?PR?_SET_VISUALPAGE?LCD
  +--> ?PR?BL_OFF?LCD
  +--> ?PR?_DELAY_NMS?PCT25VF
  +--> ?PR?USARTSENDSBNEXTFRAME?SINGLEBUS

?PR?USART0RECDEAL?UART                           -----    -----      0298H    0006H
  +--> ?PR?_ADDRCOMPARE?SINGLEBUS
  +--> ?PR?_CHECKPSK?UART
  +--> ?PR?_BUS0OUTPUTDATA?SINGLEBUS
  +--> ?PR?BL_ON?LCD
  +--> ?PR?_WRITE_CONT?PCT25VF
  +--> ?PR?_CHECKFACEDATA?UART
  +--> ?PR?_CRCCHECKDATA?UART
  +--> ?PR?_SECTORDATACOPY?UART
  +--> ?PR?_STOREDATACHECK?UART
  +--> ?PR?_CHECKFORMDATA?UART

?PR?_CHECKPSK?UART                               -----    -----      029EH    0008H

?PR?_CHECKFACEDATA?UART                          -----    -----      029EH    0008H
  +--> ?PR?_READ_CONT?PCT25VF

?PR?_CRCCHECKDATA?UART                           -----    -----      029EH    0009H
  +--> ?PR?_READ_CONT?PCT25VF

?PR?_CHECKFORMDATA?UART                          -----    -----      029EH    0012H
  +--> ?PR?_READ_CONT?PCT25VF
BL51 BANKED LINKER/LOCATER V6.22                                                      02/08/2018  14:09:45  PAGE 18





SYMBOL TABLE OF MODULE:  CTFJ-DISP-V3.0 (EPH1660)

  VALUE           TYPE          NAME
  ----------------------------------

  -------         MODULE        EPH1660
  C:0000H         SYMBOL        _ICE_DUMMY_
  D:0080H         PUBLIC        P0
  D:0090H         PUBLIC        P1
  D:00A0H         PUBLIC        P2
  D:00B0H         PUBLIC        P3
  D:00C0H         PUBLIC        P4
  D:00C8H         PUBLIC        P5
  B:0020H.2       PUBLIC        MCUSndCmdFinishFlag
  X:02DDH         PUBLIC        SPIRecData
  B:0020H.0       PUBLIC        RecFramFinishFlag
  C:4664H         PUBLIC        Set_Area
  B:0020H.1       PUBLIC        MCUSndFlag
  C:7638H         PUBLIC        _GenerateCRC
  C:7D73H         PUBLIC        MasterSPIInitiEPH1660
  D:00A8H         PUBLIC        IE
  X:02DEH         PUBLIC        MCUSndDataBuff
  D:00B8H         PUBLIC        IP
  D:0020H         PUBLIC        flag
  C:467CH         PUBLIC        TestCode
  C:4694H         PUBLIC        ExitPowerSavingMode
  B:0090H.4       PUBLIC        EPH1660_CS
  D:00D8H         PUBLIC        CCON
  C:466CH         PUBLIC        SetInkingOff
  C:468CH         PUBLIC        SetNomalMode
  X:02E0H         PUBLIC        Num
  C:7E69H         PUBLIC        ResetEPH1660
  C:469CH         PUBLIC        SetStrokeOverWaitingTime
  D:0098H         PUBLIC        SCON
  D:0088H         PUBLIC        TCON
  B:0020H.3       PUBLIC        VerifyingFlag
  C:7BCEH         PUBLIC        _MasterSPI_Send_Eph1660_Command
  C:46ACH         PUBLIC        CRCTable
  B:00C0H.7       PUBLIC        RESETB
  D:00E0H         PUBLIC        ACC
  C:465CH         PUBLIC        GraphicMode
  B:0090H.3       PUBLIC        WKICOM
  C:7D8EH         PUBLIC        _Delayms
  C:46A4H         PUBLIC        SoftwareReset
  D:00C1H         PUBLIC        WDT_CONTR
  D:00CDH         PUBLIC        SPSTAT
  X:02E1H         PUBLIC        MCUSndDataPosition
  C:73AAH         PUBLIC        EPH1660Manager
  C:4654H         PUBLIC        Recognition_Mode
  X:02E2H         PUBLIC        MCUSndDataLength
  C:4684H         PUBLIC        SetEnaTapWake
  X:02E3H         PUBLIC        Rec_Data
  D:00D0H         PUBLIC        PSW
  C:4674H         PUBLIC        WakeUpEPH1660
BL51 BANKED LINKER/LOCATER V6.22                                                      02/08/2018  14:09:45  PAGE 19


  D:00CFH         PUBLIC        SPDAT
  -------         PROC          _DELAYMS
  D:0006H         SYMBOL        ms
  -------         DO            
  D:0004H         SYMBOL        i
  -------         ENDDO         
  C:7D8EH         LINE#         76
  C:7D8EH         LINE#         77
  C:7D8EH         LINE#         79
  C:7D92H         LINE#         80
  C:7DA6H         LINE#         81
  -------         ENDPROC       _DELAYMS
  -------         PROC          RESETEPH1660
  C:7E69H         LINE#         85
  C:7E69H         LINE#         86
  C:7E69H         LINE#         87
  C:7E6BH         LINE#         88
  C:7E6DH         LINE#         89
  C:7E74H         LINE#         90
  C:7E76H         LINE#         91
  C:7E7DH         LINE#         92
  C:7E7FH         LINE#         93
  -------         ENDPROC       RESETEPH1660
  -------         PROC          L?0028
  -------         ENDPROC       L?0028
  -------         PROC          _GENERATECRC
  X:02F6H         SYMBOL        Packet
  X:02F9H         SYMBOL        size
  -------         DO            
  D:0006H         SYMBOL        i
  D:0007H         SYMBOL        value
  -------         ENDDO         
  C:7638H         LINE#         96
  C:7646H         LINE#         97
  C:7646H         LINE#         100
  C:7648H         LINE#         101
  C:764AH         LINE#         102
  C:7656H         LINE#         103
  C:766AH         LINE#         104
  C:766FH         LINE#         105
  C:7672H         LINE#         106
  C:7674H         LINE#         107
  C:7674H         LINE#         108
  -------         ENDPROC       _GENERATECRC
  -------         PROC          MASTERSPIINITIEPH1660
  C:7D73H         LINE#         111
  C:7D73H         LINE#         112
  C:7D73H         LINE#         114
  C:7D75H         LINE#         127
  C:7D80H         LINE#         128
  C:7D83H         LINE#         129
  C:7D85H         LINE#         130
  C:7D87H         LINE#         131
  -------         ENDPROC       MASTERSPIINITIEPH1660
  -------         PROC          _MASTERSPI_SEND_EPH1660_COMMAND
  D:0001H         SYMBOL        Databuf
  D:0005H         SYMBOL        l
BL51 BANKED LINKER/LOCATER V6.22                                                      02/08/2018  14:09:45  PAGE 20


  C:7BCEH         LINE#         136
  C:7BCEH         LINE#         137
  C:7BCEH         LINE#         138
  C:7BD0H         LINE#         139
  C:7BD5H         LINE#         140
  C:7BDAH         LINE#         141
  C:7BE4H         LINE#         142
  C:7BE6H         LINE#         143
  C:7BE9H         LINE#         144
  C:7BEEH         LINE#         145
  C:7BF0H         LINE#         146
  -------         ENDPROC       _MASTERSPI_SEND_EPH1660_COMMAND
  -------         PROC          EPH1660MANAGER
  C:73AAH         LINE#         163
  C:73AAH         LINE#         164
  C:73AAH         LINE#         169
  C:73AAH         LINE#         170
  C:73AAH         LINE#         171
  C:73ADH         LINE#         172
  C:73B4H         LINE#         173
  C:73B7H         LINE#         174
  C:73B7H         LINE#         175
  C:73B9H         LINE#         176
  C:73C0H         LINE#         177
  C:73C0H         LINE#         178
  C:73CCH         LINE#         179
  C:73D7H         LINE#         180
  C:73D9H         LINE#         181
  C:73E0H         LINE#         183
  C:73E0H         LINE#         184
  C:73ECH         LINE#         185
  C:73F7H         LINE#         186
  C:73F7H         LINE#         188
  C:73F7H         LINE#         190
  -------         ENDPROC       EPH1660MANAGER
  -------         ENDMOD        EPH1660

  -------         MODULE        GT23
  C:0000H         SYMBOL        _ICE_DUMMY_
  D:0080H         PUBLIC        P0
  D:0090H         PUBLIC        P1
  D:00A0H         PUBLIC        P2
  D:00B0H         PUBLIC        P3
  D:00C0H         PUBLIC        P4
  D:00C8H         PUBLIC        P5
  D:00A8H         PUBLIC        IE
  X:0136H         PUBLIC        GT23_32Address
  D:00B8H         PUBLIC        IP
  D:00D8H         PUBLIC        CCON
  D:0098H         PUBLIC        SCON
  D:0088H         PUBLIC        TCON
  X:013AH         PUBLIC        GT23_Rec_Length
  D:00E0H         PUBLIC        ACC
  C:8095H         PUBLIC        Rec_GT23_Data
  X:013BH         PUBLIC        GT23_Rec_Data
  X:01BBH         PUBLIC        GT23_16HAddress
  C:362DH         PUBLIC        _Get_GT23_Data
BL51 BANKED LINKER/LOCATER V6.22                                                      02/08/2018  14:09:45  PAGE 21


  X:01BDH         PUBLIC        GT23_16LAddress
  D:00D0H         PUBLIC        PSW
  D:00CFH         PUBLIC        SPDAT
  -------         PROC          REC_GT23_DATA
  C:8095H         LINE#         40
  C:8095H         LINE#         41
  C:8095H         LINE#         42
  C:809AH         LINE#         43
  C:809CH         LINE#         44
  -------         ENDPROC       REC_GT23_DATA
  -------         PROC          _GET_GT23_DATA
  D:0001H         SYMBOL        word
  X:02ACH         SYMBOL        word_size
  -------         DO            
  X:02ADH         SYMBOL        address1
  X:02B1H         SYMBOL        address2
  X:02B5H         SYMBOL        address3
  X:02B9H         SYMBOL        address4
  X:02BDH         SYMBOL        highbyte
  X:02BEH         SYMBOL        lowbyte
  -------         ENDDO         
  C:362DH         LINE#         61
  C:3632H         LINE#         62
  C:3632H         LINE#         66
  C:363AH         LINE#         67
  C:3641H         LINE#         68
  C:3648H         LINE#         69
  C:365EH         LINE#         70
  C:365EH         LINE#         71
  C:3674H         LINE#         72
  C:3674H         LINE#         74
  C:3674H         LINE#         75
  C:3674H         LINE#         76
  C:3693H         LINE#         77
  C:36A7H         LINE#         78
  C:36B7H         LINE#         79
  C:36BAH         LINE#         81
  C:36BAH         LINE#         82
  C:36D4H         LINE#         83
  C:36F4H         LINE#         84
  C:3704H         LINE#         85
  C:3706H         LINE#         87
  C:3706H         LINE#         88
  C:3725H         LINE#         89
  C:3745H         LINE#         90
  C:3758H         LINE#         91
  C:375BH         LINE#         93
  C:375BH         LINE#         101
  C:375BH         LINE#         102
  C:375BH         LINE#         103
  C:375BH         LINE#         104
  C:3785H         LINE#         105
  C:3785H         LINE#         106
  C:3792H         LINE#         107
  C:3792H         LINE#         108
  C:3792H         LINE#         109
  C:3792H         LINE#         110
BL51 BANKED LINKER/LOCATER V6.22                                                      02/08/2018  14:09:45  PAGE 22


  C:37ACH         LINE#         111
  C:37D6H         LINE#         112
  C:37F3H         LINE#         113
  C:3811H         LINE#         114
  C:3824H         LINE#         115
  C:3827H         LINE#         116
  C:3827H         LINE#         117
  C:3841H         LINE#         118
  C:386BH         LINE#         119
  C:3888H         LINE#         120
  C:38A7H         LINE#         121
  C:38C8H         LINE#         122
  C:38C8H         LINE#         123
  C:38C8H         LINE#         125
  C:38C8H         LINE#         128
  -------         ENDPROC       _GET_GT23_DATA
  -------         ENDMOD        GT23

  -------         MODULE        IAP
  C:0000H         SYMBOL        _ICE_DUMMY_
  D:0080H         PUBLIC        P0
  D:0090H         PUBLIC        P1
  D:00A0H         PUBLIC        P2
  D:00B0H         PUBLIC        P3
  D:00C0H         PUBLIC        P4
  D:00C8H         PUBLIC        P5
  D:00A8H         PUBLIC        IE
  C:7F51H         PUBLIC        _IapErase
  D:00C5H         PUBLIC        IAP_CMD
  C:809DH         PUBLIC        DisableIAP
  D:00B8H         PUBLIC        IP
  D:00C3H         PUBLIC        IAP_ADDRH
  D:00D8H         PUBLIC        CCON
  D:00C4H         PUBLIC        IAP_ADDRL
  C:80B4H         PUBLIC        _EnableIAP
  C:7F03H         PUBLIC        _IapReadByte
  D:0098H         PUBLIC        SCON
  D:0088H         PUBLIC        TCON
  C:7EAEH         PUBLIC        _IapWriteByte
  D:00C7H         PUBLIC        IAP_CONTR
  D:00E0H         PUBLIC        ACC
  D:00C2H         PUBLIC        IAP_DATA
  D:00C6H         PUBLIC        IAP_TRIG
  D:00D0H         PUBLIC        PSW
  -------         PROC          _ENABLEIAP
  D:0007H         SYMBOL        byCmd
  C:80B4H         LINE#         42
  C:80B4H         LINE#         43
  C:80B4H         LINE#         44
  C:80B7H         LINE#         45
  C:80B9H         LINE#         46
  -------         ENDPROC       _ENABLEIAP
  -------         PROC          DISABLEIAP
  C:809DH         LINE#         62
  C:809DH         LINE#         63
  C:809DH         LINE#         64
  C:80A0H         LINE#         65
BL51 BANKED LINKER/LOCATER V6.22                                                      02/08/2018  14:09:45  PAGE 23


  C:80A2H         LINE#         66
  C:80A4H         LINE#         67
  -------         ENDPROC       DISABLEIAP
  -------         PROC          _IAPWRITEBYTE
  D:0002H         SYMBOL        uiAddr
  D:0005H         SYMBOL        byData
  C:7EAEH         LINE#         83
  C:7EB2H         LINE#         84
  C:7EB2H         LINE#         85
  C:7EB6H         LINE#         86
  C:7EB9H         LINE#         87
  C:7EBDH         LINE#         88
  C:7EC0H         LINE#         89
  C:7EC3H         LINE#         90
  -------         ENDPROC       _IAPWRITEBYTE
  -------         PROC          _IAPREADBYTE
  D:0004H         SYMBOL        uiAddr
  C:7F03H         LINE#         106
  C:7F07H         LINE#         107
  C:7F07H         LINE#         108
  C:7F0AH         LINE#         109
  C:7F0EH         LINE#         110
  C:7F11H         LINE#         111
  C:7F14H         LINE#         112
  C:7F16H         LINE#         113
  -------         ENDPROC       _IAPREADBYTE
  -------         PROC          _IAPERASE
  D:0004H         SYMBOL        uiAddr
  C:7F51H         LINE#         130
  C:7F55H         LINE#         131
  C:7F55H         LINE#         132
  C:7F58H         LINE#         133
  C:7F5CH         LINE#         134
  C:7F5FH         LINE#         135
  C:7F62H         LINE#         136
  -------         ENDPROC       _IAPERASE
  -------         ENDMOD        IAP

  -------         MODULE        LCD
  C:0000H         SYMBOL        _ICE_DUMMY_
  C:615CH         PUBLIC        _DisplayOneChar
  X:0238H         PUBLIC        pDispData
  D:0080H         PUBLIC        P0
  C:6FA0H         PUBLIC        ShowCallSuccess
  C:5AFBH         PUBLIC        _ShowBroadFace
  D:00B2H         PUBLIC        P3M0
  D:0090H         PUBLIC        P1
  D:00B1H         PUBLIC        P3M1
  D:00A0H         PUBLIC        P2
  D:00B0H         PUBLIC        P3
  C:7FE3H         PUBLIC        _SSD1963Data_16
  D:00C0H         PUBLIC        P4
  X:023BH         PUBLIC        bcolor
  C:41A3H         PUBLIC        ColorArray
  D:00C8H         PUBLIC        P5
  C:7F68H         PUBLIC        _Set_VisualPage
  C:6B28H         PUBLIC        ShowStartInfusionCall
BL51 BANKED LINKER/LOCATER V6.22                                                      02/08/2018  14:09:45  PAGE 24


  X:023DH         PUBLIC        fcolor
  X:023FH         PUBLIC        start_x
  X:0241H         PUBLIC        mul_row
  C:2653H         PUBLIC        ShowPatientBaseInfo
  C:720EH         PUBLIC        ShowStartServiceCall
  X:0242H         PUBLIC        start_y
  C:80A5H         PUBLIC        BL_ON
  C:75AAH         PUBLIC        _GetTitleLength
  C:6293H         PUBLIC        _Display_HLine
  D:00A8H         PUBLIC        IE
  C:7DD9H         PUBLIC        Display_Chinese_Mul
  X:0244H         PUBLIC        BedDataBuff
  C:7FB6H         PUBLIC        _Send_Ssd1963_Command
  X:0280H         PUBLIC        end_x
  X:0282H         PUBLIC        end_y
  C:5D65H         PUBLIC        _ShowCallFace
  C:63A1H         PUBLIC        ShowStartNumSet
  B:00B0H.5       PUBLIC        BL_SW
  D:00B8H         PUBLIC        IP
  B:0090H.1       PUBLIC        SSD1963_RST
  C:655CH         PUBLIC        _Display_VLine
  C:79B4H         PUBLIC        _SetScrollArea
  X:0284H         PUBLIC        page
  C:38C9H         PUBLIC        ShowBedFace
  C:70C0H         PUBLIC        _GetColor
  C:69B6H         PUBLIC        _ShowTalkFace
  D:00D8H         PUBLIC        CCON
  X:0285H         PUBLIC        current_size
  C:47B1H         PUBLIC        _GetTitle
  B:00C8H.3       PUBLIC        SSD1963_CD
  X:0286H         PUBLIC        fontbuf1
  X:0287H         PUBLIC        fontbuf2
  X:0288H         PUBLIC        DotWidth
  C:710BH         PUBLIC        _ShowAddBedCallFace
  X:0289H         PUBLIC        fontbuf3
  C:65ECH         PUBLIC        get_basesize_mul
  C:7F2BH         PUBLIC        _SetScrollStart
  D:0098H         PUBLIC        SCON
  B:0029H.4       PUBLIC        fTitle_TextAtLine
  C:13F3H         PUBLIC        _ShowItem
  D:0088H         PUBLIC        TCON
  C:4A52H         PUBLIC        Display_ASCII_Mul
  X:028AH         PUBLIC        current_vert_spac
  X:028BH         PUBLIC        dot_number
  B:00B0H.7       PUBLIC        SSD1963_RD
  B:0090H.0       PUBLIC        SSD1963_CS
  C:2D3DH         PUBLIC        ShowBedFaceForm
  B:00C0H.2       PUBLIC        SSD1963_TE
  C:803FH         PUBLIC        Read_Ssd1963_Data
  X:028CH         PUBLIC        size
  C:6DBAH         PUBLIC        ShowNumSetOk
  C:72B4H         PUBLIC        ShowStartHelpCall
  C:1E5AH         PUBLIC        ShowInfoBlockLen
  C:4F60H         PUBLIC        _lcd_fangda_dis_text
  C:6CEDH         PUBLIC        _Set_Display_Area
  D:00E0H         PUBLIC        ACC
  C:4D12H         PUBLIC        DisplayBlock
BL51 BANKED LINKER/LOCATER V6.22                                                      02/08/2018  14:09:45  PAGE 25


  C:630BH         PUBLIC        DisplayFrame
  C:7B07H         PUBLIC        _Send_Ssd1963_Data
  B:00B0H.6       PUBLIC        SSD1963_WR
  C:7C7CH         PUBLIC        BL_OFF
  C:6C81H         PUBLIC        DisplayDigitString
  C:6FFBH         PUBLIC        ShowStartRfNumSet
  C:5420H         PUBLIC        DisplayString
  C:52DFH         PUBLIC        InitSSD1963
  C:607BH         PUBLIC        get_dot_number
  D:00C1H         PUBLIC        WDT_CONTR
  C:7261H         PUBLIC        ShowStartEmergencyCall
  C:6EE4H         PUBLIC        Lcd_Clear
  C:7443H         PUBLIC        Display_Dot
  X:028DH         PUBLIC        Length
  C:6794H         PUBLIC        DisSendPinBugFace
  C:4E28H         PUBLIC        ShowPowerUpFace
  X:028EH         PUBLIC        mul_col
  C:5839H         PUBLIC        DisplayStringLen
  X:028FH         PUBLIC        x
  C:7056H         PUBLIC        ShowRfNumSetOk
  X:0291H         PUBLIC        y
  D:00D0H         PUBLIC        PSW
  C:41B3H         PUBLIC        _WriteAreaHandlerMul
  -------         PROC          _SEND_SSD1963_COMMAND
  D:0007H         SYMBOL        ssd1963_command
  C:7FB6H         LINE#         118
  C:7FB6H         LINE#         119
  C:7FB6H         LINE#         120
  C:7FB8H         LINE#         121
  C:7FBAH         LINE#         122
  C:7FBCH         LINE#         123
  C:7FBEH         LINE#         124
  C:7FC0H         LINE#         125
  C:7FC2H         LINE#         126
  C:7FC4H         LINE#         128
  -------         ENDPROC       _SEND_SSD1963_COMMAND
  C:7B03H         SYMBOL        L?0486
  -------         PROC          L?0485
  -------         ENDPROC       L?0485
  C:7B03H         SYMBOL        L?0486
  -------         PROC          _SEND_SSD1963_DATA
  D:0007H         SYMBOL        ssd1963_data
  C:7B07H         LINE#         135
  C:7B07H         LINE#         136
  C:7B07H         LINE#         137
  C:7B09H         LINE#         138
  C:7B0BH         LINE#         139
  C:7B0DH         LINE#         140
  C:7B0FH         LINE#         141
  C:7B11H         LINE#         143
  -------         ENDPROC       _SEND_SSD1963_DATA
  -------         PROC          _SSD1963DATA_16
  D:0006H         SYMBOL        sdata
  C:7FE3H         LINE#         146
  C:7FE3H         LINE#         148
  C:7FE3H         LINE#         149
  C:7FE5H         LINE#         150
BL51 BANKED LINKER/LOCATER V6.22                                                      02/08/2018  14:09:45  PAGE 26


  C:7FE7H         LINE#         151
  C:7FEAH         LINE#         152
  C:7FECH         LINE#         153
  C:7FEEH         LINE#         154
  C:7FF0H         LINE#         155
  -------         ENDPROC       _SSD1963DATA_16
  -------         PROC          READ_SSD1963_DATA
  -------         DO            
  D:0007H         SYMBOL        RdData
  -------         ENDDO         
  C:803FH         LINE#         164
  C:803FH         LINE#         165
  C:803FH         LINE#         167
  C:8041H         LINE#         168
  C:8043H         LINE#         169
  C:8045H         LINE#         170
  C:8047H         LINE#         171
  C:8049H         LINE#         172
  C:8049H         LINE#         174
  -------         ENDPROC       READ_SSD1963_DATA
  -------         PROC          _SETSCROLLAREA
  X:0298H         SYMBOL        top
  D:0004H         SYMBOL        scroll
  D:0002H         SYMBOL        bottom
  C:79B4H         LINE#         177
  C:79BCH         LINE#         178
  C:79BCH         LINE#         180
  C:79C1H         LINE#         181
  C:79C9H         LINE#         182
  C:79CFH         LINE#         183
  C:79D4H         LINE#         184
  C:79D9H         LINE#         185
  C:79DEH         LINE#         186
  -------         ENDPROC       _SETSCROLLAREA
  -------         PROC          _SETSCROLLSTART
  D:0004H         SYMBOL        line
  C:7F2BH         LINE#         189
  C:7F2FH         LINE#         190
  C:7F2FH         LINE#         191
  C:7F34H         LINE#         192
  C:7F39H         LINE#         193
  -------         ENDPROC       _SETSCROLLSTART
  C:7F63H         SYMBOL        L?0484
  -------         PROC          L?0483
  -------         ENDPROC       L?0483
  C:7F63H         SYMBOL        L?0484
  -------         PROC          _SET_VISUALPAGE
  D:0007H         SYMBOL        VisualPage
  C:7F68H         LINE#         196
  C:7F68H         LINE#         197
  C:7F68H         LINE#         198
  -------         ENDPROC       _SET_VISUALPAGE
  -------         PROC          INITSSD1963
  C:52DFH         LINE#         207
  C:52DFH         LINE#         208
  C:52DFH         LINE#         210
  C:52E1H         LINE#         211
BL51 BANKED LINKER/LOCATER V6.22                                                      02/08/2018  14:09:45  PAGE 27


  C:52E3H         LINE#         212
  C:52E5H         LINE#         214
  C:52E7H         LINE#         215
  C:52EEH         LINE#         216
  C:52F0H         LINE#         217
  C:52F7H         LINE#         218
  C:52F9H         LINE#         219
  C:5300H         LINE#         224
  C:5305H         LINE#         225
  C:530AH         LINE#         226
  C:530FH         LINE#         227
  C:5314H         LINE#         229
  C:5319H         LINE#         230
  C:531EH         LINE#         232
  C:5323H         LINE#         233
  C:5328H         LINE#         234
  C:532DH         LINE#         239
  C:5332H         LINE#         243
  C:5337H         LINE#         244
  C:533CH         LINE#         245
  C:5341H         LINE#         246
  C:5345H         LINE#         249
  C:534AH         LINE#         250
  C:534FH         LINE#         251
  C:5354H         LINE#         252
  C:5359H         LINE#         253
  C:535EH         LINE#         254
  C:5363H         LINE#         255
  C:5368H         LINE#         256
  C:536DH         LINE#         261
  C:5372H         LINE#         264
  C:5377H         LINE#         265
  C:537CH         LINE#         267
  C:5380H         LINE#         268
  C:5385H         LINE#         269
  C:538AH         LINE#         270
  C:538AH         LINE#         271
  C:538DH         LINE#         272
  C:5390H         LINE#         275
  C:5395H         LINE#         278
  C:539AH         LINE#         279
  C:539FH         LINE#         281
  C:53A3H         LINE#         282
  C:53A8H         LINE#         283
  C:53ADH         LINE#         284
  C:53ADH         LINE#         285
  C:53B0H         LINE#         288
  C:53B5H         LINE#         290
  C:53BAH         LINE#         297
  C:53BFH         LINE#         299
  C:53C4H         LINE#         305
  C:53C9H         LINE#         306
  C:53CEH         LINE#         331
  C:53D3H         LINE#         332
  C:53D8H         LINE#         333
  C:53DBH         LINE#         334
  C:53E0H         LINE#         335
BL51 BANKED LINKER/LOCATER V6.22                                                      02/08/2018  14:09:45  PAGE 28


  C:53E5H         LINE#         337
  C:53F0H         LINE#         351
  C:53F3H         LINE#         352
  C:53F6H         LINE#         353
  C:53F8H         LINE#         354
  C:53F8H         LINE#         355
  C:53F8H         LINE#         357
  C:53F8H         LINE#         359
  C:53F8H         LINE#         360
  C:53F8H         LINE#         361
  C:53F8H         LINE#         362
  C:53FBH         LINE#         366
  -------         ENDPROC       INITSSD1963
  -------         PROC          BL_OFF
  C:7C7CH         LINE#         379
  C:7C7CH         LINE#         380
  C:7C7CH         LINE#         381
  C:7C81H         LINE#         382
  C:7C86H         LINE#         384
  C:7C8BH         LINE#         386
  C:7C8FH         LINE#         387
  C:7C94H         LINE#         388
  C:7C94H         LINE#         389
  C:7C97H         LINE#         391
  -------         ENDPROC       BL_OFF
  -------         PROC          BL_ON
  C:80A5H         LINE#         396
  C:80A5H         LINE#         397
  C:80A5H         LINE#         398
  C:80A5H         LINE#         399
  C:80A5H         LINE#         401
  C:80A5H         LINE#         403
  C:80A5H         LINE#         404
  C:80A5H         LINE#         405
  C:80A5H         LINE#         406
  C:80A8H         LINE#         408
  -------         ENDPROC       BL_ON
  -------         PROC          L?0492
  -------         ENDPROC       L?0492
  -------         PROC          _GETCOLOR
  D:0007H         SYMBOL        srgb
  C:70C0H         LINE#         411
  C:70C0H         LINE#         412
  C:70C0H         LINE#         413
  C:70C6H         LINE#         414
  C:70CFH         LINE#         415
  C:70D8H         LINE#         416
  C:70E1H         LINE#         417
  C:70EAH         LINE#         418
  C:70F3H         LINE#         419
  C:70FCH         LINE#         420
  C:7105H         LINE#         421
  C:7106H         LINE#         422
  C:710AH         LINE#         423
  -------         ENDPROC       _GETCOLOR
  -------         PROC          _SET_DISPLAY_AREA
  X:02B3H         SYMBOL        start_x
BL51 BANKED LINKER/LOCATER V6.22                                                      02/08/2018  14:09:45  PAGE 29


  D:0004H         SYMBOL        end_x
  D:0002H         SYMBOL        start_y
  X:02B9H         SYMBOL        end_y
  -------         DO            
  X:02BBH         SYMBOL        shigh_x1
  X:02BCH         SYMBOL        slow_x1
  X:02BDH         SYMBOL        shigh_x2
  X:02BEH         SYMBOL        slow_x2
  D:0001H         SYMBOL        shigh_y1
  D:0005H         SYMBOL        slow_y1
  D:0006H         SYMBOL        shigh_y2
  D:0004H         SYMBOL        slow_y2
  -------         ENDDO         
  C:6CEDH         LINE#         435
  C:6CF5H         LINE#         436
  C:6CF5H         LINE#         439
  C:6CFDH         LINE#         440
  C:6D05H         LINE#         441
  C:6D08H         LINE#         442
  C:6D0BH         LINE#         443
  C:6D0DH         LINE#         444
  C:6D11H         LINE#         445
  C:6D1BH         LINE#         446
  C:6D1FH         LINE#         447
  C:6D24H         LINE#         448
  C:6D2AH         LINE#         449
  C:6D30H         LINE#         450
  C:6D36H         LINE#         451
  C:6D3CH         LINE#         452
  C:6D41H         LINE#         453
  C:6D46H         LINE#         454
  C:6D4BH         LINE#         455
  C:6D50H         LINE#         456
  -------         ENDPROC       _SET_DISPLAY_AREA
  -------         PROC          LCD_CLEAR
  -------         DO            
  D:0004H         SYMBOL        k
  D:0002H         SYMBOL        j
  -------         ENDDO         
  C:6EE4H         LINE#         470
  C:6EE4H         LINE#         471
  C:6EE4H         LINE#         474
  C:6F0CH         LINE#         475
  C:6F11H         LINE#         476
  C:6F13H         LINE#         477
  C:6F16H         LINE#         478
  C:6F16H         LINE#         479
  C:6F19H         LINE#         480
  C:6F19H         LINE#         481
  C:6F29H         LINE#         482
  C:6F34H         LINE#         483
  C:6F3FH         LINE#         484
  C:6F41H         LINE#         485
  -------         ENDPROC       LCD_CLEAR
  -------         PROC          DISPLAY_DOT
  C:7443H         LINE#         494
  C:7443H         LINE#         495
BL51 BANKED LINKER/LOCATER V6.22                                                      02/08/2018  14:09:45  PAGE 30


  C:7443H         LINE#         497
  C:7472H         LINE#         498
  C:7477H         LINE#         499
  C:7479H         LINE#         500
  C:7489H         LINE#         501
  C:748BH         LINE#         502
  -------         ENDPROC       DISPLAY_DOT
  -------         PROC          L?0489
  -------         ENDPROC       L?0489
  -------         PROC          _DISPLAY_HLINE
  X:030AH         SYMBOL        width
  C:6293H         LINE#         512
  C:629BH         LINE#         513
  C:629BH         LINE#         515
  C:62E1H         LINE#         516
  C:62E6H         LINE#         517
  C:62E8H         LINE#         518
  C:62F6H         LINE#         519
  C:62F6H         LINE#         520
  C:6306H         LINE#         521
  C:6308H         LINE#         522
  C:630AH         LINE#         523
  -------         ENDPROC       _DISPLAY_HLINE
  -------         PROC          _DISPLAY_VLINE
  X:030CH         SYMBOL        height
  C:655CH         LINE#         532
  C:6564H         LINE#         533
  C:6564H         LINE#         535
  C:65C2H         LINE#         536
  C:65C7H         LINE#         537
  C:65C9H         LINE#         538
  C:65D7H         LINE#         539
  C:65D7H         LINE#         540
  C:65E7H         LINE#         541
  C:65E9H         LINE#         542
  C:65EBH         LINE#         543
  -------         ENDPROC       _DISPLAY_VLINE
  -------         PROC          DISPLAYFRAME
  C:630BH         LINE#         548
  C:630BH         LINE#         549
  C:630BH         LINE#         551
  C:631BH         LINE#         552
  C:631EH         LINE#         553
  C:6321H         LINE#         555
  C:6331H         LINE#         556
  C:6334H         LINE#         557
  C:6337H         LINE#         560
  C:6346H         LINE#         561
  C:6356H         LINE#         562
  C:636CH         LINE#         564
  C:637BH         LINE#         565
  C:638BH         LINE#         566
  -------         ENDPROC       DISPLAYFRAME
  C:4CE9H         SYMBOL        L?0470
  C:4D07H         SYMBOL        L?0471
  C:4D08H         SYMBOL        L?0472
  C:4D0CH         SYMBOL        L?0473
BL51 BANKED LINKER/LOCATER V6.22                                                      02/08/2018  14:09:45  PAGE 31


  -------         PROC          L?0469
  -------         ENDPROC       L?0469
  C:4CE9H         SYMBOL        L?0470
  C:4D07H         SYMBOL        L?0471
  C:4D08H         SYMBOL        L?0472
  C:4D0CH         SYMBOL        L?0473
  -------         PROC          DISPLAYBLOCK
  -------         DO            
  X:02A2H         SYMBOL        width
  X:02A4H         SYMBOL        height
  D:0002H         SYMBOL        i
  D:0004H         SYMBOL        j
  -------         ENDDO         
  C:4D12H         LINE#         574
  C:4D12H         LINE#         575
  C:4D12H         LINE#         579
  C:4D37H         LINE#         580
  C:4D5FH         LINE#         583
  C:4D9EH         LINE#         584
  C:4DA3H         LINE#         587
  C:4DC4H         LINE#         589
  C:4DE5H         LINE#         591
  C:4DE7H         LINE#         592
  C:4DF7H         LINE#         593
  C:4DF7H         LINE#         594
  C:4E07H         LINE#         595
  C:4E07H         LINE#         596
  C:4E17H         LINE#         597
  C:4E1EH         LINE#         598
  C:4E25H         LINE#         599
  C:4E27H         LINE#         600
  -------         ENDPROC       DISPLAYBLOCK
  -------         PROC          DISPLAY_ASCII_MUL
  -------         DO            
  X:02ACH         SYMBOL        i
  D:0004H         SYMBOL        j
  D:0005H         SYMBOL        k
  X:02ADH         SYMBOL        p
  -------         ENDDO         
  C:4A52H         LINE#         611
  C:4A52H         LINE#         612
  C:4A52H         LINE#         615
  C:4A62H         LINE#         616
  C:4A62H         LINE#         618
  C:4A62H         LINE#         619
  C:4A62H         LINE#         620
  C:4A66H         LINE#         621
  C:4A68H         LINE#         622
  C:4A68H         LINE#         623
  C:4A6CH         LINE#         624
  C:4A6EH         LINE#         625
  C:4A6EH         LINE#         626
  C:4A75H         LINE#         627
  C:4A75H         LINE#         628
  C:4A75H         LINE#         631
  C:4A95H         LINE#         632
  C:4A95H         LINE#         633
BL51 BANKED LINKER/LOCATER V6.22                                                      02/08/2018  14:09:45  PAGE 32


  C:4ACDH         LINE#         634
  C:4AD2H         LINE#         637
  C:4AD7H         LINE#         638
  C:4AD7H         LINE#         639
  C:4B2BH         LINE#         640
  C:4B2DH         LINE#         641
  C:4B37H         LINE#         642
  C:4B39H         LINE#         643
  C:4B39H         LINE#         644
  C:4B39H         LINE#         645
  C:4B3BH         LINE#         646
  C:4B3BH         LINE#         647
  C:4B64H         LINE#         648
  C:4B64H         LINE#         649
  C:4B67H         LINE#         650
  C:4B69H         LINE#         652
  C:4B69H         LINE#         653
  C:4B79H         LINE#         655
  C:4B79H         LINE#         657
  C:4B7EH         LINE#         658
  C:4B8CH         LINE#         659
  C:4B8EH         LINE#         660
  C:4B90H         LINE#         661
  C:4B9FH         LINE#         662
  C:4B9FH         LINE#         663
  C:4B9FH         LINE#         664
  C:4B9FH         LINE#         666
  -------         ENDPROC       DISPLAY_ASCII_MUL
  -------         PROC          DISPLAY_CHINESE_MUL
  C:7DD9H         LINE#         678
  C:7DD9H         LINE#         679
  C:7DD9H         LINE#         680
  C:7DE3H         LINE#         681
  C:7DE3H         LINE#         683
  C:7DE3H         LINE#         684
  C:7DE3H         LINE#         685
  C:7DE7H         LINE#         686
  C:7DE9H         LINE#         689
  C:7DE9H         LINE#         690
  C:7DF0H         LINE#         691
  C:7DF0H         LINE#         693
  C:7DF0H         LINE#         695
  -------         ENDPROC       DISPLAY_CHINESE_MUL
  -------         PROC          _WRITEAREAHANDLERMUL
  D:0005H         SYMBOL        type
  -------         DO            
  X:02ACH         SYMBOL        old_x
  X:02AEH         SYMBOL        old_y
  C:433CH         SYMBOL        fail
  -------         ENDDO         
  C:41B3H         LINE#         700
  C:41B5H         LINE#         701
  C:41B5H         LINE#         702
  C:41C5H         LINE#         703
  C:41D4H         LINE#         705
  C:41DAH         LINE#         706
  C:41DAH         LINE#         707
BL51 BANKED LINKER/LOCATER V6.22                                                      02/08/2018  14:09:45  PAGE 33


  C:4200H         LINE#         708
  C:4200H         LINE#         709
  C:420FH         LINE#         710
  C:4242H         LINE#         712
  C:4242H         LINE#         713
  C:425AH         LINE#         714
  C:4281H         LINE#         715
  C:4284H         LINE#         716
  C:4284H         LINE#         717
  C:4284H         LINE#         719
  C:4284H         LINE#         720
  C:4287H         LINE#         721
  C:4287H         LINE#         723
  C:4287H         LINE#         724
  C:428FH         LINE#         725
  C:428FH         LINE#         727
  C:42B8H         LINE#         728
  C:42B8H         LINE#         729
  C:42C7H         LINE#         730
  C:42FBH         LINE#         732
  C:42FBH         LINE#         733
  C:4315H         LINE#         734
  C:4336H         LINE#         735
  C:4339H         LINE#         736
  C:4339H         LINE#         737
  C:4339H         LINE#         738
  C:433CH         LINE#         739
  C:433CH         LINE#         741
  C:433CH         LINE#         742
  C:434BH         LINE#         743
  C:435AH         LINE#         744
  C:435CH         LINE#         746
  -------         ENDPROC       _WRITEAREAHANDLERMUL
  -------         PROC          _LCD_FANGDA_DIS_TEXT
  X:02AFH         SYMBOL        type_x_wide
  X:02B0H         SYMBOL        type_y_height
  -------         DO            
  D:0001H         SYMBOL        i
  D:0005H         SYMBOL        j
  D:0004H         SYMBOL        k
  X:02B1H         SYMBOL        m
  X:02B2H         SYMBOL        n
  -------         ENDDO         
  C:4F60H         LINE#         757
  C:4F68H         LINE#         758
  C:4F68H         LINE#         763
  C:4FD4H         LINE#         764
  C:4FD9H         LINE#         767
  C:4FDBH         LINE#         769
  C:4FEAH         LINE#         770
  C:4FEAH         LINE#         772
  C:4FFFH         LINE#         773
  C:4FFFH         LINE#         775
  C:5010H         LINE#         776
  C:5010H         LINE#         778
  C:5012H         LINE#         779
  C:5012H         LINE#         781
BL51 BANKED LINKER/LOCATER V6.22                                                      02/08/2018  14:09:45  PAGE 34


  C:5024H         LINE#         782
  C:5024H         LINE#         785
  C:5058H         LINE#         786
  C:5058H         LINE#         787
  C:505BH         LINE#         788
  C:505DH         LINE#         791
  C:505DH         LINE#         792
  C:506DH         LINE#         793
  C:506DH         LINE#         796
  C:5075H         LINE#         797
  C:507BH         LINE#         798
  C:507EH         LINE#         799
  C:5087H         LINE#         800
  C:508BH         LINE#         801
  C:508DH         LINE#         802
  -------         ENDPROC       _LCD_FANGDA_DIS_TEXT
  C:5410H         SYMBOL        L?0488
  -------         PROC          L?0487
  -------         ENDPROC       L?0487
  C:5410H         SYMBOL        L?0488
  -------         PROC          DISPLAYSTRING
  C:5420H         LINE#         819
  C:5420H         LINE#         820
  C:5420H         LINE#         822
  C:5434H         LINE#         823
  C:5434H         LINE#         824
  C:5442H         LINE#         825
  C:5442H         LINE#         826
  C:544CH         LINE#         827
  C:545FH         LINE#         828
  C:545FH         LINE#         830
  C:5469H         LINE#         831
  C:547CH         LINE#         834
  C:5487H         LINE#         836
  C:548AH         LINE#         838
  C:549CH         LINE#         839
  C:54A3H         LINE#         841
  C:54A5H         LINE#         843
  C:54A5H         LINE#         844
  C:54BAH         LINE#         847
  C:54D4H         LINE#         848
  C:54D4H         LINE#         849
  C:54DCH         LINE#         852
  C:54E4H         LINE#         854
  C:54E7H         LINE#         856
  C:54FBH         LINE#         857
  C:5502H         LINE#         858
  C:5504H         LINE#         860
  C:5504H         LINE#         861
  C:550EH         LINE#         862
  C:550EH         LINE#         864
  C:5511H         LINE#         865
  C:5514H         LINE#         866
  -------         ENDPROC       DISPLAYSTRING
  -------         PROC          DISPLAYDIGITSTRING
  -------         DO            
  X:029FH         SYMBOL        Digit
BL51 BANKED LINKER/LOCATER V6.22                                                      02/08/2018  14:09:45  PAGE 35


  -------         ENDDO         
  C:6C81H         LINE#         880
  C:6C81H         LINE#         881
  C:6C81H         LINE#         883
  C:6C8AH         LINE#         884
  C:6C8AH         LINE#         885
  C:6C9CH         LINE#         886
  C:6CA1H         LINE#         887
  C:6CA1H         LINE#         888
  C:6CA4H         LINE#         889
  C:6CA4H         LINE#         890
  C:6CA6H         LINE#         892
  C:6CA6H         LINE#         893
  C:6CADH         LINE#         894
  C:6CBBH         LINE#         895
  C:6CBBH         LINE#         896
  C:6CC3H         LINE#         897
  C:6CC6H         LINE#         899
  C:6CDAH         LINE#         900
  C:6CE4H         LINE#         901
  C:6CECH         LINE#         902
  -------         ENDPROC       DISPLAYDIGITSTRING
  -------         PROC          DISPLAYSTRINGLEN
  C:5839H         LINE#         917
  C:5839H         LINE#         918
  C:5839H         LINE#         919
  C:5846H         LINE#         920
  C:5846H         LINE#         921
  C:5860H         LINE#         922
  C:5860H         LINE#         923
  C:586AH         LINE#         924
  C:587DH         LINE#         925
  C:587DH         LINE#         926
  C:5882H         LINE#         927
  C:5882H         LINE#         928
  C:588CH         LINE#         929
  C:589FH         LINE#         932
  C:58AAH         LINE#         934
  C:58ADH         LINE#         936
  C:58BFH         LINE#         937
  C:58C9H         LINE#         938
  C:58D0H         LINE#         939
  C:58D3H         LINE#         946
  C:58D3H         LINE#         947
  C:58D3H         LINE#         948
  C:58D3H         LINE#         949
  C:58D5H         LINE#         950
  C:58EFH         LINE#         951
  C:58EFH         LINE#         952
  C:58F7H         LINE#         954
  C:58FFH         LINE#         956
  C:5902H         LINE#         958
  C:5916H         LINE#         959
  C:5920H         LINE#         960
  C:5920H         LINE#         961
  C:5922H         LINE#         963
  C:5922H         LINE#         964
BL51 BANKED LINKER/LOCATER V6.22                                                      02/08/2018  14:09:45  PAGE 36


  C:592CH         LINE#         965
  C:5932H         LINE#         966
  C:5932H         LINE#         968
  C:5935H         LINE#         970
  -------         ENDPROC       DISPLAYSTRINGLEN
  C:611FH         SYMBOL        L?0482
  -------         PROC          L?0481
  -------         ENDPROC       L?0481
  C:611FH         SYMBOL        L?0482
  -------         PROC          _DISPLAYONECHAR
  D:0007H         SYMBOL        byChar
  C:615CH         LINE#         974
  C:615CH         LINE#         975
  C:615CH         LINE#         976
  C:6165H         LINE#         977
  C:6173H         LINE#         978
  C:617CH         LINE#         979
  C:617FH         LINE#         981
  C:6185H         LINE#         982
  C:6185H         LINE#         983
  C:6193H         LINE#         984
  C:6198H         LINE#         985
  C:6198H         LINE#         987
  C:619AH         LINE#         989
  C:619AH         LINE#         990
  C:61A3H         LINE#         991
  C:61A3H         LINE#         992
  C:61AEH         LINE#         993
  C:61B3H         LINE#         994
  C:61B3H         LINE#         995
  C:61B5H         LINE#         997
  C:61B5H         LINE#         998
  C:61C0H         LINE#         999
  C:61C6H         LINE#         1000
  C:61C9H         LINE#         1001
  C:61C9H         LINE#         1002
  C:61C9H         LINE#         1004
  -------         ENDPROC       _DISPLAYONECHAR
  -------         PROC          _SHOWADDBEDCALLFACE
  X:029CH         SYMBOL        byBedAddr
  C:710BH         LINE#         1011
  C:710FH         LINE#         1012
  C:710FH         LINE#         1013
  C:710FH         LINE#         1014
  C:710FH         LINE#         1015
  C:710FH         LINE#         1016
  C:710FH         LINE#         1017
  C:7112H         LINE#         1019
  C:7119H         LINE#         1020
  C:7119H         LINE#         1021
  C:7119H         LINE#         1022
  C:711CH         LINE#         1023
  C:711FH         LINE#         1025
  C:7127H         LINE#         1026
  C:7130H         LINE#         1027
  C:713CH         LINE#         1028
  C:713CH         LINE#         1029
BL51 BANKED LINKER/LOCATER V6.22                                                      02/08/2018  14:09:45  PAGE 37


  C:713CH         LINE#         1030
  C:713CH         LINE#         1031
  C:713CH         LINE#         1032
  C:713FH         LINE#         1034
  C:7147H         LINE#         1036
  C:7155H         LINE#         1037
  C:7158H         LINE#         1040
  C:715BH         LINE#         1041
  C:7161H         LINE#         1042
  -------         ENDPROC       _SHOWADDBEDCALLFACE
  -------         PROC          DISSENDPINBUGFACE
  C:6794H         LINE#         1046
  C:6794H         LINE#         1048
  C:6794H         LINE#         1050
  C:679EH         LINE#         1051
  C:67A7H         LINE#         1052
  C:67B1H         LINE#         1053
  C:67B9H         LINE#         1054
  C:67C0H         LINE#         1055
  C:67C3H         LINE#         1059
  C:67CDH         LINE#         1060
  C:67D4H         LINE#         1061
  C:67D6H         LINE#         1062
  C:67D9H         LINE#         1063
  C:67DCH         LINE#         1065
  C:67E5H         LINE#         1066
  C:67ECH         LINE#         1067
  C:67FAH         LINE#         1068
  C:6804H         LINE#         1069
  C:680DH         LINE#         1070
  C:680FH         LINE#         1071
  C:680FH         LINE#         1073
  C:6812H         LINE#         1075
  C:6815H         LINE#         1076
  C:681BH         LINE#         1079
  -------         ENDPROC       DISSENDPINBUGFACE
  -------         PROC          _SHOWCALLFACE
  X:029CH         SYMBOL        byRoomAddr
  X:029DH         SYMBOL        byBedAddr
  X:029EH         SYMBOL        byCallType
  C:5D65H         LINE#         1085
  C:5D70H         LINE#         1086
  C:5D70H         LINE#         1087
  C:5D77H         LINE#         1088
  C:5D7FH         LINE#         1089
  C:5D89H         LINE#         1090
  C:5D8FH         LINE#         1091
  C:5D8FH         LINE#         1092
  C:5D92H         LINE#         1094
  C:5D98H         LINE#         1096
  C:5D98H         LINE#         1097
  C:5D9BH         LINE#         1098
  C:5D9EH         LINE#         1101
  C:5DADH         LINE#         1102
  C:5DADH         LINE#         1103
  C:5DADH         LINE#         1104
  C:5DADH         LINE#         1105
BL51 BANKED LINKER/LOCATER V6.22                                                      02/08/2018  14:09:45  PAGE 38


  C:5DADH         LINE#         1107
  C:5DADH         LINE#         1108
  C:5DADH         LINE#         1109
  C:5DADH         LINE#         1110
  C:5DADH         LINE#         1111
  C:5DADH         LINE#         1112
  C:5DADH         LINE#         1113
  C:5DB0H         LINE#         1115
  C:5DBEH         LINE#         1116
  C:5DC1H         LINE#         1118
  C:5DC9H         LINE#         1120
  C:5DD6H         LINE#         1121
  C:5DD6H         LINE#         1122
  C:5DD9H         LINE#         1124
  C:5DD9H         LINE#         1125
  C:5DE0H         LINE#         1126
  C:5DE0H         LINE#         1128
  C:5DE0H         LINE#         1129
  C:5DE0H         LINE#         1130
  C:5DE0H         LINE#         1131
  C:5DE0H         LINE#         1132
  C:5DE0H         LINE#         1133
  C:5DE0H         LINE#         1135
  C:5DE3H         LINE#         1136
  C:5DF1H         LINE#         1137
  C:5DF4H         LINE#         1139
  C:5DFCH         LINE#         1140
  C:5E09H         LINE#         1141
  C:5E09H         LINE#         1142
  C:5E0BH         LINE#         1143
  C:5E0BH         LINE#         1145
  C:5E0BH         LINE#         1146
  C:5E0BH         LINE#         1147
  C:5E0BH         LINE#         1148
  C:5E0BH         LINE#         1149
  C:5E0BH         LINE#         1150
  C:5E0BH         LINE#         1151
  C:5E0BH         LINE#         1152
  C:5E0BH         LINE#         1154
  C:5E0EH         LINE#         1155
  C:5E1CH         LINE#         1156
  C:5E1FH         LINE#         1157
  C:5E1FH         LINE#         1158
  C:5E1FH         LINE#         1163
  C:5E22H         LINE#         1164
  C:5E28H         LINE#         1165
  -------         ENDPROC       _SHOWCALLFACE
  -------         PROC          _SHOWTALKFACE
  X:0000H         SYMBOL        byRoomAddr
  X:0001H         SYMBOL        byBedAddr
  C:69B6H         LINE#         1184
  C:69B6H         LINE#         1185
  C:69B6H         LINE#         1186
  C:69B6H         LINE#         1187
  C:69B6H         LINE#         1188
  C:69C0H         LINE#         1189
  C:69C9H         LINE#         1190
BL51 BANKED LINKER/LOCATER V6.22                                                      02/08/2018  14:09:45  PAGE 39


  C:69D3H         LINE#         1191
  C:69DAH         LINE#         1192
  C:69DAH         LINE#         1194
  C:69DDH         LINE#         1197
  C:69E5H         LINE#         1198
  C:69E5H         LINE#         1199
  C:69E5H         LINE#         1200
  C:69E8H         LINE#         1201
  C:69EBH         LINE#         1203
  C:69F3H         LINE#         1204
  C:69FCH         LINE#         1205
  C:6A03H         LINE#         1206
  C:6A09H         LINE#         1207
  C:6A12H         LINE#         1208
  C:6A1AH         LINE#         1209
  C:6A28H         LINE#         1210
  C:6A2BH         LINE#         1213
  C:6A2EH         LINE#         1214
  C:6A34H         LINE#         1215
  -------         ENDPROC       _SHOWTALKFACE
  -------         PROC          _SHOWBROADFACE
  X:029CH         SYMBOL        byRoomAddr
  X:029DH         SYMBOL        byBedAddr
  B:0029H.5       SYMBOL        bSelf
  C:5AFBH         LINE#         1236
  C:5B02H         LINE#         1237
  C:5B02H         LINE#         1239
  C:5B02H         LINE#         1240
  C:5B02H         LINE#         1241
  C:5B02H         LINE#         1242
  C:5B02H         LINE#         1243
  C:5B02H         LINE#         1244
  C:5B05H         LINE#         1249
  C:5B05H         LINE#         1250
  C:5B08H         LINE#         1251
  C:5B0BH         LINE#         1253
  C:5B13H         LINE#         1254
  C:5B1CH         LINE#         1255
  C:5B23H         LINE#         1256
  C:5B29H         LINE#         1257
  C:5B32H         LINE#         1258
  C:5B3AH         LINE#         1260
  C:5B3DH         LINE#         1261
  C:5B3DH         LINE#         1263
  C:5B46H         LINE#         1264
  C:5B4DH         LINE#         1265
  C:5B5AH         LINE#         1266
  C:5B5AH         LINE#         1267
  C:5B5CH         LINE#         1269
  C:5B5CH         LINE#         1270
  C:5B66H         LINE#         1271
  C:5B66H         LINE#         1273
  C:5B6CH         LINE#         1274
  C:5B73H         LINE#         1276
  C:5B7BH         LINE#         1278
  C:5B88H         LINE#         1279
  C:5B88H         LINE#         1281
BL51 BANKED LINKER/LOCATER V6.22                                                      02/08/2018  14:09:45  PAGE 40


  C:5B8AH         LINE#         1283
  C:5B8AH         LINE#         1284
  C:5B90H         LINE#         1285
  C:5B97H         LINE#         1287
  C:5B9FH         LINE#         1289
  C:5BADH         LINE#         1290
  C:5BB0H         LINE#         1292
  C:5BB8H         LINE#         1294
  C:5BC6H         LINE#         1295
  C:5BC9H         LINE#         1298
  C:5BC9H         LINE#         1299
  C:5BC9H         LINE#         1304
  C:5BCCH         LINE#         1305
  C:5BD2H         LINE#         1306
  -------         ENDPROC       _SHOWBROADFACE
  -------         PROC          SHOWSTARTINFUSIONCALL
  C:6B28H         LINE#         1312
  C:6B28H         LINE#         1313
  C:6B28H         LINE#         1314
  C:6B2FH         LINE#         1315
  C:6B37H         LINE#         1316
  C:6B41H         LINE#         1317
  C:6B48H         LINE#         1318
  C:6B4BH         LINE#         1319
  C:6B4EH         LINE#         1321
  C:6B4EH         LINE#         1322
  C:6B4EH         LINE#         1323
  C:6B4EH         LINE#         1324
  C:6B51H         LINE#         1325
  C:6B54H         LINE#         1327
  C:6B5CH         LINE#         1328
  C:6B65H         LINE#         1329
  C:6B6CH         LINE#         1330
  C:6B72H         LINE#         1331
  C:6B7BH         LINE#         1332
  C:6B83H         LINE#         1333
  C:6B91H         LINE#         1334
  C:6B94H         LINE#         1337
  C:6B97H         LINE#         1338
  C:6B9DH         LINE#         1339
  -------         ENDPROC       SHOWSTARTINFUSIONCALL
  -------         PROC          SHOWSTARTSERVICECALL
  C:720EH         LINE#         1343
  C:720EH         LINE#         1344
  C:720EH         LINE#         1345
  C:720EH         LINE#         1346
  C:720EH         LINE#         1347
  C:720EH         LINE#         1348
  C:720EH         LINE#         1349
  C:720EH         LINE#         1350
  C:7211H         LINE#         1353
  C:7211H         LINE#         1354
  C:7211H         LINE#         1355
  C:7211H         LINE#         1356
  C:7214H         LINE#         1357
  C:7217H         LINE#         1359
  C:721FH         LINE#         1360
BL51 BANKED LINKER/LOCATER V6.22                                                      02/08/2018  14:09:45  PAGE 41


  C:7228H         LINE#         1361
  C:722FH         LINE#         1362
  C:7235H         LINE#         1363
  C:723EH         LINE#         1364
  C:7246H         LINE#         1365
  C:7254H         LINE#         1366
  C:7257H         LINE#         1368
  C:725AH         LINE#         1369
  C:7260H         LINE#         1371
  -------         ENDPROC       SHOWSTARTSERVICECALL
  -------         PROC          SHOWSTARTEMERGENCYCALL
  C:7261H         LINE#         1375
  C:7261H         LINE#         1376
  C:7261H         LINE#         1378
  C:7261H         LINE#         1379
  C:7261H         LINE#         1380
  C:7261H         LINE#         1381
  C:7261H         LINE#         1382
  C:7261H         LINE#         1383
  C:7264H         LINE#         1385
  C:7264H         LINE#         1386
  C:7264H         LINE#         1387
  C:7264H         LINE#         1388
  C:7267H         LINE#         1389
  C:726AH         LINE#         1391
  C:7272H         LINE#         1392
  C:727BH         LINE#         1393
  C:7282H         LINE#         1394
  C:7288H         LINE#         1395
  C:7291H         LINE#         1396
  C:7299H         LINE#         1397
  C:72A7H         LINE#         1398
  C:72AAH         LINE#         1400
  C:72ADH         LINE#         1401
  C:72B3H         LINE#         1403
  -------         ENDPROC       SHOWSTARTEMERGENCYCALL
  -------         PROC          SHOWSTARTHELPCALL
  C:72B4H         LINE#         1406
  C:72B4H         LINE#         1407
  C:72B4H         LINE#         1408
  C:72B4H         LINE#         1409
  C:72B4H         LINE#         1410
  C:72B4H         LINE#         1411
  C:72B4H         LINE#         1412
  C:72B4H         LINE#         1413
  C:72B7H         LINE#         1416
  C:72B7H         LINE#         1417
  C:72B7H         LINE#         1418
  C:72B7H         LINE#         1419
  C:72BAH         LINE#         1420
  C:72BDH         LINE#         1422
  C:72C5H         LINE#         1423
  C:72CEH         LINE#         1424
  C:72D5H         LINE#         1425
  C:72DBH         LINE#         1426
  C:72E4H         LINE#         1427
  C:72ECH         LINE#         1428
BL51 BANKED LINKER/LOCATER V6.22                                                      02/08/2018  14:09:45  PAGE 42


  C:72FAH         LINE#         1429
  C:72FDH         LINE#         1431
  C:7300H         LINE#         1432
  C:7306H         LINE#         1434
  -------         ENDPROC       SHOWSTARTHELPCALL
  -------         PROC          GET_BASESIZE_MUL
  C:65ECH         LINE#         1437
  C:65ECH         LINE#         1438
  C:65ECH         LINE#         1439
  C:661AH         LINE#         1440
  C:661AH         LINE#         1441
  C:661AH         LINE#         1442
  C:661AH         LINE#         1443
  C:661FH         LINE#         1444
  C:661FH         LINE#         1445
  C:661FH         LINE#         1446
  C:6621H         LINE#         1447
  C:6621H         LINE#         1448
  C:6627H         LINE#         1449
  C:662CH         LINE#         1450
  C:662CH         LINE#         1451
  C:662EH         LINE#         1452
  C:662EH         LINE#         1453
  C:6634H         LINE#         1454
  C:6639H         LINE#         1455
  C:6639H         LINE#         1456
  C:663BH         LINE#         1457
  C:663BH         LINE#         1458
  C:6641H         LINE#         1459
  C:6645H         LINE#         1460
  C:6645H         LINE#         1461
  C:6647H         LINE#         1462
  C:6647H         LINE#         1463
  C:664DH         LINE#         1464
  C:6652H         LINE#         1465
  C:6652H         LINE#         1466
  C:6654H         LINE#         1467
  C:6654H         LINE#         1468
  C:665AH         LINE#         1469
  C:665DH         LINE#         1470
  C:665DH         LINE#         1471
  C:665FH         LINE#         1472
  C:665FH         LINE#         1473
  C:6665H         LINE#         1474
  C:6669H         LINE#         1475
  C:6669H         LINE#         1476
  C:666BH         LINE#         1478
  C:666BH         LINE#         1479
  C:6671H         LINE#         1480
  C:6677H         LINE#         1481
  C:667BH         LINE#         1482
  C:667BH         LINE#         1484
  C:667BH         LINE#         1485
  -------         ENDPROC       GET_BASESIZE_MUL
  C:6065H         SYMBOL        L?0475
  C:606CH         SYMBOL        L?0476
  C:606DH         SYMBOL        L?0477
BL51 BANKED LINKER/LOCATER V6.22                                                      02/08/2018  14:09:45  PAGE 43


  C:6074H         SYMBOL        L?0478
  C:6075H         SYMBOL        L?0479
  C:6077H         SYMBOL        L?0480
  -------         PROC          L?0474
  -------         ENDPROC       L?0474
  C:6065H         SYMBOL        L?0475
  C:606CH         SYMBOL        L?0476
  C:606DH         SYMBOL        L?0477
  C:6074H         SYMBOL        L?0478
  C:6075H         SYMBOL        L?0479
  C:6077H         SYMBOL        L?0480
  -------         PROC          GET_DOT_NUMBER
  C:607BH         LINE#         1488
  C:607BH         LINE#         1489
  C:607BH         LINE#         1490
  C:60AEH         LINE#         1491
  C:60AEH         LINE#         1492
  C:60AEH         LINE#         1493
  C:60AEH         LINE#         1494
  C:60AEH         LINE#         1495
  C:60B0H         LINE#         1496
  C:60B0H         LINE#         1497
  C:60B6H         LINE#         1498
  C:60BCH         LINE#         1499
  C:60BDH         LINE#         1500
  C:60BDH         LINE#         1501
  C:60C3H         LINE#         1502
  C:60C9H         LINE#         1503
  C:60CAH         LINE#         1504
  C:60CAH         LINE#         1505
  C:60D0H         LINE#         1506
  C:60D6H         LINE#         1507
  C:60D7H         LINE#         1508
  C:60D7H         LINE#         1509
  C:60DDH         LINE#         1510
  C:60E3H         LINE#         1511
  C:60E4H         LINE#         1512
  C:60E4H         LINE#         1513
  C:60EAH         LINE#         1514
  C:60F0H         LINE#         1515
  C:60F1H         LINE#         1517
  C:60F1H         LINE#         1518
  C:60F7H         LINE#         1519
  C:60FDH         LINE#         1520
  C:60FEH         LINE#         1521
  C:60FEH         LINE#         1522
  C:6104H         LINE#         1523
  C:610AH         LINE#         1524
  C:610BH         LINE#         1526
  C:610BH         LINE#         1527
  C:6111H         LINE#         1528
  C:6117H         LINE#         1529
  C:6117H         LINE#         1531
  C:6117H         LINE#         1533
  -------         ENDPROC       GET_DOT_NUMBER
  -------         PROC          SHOWINFOBLOCKLEN
  -------         DO            
BL51 BANKED LINKER/LOCATER V6.22                                                      02/08/2018  14:09:45  PAGE 44


  X:02A2H         SYMBOL        RowCharNum
  D:0007H         SYMBOL        ColumnCharNum
  X:02A3H         SYMBOL        area_width
  X:02A5H         SYMBOL        area_height
  X:02A7H         SYMBOL        title_length
  X:02A8H         SYMBOL        LengthBack
  X:02A9H         SYMBOL        pdispdata2
  -------         ENDDO         
  C:1E5AH         LINE#         1535
  C:1E5AH         LINE#         1536
  C:1E5AH         LINE#         1541
  C:1E61H         LINE#         1542
  C:1E65H         LINE#         1544
  C:1E67H         LINE#         1545
  C:1E6FH         LINE#         1546
  C:1E84H         LINE#         1549
  C:1EA5H         LINE#         1550
  C:1EC7H         LINE#         1552
  C:1EE6H         LINE#         1553
  C:1F0DH         LINE#         1554
  C:1F2DH         LINE#         1555
  C:1F54H         LINE#         1556
  C:1F73H         LINE#         1557
  C:1F99H         LINE#         1558
  C:1FB8H         LINE#         1559
  C:1FDCH         LINE#         1561
  C:1FDCH         LINE#         1562
  C:1FDFH         LINE#         1564
  C:1FDFH         LINE#         1566
  C:1FE2H         LINE#         1567
  C:1FE2H         LINE#         1568
  C:1FEFH         LINE#         1569
  C:1FFCH         LINE#         1570
  C:2007H         LINE#         1572
  C:2007H         LINE#         1575
  C:2007H         LINE#         1576
  C:200AH         LINE#         1578
  C:2027H         LINE#         1580
  C:2036H         LINE#         1582
  C:2051H         LINE#         1583
  C:2051H         LINE#         1584
  C:2054H         LINE#         1586
  C:2063H         LINE#         1587
  C:2093H         LINE#         1588
  C:20D9H         LINE#         1590
  C:20DFH         LINE#         1591
  C:20DFH         LINE#         1594
  C:20EDH         LINE#         1595
  C:20FBH         LINE#         1596
  C:20FBH         LINE#         1597
  C:20FEH         LINE#         1598
  C:2105H         LINE#         1599
  C:2105H         LINE#         1601
  C:2113H         LINE#         1602
  C:2116H         LINE#         1604
  C:2116H         LINE#         1606
  C:2116H         LINE#         1607
BL51 BANKED LINKER/LOCATER V6.22                                                      02/08/2018  14:09:45  PAGE 45


  C:212BH         LINE#         1608
  C:2133H         LINE#         1609
  C:2133H         LINE#         1610
  C:2133H         LINE#         1611
  C:2133H         LINE#         1612
  C:2136H         LINE#         1614
  C:2136H         LINE#         1616
  C:2141H         LINE#         1617
  C:2141H         LINE#         1618
  C:2147H         LINE#         1619
  C:2147H         LINE#         1620
  C:2178H         LINE#         1621
  C:2178H         LINE#         1622
  C:2187H         LINE#         1623
  C:21ACH         LINE#         1624
  C:21BAH         LINE#         1625
  C:21C8H         LINE#         1626
  C:21C8H         LINE#         1627
  C:21CEH         LINE#         1628
  C:21D2H         LINE#         1629
  C:21D6H         LINE#         1630
  C:21DAH         LINE#         1631
  C:21DDH         LINE#         1632
  C:21E4H         LINE#         1633
  C:21E4H         LINE#         1635
  C:21F2H         LINE#         1636
  C:21F5H         LINE#         1638
  C:21F5H         LINE#         1640
  C:21F5H         LINE#         1641
  C:21F8H         LINE#         1642
  C:2222H         LINE#         1643
  C:2237H         LINE#         1644
  C:223FH         LINE#         1646
  C:2242H         LINE#         1647
  C:2245H         LINE#         1648
  C:2247H         LINE#         1649
  C:2247H         LINE#         1651
  C:2247H         LINE#         1653
  C:2247H         LINE#         1656
  C:224DH         LINE#         1657
  C:224DH         LINE#         1658
  C:2256H         LINE#         1660
  C:2259H         LINE#         1661
  C:225BH         LINE#         1663
  -------         ENDPROC       SHOWINFOBLOCKLEN
  -------         PROC          SHOWCALLSUCCESS
  C:6FA0H         LINE#         1669
  C:6FA0H         LINE#         1670
  C:6FA0H         LINE#         1671
  C:6FA0H         LINE#         1672
  C:6FA0H         LINE#         1673
  C:6FA0H         LINE#         1674
  C:6FA0H         LINE#         1675
  C:6FA0H         LINE#         1676
  C:6FA3H         LINE#         1679
  C:6FABH         LINE#         1680
  C:6FABH         LINE#         1681
BL51 BANKED LINKER/LOCATER V6.22                                                      02/08/2018  14:09:45  PAGE 46


  C:6FABH         LINE#         1682
  C:6FAEH         LINE#         1683
  C:6FB1H         LINE#         1685
  C:6FB9H         LINE#         1686
  C:6FC2H         LINE#         1687
  C:6FC9H         LINE#         1688
  C:6FCFH         LINE#         1689
  C:6FD8H         LINE#         1690
  C:6FE0H         LINE#         1691
  C:6FEEH         LINE#         1692
  C:6FF1H         LINE#         1694
  C:6FF4H         LINE#         1695
  C:6FFAH         LINE#         1696
  -------         ENDPROC       SHOWCALLSUCCESS
  -------         PROC          _SHOWITEM
  X:029DH         SYMBOL        ItemCode
  -------         DO            
  X:029EH         SYMBOL        position
  X:029FH         SYMBOL        num
  X:02A0H         SYMBOL        i
  -------         ENDDO         
  C:13F3H         LINE#         1699
  C:13F8H         LINE#         1700
  C:13F8H         LINE#         1702
  C:13FBH         LINE#         1703
  C:13FDH         LINE#         1704
  C:13FFH         LINE#         1707
  C:1404H         LINE#         1708
  C:1408H         LINE#         1709
  C:140CH         LINE#         1712
  C:1426H         LINE#         1716
  C:143AH         LINE#         1717
  C:143FH         LINE#         1718
  C:143FH         LINE#         1719
  C:1446H         LINE#         1720
  C:145FH         LINE#         1721
  C:1479H         LINE#         1723
  C:1479H         LINE#         1725
  C:147EH         LINE#         1726
  C:1487H         LINE#         1727
  C:1487H         LINE#         1728
  C:14AAH         LINE#         1729
  C:14B0H         LINE#         1731
  C:14B8H         LINE#         1732
  C:14C1H         LINE#         1733
  C:14C1H         LINE#         1734
  C:14FBH         LINE#         1735
  C:150AH         LINE#         1736
  C:1519H         LINE#         1738
  C:1529H         LINE#         1739
  C:1538H         LINE#         1742
  C:1557H         LINE#         1743
  C:157FH         LINE#         1745
  C:1596H         LINE#         1746
  C:1596H         LINE#         1747
  C:15A1H         LINE#         1748
  C:15B2H         LINE#         1749
BL51 BANKED LINKER/LOCATER V6.22                                                      02/08/2018  14:09:45  PAGE 47


  C:15B4H         LINE#         1751
  C:15B4H         LINE#         1752
  C:15C4H         LINE#         1753
  C:15D4H         LINE#         1754
  C:15D4H         LINE#         1755
  C:15DCH         LINE#         1756
  C:15DCH         LINE#         1757
  C:15E4H         LINE#         1758
  C:15E4H         LINE#         1759
  C:15E7H         LINE#         1760
  C:15E7H         LINE#         1761
  C:15E9H         LINE#         1762
  C:15EFH         LINE#         1763
  C:15EFH         LINE#         1764
  C:15F2H         LINE#         1766
  C:15F4H         LINE#         1768
  C:15F4H         LINE#         1769
  C:15FFH         LINE#         1770
  C:15FFH         LINE#         1772
  C:1601H         LINE#         1774
  C:1601H         LINE#         1776
  C:1605H         LINE#         1777
  C:1605H         LINE#         1778
  C:1613H         LINE#         1779
  C:1615H         LINE#         1780
  C:1617H         LINE#         1783
  C:1617H         LINE#         1784
  C:1619H         LINE#         1786
  C:1619H         LINE#         1788
  C:1619H         LINE#         1790
  C:1619H         LINE#         1791
  C:1619H         LINE#         1792
  C:161CH         LINE#         1793
  C:1647H         LINE#         1794
  C:1647H         LINE#         1795
  C:1647H         LINE#         1796
  C:1656H         LINE#         1797
  C:1661H         LINE#         1798
  C:1665H         LINE#         1799
  C:1668H         LINE#         1800
  C:1668H         LINE#         1801
  C:1668H         LINE#         1803
  C:1668H         LINE#         1804
  C:1668H         LINE#         1805
  C:1668H         LINE#         1806
  C:166BH         LINE#         1807
  C:166BH         LINE#         1808
  C:167AH         LINE#         1809
  C:1685H         LINE#         1810
  C:1689H         LINE#         1811
  C:168CH         LINE#         1812
  C:168CH         LINE#         1813
  C:168CH         LINE#         1815
  C:168CH         LINE#         1816
  C:168CH         LINE#         1817
  C:168CH         LINE#         1818
  C:168EH         LINE#         1819
BL51 BANKED LINKER/LOCATER V6.22                                                      02/08/2018  14:09:45  PAGE 48


  C:168EH         LINE#         1820
  C:16A5H         LINE#         1822
  C:16BAH         LINE#         1824
  C:16DFH         LINE#         1825
  C:16EFH         LINE#         1826
  C:16F3H         LINE#         1827
  C:1702H         LINE#         1828
  C:170DH         LINE#         1829
  C:1710H         LINE#         1832
  C:171FH         LINE#         1833
  C:1724H         LINE#         1834
  C:1724H         LINE#         1835
  C:1727H         LINE#         1837
  C:1727H         LINE#         1838
  C:172AH         LINE#         1839
  C:1741H         LINE#         1840
  C:175AH         LINE#         1841
  C:176DH         LINE#         1842
  C:1786H         LINE#         1843
  C:17A5H         LINE#         1844
  C:17B5H         LINE#         1845
  C:17B9H         LINE#         1846
  C:17C8H         LINE#         1847
  C:17D3H         LINE#         1848
  C:17D6H         LINE#         1851
  C:17E5H         LINE#         1852
  C:17EAH         LINE#         1853
  C:17EAH         LINE#         1854
  C:17EDH         LINE#         1856
  C:17EDH         LINE#         1857
  C:17F3H         LINE#         1858
  C:17F8H         LINE#         1859
  C:17FDH         LINE#         1860
  C:1801H         LINE#         1861
  C:181FH         LINE#         1862
  C:182EH         LINE#         1863
  C:183DH         LINE#         1864
  C:1853H         LINE#         1865
  C:1856H         LINE#         1867
  C:1860H         LINE#         1868
  C:1860H         LINE#         1869
  C:186BH         LINE#         1870
  C:1871H         LINE#         1871
  C:1873H         LINE#         1873
  C:1873H         LINE#         1874
  C:187EH         LINE#         1875
  C:1884H         LINE#         1876
  C:1884H         LINE#         1877
  C:18B6H         LINE#         1878
  C:18B6H         LINE#         1879
  C:18E6H         LINE#         1880
  C:18E6H         LINE#         1881
  C:1919H         LINE#         1882
  C:1945H         LINE#         1883
  C:194BH         LINE#         1884
  C:1951H         LINE#         1885
  C:1955H         LINE#         1886
BL51 BANKED LINKER/LOCATER V6.22                                                      02/08/2018  14:09:45  PAGE 49


  C:195BH         LINE#         1887
  C:195EH         LINE#         1889
  C:195EH         LINE#         1890
  C:195EH         LINE#         1896
  C:195EH         LINE#         1897
  C:195EH         LINE#         1898
  C:195EH         LINE#         1899
  C:195EH         LINE#         1900
  C:195EH         LINE#         1901
  C:195EH         LINE#         1902
  C:1979H         LINE#         1903
  C:1983H         LINE#         1904
  C:1983H         LINE#         1905
  C:1985H         LINE#         1906
  C:1985H         LINE#         1907
  C:199AH         LINE#         1908
  C:19A2H         LINE#         1909
  C:19A5H         LINE#         1910
  C:19A5H         LINE#         1912
  C:19A5H         LINE#         1913
  C:19A5H         LINE#         1915
  -------         ENDPROC       _SHOWITEM
  -------         PROC          SHOWPATIENTBASEINFO
  -------         DO            
  X:029DH         SYMBOL        position
  X:029EH         SYMBOL        num
  X:029FH         SYMBOL        i
  X:02A0H         SYMBOL        uiDataLen
  -------         ENDDO         
  C:2653H         LINE#         1918
  C:2653H         LINE#         1919
  C:2653H         LINE#         1920
  C:2658H         LINE#         1921
  C:265AH         LINE#         1922
  C:265CH         LINE#         1925
  C:2661H         LINE#         1926
  C:2665H         LINE#         1927
  C:2669H         LINE#         1930
  C:2683H         LINE#         1932
  C:269EH         LINE#         1935
  C:26ADH         LINE#         1937
  C:26C1H         LINE#         1938
  C:26C6H         LINE#         1939
  C:26C6H         LINE#         1940
  C:26CDH         LINE#         1941
  C:26E6H         LINE#         1942
  C:2700H         LINE#         1944
  C:2700H         LINE#         1946
  C:2712H         LINE#         1947
  C:2712H         LINE#         1949
  C:2749H         LINE#         1950
  C:2750H         LINE#         1951
  C:275EH         LINE#         1953
  C:2764H         LINE#         1954
  C:2764H         LINE#         1955
  C:2778H         LINE#         1956
  C:2778H         LINE#         1957
BL51 BANKED LINKER/LOCATER V6.22                                                      02/08/2018  14:09:45  PAGE 50


  C:277DH         LINE#         1958
  C:2791H         LINE#         1959
  C:279AH         LINE#         1960
  C:279AH         LINE#         1961
  C:27BDH         LINE#         1962
  C:27C3H         LINE#         1964
  C:27CBH         LINE#         1965
  C:27D4H         LINE#         1966
  C:27D4H         LINE#         1967
  C:280EH         LINE#         1968
  C:283EH         LINE#         1971
  C:283EH         LINE#         1972
  C:284DH         LINE#         1973
  C:285BH         LINE#         1975
  C:286AH         LINE#         1976
  C:2879H         LINE#         1979
  C:288AH         LINE#         1980
  C:28C0H         LINE#         1983
  C:28D7H         LINE#         1984
  C:28D7H         LINE#         1985
  C:28E2H         LINE#         1986
  C:28F3H         LINE#         1987
  C:28F5H         LINE#         1989
  C:28F5H         LINE#         1990
  C:2905H         LINE#         1991
  C:2915H         LINE#         1992
  C:2915H         LINE#         1994
  C:291DH         LINE#         1995
  C:291DH         LINE#         1996
  C:2920H         LINE#         1997
  C:2920H         LINE#         1998
  C:2922H         LINE#         1999
  C:2928H         LINE#         2000
  C:2928H         LINE#         2001
  C:292BH         LINE#         2003
  C:292DH         LINE#         2005
  C:292DH         LINE#         2006
  C:2938H         LINE#         2007
  C:2938H         LINE#         2009
  C:293AH         LINE#         2011
  C:293AH         LINE#         2012
  C:293EH         LINE#         2013
  C:293EH         LINE#         2014
  C:294CH         LINE#         2015
  C:294EH         LINE#         2016
  C:2950H         LINE#         2018
  C:2950H         LINE#         2019
  C:2952H         LINE#         2021
  C:2952H         LINE#         2022
  C:2952H         LINE#         2024
  C:2952H         LINE#         2026
  C:2955H         LINE#         2027
  C:296CH         LINE#         2028
  C:296CH         LINE#         2029
  C:2987H         LINE#         2030
  C:298DH         LINE#         2031
  C:298FH         LINE#         2033
BL51 BANKED LINKER/LOCATER V6.22                                                      02/08/2018  14:09:45  PAGE 51


  C:298FH         LINE#         2034
  C:29A4H         LINE#         2035
  C:29ACH         LINE#         2036
  C:29ACH         LINE#         2037
  C:29AFH         LINE#         2038
  C:29AFH         LINE#         2039
  C:29AFH         LINE#         2040
  C:29AFH         LINE#         2041
  C:29BAH         LINE#         2042
  C:29C8H         LINE#         2043
  C:29C8H         LINE#         2045
  C:29CBH         LINE#         2047
  -------         ENDPROC       SHOWPATIENTBASEINFO
  -------         PROC          SHOWBEDFACE
  -------         DO            
  X:029CH         SYMBOL        i
  -------         ENDDO         
  C:38C9H         LINE#         2051
  C:38C9H         LINE#         2052
  C:38C9H         LINE#         2054
  C:38E4H         LINE#         2056
  C:3909H         LINE#         2057
  C:3909H         LINE#         2059
  C:390CH         LINE#         2060
  C:3933H         LINE#         2061
  C:3933H         LINE#         2062
  C:3938H         LINE#         2063
  C:3938H         LINE#         2064
  C:3961H         LINE#         2065
  C:3988H         LINE#         2066
  C:3996H         LINE#         2067
  C:3996H         LINE#         2068
  C:3996H         LINE#         2070
  C:3996H         LINE#         2071
  C:39BBH         LINE#         2072
  C:39BBH         LINE#         2073
  C:39BBH         LINE#         2074
  C:39BBH         LINE#         2075
  C:39E4H         LINE#         2076
  C:3A06H         LINE#         2078
  C:3A09H         LINE#         2079
  C:3A09H         LINE#         2081
  C:3A09H         LINE#         2084
  C:3A0CH         LINE#         2085
  C:3A11H         LINE#         2086
  C:3A2CH         LINE#         2088
  C:3A51H         LINE#         2089
  C:3A51H         LINE#         2092
  C:3A54H         LINE#         2093
  C:3A7BH         LINE#         2094
  C:3A7BH         LINE#         2095
  C:3A80H         LINE#         2096
  C:3A80H         LINE#         2097
  C:3AA9H         LINE#         2098
  C:3AD0H         LINE#         2099
  C:3ADEH         LINE#         2100
  C:3ADEH         LINE#         2101
BL51 BANKED LINKER/LOCATER V6.22                                                      02/08/2018  14:09:45  PAGE 52


  C:3ADEH         LINE#         2103
  C:3ADEH         LINE#         2104
  C:3B00H         LINE#         2105
  C:3B00H         LINE#         2106
  C:3B00H         LINE#         2107
  C:3B00H         LINE#         2108
  C:3B29H         LINE#         2109
  C:3B4BH         LINE#         2111
  C:3B4EH         LINE#         2112
  C:3B4EH         LINE#         2114
  C:3B4EH         LINE#         2116
  C:3B53H         LINE#         2117
  C:3B58H         LINE#         2118
  C:3B5DH         LINE#         2119
  C:3B62H         LINE#         2121
  -------         ENDPROC       SHOWBEDFACE
  -------         PROC          SHOWPOWERUPFACE
  C:4E28H         LINE#         2125
  C:4E28H         LINE#         2126
  C:4E28H         LINE#         2127
  C:4E31H         LINE#         2128
  C:4E34H         LINE#         2130
  C:4E34H         LINE#         2131
  C:4E37H         LINE#         2132
  C:4E3AH         LINE#         2134
  C:4E5BH         LINE#         2135
  C:4E87H         LINE#         2137
  C:4E8FH         LINE#         2138
  C:4E98H         LINE#         2139
  C:4EA4H         LINE#         2140
  C:4EA4H         LINE#         2141
  C:4EA4H         LINE#         2142
  C:4EA4H         LINE#         2143
  C:4EA4H         LINE#         2144
  C:4EA7H         LINE#         2147
  C:4EC0H         LINE#         2148
  C:4EDDH         LINE#         2149
  C:4EEBH         LINE#         2150
  C:4EEEH         LINE#         2153
  C:4EF6H         LINE#         2154
  C:4F04H         LINE#         2155
  C:4F07H         LINE#         2156
  C:4F0FH         LINE#         2160
  C:4F28H         LINE#         2161
  C:4F45H         LINE#         2162
  C:4F53H         LINE#         2163
  C:4F56H         LINE#         2172
  C:4F59H         LINE#         2173
  C:4F5FH         LINE#         2174
  -------         ENDPROC       SHOWPOWERUPFACE
  -------         PROC          SHOWSTARTNUMSET
  C:63A1H         LINE#         2177
  C:63A1H         LINE#         2178
  C:63A1H         LINE#         2180
  C:63A1H         LINE#         2181
  C:63A1H         LINE#         2182
  C:63A1H         LINE#         2183
BL51 BANKED LINKER/LOCATER V6.22                                                      02/08/2018  14:09:45  PAGE 53


  C:63A1H         LINE#         2184
  C:63A1H         LINE#         2185
  C:63A4H         LINE#         2187
  C:63ACH         LINE#         2188
  C:63ACH         LINE#         2189
  C:63ACH         LINE#         2190
  C:63AFH         LINE#         2191
  C:63B2H         LINE#         2193
  C:63BAH         LINE#         2194
  C:63C3H         LINE#         2196
  C:63CAH         LINE#         2197
  C:63D0H         LINE#         2198
  C:63D9H         LINE#         2199
  C:63E1H         LINE#         2200
  C:63E9H         LINE#         2201
  C:63F7H         LINE#         2202
  C:63FAH         LINE#         2205
  C:6402H         LINE#         2206
  C:6410H         LINE#         2207
  C:6413H         LINE#         2210
  C:641BH         LINE#         2211
  C:6429H         LINE#         2212
  C:642CH         LINE#         2215
  C:642FH         LINE#         2216
  C:6435H         LINE#         2217
  -------         ENDPROC       SHOWSTARTNUMSET
  -------         PROC          SHOWNUMSETOK
  C:6DBAH         LINE#         2220
  C:6DBAH         LINE#         2221
  C:6DBAH         LINE#         2222
  C:6DBAH         LINE#         2223
  C:6DBAH         LINE#         2224
  C:6DBAH         LINE#         2225
  C:6DBAH         LINE#         2226
  C:6DBAH         LINE#         2227
  C:6DBDH         LINE#         2230
  C:6DC5H         LINE#         2231
  C:6DC5H         LINE#         2232
  C:6DC5H         LINE#         2233
  C:6DC8H         LINE#         2234
  C:6DCBH         LINE#         2236
  C:6DD3H         LINE#         2237
  C:6DDCH         LINE#         2239
  C:6DE3H         LINE#         2240
  C:6DE9H         LINE#         2241
  C:6DF2H         LINE#         2242
  C:6DFAH         LINE#         2243
  C:6E08H         LINE#         2244
  C:6E0BH         LINE#         2246
  C:6E0EH         LINE#         2247
  C:6E14H         LINE#         2249
  C:6E1AH         LINE#         2250
  -------         ENDPROC       SHOWNUMSETOK
  -------         PROC          SHOWSTARTRFNUMSET
  C:6FFBH         LINE#         2254
  C:6FFBH         LINE#         2255
  C:6FFBH         LINE#         2256
BL51 BANKED LINKER/LOCATER V6.22                                                      02/08/2018  14:09:45  PAGE 54


  C:6FFBH         LINE#         2257
  C:6FFBH         LINE#         2258
  C:6FFBH         LINE#         2259
  C:6FFBH         LINE#         2260
  C:6FFBH         LINE#         2261
  C:6FFEH         LINE#         2264
  C:7006H         LINE#         2265
  C:7006H         LINE#         2266
  C:7006H         LINE#         2267
  C:7009H         LINE#         2268
  C:700CH         LINE#         2270
  C:7014H         LINE#         2271
  C:701DH         LINE#         2273
  C:7024H         LINE#         2274
  C:702AH         LINE#         2275
  C:7033H         LINE#         2276
  C:703BH         LINE#         2277
  C:7049H         LINE#         2278
  C:704CH         LINE#         2281
  C:704FH         LINE#         2282
  C:7055H         LINE#         2283
  -------         ENDPROC       SHOWSTARTRFNUMSET
  -------         PROC          SHOWRFNUMSETOK
  C:7056H         LINE#         2285
  C:7056H         LINE#         2286
  C:7056H         LINE#         2287
  C:7056H         LINE#         2288
  C:7056H         LINE#         2289
  C:7056H         LINE#         2290
  C:7056H         LINE#         2291
  C:7056H         LINE#         2292
  C:7059H         LINE#         2295
  C:7061H         LINE#         2296
  C:7061H         LINE#         2298
  C:7061H         LINE#         2299
  C:7064H         LINE#         2300
  C:7067H         LINE#         2302
  C:706FH         LINE#         2303
  C:7078H         LINE#         2305
  C:707FH         LINE#         2306
  C:7085H         LINE#         2307
  C:708EH         LINE#         2308
  C:7096H         LINE#         2309
  C:70A4H         LINE#         2310
  C:70A7H         LINE#         2312
  C:70AAH         LINE#         2313
  C:70B0H         LINE#         2314
  -------         ENDPROC       SHOWRFNUMSETOK
  C:47ACH         SYMBOL        L?0491
  -------         PROC          L?0490
  -------         ENDPROC       L?0490
  C:47ACH         SYMBOL        L?0491
  -------         PROC          _GETTITLE
  D:0007H         SYMBOL        ItemCode
  C:47B1H         LINE#         2319
  C:47B1H         LINE#         2320
  C:47B1H         LINE#         2321
BL51 BANKED LINKER/LOCATER V6.22                                                      02/08/2018  14:09:45  PAGE 55


  C:4819H         LINE#         2322
  C:4819H         LINE#         2323
  C:4819H         LINE#         2324
  C:4820H         LINE#         2325
  C:4820H         LINE#         2327
  C:4820H         LINE#         2328
  C:4827H         LINE#         2329
  C:4827H         LINE#         2331
  C:4827H         LINE#         2332
  C:482EH         LINE#         2333
  C:482EH         LINE#         2335
  C:482EH         LINE#         2336
  C:4835H         LINE#         2337
  C:4835H         LINE#         2339
  C:4835H         LINE#         2340
  C:483CH         LINE#         2341
  C:483CH         LINE#         2343
  C:483CH         LINE#         2344
  C:4843H         LINE#         2345
  C:4843H         LINE#         2347
  C:4843H         LINE#         2348
  C:484AH         LINE#         2349
  C:484AH         LINE#         2351
  C:484AH         LINE#         2352
  C:4851H         LINE#         2353
  C:4851H         LINE#         2355
  C:4851H         LINE#         2356
  C:4858H         LINE#         2357
  C:4858H         LINE#         2359
  C:4858H         LINE#         2360
  C:485FH         LINE#         2361
  C:485FH         LINE#         2363
  C:485FH         LINE#         2364
  C:4866H         LINE#         2365
  C:4866H         LINE#         2367
  C:4866H         LINE#         2368
  C:486DH         LINE#         2369
  C:486DH         LINE#         2371
  C:486DH         LINE#         2372
  C:4874H         LINE#         2373
  C:4874H         LINE#         2375
  C:4874H         LINE#         2376
  C:487BH         LINE#         2377
  C:487BH         LINE#         2380
  C:487BH         LINE#         2381
  C:4882H         LINE#         2382
  C:4882H         LINE#         2384
  C:4882H         LINE#         2385
  C:4889H         LINE#         2386
  C:4889H         LINE#         2388
  C:4889H         LINE#         2389
  C:4890H         LINE#         2390
  C:4890H         LINE#         2392
  C:4890H         LINE#         2393
  C:4897H         LINE#         2394
  C:4897H         LINE#         2396
  C:4897H         LINE#         2397
BL51 BANKED LINKER/LOCATER V6.22                                                      02/08/2018  14:09:45  PAGE 56


  C:489EH         LINE#         2398
  C:489EH         LINE#         2400
  C:489EH         LINE#         2401
  C:48A5H         LINE#         2402
  C:48A5H         LINE#         2404
  C:48A5H         LINE#         2405
  C:48ACH         LINE#         2406
  C:48ACH         LINE#         2408
  C:48ACH         LINE#         2409
  C:48B3H         LINE#         2410
  C:48B3H         LINE#         2413
  C:48B3H         LINE#         2414
  C:48BAH         LINE#         2415
  C:48BAH         LINE#         2417
  C:48BAH         LINE#         2418
  C:48C1H         LINE#         2419
  C:48C1H         LINE#         2421
  C:48C1H         LINE#         2422
  C:48C8H         LINE#         2423
  C:48C8H         LINE#         2425
  C:48C8H         LINE#         2426
  C:48CFH         LINE#         2427
  C:48CFH         LINE#         2428
  C:48CFH         LINE#         2429
  C:48D6H         LINE#         2430
  C:48D6H         LINE#         2432
  C:48D6H         LINE#         2433
  C:48DDH         LINE#         2434
  C:48DDH         LINE#         2436
  C:48DDH         LINE#         2437
  C:48E4H         LINE#         2438
  C:48E4H         LINE#         2440
  C:48E4H         LINE#         2441
  C:48EBH         LINE#         2442
  C:48EBH         LINE#         2444
  C:48EBH         LINE#         2445
  C:48F2H         LINE#         2446
  C:48F2H         LINE#         2448
  C:48F2H         LINE#         2449
  C:48F9H         LINE#         2450
  C:48F9H         LINE#         2453
  C:48F9H         LINE#         2454
  C:48FFH         LINE#         2455
  C:48FFH         LINE#         2456
  C:48FFH         LINE#         2457
  -------         ENDPROC       _GETTITLE
  -------         PROC          _GETTITLELENGTH
  D:0007H         SYMBOL        ItemCode
  -------         DO            
  D:0001H         SYMBOL        title_length
  -------         ENDDO         
  C:75AAH         LINE#         2460
  C:75AAH         LINE#         2461
  C:75AAH         LINE#         2462
  C:75AAH         LINE#         2463
  C:75D9H         LINE#         2464
  C:75D9H         LINE#         2465
BL51 BANKED LINKER/LOCATER V6.22                                                      02/08/2018  14:09:45  PAGE 57


  C:75D9H         LINE#         2466
  C:75D9H         LINE#         2467
  C:75D9H         LINE#         2468
  C:75D9H         LINE#         2469
  C:75D9H         LINE#         2470
  C:75D9H         LINE#         2471
  C:75D9H         LINE#         2472
  C:75D9H         LINE#         2473
  C:75D9H         LINE#         2474
  C:75D9H         LINE#         2475
  C:75D9H         LINE#         2476
  C:75D9H         LINE#         2477
  C:75D9H         LINE#         2478
  C:75D9H         LINE#         2479
  C:75D9H         LINE#         2480
  C:75D9H         LINE#         2481
  C:75D9H         LINE#         2482
  C:75D9H         LINE#         2483
  C:75D9H         LINE#         2484
  C:75D9H         LINE#         2485
  C:75DBH         LINE#         2486
  C:75DDH         LINE#         2490
  C:75DDH         LINE#         2491
  C:75DDH         LINE#         2492
  C:75DDH         LINE#         2493
  C:75DFH         LINE#         2494
  C:75E1H         LINE#         2497
  C:75E1H         LINE#         2498
  C:75E1H         LINE#         2499
  C:75E1H         LINE#         2500
  C:75E1H         LINE#         2501
  C:75E1H         LINE#         2502
  C:75E3H         LINE#         2503
  C:75E5H         LINE#         2506
  C:75E5H         LINE#         2507
  C:75E5H         LINE#         2508
  C:75E5H         LINE#         2509
  C:75E7H         LINE#         2510
  C:75E9H         LINE#         2512
  C:75E9H         LINE#         2513
  C:75EBH         LINE#         2514
  C:75EBH         LINE#         2515
  C:75EBH         LINE#         2516
  C:75EDH         LINE#         2517
  -------         ENDPROC       _GETTITLELENGTH
  -------         PROC          SHOWBEDFACEFORM
  -------         DO            
  X:029DH         SYMBOL        position
  X:029FH         SYMBOL        uiFormLen
  -------         ENDDO         
  C:2D3DH         LINE#         2521
  C:2D3DH         LINE#         2522
  C:2D3DH         LINE#         2523
  C:2D44H         LINE#         2525
  C:2D49H         LINE#         2526
  C:2D51H         LINE#         2527
  C:2D54H         LINE#         2530
BL51 BANKED LINKER/LOCATER V6.22                                                      02/08/2018  14:09:45  PAGE 58


  C:2D64H         LINE#         2532
  C:2D82H         LINE#         2533
  C:2D82H         LINE#         2534
  C:2D89H         LINE#         2535
  C:2DA2H         LINE#         2536
  C:2DBCH         LINE#         2538
  C:2DBCH         LINE#         2540
  C:2DCEH         LINE#         2541
  C:2DCEH         LINE#         2542
  C:2E08H         LINE#         2543
  C:2E17H         LINE#         2544
  C:2E26H         LINE#         2545
  C:2E35H         LINE#         2546
  C:2E44H         LINE#         2548
  C:2E54H         LINE#         2549
  C:2E64H         LINE#         2551
  C:2E6AH         LINE#         2552
  C:2E6EH         LINE#         2553
  C:2E71H         LINE#         2555
  C:2E7BH         LINE#         2556
  C:2E7BH         LINE#         2557
  C:2E81H         LINE#         2558
  C:2E81H         LINE#         2560
  C:2E8FH         LINE#         2561
  C:2E9EH         LINE#         2563
  C:2EB2H         LINE#         2566
  C:2EC3H         LINE#         2567
  C:2EC3H         LINE#         2568
  C:2ECBH         LINE#         2569
  C:2EFEH         LINE#         2570
  C:2EFEH         LINE#         2571
  C:2F25H         LINE#         2573
  C:2F27H         LINE#         2575
  C:2F27H         LINE#         2576
  C:2F46H         LINE#         2577
  C:2F6BH         LINE#         2579
  C:2F6BH         LINE#         2580
  C:2F71H         LINE#         2581
  C:2F77H         LINE#         2582
  C:2F7CH         LINE#         2583
  C:2F81H         LINE#         2584
  C:2F85H         LINE#         2585
  C:2F88H         LINE#         2588
  C:2F92H         LINE#         2589
  C:2F92H         LINE#         2590
  C:2FA6H         LINE#         2591
  C:2FACH         LINE#         2592
  C:2FB0H         LINE#         2593
  C:2FB3H         LINE#         2594
  C:2FB3H         LINE#         2595
  C:2FB3H         LINE#         2596
  C:2FB3H         LINE#         2598
  C:2FB3H         LINE#         2599
  C:2FB6H         LINE#         2601
  C:2FB6H         LINE#         2602
  C:2FC4H         LINE#         2603
  C:2FD5H         LINE#         2604
BL51 BANKED LINKER/LOCATER V6.22                                                      02/08/2018  14:09:45  PAGE 59


  C:2FD5H         LINE#         2605
  C:2FE4H         LINE#         2606
  C:2FF4H         LINE#         2607
  C:2FFBH         LINE#         2608
  C:2FFBH         LINE#         2610
  C:2FFFH         LINE#         2612
  C:3001H         LINE#         2615
  C:3001H         LINE#         2616
  C:301FH         LINE#         2617
  C:301FH         LINE#         2618
  C:303EH         LINE#         2619
  C:303EH         LINE#         2620
  C:303EH         LINE#         2621
  C:3044H         LINE#         2622
  C:3047H         LINE#         2623
  C:304AH         LINE#         2624
  C:304DH         LINE#         2626
  C:3054H         LINE#         2627
  C:3054H         LINE#         2628
  C:305AH         LINE#         2629
  C:305EH         LINE#         2630
  C:3062H         LINE#         2631
  C:306CH         LINE#         2632
  C:306FH         LINE#         2634
  C:306FH         LINE#         2635
  C:306FH         LINE#         2636
  C:306FH         LINE#         2637
  C:306FH         LINE#         2639
  C:307DH         LINE#         2640
  C:308BH         LINE#         2642
  C:308EH         LINE#         2643
  C:3091H         LINE#         2644
  C:3097H         LINE#         2645
  -------         ENDPROC       SHOWBEDFACEFORM
  -------         ENDMOD        LCD

  -------         MODULE        MAIN
  C:0000H         SYMBOL        _ICE_DUMMY_
  C:7DA7H         PUBLIC        _DispatchMessage
  D:0080H         PUBLIC        P0
  D:0090H         PUBLIC        P1
  D:00A0H         PUBLIC        P2
  D:00B3H         PUBLIC        P4M1
  D:00B0H         PUBLIC        P3
  C:003EH         PUBLIC        RD_ID
  D:00C9H         PUBLIC        P5M1
  D:00C0H         PUBLIC        P4
  D:00C8H         PUBLIC        P5
  D:00F9H         PUBLIC        CH
  B:00A8H.5       PUBLIC        EADC
  D:00A8H         PUBLIC        IE
  D:00E9H         PUBLIC        CL
  D:00FAH         PUBLIC        CCAP0H
  D:00EAH         PUBLIC        CCAP0L
  B:00D8H.6       PUBLIC        CR
  C:5739H         PUBLIC        Init
  D:00DAH         PUBLIC        CCAPM0
BL51 BANKED LINKER/LOCATER V6.22                                                      02/08/2018  14:09:45  PAGE 60


  D:00B8H         PUBLIC        IP
  C:0006H         PUBLIC        Ex0Int
  C:29CCH         PUBLIC        MainTask
  B:0029H.1       PUBLIC        bOXSupplyState
  X:01BFH         PUBLIC        uiIsrTimerCount
  B:0090H.4       PUBLIC        EPH1660_CS
  D:00D9H         PUBLIC        CMOD
  D:00D8H         PUBLIC        CCON
  C:7CDCH         PUBLIC        main
  B:00C0H.4       PUBLIC        ADS7843_CS
  C:7DFDH         PUBLIC        notrun
  B:00A8H.6       PUBLIC        ELVD
  D:00BBH         PUBLIC        P4SW
  X:01C1H         PUBLIC        byWireLessRecBuff
  B:0029H.2       PUBLIC        bWireLessRec
  C:7C5AH         PUBLIC        UserTickTimer
  D:0098H         PUBLIC        SCON
  D:0088H         PUBLIC        TCON
  C:0016H         PUBLIC        AdcInt
  B:0090H.0       PUBLIC        SSD1963_CS
  X:01CBH         PUBLIC        byWireLessSndBuff
  X:01D3H         PUBLIC        stLocalControl
  B:00C0H.1       PUBLIC        GT23L_CS
  D:00E0H         PUBLIC        ACC
  B:00A8H.3       PUBLIC        ET1
  I:0066H         PUBLIC        byMainCmdQ
  X:0237H         PUBLIC        byWireLessRecLen
  B:00A8H.0       PUBLIC        EX0
  C:001EH         PUBLIC        LvdInt
  C:7DF1H         PUBLIC        run
  D:00C1H         PUBLIC        WDT_CONTR
  C:000AH         PUBLIC        _Send_Data_Byte
  C:000EH         PUBLIC        TIMER1Int
  B:00C0H.0       PUBLIC        led0
  C:0009H         PUBLIC        _Send_Data
  C:7162H         PUBLIC        DirRFSerialCompare
  C:80ADH         PUBLIC        _GetMessage
  B:00C0H.5       PUBLIC        SST25VF_CS
  C:6BADH         PUBLIC        allday
  B:0029H.3       PUBLIC        bEnableOxTimer
  D:00D0H         PUBLIC        PSW
  C:61CAH         PUBLIC        timeInterval
  B:00D8H.0       PUBLIC        CCF0
  -------         PROC          EX0INT
  C:0006H         LINE#         45
  C:0006H         LINE#         47
  C:0008H         LINE#         48
  -------         ENDPROC       EX0INT
  -------         PROC          TIMER1INT
  C:000EH         LINE#         50
  C:000EH         LINE#         52
  C:0010H         LINE#         53
  -------         ENDPROC       TIMER1INT
  -------         PROC          ADCINT
  C:0016H         LINE#         56
  C:0016H         LINE#         58
  C:0018H         LINE#         59
BL51 BANKED LINKER/LOCATER V6.22                                                      02/08/2018  14:09:45  PAGE 61


  -------         ENDPROC       ADCINT
  -------         PROC          LVDINT
  C:001EH         LINE#         61
  C:001EH         LINE#         63
  C:0020H         LINE#         64
  -------         ENDPROC       LVDINT
  -------         PROC          USERTICKTIMER
  C:7C5AH         LINE#         75
  C:7C5AH         LINE#         76
  C:7C5AH         LINE#         81
  C:7C68H         LINE#         82
  C:7C6EH         LINE#         83
  C:7C71H         LINE#         84
  C:7C73H         LINE#         86
  C:7C7BH         LINE#         87
  -------         ENDPROC       USERTICKTIMER
  -------         PROC          _SEND_DATA
  X:031AH         SYMBOL        Databuf
  X:031DH         SYMBOL        l
  -------         DO            
  X:031AH         SYMBOL        i
  -------         ENDDO         
  C:0009H         LINE#         91
  C:0009H         LINE#         92
  C:0009H         LINE#         94
  C:0009H         LINE#         95
  C:0009H         LINE#         96
  C:0009H         LINE#         129
  -------         ENDPROC       _SEND_DATA
  -------         PROC          _SEND_DATA_BYTE
  X:0298H         SYMBOL        SendData
  -------         DO            
  X:0298H         SYMBOL        i
  -------         ENDDO         
  C:000AH         LINE#         132
  C:000AH         LINE#         133
  C:000AH         LINE#         135
  C:000AH         LINE#         136
  C:000AH         LINE#         164
  -------         ENDPROC       _SEND_DATA_BYTE
  -------         PROC          RD_ID
  -------         DO            
  D:0007H         SYMBOL        p
  -------         ENDDO         
  C:003EH         LINE#         167
  C:003EH         LINE#         168
  C:003EH         LINE#         170
  C:0040H         LINE#         171
  -------         ENDPROC       RD_ID
  -------         PROC          DIRRFSERIALCOMPARE
  C:7162H         LINE#         174
  C:7162H         LINE#         175
  C:7162H         LINE#         176
  C:716EH         LINE#         177
  C:716EH         LINE#         178
  C:7170H         LINE#         179
  C:7170H         LINE#         180
BL51 BANKED LINKER/LOCATER V6.22                                                      02/08/2018  14:09:45  PAGE 62


  C:717CH         LINE#         181
  C:717CH         LINE#         182
  C:717EH         LINE#         183
  C:717EH         LINE#         184
  C:718AH         LINE#         185
  C:718AH         LINE#         186
  C:718CH         LINE#         187
  C:718CH         LINE#         188
  C:7198H         LINE#         189
  C:7198H         LINE#         190
  C:719AH         LINE#         191
  C:719AH         LINE#         192
  C:71A6H         LINE#         193
  C:71A6H         LINE#         194
  C:71A8H         LINE#         195
  C:71A8H         LINE#         196
  C:71B4H         LINE#         197
  C:71B4H         LINE#         198
  C:71B6H         LINE#         199
  C:71B6H         LINE#         201
  C:71B7H         LINE#         202
  -------         ENDPROC       DIRRFSERIALCOMPARE
  -------         PROC          L?0074
  -------         ENDPROC       L?0074
  -------         PROC          ALLDAY
  X:02AEH         SYMBOL        a
  -------         DO            
  D:0006H         SYMBOL        x
  D:0003H         SYMBOL        i
  -------         ENDDO         
  C:6BADH         LINE#         205
  C:6BADH         LINE#         206
  C:6BADH         LINE#         209
  C:6BC7H         LINE#         210
  C:6BCCH         LINE#         211
  C:6BCCH         LINE#         212
  C:6BD7H         LINE#         213
  C:6BD7H         LINE#         214
  C:6BDCH         LINE#         215
  C:6BDCH         LINE#         216
  C:6BE6H         LINE#         217
  C:6BE6H         LINE#         218
  C:6BE9H         LINE#         219
  C:6BE9H         LINE#         221
  C:6BE9H         LINE#         222
  C:6BF5H         LINE#         223
  C:6BF5H         LINE#         224
  C:6BFAH         LINE#         225
  C:6BFAH         LINE#         226
  C:6C04H         LINE#         227
  C:6C04H         LINE#         228
  C:6C07H         LINE#         229
  C:6C07H         LINE#         230
  C:6C10H         LINE#         231
  C:6C10H         LINE#         232
  -------         ENDPROC       ALLDAY
  -------         PROC          TIMEINTERVAL
BL51 BANKED LINKER/LOCATER V6.22                                                      02/08/2018  14:09:45  PAGE 63


  X:029CH         SYMBOL        a
  X:02A2H         SYMBOL        b
  -------         DO            
  X:02A8H         SYMBOL        x
  D:0006H         SYMBOL        y
  X:02AAH         SYMBOL        sum
  -------         ENDDO         
  C:61CAH         LINE#         234
  C:61CAH         LINE#         235
  C:61CAH         LINE#         238
  C:61D9H         LINE#         239
  C:61E0H         LINE#         240
  C:620FH         LINE#         241
  C:621DH         LINE#         242
  C:621DH         LINE#         243
  C:6226H         LINE#         244
  C:6234H         LINE#         245
  C:6236H         LINE#         247
  C:6236H         LINE#         248
  C:6242H         LINE#         249
  C:6242H         LINE#         251
  C:6250H         LINE#         252
  C:6250H         LINE#         253
  C:6259H         LINE#         254
  C:625FH         LINE#         255
  C:6261H         LINE#         257
  C:6261H         LINE#         258
  C:626DH         LINE#         259
  C:626DH         LINE#         260
  C:6273H         LINE#         261
  -------         ENDPROC       TIMEINTERVAL
  -------         PROC          INIT
  C:5739H         LINE#         278
  C:5739H         LINE#         279
  C:5739H         LINE#         280
  C:573CH         LINE#         281
  C:573FH         LINE#         282
  C:5741H         LINE#         283
  C:5743H         LINE#         284
  C:574CH         LINE#         285
  C:574FH         LINE#         287
  C:5752H         LINE#         294
  C:5754H         LINE#         303
  C:5757H         LINE#         304
  C:575AH         LINE#         305
  C:575DH         LINE#         308
  C:5760H         LINE#         311
  C:576FH         LINE#         314
  C:5771H         LINE#         315
  C:5773H         LINE#         316
  C:5775H         LINE#         317
  C:5777H         LINE#         318
  C:5779H         LINE#         322
  C:5780H         LINE#         325
  C:5783H         LINE#         328
  C:5786H         LINE#         329
  C:578BH         LINE#         336
BL51 BANKED LINKER/LOCATER V6.22                                                      02/08/2018  14:09:45  PAGE 64


  C:578EH         LINE#         343
  C:5799H         LINE#         344
  C:57A5H         LINE#         346
  C:57A8H         LINE#         353
  C:57ABH         LINE#         356
  C:57AEH         LINE#         357
  C:57B3H         LINE#         358
  C:57B6H         LINE#         366
  C:57B8H         LINE#         367
  C:57BFH         LINE#         370
  C:57CEH         LINE#         371
  C:57D6H         LINE#         373
  C:57E5H         LINE#         375
  C:57EAH         LINE#         387
  C:57EFH         LINE#         388
  C:57F2H         LINE#         390
  C:5801H         LINE#         391
  C:5810H         LINE#         393
  C:581AH         LINE#         396
  C:581DH         LINE#         398
  C:5822H         LINE#         399
  C:5828H         LINE#         401
  C:5831H         LINE#         402
  C:5836H         LINE#         403
  -------         ENDPROC       INIT
  -------         PROC          _GETMESSAGE
  D:0007H         SYMBOL        Msg
  C:80ADH         LINE#         420
  C:80ADH         LINE#         421
  C:80ADH         LINE#         422
  -------         ENDPROC       _GETMESSAGE
  -------         PROC          _DISPATCHMESSAGE
  D:0007H         SYMBOL        Msg
  C:7DA7H         LINE#         439
  C:7DA7H         LINE#         440
  C:7DA7H         LINE#         441
  C:7DB6H         LINE#         442
  C:7DB6H         LINE#         443
  C:7DB6H         LINE#         444
  C:7DB9H         LINE#         445
  C:7DB9H         LINE#         446
  C:7DB9H         LINE#         447
  C:7DBCH         LINE#         448
  C:7DBCH         LINE#         449
  C:7DBCH         LINE#         450
  C:7DBFH         LINE#         451
  C:7DBFH         LINE#         452
  C:7DBFH         LINE#         453
  C:7DBFH         LINE#         454
  C:7DBFH         LINE#         455
  -------         ENDPROC       _DISPATCHMESSAGE
  -------         PROC          MAINTASK
  -------         DO            
  D:0017H         SYMBOL        Msg
  X:0297H         SYMBOL        i
  -------         ENDDO         
  C:29CCH         LINE#         471
BL51 BANKED LINKER/LOCATER V6.22                                                      02/08/2018  14:09:45  PAGE 65


  C:29CCH         LINE#         472
  C:29CCH         LINE#         477
  C:29CFH         LINE#         479
  C:29D6H         LINE#         481
  C:29E2H         LINE#         482
  C:29EEH         LINE#         487
  C:29EEH         LINE#         488
  C:29EEH         LINE#         490
  C:29F1H         LINE#         491
  C:29F6H         LINE#         492
  C:29FBH         LINE#         493
  C:29FEH         LINE#         494
  C:29FEH         LINE#         495
  C:2A00H         LINE#         496
  C:2A03H         LINE#         497
  C:2A03H         LINE#         579
  C:2A09H         LINE#         580
  C:2A09H         LINE#         581
  C:2A0BH         LINE#         582
  C:2A32H         LINE#         583
  C:2A32H         LINE#         584
  C:2A37H         LINE#         585
  C:2A3BH         LINE#         586
  C:2A3EH         LINE#         587
  C:2A43H         LINE#         588
  C:2A48H         LINE#         589
  C:2A4DH         LINE#         590
  C:2A52H         LINE#         591
  C:2A57H         LINE#         592
  C:2A5DH         LINE#         595
  C:2A62H         LINE#         596
  C:2A62H         LINE#         597
  C:2A8BH         LINE#         598
  C:2AAFH         LINE#         600
  C:2ABDH         LINE#         602
  C:2ABDH         LINE#         604
  C:2ABDH         LINE#         605
  C:2AC4H         LINE#         606
  C:2ADDH         LINE#         607
  C:2AF7H         LINE#         609
  C:2AF7H         LINE#         610
  C:2AF7H         LINE#         612
  C:2AFDH         LINE#         613
  C:2AFDH         LINE#         614
  C:2AFFH         LINE#         615
  C:2B24H         LINE#         616
  C:2B24H         LINE#         617
  C:2B27H         LINE#         618
  C:2B2CH         LINE#         619
  C:2B47H         LINE#         620
  C:2B6CH         LINE#         621
  C:2B6CH         LINE#         622
  C:2B6FH         LINE#         624
  C:2B74H         LINE#         625
  C:2B79H         LINE#         626
  C:2B7EH         LINE#         627
  C:2B83H         LINE#         628
BL51 BANKED LINKER/LOCATER V6.22                                                      02/08/2018  14:09:45  PAGE 66


  C:2BAAH         LINE#         629
  C:2BAAH         LINE#         630
  C:2BAFH         LINE#         631
  C:2BAFH         LINE#         632
  C:2BD8H         LINE#         633
  C:2BFFH         LINE#         634
  C:2C0EH         LINE#         635
  C:2C0EH         LINE#         636
  C:2C0EH         LINE#         638
  C:2C0EH         LINE#         639
  C:2C30H         LINE#         640
  C:2C30H         LINE#         641
  C:2C30H         LINE#         642
  C:2C30H         LINE#         643
  C:2C59H         LINE#         644
  C:2C7BH         LINE#         646
  C:2C7EH         LINE#         647
  C:2C83H         LINE#         648
  C:2C88H         LINE#         649
  C:2C8DH         LINE#         650
  C:2C92H         LINE#         651
  C:2C92H         LINE#         653
  C:2C92H         LINE#         654
  C:2C92H         LINE#         655
  C:2C92H         LINE#         657
  C:2C97H         LINE#         659
  C:2CA8H         LINE#         660
  C:2CA8H         LINE#         661
  C:2CD1H         LINE#         662
  C:2CF8H         LINE#         664
  C:2D00H         LINE#         665
  C:2D00H         LINE#         667
  C:2D00H         LINE#         668
  C:2D07H         LINE#         669
  C:2D20H         LINE#         670
  C:2D3AH         LINE#         671
  C:2D3AH         LINE#         673
  C:2D3AH         LINE#         674
  -------         ENDPROC       MAINTASK
  -------         PROC          MAIN
  C:7CDCH         LINE#         691
  C:7CDCH         LINE#         692
  C:7CDCH         LINE#         694
  C:7CDFH         LINE#         695
  C:7CE1H         LINE#         696
  C:7CE8H         LINE#         698
  C:7CEBH         LINE#         700
  C:7CEDH         LINE#         702
  C:7CF8H         LINE#         704
  C:7CF8H         LINE#         705
  C:7CF8H         LINE#         706
  C:7CF9H         LINE#         708
  -------         ENDPROC       MAIN
  -------         ENDMOD        MAIN

  -------         MODULE        PARAMETER
  C:0000H         SYMBOL        _ICE_DUMMY_
BL51 BANKED LINKER/LOCATER V6.22                                                      02/08/2018  14:09:45  PAGE 67


  C:AA00H         PUBLIC        ParameterData
  -------         ENDMOD        PARAMETER

  -------         MODULE        SINGLEBUS
  C:0000H         SYMBOL        _ICE_DUMMY_
  C:7E80H         PUBLIC        TimerOutManager
  D:002AH         PUBLIC        byBus0DisableCount
  D:0080H         PUBLIC        P0
  D:00B2H         PUBLIC        P3M0
  D:0090H         PUBLIC        P1
  C:6D55H         PUBLIC        _ParaCrcCheck
  D:00B1H         PUBLIC        P3M1
  D:00A0H         PUBLIC        P2
  D:00B0H         PUBLIC        P3
  D:00C0H         PUBLIC        P4
  D:00C8H         PUBLIC        P5
  B:00A8H.7       PUBLIC        EA
  B:0021H.7       PUBLIC        bBusy
  B:0022H.2       PUBLIC        bBus0Enable
  B:0023H.7       PUBLIC        bWaitAck
  B:0024H.4       PUBLIC        bEnCallDeal
  D:00A8H         PUBLIC        IE
  B:0025H.0       PUBLIC        bPWState
  B:0025H.4       PUBLIC        bConfusionNoting
  B:00B0H.4       PUBLIC        Bus0SendPin
  D:002BH         PUBLIC        byBus0TxTail
  C:7564H         PUBLIC        CalcParaCrc
  D:00DAH         PUBLIC        CCAPM0
  B:0022H.1       PUBLIC        bBus0OnRec
  D:00B8H         PUBLIC        IP
  B:0022H.5       PUBLIC        bBus0OnSendFreq
  B:0024H.2       PUBLIC        bEnHelpDeal
  B:0026H.2       PUBLIC        bEnAllBroad
  B:0098H.1       PUBLIC        TI
  B:0023H.2       PUBLIC        bOfficeBroad
  B:00B0H.3       PUBLIC        Bus0RecPin
  D:002CH         PUBLIC        byBus0RecTimeOut
  B:0021H.5       PUBLIC        bDealKeyDown
  B:0021H.0       PUBLIC        bLanding
  D:00D8H         PUBLIC        CCON
  C:7FF1H         PUBLIC        Bus0RecInt
  C:6E1EH         PUBLIC        _ReadParameter
  B:0026H.5       PUBLIC        bEnAutoListen
  C:7C9CH         PUBLIC        Bus0Manage
  C:78E3H         PUBLIC        SingleBusInit
  B:0026H.6       PUBLIC        bEnVoiceNote
  B:0023H.5       PUBLIC        bChannel0Talked
  B:0022H.4       PUBLIC        bBus0OnSendBit
  B:0021H.3       PUBLIC        bChannel1Talked
  B:0021H.4       PUBLIC        bNurseIn
  B:0025H.3       PUBLIC        bServiceNoting
  B:0024H.6       PUBLIC        bEnHandDown
  B:0026H.0       PUBLIC        bEnSickRoomBroad
  B:0027H.2       PUBLIC        bBus0SendFinish
  D:0099H         PUBLIC        SBUF
  D:0021H         PUBLIC        byDevState1
  D:0023H         PUBLIC        byDevState2
BL51 BANKED LINKER/LOCATER V6.22                                                      02/08/2018  14:09:45  PAGE 68


  D:0098H         PUBLIC        SCON
  B:0027H.1       PUBLIC        bBus0RecBit9
  B:0024H.3       PUBLIC        bEnEmergencyDeal
  D:0025H         PUBLIC        byDevState3
  D:0089H         PUBLIC        TMOD
  D:0088H         PUBLIC        TCON
  C:435DH         PUBLIC        TimerOutDeal
  C:5BDBH         PUBLIC        _SaveParameter
  B:0026H.3       PUBLIC        bEnSoundNote
  C:51BCH         PUBLIC        InitParameter
  B:0025H.7       PUBLIC        bCalledRing
  B:0088H.3       PUBLIC        IE1
  B:0027H.0       PUBLIC        bBus0RecFinish
  B:0025H.5       PUBLIC        bMusicPlaying
  D:008EH         PUBLIC        AUXR
  D:002DH         PUBLIC        byBus0SendData
  D:00C7H         PUBLIC        IAP_CONTR
  C:3390H         PUBLIC        UsartSendSBNextFrame
  C:0011H         PUBLIC        SysReset
  D:00E0H         PUBLIC        ACC
  C:7742H         PUBLIC        _AddrCompare
  B:00A8H.1       PUBLIC        ET0
  B:0088H.5       PUBLIC        TF0
  B:0022H.7       PUBLIC        bBus0Error
  D:008CH         PUBLIC        TH0
  B:0088H.2       PUBLIC        IT1
  B:00A8H.2       PUBLIC        EX1
  B:0025H.6       PUBLIC        bVoiceNoting
  D:008AH         PUBLIC        TL0
  D:0034H         PUBLIC        byBus0RecData
  D:003BH         PUBLIC        byBus0SendCount
  B:0026H.1       PUBLIC        bEnOfficeBroad
  B:0024H.5       PUBLIC        bEnMusicplay
  B:0021H.6       PUBLIC        bSetKeyDown
  B:0088H.4       PUBLIC        TR0
  D:003CH         PUBLIC        byBus0TxQ
  D:0026H         PUBLIC        byEnable1
  D:00C1H         PUBLIC        WDT_CONTR
  B:0022H.6       PUBLIC        bBus0SendError
  D:0024H         PUBLIC        byEnable2
  B:0023H.0       PUBLIC        bSelfBroad
  B:0026H.7       PUBLIC        bEnHandleDeal
  B:0023H.4       PUBLIC        bChannel0Talk
  B:0024H.0       PUBLIC        bEnInfusionDeal
  B:0021H.2       PUBLIC        bChannel1Talk
  C:225CH         PUBLIC        Bus0SendDeal
  C:3098H         PUBLIC        Timer0Int
  D:0060H         PUBLIC        byBus0RecCount
  B:0025H.2       PUBLIC        bHelpNoting
  B:0026H.4       PUBLIC        bEnOutRing
  D:0061H         PUBLIC        byBus0SendBuf
  B:0024H.1       PUBLIC        bEnServiceDeal
  B:0023H.1       PUBLIC        bAllBroad
  B:0021H.1       PUBLIC        bIndicatingOther
  C:78B1H         PUBLIC        _DirAddrCompare
  B:0027H.4       PUBLIC        bBus0SendBit
  B:0022H.0       PUBLIC        bBus0StartRec
BL51 BANKED LINKER/LOCATER V6.22                                                      02/08/2018  14:09:45  PAGE 69


  D:0022H         PUBLIC        byBus0State0
  B:0023H.6       PUBLIC        bWaitListen
  D:0062H         PUBLIC        byBus0RecSendCount
  D:0027H         PUBLIC        byBus0State1
  C:693DH         PUBLIC        _Bus0OutputData
  C:0AD4H         PUBLIC        Bus0RecDeal
  D:0063H         PUBLIC        byBus0RecBuf
  C:7FC5H         PUBLIC        _BcdToHex
  B:0022H.3       PUBLIC        bBus0ReqSend
  B:0027H.3       PUBLIC        bBus0Disable
  D:0064H         PUBLIC        byBus0TxHead
  B:0023H.3       PUBLIC        bSickRoomBroad
  D:00D0H         PUBLIC        PSW
  C:804AH         PUBLIC        _MakeCH0TimerOut
  D:0065H         PUBLIC        byBus0SendStopCount
  B:0027H.5       PUBLIC        bBus0RecBit
  B:0025H.1       PUBLIC        bEmergencyNoting
  -------         PROC          SINGLEBUSINIT
  C:78E3H         LINE#         81
  C:78E3H         LINE#         82
  C:78E3H         LINE#         92
  C:78E6H         LINE#         93
  C:78E9H         LINE#         96
  C:78ECH         LINE#         97
  C:78EFH         LINE#         100
  C:78F1H         LINE#         101
  C:78F3H         LINE#         105
  C:78F6H         LINE#         106
  C:78F9H         LINE#         108
  C:78FCH         LINE#         109
  C:78FFH         LINE#         110
  C:7901H         LINE#         111
  C:7904H         LINE#         112
  C:7906H         LINE#         113
  C:7908H         LINE#         115
  C:790BH         LINE#         116
  C:790DH         LINE#         117
  C:790FH         LINE#         118
  C:7912H         LINE#         119
  C:7912H         LINE#         120
  C:7914H         LINE#         121
  C:7915H         LINE#         123
  C:7915H         LINE#         124
  C:7917H         LINE#         125
  C:7917H         LINE#         126
  -------         ENDPROC       SINGLEBUSINIT
  -------         PROC          BUS0RECINT
  C:7FF1H         LINE#         143
  C:7FF3H         LINE#         145
  C:7FF5H         LINE#         146
  C:7FF7H         LINE#         147
  C:7FF9H         LINE#         148
  C:7FFCH         LINE#         149
  -------         ENDPROC       BUS0RECINT
  -------         PROC          TIMER0INT
  C:3098H         LINE#         167
  C:30B1H         LINE#         169
BL51 BANKED LINKER/LOCATER V6.22                                                      02/08/2018  14:09:45  PAGE 70


  C:30B3H         LINE#         170
  C:30B6H         LINE#         171
  C:30B9H         LINE#         172
  C:30BBH         LINE#         173
  C:30BFH         LINE#         175
  C:30C2H         LINE#         176
  C:30C2H         LINE#         177
  C:30C8H         LINE#         178
  C:30D1H         LINE#         179
  C:30D1H         LINE#         180
  C:30D3H         LINE#         181
  C:30D5H         LINE#         182
  C:30D8H         LINE#         183
  C:30D8H         LINE#         184
  C:30DEH         LINE#         185
  C:30DEH         LINE#         186
  C:30E1H         LINE#         187
  C:30E3H         LINE#         188
  C:30E5H         LINE#         189
  C:30E5H         LINE#         190
  C:30E8H         LINE#         191
  C:30EBH         LINE#         192
  C:30EBH         LINE#         193
  C:30EDH         LINE#         195
  C:30EDH         LINE#         196
  C:30EFH         LINE#         197
  C:30EFH         LINE#         198
  C:30EFH         LINE#         199
  C:30F2H         LINE#         200
  C:30F8H         LINE#         201
  C:30F8H         LINE#         202
  C:30FEH         LINE#         203
  C:3107H         LINE#         204
  C:3107H         LINE#         205
  C:310AH         LINE#         206
  C:310CH         LINE#         207
  C:3115H         LINE#         208
  C:3115H         LINE#         209
  C:3117H         LINE#         210
  C:311AH         LINE#         211
  C:311AH         LINE#         212
  C:3126H         LINE#         213
  C:3126H         LINE#         214
  C:3129H         LINE#         215
  C:312CH         LINE#         216
  C:312EH         LINE#         218
  C:312EH         LINE#         219
  C:3131H         LINE#         220
  C:313BH         LINE#         221
  C:3141H         LINE#         222
  C:3148H         LINE#         223
  C:3148H         LINE#         224
  C:314BH         LINE#         225
  C:3151H         LINE#         226
  C:3151H         LINE#         227
  C:3153H         LINE#         228
  C:3153H         LINE#         229
BL51 BANKED LINKER/LOCATER V6.22                                                      02/08/2018  14:09:45  PAGE 71


  C:3156H         LINE#         230
  C:3159H         LINE#         231
  C:315BH         LINE#         232
  C:315BH         LINE#         233
  C:315BH         LINE#         234
  C:315EH         LINE#         235
  C:3162H         LINE#         236
  C:3164H         LINE#         238
  C:3164H         LINE#         239
  C:3166H         LINE#         240
  C:316CH         LINE#         241
  C:316CH         LINE#         242
  C:316FH         LINE#         243
  C:3171H         LINE#         244
  C:3173H         LINE#         245
  C:3173H         LINE#         246
  C:3176H         LINE#         247
  C:3176H         LINE#         248
  C:3178H         LINE#         249
  C:317BH         LINE#         250
  C:317BH         LINE#         251
  C:317FH         LINE#         252
  C:3181H         LINE#         254
  C:3181H         LINE#         255
  C:3187H         LINE#         256
  C:318AH         LINE#         257
  C:318AH         LINE#         258
  C:318DH         LINE#         259
  C:318DH         LINE#         260
  C:318DH         LINE#         261
  C:318DH         LINE#         262
  C:318DH         LINE#         264
  C:3195H         LINE#         265
  C:3195H         LINE#         266
  C:3198H         LINE#         267
  C:3198H         LINE#         268
  C:319AH         LINE#         269
  C:319CH         LINE#         270
  C:319EH         LINE#         271
  C:31A1H         LINE#         272
  C:31ABH         LINE#         273
  C:31ADH         LINE#         274
  C:31B0H         LINE#         276
  C:31B0H         LINE#         277
  C:31B3H         LINE#         278
  C:31B5H         LINE#         279
  C:31B8H         LINE#         280
  C:31B8H         LINE#         281
  C:31B8H         LINE#         282
  C:31B8H         LINE#         283
  C:31BBH         LINE#         284
  C:31C1H         LINE#         285
  C:31C1H         LINE#         286
  C:31C9H         LINE#         287
  C:31C9H         LINE#         288
  C:31CFH         LINE#         289
  C:31D5H         LINE#         290
BL51 BANKED LINKER/LOCATER V6.22                                                      02/08/2018  14:09:45  PAGE 72


  C:31D5H         LINE#         291
  C:31D8H         LINE#         292
  C:31DAH         LINE#         293
  C:31E2H         LINE#         294
  C:31E2H         LINE#         295
  C:31EBH         LINE#         296
  C:31EFH         LINE#         297
  C:31F1H         LINE#         298
  C:31F4H         LINE#         299
  C:31F4H         LINE#         300
  C:31F6H         LINE#         301
  C:31F8H         LINE#         302
  C:31FAH         LINE#         303
  C:3202H         LINE#         304
  C:3202H         LINE#         305
  C:3204H         LINE#         306
  C:3206H         LINE#         307
  C:320FH         LINE#         308
  C:320FH         LINE#         309
  C:3212H         LINE#         310
  C:3215H         LINE#         311
  C:3218H         LINE#         312
  C:321BH         LINE#         313
  C:321EH         LINE#         314
  C:3220H         LINE#         316
  C:3220H         LINE#         317
  C:3223H         LINE#         318
  C:3225H         LINE#         319
  C:3225H         LINE#         320
  C:3229H         LINE#         321
  C:322BH         LINE#         323
  C:322BH         LINE#         324
  C:3230H         LINE#         325
  C:3230H         LINE#         326
  C:3232H         LINE#         327
  C:3234H         LINE#         328
  C:3236H         LINE#         330
  C:3236H         LINE#         331
  C:3238H         LINE#         332
  C:323AH         LINE#         333
  C:323AH         LINE#         334
  C:3240H         LINE#         335
  C:3240H         LINE#         336
  C:3240H         LINE#         337
  C:3242H         LINE#         339
  C:3242H         LINE#         340
  C:3245H         LINE#         341
  C:3248H         LINE#         342
  C:324AH         LINE#         343
  C:324CH         LINE#         344
  C:324FH         LINE#         345
  C:324FH         LINE#         346
  C:324FH         LINE#         348
  C:3255H         LINE#         349
  C:3255H         LINE#         350
  C:3259H         LINE#         351
  C:3259H         LINE#         352
BL51 BANKED LINKER/LOCATER V6.22                                                      02/08/2018  14:09:45  PAGE 73


  C:325CH         LINE#         353
  C:325CH         LINE#         354
  C:325EH         LINE#         355
  C:325EH         LINE#         356
  C:325EH         LINE#         357
  C:3261H         LINE#         358
  C:3261H         LINE#         359
  C:3263H         LINE#         360
  C:3266H         LINE#         361
  C:3266H         LINE#         362
  C:3268H         LINE#         363
  C:326CH         LINE#         364
  C:326FH         LINE#         365
  C:326FH         LINE#         366
  C:326FH         LINE#         367
  C:326FH         LINE#         369
  C:3273H         LINE#         370
  C:3273H         LINE#         371
  C:3276H         LINE#         372
  C:3276H         LINE#         373
  C:3279H         LINE#         374
  C:3279H         LINE#         375
  C:3279H         LINE#         376
  C:327DH         LINE#         377
  C:327DH         LINE#         378
  C:3280H         LINE#         379
  C:3280H         LINE#         380
  C:3282H         LINE#         381
  C:3282H         LINE#         382
  C:3282H         LINE#         384
  C:328BH         LINE#         385
  C:328BH         LINE#         386
  C:328EH         LINE#         387
  C:328EH         LINE#         388
  C:3290H         LINE#         389
  C:3290H         LINE#         390
  C:3293H         LINE#         392
  C:3293H         LINE#         393
  C:329CH         LINE#         394
  C:329CH         LINE#         395
  C:32C0H         LINE#         396
  C:32C0H         LINE#         397
  C:32C8H         LINE#         398
  C:32D8H         LINE#         399
  C:32E0H         LINE#         400
  C:32F1H         LINE#         401
  C:32F9H         LINE#         402
  C:330AH         LINE#         403
  C:3312H         LINE#         404
  C:3323H         LINE#         405
  C:332BH         LINE#         406
  C:333CH         LINE#         407
  C:3344H         LINE#         408
  C:3355H         LINE#         409
  C:335DH         LINE#         410
  C:336EH         LINE#         411
  C:3371H         LINE#         412
BL51 BANKED LINKER/LOCATER V6.22                                                      02/08/2018  14:09:45  PAGE 74


  C:3373H         LINE#         414
  C:3373H         LINE#         415
  C:3379H         LINE#         416
  C:3379H         LINE#         417
  C:3379H         LINE#         418
  C:3379H         LINE#         419
  C:3379H         LINE#         420
  -------         ENDPROC       TIMER0INT
  C:6931H         SYMBOL        L?0379
  C:6933H         SYMBOL        L?0380
  C:6936H         SYMBOL        L?0381
  -------         PROC          L?0378
  -------         ENDPROC       L?0378
  C:6931H         SYMBOL        L?0379
  C:6933H         SYMBOL        L?0380
  C:6936H         SYMBOL        L?0381
  -------         PROC          _BUS0OUTPUTDATA
  X:029EH         SYMBOL        pbyData
  -------         DO            
  X:02A1H         SYMBOL        byTemp
  -------         ENDDO         
  C:693DH         LINE#         437
  C:6948H         LINE#         438
  C:6948H         LINE#         439
  C:694CH         LINE#         441
  C:6950H         LINE#         442
  C:696EH         LINE#         443
  C:696EH         LINE#         444
  C:6973H         LINE#         445
  C:6976H         LINE#         446
  C:6976H         LINE#         447
  C:6980H         LINE#         448
  C:6980H         LINE#         449
  C:699BH         LINE#         450
  C:69ACH         LINE#         451
  C:69AEH         LINE#         452
  C:69B3H         LINE#         453
  C:69B5H         LINE#         454
  -------         ENDPROC       _BUS0OUTPUTDATA
  -------         PROC          _BCDTOHEX
  D:0007H         SYMBOL        byData
  -------         DO            
  D:0006H         SYMBOL        byRet
  -------         ENDDO         
  C:7FC5H         LINE#         471
  C:7FC5H         LINE#         472
  C:7FC5H         LINE#         475
  C:7FC9H         LINE#         476
  C:7FCEH         LINE#         477
  C:7FD1H         LINE#         478
  C:7FD2H         LINE#         479
  C:7FD3H         LINE#         480
  -------         ENDPROC       _BCDTOHEX
  C:773CH         SYMBOL        L?0385
  -------         PROC          L?0384
  -------         ENDPROC       L?0384
  C:773CH         SYMBOL        L?0385
BL51 BANKED LINKER/LOCATER V6.22                                                      02/08/2018  14:09:45  PAGE 75


  -------         PROC          _ADDRCOMPARE
  D:0001H         SYMBOL        pstBusFreq
  C:7742H         LINE#         497
  C:7742H         LINE#         498
  C:7742H         LINE#         499
  C:7753H         LINE#         500
  C:7753H         LINE#         501
  C:7755H         LINE#         502
  C:7755H         LINE#         504
  C:7766H         LINE#         505
  C:7766H         LINE#         506
  C:7768H         LINE#         507
  C:7768H         LINE#         509
  C:7779H         LINE#         510
  C:7779H         LINE#         511
  C:777BH         LINE#         512
  C:777BH         LINE#         513
  C:777CH         LINE#         525
  -------         ENDPROC       _ADDRCOMPARE
  -------         PROC          L?0386
  -------         ENDPROC       L?0386
  -------         PROC          _DIRADDRCOMPARE
  D:0001H         SYMBOL        pstBusFreq
  C:78B1H         LINE#         541
  C:78B1H         LINE#         542
  C:78B1H         LINE#         543
  C:78BFH         LINE#         544
  C:78BFH         LINE#         545
  C:78C1H         LINE#         546
  C:78C1H         LINE#         547
  C:78CFH         LINE#         548
  C:78CFH         LINE#         549
  C:78D1H         LINE#         550
  C:78D1H         LINE#         551
  C:78DFH         LINE#         552
  C:78DFH         LINE#         553
  C:78E1H         LINE#         554
  C:78E1H         LINE#         555
  C:78E2H         LINE#         556
  -------         ENDPROC       _DIRADDRCOMPARE
  -------         PROC          _MAKECH0TIMEROUT
  D:0007H         SYMBOL        byTimerOut
  D:0005H         SYMBOL        byTimerOutCount
  C:804AH         LINE#         572
  C:804AH         LINE#         573
  C:804AH         LINE#         574
  C:804FH         LINE#         575
  C:8051H         LINE#         576
  C:8054H         LINE#         577
  -------         ENDPROC       _MAKECH0TIMEROUT
  -------         PROC          SYSRESET
  C:0011H         LINE#         595
  C:0011H         LINE#         596
  C:0011H         LINE#         598
  -------         ENDPROC       SYSRESET
  C:5BD3H         SYMBOL        L?0383
  -------         PROC          L?0382
BL51 BANKED LINKER/LOCATER V6.22                                                      02/08/2018  14:09:45  PAGE 76


  -------         ENDPROC       L?0382
  C:5BD3H         SYMBOL        L?0383
  -------         PROC          _SAVEPARAMETER
  X:029CH         SYMBOL        addr
  -------         DO            
  X:029EH         SYMBOL        i
  X:029FH         SYMBOL        pbyData
  -------         ENDDO         
  C:5BDBH         LINE#         615
  C:5BE3H         LINE#         616
  C:5BE3H         LINE#         619
  C:5BF1H         LINE#         620
  C:5BF8H         LINE#         622
  C:5BFDH         LINE#         623
  C:5C03H         LINE#         624
  C:5C08H         LINE#         626
  C:5C0DH         LINE#         627
  C:5C0DH         LINE#         628
  C:5C27H         LINE#         629
  C:5C31H         LINE#         630
  C:5C3FH         LINE#         631
  C:5C4BH         LINE#         633
  C:5C59H         LINE#         635
  C:5C5EH         LINE#         636
  C:5C5EH         LINE#         637
  C:5C78H         LINE#         638
  C:5C82H         LINE#         639
  C:5C90H         LINE#         640
  C:5C9CH         LINE#         641
  -------         ENDPROC       _SAVEPARAMETER
  -------         PROC          _READPARAMETER
  X:0299H         SYMBOL        addr
  -------         DO            
  X:029BH         SYMBOL        i
  X:029CH         SYMBOL        pbyData
  -------         ENDDO         
  C:6E1EH         LINE#         659
  C:6E26H         LINE#         660
  C:6E26H         LINE#         661
  C:6E29H         LINE#         662
  C:6E36H         LINE#         664
  C:6E3BH         LINE#         665
  C:6E40H         LINE#         666
  C:6E40H         LINE#         667
  C:6E5AH         LINE#         668
  C:6E64H         LINE#         669
  C:6E72H         LINE#         670
  C:6E7EH         LINE#         671
  -------         ENDPROC       _READPARAMETER
  -------         PROC          _PARACRCCHECK
  X:0299H         SYMBOL        addr
  -------         DO            
  X:029BH         SYMBOL        crcResult
  X:029CH         SYMBOL        crcData
  X:029DH         SYMBOL        i
  D:0007H         SYMBOL        paraData
  -------         ENDDO         
BL51 BANKED LINKER/LOCATER V6.22                                                      02/08/2018  14:09:45  PAGE 77


  C:6D55H         LINE#         675
  C:6D5DH         LINE#         676
  C:6D5DH         LINE#         677
  C:6D60H         LINE#         678
  C:6D62H         LINE#         681
  C:6D67H         LINE#         682
  C:6D6CH         LINE#         683
  C:6D6CH         LINE#         684
  C:6D77H         LINE#         685
  C:6D7DH         LINE#         686
  C:6D8BH         LINE#         687
  C:6D97H         LINE#         688
  C:6DA7H         LINE#         689
  C:6DAAH         LINE#         691
  C:6DB7H         LINE#         692
  C:6DB9H         LINE#         693
  -------         ENDPROC       _PARACRCCHECK
  -------         PROC          CALCPARACRC
  -------         DO            
  X:029CH         SYMBOL        crcResult
  D:0007H         SYMBOL        i
  X:029DH         SYMBOL        addr
  -------         ENDDO         
  C:7564H         LINE#         696
  C:7564H         LINE#         697
  C:7564H         LINE#         698
  C:7569H         LINE#         700
  C:7576H         LINE#         701
  C:757BH         LINE#         702
  C:757DH         LINE#         703
  C:757DH         LINE#         704
  C:7592H         LINE#         705
  C:759CH         LINE#         706
  C:75A1H         LINE#         707
  C:75A4H         LINE#         708
  C:75A9H         LINE#         709
  -------         ENDPROC       CALCPARACRC
  -------         PROC          INITPARAMETER
  -------         DO            
  X:0298H         SYMBOL        flagData
  C:5222H         SYMBOL        InitParaVal
  -------         ENDDO         
  C:51BCH         LINE#         728
  C:51BCH         LINE#         729
  C:51BCH         LINE#         731
  C:51C7H         LINE#         732
  C:51C7H         LINE#         733
  C:51CCH         LINE#         734
  C:51D7H         LINE#         735
  C:51DAH         LINE#         737
  C:51E7H         LINE#         738
  C:51E7H         LINE#         739
  C:51E9H         LINE#         740
  C:51E9H         LINE#         741
  C:51EBH         LINE#         742
  C:51EBH         LINE#         743
  C:51EBH         LINE#         744
BL51 BANKED LINKER/LOCATER V6.22                                                      02/08/2018  14:09:45  PAGE 78


  C:51F7H         LINE#         745
  C:51F7H         LINE#         746
  C:51FCH         LINE#         747
  C:5208H         LINE#         748
  C:520BH         LINE#         750
  C:5218H         LINE#         751
  C:5218H         LINE#         752
  C:521FH         LINE#         753
  C:521FH         LINE#         754
  C:5222H         LINE#         755
  C:5222H         LINE#         756
  C:5222H         LINE#         758
  C:5222H         LINE#         759
  C:5222H         LINE#         760
  C:522BH         LINE#         761
  C:5234H         LINE#         762
  C:523DH         LINE#         763
  C:5246H         LINE#         764
  C:524FH         LINE#         765
  C:5258H         LINE#         766
  C:5261H         LINE#         767
  C:526AH         LINE#         768
  C:5273H         LINE#         769
  C:5278H         LINE#         770
  C:527AH         LINE#         771
  C:5282H         LINE#         772
  C:528BH         LINE#         773
  C:5294H         LINE#         774
  C:529DH         LINE#         775
  C:52A6H         LINE#         776
  C:52AFH         LINE#         777
  C:52C6H         LINE#         778
  C:52CFH         LINE#         779
  C:52D8H         LINE#         780
  C:52DEH         LINE#         781
  C:52DEH         LINE#         782
  -------         ENDPROC       INITPARAMETER
  -------         PROC          USARTSENDSBNEXTFRAME
  -------         DO            
  X:029CH         SYMBOL        i
  X:029DH         SYMBOL        pstDataFreq
  -------         ENDDO         
  C:3390H         LINE#         785
  C:3390H         LINE#         786
  C:3390H         LINE#         787
  C:3396H         LINE#         788
  C:33A2H         LINE#         790
  C:33ACH         LINE#         791
  C:33ACH         LINE#         792
  C:33B9H         LINE#         793
  C:33BEH         LINE#         794
  C:33C1H         LINE#         796
  C:33C1H         LINE#         799
  C:33CBH         LINE#         800
  C:33CBH         LINE#         801
  C:33D2H         LINE#         802
  C:33DAH         LINE#         804
BL51 BANKED LINKER/LOCATER V6.22                                                      02/08/2018  14:09:45  PAGE 79


  C:33DDH         LINE#         805
  C:33FCH         LINE#         806
  C:33FCH         LINE#         807
  C:33FCH         LINE#         808
  C:3419H         LINE#         809
  C:3419H         LINE#         810
  C:341EH         LINE#         811
  C:341EH         LINE#         812
  C:341EH         LINE#         813
  C:341EH         LINE#         814
  C:3420H         LINE#         816
  C:3420H         LINE#         817
  C:3425H         LINE#         818
  C:3425H         LINE#         819
  C:3425H         LINE#         820
  C:3425H         LINE#         821
  C:3425H         LINE#         823
  C:3427H         LINE#         824
  C:3427H         LINE#         826
  C:3441H         LINE#         827
  C:3441H         LINE#         828
  C:344EH         LINE#         829
  C:344EH         LINE#         830
  C:344EH         LINE#         831
  C:344EH         LINE#         832
  C:3450H         LINE#         834
  C:3450H         LINE#         835
  C:345DH         LINE#         836
  C:345DH         LINE#         837
  C:345DH         LINE#         838
  C:345DH         LINE#         839
  C:345DH         LINE#         841
  C:3460H         LINE#         842
  C:3460H         LINE#         843
  C:347DH         LINE#         844
  C:347DH         LINE#         845
  C:34ACH         LINE#         846
  C:34CEH         LINE#         847
  C:34D6H         LINE#         848
  C:34DDH         LINE#         849
  C:34DFH         LINE#         851
  C:34DFH         LINE#         852
  C:3509H         LINE#         853
  C:351EH         LINE#         854
  C:352CH         LINE#         855
  C:3533H         LINE#         856
  C:3533H         LINE#         858
  C:3533H         LINE#         859
  C:3533H         LINE#         861
  C:3533H         LINE#         863
  C:3539H         LINE#         864
  C:353DH         LINE#         865
  C:3562H         LINE#         867
  C:3567H         LINE#         869
  C:3579H         LINE#         870
  C:3580H         LINE#         871
  C:3587H         LINE#         873
BL51 BANKED LINKER/LOCATER V6.22                                                      02/08/2018  14:09:45  PAGE 80


  C:3591H         LINE#         874
  C:359BH         LINE#         875
  C:35A5H         LINE#         877
  C:35ADH         LINE#         878
  C:35B4H         LINE#         880
  C:35BCH         LINE#         883
  C:35E3H         LINE#         884
  C:3602H         LINE#         887
  C:3615H         LINE#         888
  C:361AH         LINE#         889
  C:3624H         LINE#         891
  C:3626H         LINE#         892
  C:362CH         LINE#         894
  -------         ENDPROC       USARTSENDSBNEXTFRAME
  -------         PROC          BUS0RECDEAL
  -------         DO            
  X:0298H         SYMBOL        i
  X:0299H         SYMBOL        pstDataFreq
  -------         ENDDO         
  C:0AD4H         LINE#         912
  C:0AD4H         LINE#         913
  C:0AD4H         LINE#         915
  C:0AE2H         LINE#         917
  C:0AE6H         LINE#         918
  C:0AF9H         LINE#         919
  C:0AFBH         LINE#         920
  C:0B00H         LINE#         927
  C:0B92H         LINE#         928
  C:0B92H         LINE#         929
  C:0B92H         LINE#         930
  C:0B98H         LINE#         931
  C:0B98H         LINE#         932
  C:0B9AH         LINE#         933
  C:0BA0H         LINE#         934
  C:0BC4H         LINE#         937
  C:0BC4H         LINE#         938
  C:0BCCH         LINE#         939
  C:0BD4H         LINE#         940
  C:0BDCH         LINE#         942
  C:0BDFH         LINE#         943
  C:0BE2H         LINE#         945
  C:0BE8H         LINE#         946
  C:0BECH         LINE#         947
  C:0BF8H         LINE#         948
  C:0BF8H         LINE#         950
  C:0C07H         LINE#         951
  C:0C07H         LINE#         952
  C:0C0FH         LINE#         954
  C:0C12H         LINE#         955
  C:0C12H         LINE#         956
  C:0C15H         LINE#         957
  C:0C15H         LINE#         959
  C:0C1CH         LINE#         960
  C:0C1CH         LINE#         961
  C:0C1FH         LINE#         962
  C:0C1FH         LINE#         963
  C:0C1FH         LINE#         964
BL51 BANKED LINKER/LOCATER V6.22                                                      02/08/2018  14:09:45  PAGE 81


  C:0C22H         LINE#         969
  C:0C22H         LINE#         970
  C:0C22H         LINE#         971
  C:0C22H         LINE#         972
  C:0C22H         LINE#         973
  C:0C22H         LINE#         974
  C:0C25H         LINE#         977
  C:0C25H         LINE#         978
  C:0C2DH         LINE#         979
  C:0C2DH         LINE#         980
  C:0C35H         LINE#         981
  C:0C3DH         LINE#         982
  C:0C45H         LINE#         983
  C:0C49H         LINE#         984
  C:0C49H         LINE#         985
  C:0C49H         LINE#         986
  C:0C4CH         LINE#         988
  C:0C4CH         LINE#         990
  C:0C5BH         LINE#         991
  C:0C6AH         LINE#         992
  C:0C79H         LINE#         993
  C:0C88H         LINE#         994
  C:0C95H         LINE#         995
  C:0C9AH         LINE#         996
  C:0C9EH         LINE#         997
  C:0C9FH         LINE#         999
  C:0C9FH         LINE#         1000
  C:0CCCH         LINE#         1003
  C:0CCCH         LINE#         1004
  C:0CCCH         LINE#         1005
  C:0CCCH         LINE#         1006
  C:0CCCH         LINE#         1011
  C:0CCFH         LINE#         1013
  C:0CCFH         LINE#         1014
  C:0CCFH         LINE#         1015
  C:0CCFH         LINE#         1016
  C:0CF3H         LINE#         1019
  C:0CF3H         LINE#         1020
  C:0CF8H         LINE#         1021
  C:0D02H         LINE#         1022
  C:0D04H         LINE#         1024
  C:0D04H         LINE#         1025
  C:0D09H         LINE#         1026
  C:0D16H         LINE#         1027
  C:0D16H         LINE#         1028
  C:0D16H         LINE#         1029
  C:0D16H         LINE#         1031
  C:0D1DH         LINE#         1032
  C:0D1DH         LINE#         1033
  C:0D22H         LINE#         1034
  C:0D2AH         LINE#         1035
  C:0D2AH         LINE#         1037
  C:0D2AH         LINE#         1038
  C:0D2FH         LINE#         1039
  C:0D43H         LINE#         1041
  C:0D43H         LINE#         1042
  C:0D43H         LINE#         1043
BL51 BANKED LINKER/LOCATER V6.22                                                      02/08/2018  14:09:45  PAGE 82


  C:0D43H         LINE#         1044
  C:0D43H         LINE#         1045
  C:0D43H         LINE#         1046
  C:0D43H         LINE#         1047
  C:0D46H         LINE#         1049
  C:0D46H         LINE#         1050
  C:0D4EH         LINE#         1051
  C:0D4EH         LINE#         1052
  C:0D55H         LINE#         1053
  C:0D6CH         LINE#         1054
  C:0D86H         LINE#         1056
  C:0D95H         LINE#         1057
  C:0DA4H         LINE#         1058
  C:0DB3H         LINE#         1059
  C:0DC2H         LINE#         1061
  C:0DC9H         LINE#         1062
  C:0DCBH         LINE#         1063
  C:0DD0H         LINE#         1065
  C:0DD3H         LINE#         1067
  C:0DDAH         LINE#         1068
  C:0DDFH         LINE#         1070
  C:0DDFH         LINE#         1071
  C:0DE2H         LINE#         1074
  C:0DE8H         LINE#         1075
  C:0DE8H         LINE#         1077
  C:0DE8H         LINE#         1078
  C:0DEBH         LINE#         1080
  C:0DEBH         LINE#         1081
  C:0DF2H         LINE#         1082
  C:0DF2H         LINE#         1083
  C:0DF7H         LINE#         1084
  C:0DFAH         LINE#         1085
  C:0E03H         LINE#         1086
  C:0E03H         LINE#         1087
  C:0E06H         LINE#         1088
  C:0E06H         LINE#         1089
  C:0E0EH         LINE#         1090
  C:0E0EH         LINE#         1091
  C:0E14H         LINE#         1093
  C:0E38H         LINE#         1096
  C:0E38H         LINE#         1098
  C:0E40H         LINE#         1099
  C:0E48H         LINE#         1100
  C:0E4FH         LINE#         1102
  C:0E4FH         LINE#         1103
  C:0E52H         LINE#         1104
  C:0E52H         LINE#         1105
  C:0E57H         LINE#         1106
  C:0E5AH         LINE#         1109
  C:0E5AH         LINE#         1110
  C:0E5AH         LINE#         1111
  C:0E63H         LINE#         1112
  C:0E63H         LINE#         1113
  C:0E63H         LINE#         1114
  C:0E63H         LINE#         1115
  C:0E66H         LINE#         1116
  C:0E66H         LINE#         1117
BL51 BANKED LINKER/LOCATER V6.22                                                      02/08/2018  14:09:45  PAGE 83


  C:0E66H         LINE#         1118
  C:0E66H         LINE#         1119
  C:0E6EH         LINE#         1120
  C:0E74H         LINE#         1121
  C:0E7AH         LINE#         1122
  C:0E7DH         LINE#         1124
  C:0E7DH         LINE#         1125
  C:0E85H         LINE#         1126
  C:0E85H         LINE#         1127
  C:0E89H         LINE#         1129
  C:0E8CH         LINE#         1130
  C:0E8EH         LINE#         1131
  C:0E90H         LINE#         1132
  C:0E92H         LINE#         1133
  C:0E95H         LINE#         1134
  C:0E95H         LINE#         1135
  C:0E96H         LINE#         1136
  C:0E96H         LINE#         1137
  C:0E96H         LINE#         1138
  C:0E96H         LINE#         1139
  C:0E96H         LINE#         1140
  C:0E96H         LINE#         1141
  C:0E96H         LINE#         1142
  C:0E96H         LINE#         1143
  C:0E96H         LINE#         1144
  C:0E96H         LINE#         1145
  C:0E9BH         LINE#         1146
  C:0E9EH         LINE#         1147
  C:0EA6H         LINE#         1148
  C:0EA6H         LINE#         1149
  C:0EA9H         LINE#         1151
  C:0EA9H         LINE#         1152
  C:0EA9H         LINE#         1165
  C:0EA9H         LINE#         1166
  C:0EA9H         LINE#         1167
  C:0EACH         LINE#         1168
  C:0EACH         LINE#         1169
  C:0EACH         LINE#         1170
  C:0EACH         LINE#         1171
  C:0EACH         LINE#         1172
  C:0EACH         LINE#         1173
  C:0EAFH         LINE#         1174
  C:0EAFH         LINE#         1175
  C:0EAFH         LINE#         1176
  C:0EAFH         LINE#         1177
  C:0EAFH         LINE#         1178
  C:0EAFH         LINE#         1179
  C:0EAFH         LINE#         1180
  C:0EB2H         LINE#         1182
  C:0EB2H         LINE#         1183
  C:0EB7H         LINE#         1184
  C:0EC2H         LINE#         1185
  C:0EC2H         LINE#         1186
  C:0EC2H         LINE#         1187
  C:0EC2H         LINE#         1188
  C:0EC2H         LINE#         1189
  C:0EC4H         LINE#         1190
BL51 BANKED LINKER/LOCATER V6.22                                                      02/08/2018  14:09:45  PAGE 84


  C:0ED7H         LINE#         1192
  C:0EDCH         LINE#         1194
  C:0EEBH         LINE#         1195
  C:0EF0H         LINE#         1198
  C:0EFFH         LINE#         1199
  C:0F04H         LINE#         1202
  C:0F10H         LINE#         1204
  C:0F18H         LINE#         1206
  C:0F18H         LINE#         1207
  C:0F1BH         LINE#         1208
  C:0F1BH         LINE#         1209
  C:0F21H         LINE#         1210
  C:0F21H         LINE#         1211
  C:0F23H         LINE#         1212
  C:0F36H         LINE#         1215
  C:0F6CH         LINE#         1217
  C:0F75H         LINE#         1218
  C:0F75H         LINE#         1219
  C:0F7BH         LINE#         1220
  C:0F7FH         LINE#         1221
  C:0F7FH         LINE#         1222
  C:0F9AH         LINE#         1223
  C:0F9AH         LINE#         1224
  C:0F9AH         LINE#         1226
  C:0FA2H         LINE#         1227
  C:0FAAH         LINE#         1228
  C:0FB2H         LINE#         1229
  C:0FB6H         LINE#         1230
  C:0FBEH         LINE#         1231
  C:0FC7H         LINE#         1232
  C:0FCEH         LINE#         1233
  C:0FD1H         LINE#         1236
  C:0FDCH         LINE#         1237
  C:0FF0H         LINE#         1238
  C:0FF9H         LINE#         1239
  C:0FF9H         LINE#         1240
  C:0FFDH         LINE#         1241
  C:100BH         LINE#         1242
  C:100BH         LINE#         1244
  C:101AH         LINE#         1245
  C:101FH         LINE#         1246
  C:1024H         LINE#         1247
  C:1029H         LINE#         1248
  C:102EH         LINE#         1250
  C:103AH         LINE#         1252
  C:1049H         LINE#         1253
  C:1050H         LINE#         1255
  C:1050H         LINE#         1256
  C:1053H         LINE#         1259
  C:105BH         LINE#         1261
  C:105BH         LINE#         1262
  C:105BH         LINE#         1263
  C:105EH         LINE#         1265
  C:105EH         LINE#         1266
  C:1063H         LINE#         1267
  C:1066H         LINE#         1268
  C:106EH         LINE#         1270
BL51 BANKED LINKER/LOCATER V6.22                                                      02/08/2018  14:09:45  PAGE 85


  C:106EH         LINE#         1271
  C:1071H         LINE#         1272
  C:1071H         LINE#         1273
  C:107AH         LINE#         1275
  C:107DH         LINE#         1276
  C:1082H         LINE#         1277
  C:1085H         LINE#         1278
  C:108BH         LINE#         1281
  C:10D6H         LINE#         1287
  C:10D6H         LINE#         1288
  C:10E9H         LINE#         1289
  C:10FCH         LINE#         1291
  C:1102H         LINE#         1292
  C:1108H         LINE#         1294
  C:1108H         LINE#         1295
  C:110BH         LINE#         1296
  C:110BH         LINE#         1297
  C:1110H         LINE#         1298
  C:1116H         LINE#         1299
  C:1117H         LINE#         1300
  C:1117H         LINE#         1301
  C:1162H         LINE#         1307
  C:1162H         LINE#         1308
  C:1175H         LINE#         1309
  C:1188H         LINE#         1311
  C:118EH         LINE#         1312
  C:1194H         LINE#         1314
  C:1194H         LINE#         1315
  C:1197H         LINE#         1317
  C:1197H         LINE#         1318
  C:119CH         LINE#         1319
  C:119CH         LINE#         1320
  C:11A3H         LINE#         1321
  C:11A3H         LINE#         1322
  C:11A5H         LINE#         1323
  C:11ADH         LINE#         1324
  C:11ADH         LINE#         1325
  C:11B4H         LINE#         1326
  C:11BAH         LINE#         1327
  C:11BAH         LINE#         1328
  C:11BAH         LINE#         1329
  C:11BAH         LINE#         1330
  C:11BAH         LINE#         1331
  C:11BCH         LINE#         1333
  C:11BCH         LINE#         1334
  C:11C3H         LINE#         1335
  C:11C3H         LINE#         1336
  C:11C5H         LINE#         1338
  C:11C5H         LINE#         1339
  C:11D2H         LINE#         1340
  C:11D2H         LINE#         1341
  C:11D5H         LINE#         1342
  C:11D5H         LINE#         1343
  C:11D5H         LINE#         1345
  C:11D5H         LINE#         1346
  C:11E2H         LINE#         1347
  C:11E2H         LINE#         1348
BL51 BANKED LINKER/LOCATER V6.22                                                      02/08/2018  14:09:45  PAGE 86


  C:11E5H         LINE#         1349
  C:11E5H         LINE#         1350
  C:11E5H         LINE#         1352
  C:11E5H         LINE#         1353
  C:11EDH         LINE#         1354
  C:11F5H         LINE#         1355
  C:11FDH         LINE#         1356
  C:1201H         LINE#         1357
  C:1209H         LINE#         1358
  C:1212H         LINE#         1359
  C:121AH         LINE#         1360
  C:1220H         LINE#         1361
  C:1223H         LINE#         1363
  C:1223H         LINE#         1364
  C:122AH         LINE#         1365
  C:122DH         LINE#         1366
  C:1237H         LINE#         1367
  C:1238H         LINE#         1370
  C:1238H         LINE#         1371
  C:123AH         LINE#         1372
  C:123DH         LINE#         1373
  C:1264H         LINE#         1376
  C:1264H         LINE#         1377
  C:126CH         LINE#         1378
  C:1274H         LINE#         1379
  C:127CH         LINE#         1381
  C:127FH         LINE#         1382
  C:1282H         LINE#         1384
  C:1288H         LINE#         1385
  C:128CH         LINE#         1386
  C:1297H         LINE#         1387
  C:1297H         LINE#         1388
  C:1299H         LINE#         1390
  C:1299H         LINE#         1391
  C:129FH         LINE#         1392
  C:129FH         LINE#         1393
  C:12A4H         LINE#         1394
  C:12A7H         LINE#         1395
  C:12A7H         LINE#         1396
  C:12B2H         LINE#         1397
  C:12B2H         LINE#         1398
  C:12B7H         LINE#         1399
  C:12BAH         LINE#         1400
  C:12BFH         LINE#         1401
  C:12BFH         LINE#         1402
  C:12BFH         LINE#         1403
  C:12BFH         LINE#         1405
  C:12C6H         LINE#         1406
  C:12C6H         LINE#         1407
  C:12C6H         LINE#         1408
  C:12C8H         LINE#         1410
  C:12C8H         LINE#         1411
  C:12D0H         LINE#         1412
  C:12D0H         LINE#         1413
  C:12D6H         LINE#         1414
  C:12E0H         LINE#         1415
  C:12E0H         LINE#         1416
BL51 BANKED LINKER/LOCATER V6.22                                                      02/08/2018  14:09:45  PAGE 87


  C:12E7H         LINE#         1417
  C:12EFH         LINE#         1419
  C:12F2H         LINE#         1421
  C:12F8H         LINE#         1422
  C:1316H         LINE#         1423
  C:131BH         LINE#         1424
  C:1325H         LINE#         1426
  C:1327H         LINE#         1427
  C:132DH         LINE#         1428
  C:132EH         LINE#         1429
  C:1331H         LINE#         1430
  C:1331H         LINE#         1431
  C:1331H         LINE#         1432
  C:1331H         LINE#         1433
  C:1367H         LINE#         1434
  C:1367H         LINE#         1435
  C:1367H         LINE#         1436
  C:1371H         LINE#         1437
  C:1373H         LINE#         1438
  C:1373H         LINE#         1439
  C:137DH         LINE#         1440
  C:137FH         LINE#         1441
  C:137FH         LINE#         1442
  C:1389H         LINE#         1443
  C:138BH         LINE#         1444
  C:138BH         LINE#         1445
  C:1390H         LINE#         1446
  C:1392H         LINE#         1447
  C:1392H         LINE#         1448
  C:139CH         LINE#         1449
  C:139EH         LINE#         1450
  C:139EH         LINE#         1451
  C:13A3H         LINE#         1452
  C:13A5H         LINE#         1453
  C:13A5H         LINE#         1454
  C:13AFH         LINE#         1455
  C:13B1H         LINE#         1456
  C:13B1H         LINE#         1457
  C:13B6H         LINE#         1458
  C:13B8H         LINE#         1459
  C:13B8H         LINE#         1460
  C:13C1H         LINE#         1461
  C:13C1H         LINE#         1462
  C:13C1H         LINE#         1465
  C:13C1H         LINE#         1466
  C:13C4H         LINE#         1467
  C:13CAH         LINE#         1468
  C:13D0H         LINE#         1469
  C:13D2H         LINE#         1471
  C:13D2H         LINE#         1472
  C:13DBH         LINE#         1473
  C:13DBH         LINE#         1474
  C:13E3H         LINE#         1475
  C:13E9H         LINE#         1476
  C:13F2H         LINE#         1477
  C:13F2H         LINE#         1478
  C:13F2H         LINE#         1479
BL51 BANKED LINKER/LOCATER V6.22                                                      02/08/2018  14:09:45  PAGE 88


  C:13F2H         LINE#         1480
  C:13F2H         LINE#         1482
  C:13F2H         LINE#         1483
  C:13F2H         LINE#         1485
  C:13F2H         LINE#         1486
  C:13F2H         LINE#         1488
  C:13F2H         LINE#         1489
  -------         ENDPROC       BUS0RECDEAL
  -------         PROC          BUS0SENDDEAL
  -------         DO            
  X:0298H         SYMBOL        pstDataFreq
  X:029BH         SYMBOL        i
  -------         ENDDO         
  C:225CH         LINE#         1507
  C:225CH         LINE#         1508
  C:225CH         LINE#         1509
  C:226AH         LINE#         1512
  C:226EH         LINE#         1513
  C:2281H         LINE#         1514
  C:2283H         LINE#         1515
  C:2288H         LINE#         1521
  C:229BH         LINE#         1522
  C:229BH         LINE#         1523
  C:229BH         LINE#         1524
  C:22A1H         LINE#         1525
  C:22A1H         LINE#         1526
  C:22A8H         LINE#         1527
  C:22A8H         LINE#         1528
  C:22A8H         LINE#         1530
  C:22A8H         LINE#         1531
  C:22AAH         LINE#         1533
  C:22ADH         LINE#         1535
  C:22B0H         LINE#         1537
  C:22B2H         LINE#         1538
  C:22B3H         LINE#         1540
  C:22B3H         LINE#         1541
  C:22B9H         LINE#         1542
  C:22C3H         LINE#         1543
  C:22C3H         LINE#         1544
  C:22CAH         LINE#         1545
  C:22D2H         LINE#         1547
  C:22D5H         LINE#         1550
  C:22EDH         LINE#         1551
  C:22EDH         LINE#         1552
  C:22EDH         LINE#         1553
  C:2308H         LINE#         1554
  C:231DH         LINE#         1555
  C:231DH         LINE#         1556
  C:2336H         LINE#         1557
  C:2358H         LINE#         1558
  C:2360H         LINE#         1559
  C:2367H         LINE#         1560
  C:2369H         LINE#         1562
  C:2369H         LINE#         1563
  C:237EH         LINE#         1564
  C:2393H         LINE#         1565
  C:23A1H         LINE#         1566
BL51 BANKED LINKER/LOCATER V6.22                                                      02/08/2018  14:09:45  PAGE 89


  C:23A8H         LINE#         1567
  C:23A8H         LINE#         1568
  C:23B8H         LINE#         1569
  C:23BBH         LINE#         1570
  C:23BBH         LINE#         1571
  C:23D6H         LINE#         1572
  C:23EBH         LINE#         1573
  C:23EBH         LINE#         1574
  C:2404H         LINE#         1575
  C:2426H         LINE#         1576
  C:242EH         LINE#         1577
  C:2435H         LINE#         1578
  C:2437H         LINE#         1580
  C:2437H         LINE#         1581
  C:244CH         LINE#         1582
  C:2461H         LINE#         1583
  C:246FH         LINE#         1584
  C:2476H         LINE#         1585
  C:2476H         LINE#         1586
  C:2486H         LINE#         1587
  C:2489H         LINE#         1588
  C:2489H         LINE#         1589
  C:24A4H         LINE#         1590
  C:24B9H         LINE#         1591
  C:24B9H         LINE#         1592
  C:24D2H         LINE#         1593
  C:24F4H         LINE#         1594
  C:24FCH         LINE#         1595
  C:2503H         LINE#         1596
  C:2505H         LINE#         1598
  C:2505H         LINE#         1599
  C:251AH         LINE#         1600
  C:252FH         LINE#         1601
  C:253DH         LINE#         1602
  C:2544H         LINE#         1603
  C:2544H         LINE#         1604
  C:2557H         LINE#         1605
  C:2557H         LINE#         1606
  C:2557H         LINE#         1608
  C:2557H         LINE#         1611
  C:255DH         LINE#         1612
  C:2561H         LINE#         1613
  C:2580H         LINE#         1615
  C:2585H         LINE#         1617
  C:2597H         LINE#         1618
  C:259EH         LINE#         1619
  C:25A5H         LINE#         1621
  C:25AFH         LINE#         1622
  C:25B9H         LINE#         1623
  C:25C3H         LINE#         1625
  C:25CBH         LINE#         1626
  C:25D2H         LINE#         1627
  C:25DAH         LINE#         1628
  C:25E2H         LINE#         1630
  C:2609H         LINE#         1631
  C:2628H         LINE#         1634
  C:263BH         LINE#         1635
BL51 BANKED LINKER/LOCATER V6.22                                                      02/08/2018  14:09:45  PAGE 90


  C:2640H         LINE#         1636
  C:264AH         LINE#         1638
  C:264CH         LINE#         1639
  C:2652H         LINE#         1640
  C:2652H         LINE#         1642
  C:2652H         LINE#         1643
  C:2652H         LINE#         1645
  C:2652H         LINE#         1646
  -------         ENDPROC       BUS0SENDDEAL
  -------         PROC          BUS0MANAGE
  C:7C9CH         LINE#         1662
  C:7C9CH         LINE#         1663
  C:7C9CH         LINE#         1664
  C:7C9CH         LINE#         1665
  C:7C9CH         LINE#         1666
  C:7C9FH         LINE#         1667
  C:7C9FH         LINE#         1668
  C:7CA6H         LINE#         1669
  C:7CA6H         LINE#         1670
  C:7CA9H         LINE#         1671
  C:7CA9H         LINE#         1672
  C:7CB0H         LINE#         1673
  C:7CB0H         LINE#         1674
  C:7CB7H         LINE#         1677
  C:7CBAH         LINE#         1678
  -------         ENDPROC       BUS0MANAGE
  -------         PROC          TIMEROUTDEAL
  -------         DO            
  X:0298H         SYMBOL        i
  X:0299H         SYMBOL        pstDataFreq
  C:4385H         SYMBOL        TIMER0OUTDEAL
  -------         ENDDO         
  C:435DH         LINE#         1696
  C:435DH         LINE#         1697
  C:435DH         LINE#         1699
  C:436BH         LINE#         1700
  C:4371H         LINE#         1701
  C:4371H         LINE#         1702
  C:4373H         LINE#         1703
  C:4376H         LINE#         1704
  C:4376H         LINE#         1705
  C:437AH         LINE#         1706
  C:437AH         LINE#         1707
  C:437CH         LINE#         1708
  C:437CH         LINE#         1710
  C:437CH         LINE#         1711
  C:4382H         LINE#         1712
  C:4385H         LINE#         1713
  C:4385H         LINE#         1714
  C:4385H         LINE#         1715
  C:4388H         LINE#         1716
  C:4388H         LINE#         1717
  C:4390H         LINE#         1718
  C:4398H         LINE#         1719
  C:43A0H         LINE#         1720
  C:43A4H         LINE#         1721
  C:43ACH         LINE#         1722
BL51 BANKED LINKER/LOCATER V6.22                                                      02/08/2018  14:09:45  PAGE 91


  C:43B4H         LINE#         1723
  C:43BBH         LINE#         1724
  C:43BEH         LINE#         1726
  C:43BEH         LINE#         1727
  C:43C0H         LINE#         1729
  C:43C0H         LINE#         1730
  C:43C6H         LINE#         1731
  C:43C6H         LINE#         1732
  C:43C6H         LINE#         1733
  C:43C6H         LINE#         1734
  C:43C6H         LINE#         1735
  C:43CCH         LINE#         1736
  C:43CCH         LINE#         1737
  C:43D0H         LINE#         1738
  C:43D0H         LINE#         1739
  C:43D5H         LINE#         1740
  C:43DBH         LINE#         1741
  C:43DBH         LINE#         1742
  C:43DBH         LINE#         1744
  C:43E4H         LINE#         1745
  C:43E4H         LINE#         1746
  C:43E6H         LINE#         1747
  C:43ECH         LINE#         1748
  C:43F0H         LINE#         1749
  C:43F0H         LINE#         1750
  C:43F2H         LINE#         1751
  C:43F2H         LINE#         1752
  C:43F2H         LINE#         1754
  C:43FCH         LINE#         1755
  C:43FCH         LINE#         1756
  C:440AH         LINE#         1757
  C:440AH         LINE#         1758
  C:4414H         LINE#         1759
  C:4414H         LINE#         1760
  C:4417H         LINE#         1761
  C:4417H         LINE#         1762
  C:4417H         LINE#         1763
  C:4417H         LINE#         1782
  C:441DH         LINE#         1783
  C:441DH         LINE#         1784
  C:4424H         LINE#         1785
  C:4424H         LINE#         1786
  C:442DH         LINE#         1787
  C:442DH         LINE#         1788
  C:4431H         LINE#         1789
  C:4431H         LINE#         1791
  C:4437H         LINE#         1792
  C:4441H         LINE#         1793
  C:4441H         LINE#         1794
  C:4448H         LINE#         1795
  C:4450H         LINE#         1797
  C:4453H         LINE#         1799
  C:4459H         LINE#         1800
  C:4477H         LINE#         1801
  C:447CH         LINE#         1802
  C:4486H         LINE#         1804
  C:4488H         LINE#         1805
BL51 BANKED LINKER/LOCATER V6.22                                                      02/08/2018  14:09:45  PAGE 92


  C:448EH         LINE#         1806
  C:448FH         LINE#         1807
  C:4492H         LINE#         1808
  C:4492H         LINE#         1809
  C:4492H         LINE#         1810
  C:4492H         LINE#         1812
  C:4492H         LINE#         1813
  C:449AH         LINE#         1814
  C:449AH         LINE#         1815
  C:449DH         LINE#         1816
  C:449DH         LINE#         1817
  C:44A7H         LINE#         1818
  C:44A7H         LINE#         1819
  C:44ADH         LINE#         1820
  C:44B0H         LINE#         1821
  C:44B3H         LINE#         1822
  C:44B5H         LINE#         1823
  C:44B5H         LINE#         1824
  C:44B5H         LINE#         1825
  C:44B7H         LINE#         1827
  C:44BAH         LINE#         1828
  C:44BAH         LINE#         1829
  C:44C4H         LINE#         1830
  C:44C4H         LINE#         1831
  C:44CAH         LINE#         1832
  C:44CDH         LINE#         1833
  C:44D0H         LINE#         1834
  C:44D2H         LINE#         1835
  C:44D2H         LINE#         1836
  C:44D2H         LINE#         1838
  C:44D4H         LINE#         1840
  C:44D7H         LINE#         1841
  C:44D7H         LINE#         1842
  C:44E1H         LINE#         1843
  C:44E1H         LINE#         1844
  C:44E7H         LINE#         1845
  C:44EAH         LINE#         1846
  C:44EDH         LINE#         1847
  C:44EFH         LINE#         1848
  C:44F5H         LINE#         1849
  C:44F5H         LINE#         1850
  C:44F5H         LINE#         1851
  C:44F5H         LINE#         1852
  C:44F5H         LINE#         1854
  -------         ENDPROC       TIMEROUTDEAL
  -------         PROC          TIMEROUTMANAGER
  C:7E80H         LINE#         1870
  C:7E80H         LINE#         1871
  C:7E80H         LINE#         1872
  C:7E80H         LINE#         1873
  C:7E80H         LINE#         1874
  C:7E87H         LINE#         1875
  C:7E8BH         LINE#         1876
  C:7E8BH         LINE#         1877
  C:7E8BH         LINE#         1878
  C:7E8BH         LINE#         1880
  C:7E8BH         LINE#         1881
BL51 BANKED LINKER/LOCATER V6.22                                                      02/08/2018  14:09:45  PAGE 93


  C:7E92H         LINE#         1882
  C:7E92H         LINE#         1884
  C:7E95H         LINE#         1885
  -------         ENDPROC       TIMEROUTMANAGER
  -------         ENDMOD        SINGLEBUS

  -------         MODULE        SPI
  C:0000H         SYMBOL        _ICE_DUMMY_
  D:0092H         PUBLIC        P1M0
  D:0091H         PUBLIC        P1M1
  D:0080H         PUBLIC        P0
  D:0090H         PUBLIC        P1
  D:00A0H         PUBLIC        P2
  D:00B0H         PUBLIC        P3
  D:00C0H         PUBLIC        P4
  D:00C8H         PUBLIC        P5
  B:00A8H.7       PUBLIC        EA
  D:00CEH         PUBLIC        SPCTL
  C:7CFBH         PUBLIC        EPH1660MasterSPI
  D:00A8H         PUBLIC        IE
  D:00B8H         PUBLIC        IP
  C:5E29H         PUBLIC        SPIInt
  B:00C8H.2       PUBLIC        SPI_CMD
  B:0090H.4       PUBLIC        EPH1660_CS
  D:00D8H         PUBLIC        CCON
  B:00C0H.4       PUBLIC        ADS7843_CS
  B:0090H.7       PUBLIC        SCLK
  D:0098H         PUBLIC        SCON
  D:0088H         PUBLIC        TCON
  B:0090H.5       PUBLIC        MOSI
  D:00AFH         PUBLIC        IE2
  C:7CBCH         PUBLIC        MCUMasterSPI
  B:00C0H.1       PUBLIC        GT23L_CS
  D:00E0H         PUBLIC        ACC
  B:0090H.3       PUBLIC        WKICOM
  D:00CDH         PUBLIC        SPSTAT
  C:800DH         PUBLIC        _SPI_WriteByte
  B:00C0H.5       PUBLIC        SST25VF_CS
  D:00D0H         PUBLIC        PSW
  D:00CFH         PUBLIC        SPDAT
  -------         PROC          MCUMASTERSPI
  C:7CBCH         LINE#         45
  C:7CBCH         LINE#         46
  C:7CBCH         LINE#         48
  C:7CBEH         LINE#         49
  C:7CC0H         LINE#         50
  C:7CC2H         LINE#         51
  C:7CC4H         LINE#         53
  C:7CC7H         LINE#         55
  C:7CCAH         LINE#         56
  C:7CCDH         LINE#         57
  C:7CCFH         LINE#         58
  C:7CD2H         LINE#         61
  C:7CD5H         LINE#         63
  C:7CD8H         LINE#         64
  C:7CDBH         LINE#         65
  -------         ENDPROC       MCUMASTERSPI
BL51 BANKED LINKER/LOCATER V6.22                                                      02/08/2018  14:09:45  PAGE 94


  -------         PROC          _SPI_WRITEBYTE
  D:0007H         SYMBOL        dat
  C:800DH         LINE#         104
  C:800DH         LINE#         105
  C:800DH         LINE#         106
  C:800FH         LINE#         107
  C:8014H         LINE#         108
  C:8017H         LINE#         109
  C:8019H         LINE#         110
  -------         ENDPROC       _SPI_WRITEBYTE
  -------         PROC          EPH1660MASTERSPI
  C:7CFBH         LINE#         114
  C:7CFBH         LINE#         115
  C:7CFBH         LINE#         117
  C:7CFDH         LINE#         118
  C:7CFFH         LINE#         119
  C:7D01H         LINE#         120
  C:7D03H         LINE#         125
  C:7D05H         LINE#         131
  C:7D07H         LINE#         135
  C:7D0AH         LINE#         138
  C:7D0DH         LINE#         139
  C:7D0FH         LINE#         140
  C:7D11H         LINE#         141
  C:7D14H         LINE#         158
  C:7D17H         LINE#         159
  C:7D19H         LINE#         160
  -------         ENDPROC       EPH1660MASTERSPI
  -------         PROC          SPIINT
  -------         DO            
  C:5ED3H         SYMBOL        MCUSndCmdFinish
  -------         ENDDO         
  C:5E29H         LINE#         164
  C:5E3AH         LINE#         166
  C:5E3CH         LINE#         167
  C:5E3FH         LINE#         168
  C:5E45H         LINE#         169
  C:5E48H         LINE#         170
  C:5E48H         LINE#         171
  C:5E4BH         LINE#         172
  C:5E4BH         LINE#         173
  C:5E55H         LINE#         174
  C:5E64H         LINE#         175
  C:5E6AH         LINE#         176
  C:5E6FH         LINE#         177
  C:5E6FH         LINE#         179
  C:5E78H         LINE#         180
  C:5E7AH         LINE#         182
  C:5E80H         LINE#         183
  C:5E94H         LINE#         184
  C:5E94H         LINE#         185
  C:5E96H         LINE#         186
  C:5E97H         LINE#         187
  C:5E97H         LINE#         188
  C:5E97H         LINE#         190
  C:5E99H         LINE#         191
  C:5E9EH         LINE#         193
BL51 BANKED LINKER/LOCATER V6.22                                                      02/08/2018  14:09:45  PAGE 95


  C:5EA0H         LINE#         195
  C:5EA0H         LINE#         196
  C:5EA6H         LINE#         197
  C:5EA6H         LINE#         198
  C:5EA8H         LINE#         199
  C:5EA8H         LINE#         201
  C:5EA8H         LINE#         202
  C:5EAEH         LINE#         203
  C:5EB4H         LINE#         204
  C:5EBAH         LINE#         205
  C:5EBAH         LINE#         206
  C:5ED1H         LINE#         207
  C:5ED3H         LINE#         209
  C:5ED3H         LINE#         210
  C:5ED3H         LINE#         211
  C:5ED5H         LINE#         212
  C:5ED7H         LINE#         213
  C:5ED9H         LINE#         214
  C:5ED9H         LINE#         215
  C:5ED9H         LINE#         216
  C:5ED9H         LINE#         218
  C:5EDBH         LINE#         219
  -------         ENDPROC       SPIINT
  -------         ENDMOD        SPI

  -------         MODULE        UART
  C:0000H         SYMBOL        _ICE_DUMMY_
  D:0080H         PUBLIC        P0
  D:00B2H         PUBLIC        P3M0
  D:0090H         PUBLIC        P1
  D:00B1H         PUBLIC        P3M1
  D:00A0H         PUBLIC        P2
  D:00B0H         PUBLIC        P3
  C:64CAH         PUBLIC        _UsartInitConfig
  D:00C0H         PUBLIC        P4
  D:00C8H         PUBLIC        P5
  B:00A8H.7       PUBLIC        EA
  B:0028H.0       PUBLIC        bBus0AckOk
  X:0000H         PUBLIC        Frame_No
  X:0001H         PUBLIC        stUsartCfg
  D:00A8H         PUBLIC        IE
  C:551BH         PUBLIC        _SectorDataCopy
  C:6AB1H         PUBLIC        _CheckPsk
  C:562AH         PUBLIC        _checkFormData
  X:0010H         PUBLIC        uiBedFaceFormLen
  C:5094H         PUBLIC        _crcCheckData
  X:0012H         PUBLIC        CheckSum
  B:00A8H.4       PUBLIC        ES
  B:0028H.1       PUBLIC        bDispBedForm
  D:00B8H         PUBLIC        IP
  B:0098H.0       PUBLIC        RI
  B:0098H.1       PUBLIC        TI
  D:00D8H         PUBLIC        CCON
  B:0028H.2       PUBLIC        bUsart0RecFinish
  C:681EH         PUBLIC        UsartInit
  D:0099H         PUBLIC        SBUF
  D:0087H         PUBLIC        PCON
BL51 BANKED LINKER/LOCATER V6.22                                                      02/08/2018  14:09:45  PAGE 96


  D:0098H         PUBLIC        SCON
  C:7918H         PUBLIC        _IsSingleItem
  B:0028H.3       PUBLIC        bRS485DataError
  D:0088H         PUBLIC        TCON
  D:008EH         PUBLIC        AUXR
  D:00E0H         PUBLIC        ACC
  B:0028H.4       PUBLIC        bBus0AckFail
  C:8027H         PUBLIC        UsartManager
  C:004EH         PUBLIC        Usart0RecDeal
  D:00C1H         PUBLIC        WDT_CONTR
  X:0013H         PUBLIC        byUsart0RecBuf
  B:0028H.5       PUBLIC        bUsartRecedPromptData
  B:0028H.6       PUBLIC        bUsartRecedDietData
  B:0028H.7       PUBLIC        bUsartRecedPrescriptionData
  X:00E7H         PUBLIC        byUsart0SndBuf
  B:0098H.4       PUBLIC        REN
  D:009CH         PUBLIC        BRT
  C:6E81H         PUBLIC        _GetPskCrc
  C:3B63H         PUBLIC        UART0
  C:4906H         PUBLIC        _StoreDataCheck
  C:5A19H         PUBLIC        _checkFaceData
  B:00B0H.1       PUBLIC        TXD
  X:0133H         PUBLIC        Frame_Type
  B:0029H.0       PUBLIC        bDispBedFace
  D:00D0H         PUBLIC        PSW
  X:0134H         PUBLIC        uiBedFaceDataLen
  -------         PROC          _CHECKFORMDATA
  X:029EH         SYMBOL        datalen
  -------         DO            
  X:02A0H         SYMBOL        dataaddr
  X:02A4H         SYMBOL        stItemForm
  -------         ENDDO         
  C:562AH         LINE#         56
  C:5634H         LINE#         57
  C:5634H         LINE#         58
  C:563CH         LINE#         60
  C:564EH         LINE#         61
  C:564EH         LINE#         62
  C:566BH         LINE#         63
  C:566BH         LINE#         64
  C:567FH         LINE#         65
  C:567FH         LINE#         66
  C:56A0H         LINE#         67
  C:56F3H         LINE#         69
  C:56F3H         LINE#         71
  C:56F3H         LINE#         72
  C:5712H         LINE#         73
  C:5720H         LINE#         74
  C:5720H         LINE#         75
  C:5723H         LINE#         76
  C:572DH         LINE#         77
  C:572DH         LINE#         78
  C:5730H         LINE#         79
  C:5730H         LINE#         80
  C:5733H         LINE#         81
  C:5733H         LINE#         82
  C:5736H         LINE#         83
BL51 BANKED LINKER/LOCATER V6.22                                                      02/08/2018  14:09:45  PAGE 97


  C:5736H         LINE#         85
  C:5738H         LINE#         87
  -------         ENDPROC       _CHECKFORMDATA
  -------         PROC          _CHECKFACEDATA
  X:029EH         SYMBOL        datalen
  -------         DO            
  X:02A0H         SYMBOL        dataaddr
  X:02A4H         SYMBOL        ItemData
  -------         ENDDO         
  C:5A19H         LINE#         90
  C:5A23H         LINE#         91
  C:5A23H         LINE#         92
  C:5A2BH         LINE#         94
  C:5A39H         LINE#         96
  C:5A4DH         LINE#         97
  C:5A4DH         LINE#         98
  C:5A6EH         LINE#         99
  C:5A7AH         LINE#         101
  C:5AA7H         LINE#         103
  C:5AC9H         LINE#         105
  C:5ADEH         LINE#         107
  C:5AE4H         LINE#         109
  C:5AFAH         LINE#         111
  C:5AFAH         LINE#         112
  -------         ENDPROC       _CHECKFACEDATA
  -------         PROC          L?0257
  -------         ENDPROC       L?0257
  -------         PROC          _CRCCHECKDATA
  X:029EH         SYMBOL        addr
  X:02A2H         SYMBOL        length
  X:02A4H         SYMBOL        crc
  -------         DO            
  X:02A5H         SYMBOL        i
  X:02A6H         SYMBOL        crcSum
  -------         ENDDO         
  C:5094H         LINE#         116
  C:509AH         LINE#         117
  C:509AH         LINE#         119
  C:509FH         LINE#         121
  C:50A3H         LINE#         123
  C:50A3H         LINE#         124
  C:50B2H         LINE#         125
  C:50B2H         LINE#         126
  C:50D7H         LINE#         127
  C:50F0H         LINE#         128
  C:50F0H         LINE#         129
  C:5102H         LINE#         130
  C:510AH         LINE#         131
  C:511DH         LINE#         132
  C:5122H         LINE#         133
  C:5125H         LINE#         134
  C:5125H         LINE#         136
  C:5125H         LINE#         138
  C:5146H         LINE#         139
  C:5155H         LINE#         140
  C:5155H         LINE#         141
  C:5167H         LINE#         142
BL51 BANKED LINKER/LOCATER V6.22                                                      02/08/2018  14:09:45  PAGE 98


  C:516FH         LINE#         143
  C:518EH         LINE#         144
  C:519CH         LINE#         145
  C:519CH         LINE#         146
  C:51AEH         LINE#         147
  C:51B1H         LINE#         148
  C:51B6H         LINE#         149
  C:51BBH         LINE#         150
  -------         ENDPROC       _CRCCHECKDATA
  -------         PROC          L?0258
  -------         ENDPROC       L?0258
  -------         PROC          _SECTORDATACOPY
  X:029EH         SYMBOL        dst
  X:02A2H         SYMBOL        src
  X:02A6H         SYMBOL        length
  C:551BH         LINE#         153
  C:5521H         LINE#         154
  C:5521H         LINE#         155
  C:5525H         LINE#         157
  C:5525H         LINE#         158
  C:5534H         LINE#         159
  C:5534H         LINE#         160
  C:5559H         LINE#         161
  C:557FH         LINE#         162
  C:5582H         LINE#         163
  C:5582H         LINE#         166
  C:5582H         LINE#         168
  C:55A3H         LINE#         169
  C:55C3H         LINE#         170
  C:55E2H         LINE#         171
  C:5601H         LINE#         172
  C:560FH         LINE#         174
  C:560FH         LINE#         175
  C:5621H         LINE#         176
  C:5624H         LINE#         177
  C:5629H         LINE#         179
  -------         ENDPROC       _SECTORDATACOPY
  -------         PROC          L?0259
  -------         ENDPROC       L?0259
  -------         PROC          _STOREDATACHECK
  X:029EH         SYMBOL        dst
  X:02A2H         SYMBOL        length
  -------         DO            
  X:02A4H         SYMBOL        i
  X:02A5H         SYMBOL        crc
  -------         ENDDO         
  C:4906H         LINE#         182
  C:490CH         LINE#         183
  C:490CH         LINE#         185
  C:4911H         LINE#         186
  C:4915H         LINE#         187
  C:4915H         LINE#         188
  C:4915H         LINE#         189
  C:4927H         LINE#         190
  C:4927H         LINE#         191
  C:494CH         LINE#         192
  C:497FH         LINE#         194
BL51 BANKED LINKER/LOCATER V6.22                                                      02/08/2018  14:09:45  PAGE 99


  C:49A8H         LINE#         195
  C:49C8H         LINE#         196
  C:49CDH         LINE#         197
  C:49D2H         LINE#         198
  C:49D8H         LINE#         199
  C:49D8H         LINE#         201
  C:49D8H         LINE#         202
  C:49F9H         LINE#         203
  C:4A22H         LINE#         204
  C:4A41H         LINE#         205
  C:4A4FH         LINE#         206
  C:4A4FH         LINE#         207
  -------         ENDPROC       _STOREDATACHECK
  -------         PROC          _ISSINGLEITEM
  D:0001H         SYMBOL        startaddr
  D:0005H         SYMBOL        length
  C:7918H         LINE#         210
  C:7918H         LINE#         211
  C:7918H         LINE#         212
  C:792CH         LINE#         213
  C:792CH         LINE#         214
  C:7933H         LINE#         215
  C:7937H         LINE#         217
  C:7947H         LINE#         218
  C:794AH         LINE#         219
  C:794AH         LINE#         220
  C:794CH         LINE#         221
  -------         ENDPROC       _ISSINGLEITEM
  -------         PROC          USARTINIT
  C:681EH         LINE#         239
  C:681EH         LINE#         240
  C:681EH         LINE#         241
  C:6821H         LINE#         244
  C:6824H         LINE#         245
  C:6827H         LINE#         246
  C:6829H         LINE#         249
  C:6833H         LINE#         250
  C:683BH         LINE#         251
  C:683EH         LINE#         252
  C:6842H         LINE#         253
  C:6846H         LINE#         254
  C:6848H         LINE#         255
  C:6854H         LINE#         257
  C:6857H         LINE#         258
  C:685AH         LINE#         259
  C:685DH         LINE#         261
  C:686DH         LINE#         262
  C:686DH         LINE#         263
  C:6870H         LINE#         264
  C:687CH         LINE#         267
  C:687EH         LINE#         269
  C:687EH         LINE#         270
  C:6881H         LINE#         271
  C:689CH         LINE#         272
  C:689CH         LINE#         276
  C:689FH         LINE#         278
  C:68A1H         LINE#         279
BL51 BANKED LINKER/LOCATER V6.22                                                      02/08/2018  14:09:45  PAGE 100


  C:68A3H         LINE#         280
  C:68A5H         LINE#         281
  C:68A7H         LINE#         283
  -------         ENDPROC       USARTINIT
  -------         PROC          _USARTINITCONFIG
  X:030EH         SYMBOL        boudRate
  C:64CAH         LINE#         287
  C:64D2H         LINE#         288
  C:64D2H         LINE#         289
  C:64D5H         LINE#         292
  C:64D8H         LINE#         293
  C:64DBH         LINE#         294
  C:64DDH         LINE#         297
  C:64E7H         LINE#         298
  C:64EFH         LINE#         299
  C:64F2H         LINE#         300
  C:64F6H         LINE#         301
  C:64FAH         LINE#         302
  C:64FCH         LINE#         303
  C:6508H         LINE#         305
  C:650BH         LINE#         306
  C:650EH         LINE#         307
  C:6511H         LINE#         309
  C:6521H         LINE#         310
  C:6521H         LINE#         311
  C:6524H         LINE#         312
  C:6530H         LINE#         315
  C:6532H         LINE#         317
  C:6532H         LINE#         318
  C:6535H         LINE#         319
  C:6550H         LINE#         320
  C:6550H         LINE#         322
  C:6553H         LINE#         323
  C:6555H         LINE#         324
  C:6557H         LINE#         325
  C:6559H         LINE#         326
  C:655BH         LINE#         327
  -------         ENDPROC       _USARTINITCONFIG
  -------         PROC          UART0
  -------         DO            
  X:0293H         SYMBOL        byTemp
  X:0294H         SYMBOL        pstDataFreq
  -------         ENDDO         
  C:3B63H         LINE#         347
  C:3B82H         LINE#         352
  C:3B88H         LINE#         353
  C:3B88H         LINE#         354
  C:3B8AH         LINE#         355
  C:3B90H         LINE#         356
  C:3B9AH         LINE#         357
  C:3B9AH         LINE#         358
  C:3BA0H         LINE#         359
  C:3BA0H         LINE#         360
  C:3BA3H         LINE#         361
  C:3BA6H         LINE#         363
  C:3BA6H         LINE#         364
  C:3BA6H         LINE#         365
BL51 BANKED LINKER/LOCATER V6.22                                                      02/08/2018  14:09:45  PAGE 101


  C:3BACH         LINE#         366
  C:3BC9H         LINE#         367
  C:3BE3H         LINE#         368
  C:3BE3H         LINE#         369
  C:3BE3H         LINE#         370
  C:3BE7H         LINE#         371
  C:3BE7H         LINE#         372
  C:3BEDH         LINE#         374
  C:3BF3H         LINE#         375
  C:3BF6H         LINE#         377
  C:3BF6H         LINE#         378
  C:3BFAH         LINE#         379
  C:3BFAH         LINE#         380
  C:3BFDH         LINE#         381
  C:3BFDH         LINE#         382
  C:3C08H         LINE#         383
  C:3C08H         LINE#         385
  C:3C19H         LINE#         386
  C:3C2AH         LINE#         387
  C:3C2AH         LINE#         388
  C:3C2EH         LINE#         389
  C:3C30H         LINE#         392
  C:3C30H         LINE#         394
  C:3C36H         LINE#         395
  C:3C36H         LINE#         396
  C:3C52H         LINE#         397
  C:3C52H         LINE#         398
  C:3C56H         LINE#         399
  C:3C58H         LINE#         401
  C:3C58H         LINE#         402
  C:3C58H         LINE#         404
  C:3C74H         LINE#         405
  C:3C74H         LINE#         406
  C:3C79H         LINE#         407
  C:3C80H         LINE#         409
  C:3C80H         LINE#         411
  C:3C86H         LINE#         412
  C:3C8BH         LINE#         413
  C:3C8BH         LINE#         414
  C:3C8DH         LINE#         415
  C:3C8DH         LINE#         416
  C:3C93H         LINE#         417
  C:3C98H         LINE#         418
  C:3C98H         LINE#         419
  C:3CA3H         LINE#         420
  C:3CA5H         LINE#         421
  C:3CA8H         LINE#         422
  C:3CA8H         LINE#         424
  C:3CBAH         LINE#         425
  C:3CCAH         LINE#         426
  C:3CCAH         LINE#         427
  C:3CCDH         LINE#         428
  C:3CDBH         LINE#         429
  C:3CDDH         LINE#         431
  C:3CDDH         LINE#         432
  C:3CDFH         LINE#         433
  C:3CE0H         LINE#         434
BL51 BANKED LINKER/LOCATER V6.22                                                      02/08/2018  14:09:45  PAGE 102


  C:3CE0H         LINE#         435
  C:3CE0H         LINE#         436
  C:3CE2H         LINE#         437
  C:3CE2H         LINE#         438
  C:3CF0H         LINE#         439
  C:3CF0H         LINE#         440
  C:3CF7H         LINE#         441
  C:3CF7H         LINE#         442
  C:3CF9H         LINE#         443
  C:3CF9H         LINE#         444
  C:3CFEH         LINE#         445
  C:3CFFH         LINE#         446
  C:3CFFH         LINE#         447
  C:3D01H         LINE#         448
  C:3D01H         LINE#         449
  C:3D06H         LINE#         450
  C:3D0AH         LINE#         451
  C:3D0AH         LINE#         452
  C:3D0AH         LINE#         453
  C:3D0AH         LINE#         454
  C:3D0DH         LINE#         455
  C:3D0DH         LINE#         456
  C:3D0FH         LINE#         458
  C:3D1DH         LINE#         459
  C:3D2BH         LINE#         460
  C:3D39H         LINE#         461
  C:3D43H         LINE#         462
  C:3D43H         LINE#         464
  C:3D5CH         LINE#         465
  C:3D5EH         LINE#         467
  C:3D5EH         LINE#         468
  C:3D7AH         LINE#         469
  C:3D7AH         LINE#         470
  C:3D7AH         LINE#         471
  C:3D7AH         LINE#         472
  C:3D7CH         LINE#         474
  C:3D7CH         LINE#         475
  C:3D7CH         LINE#         476
  C:3D7CH         LINE#         477
  C:3D82H         LINE#         479
  C:3D82H         LINE#         480
  C:3D82H         LINE#         481
  C:3D82H         LINE#         482
  C:3D82H         LINE#         483
  -------         ENDPROC       UART0
  -------         PROC          _GETPSKCRC
  X:02A0H         SYMBOL        pstDataFreq
  -------         DO            
  X:02A3H         SYMBOL        pbyData
  X:02A6H         SYMBOL        uiLen
  D:0005H         SYMBOL        byCrc
  -------         ENDDO         
  C:6E81H         LINE#         500
  C:6E8CH         LINE#         501
  C:6E8CH         LINE#         504
  C:6E8EH         LINE#         507
  C:6E9EH         LINE#         508
BL51 BANKED LINKER/LOCATER V6.22                                                      02/08/2018  14:09:45  PAGE 103


  C:6EBCH         LINE#         509
  C:6ECAH         LINE#         510
  C:6ECAH         LINE#         511
  C:6EDFH         LINE#         512
  C:6EE1H         LINE#         513
  C:6EE3H         LINE#         514
  -------         ENDPROC       _GETPSKCRC
  -------         PROC          _CHECKPSK
  X:029EH         SYMBOL        pstDataFreq
  -------         DO            
  X:02A1H         SYMBOL        pbyData
  X:02A4H         SYMBOL        uiLen
  D:0005H         SYMBOL        byCrc
  -------         ENDDO         
  C:6AB1H         LINE#         530
  C:6ABCH         LINE#         531
  C:6ABCH         LINE#         534
  C:6ABEH         LINE#         537
  C:6ACEH         LINE#         538
  C:6AECH         LINE#         539
  C:6AFAH         LINE#         540
  C:6AFAH         LINE#         541
  C:6B0FH         LINE#         542
  C:6B11H         LINE#         543
  C:6B22H         LINE#         544
  C:6B22H         LINE#         545
  C:6B25H         LINE#         546
  C:6B25H         LINE#         547
  C:6B27H         LINE#         548
  -------         ENDPROC       _CHECKPSK
  -------         PROC          USART0RECDEAL
  -------         DO            
  X:0298H         SYMBOL        pstDataFreq
  X:029BH         SYMBOL        temp
  X:029CH         SYMBOL        uiDataLen
  C:044FH         SYMBOL        usart0RecDisp
  C:0A75H         SYMBOL        usart0RecFailRet
  C:0AD0H         SYMBOL        Usart0RecDealRet
  -------         ENDDO         
  C:004EH         LINE#         565
  C:004EH         LINE#         566
  C:004EH         LINE#         572
  C:0051H         LINE#         573
  C:0066H         LINE#         574
  C:0068H         LINE#         576
  C:0076H         LINE#         580
  C:007CH         LINE#         581
  C:007CH         LINE#         582
  C:0095H         LINE#         583
  C:0097H         LINE#         585
  C:0097H         LINE#         586
  C:009BH         LINE#         587
  C:009BH         LINE#         588
  C:00A5H         LINE#         589
  C:00A5H         LINE#         590
  C:00A5H         LINE#         591
  C:00A7H         LINE#         592
BL51 BANKED LINKER/LOCATER V6.22                                                      02/08/2018  14:09:45  PAGE 104


  C:00ADH         LINE#         593
  C:00ADH         LINE#         594
  C:00ADH         LINE#         595
  C:00AFH         LINE#         598
  C:00AFH         LINE#         599
  C:00AFH         LINE#         600
  C:00B1H         LINE#         602
  C:00B1H         LINE#         604
  C:00C6H         LINE#         605
  C:00D0H         LINE#         606
  C:00DAH         LINE#         607
  C:00E5H         LINE#         608
  C:00E5H         LINE#         609
  C:0109H         LINE#         612
  C:0111H         LINE#         613
  C:0117H         LINE#         614
  C:0119H         LINE#         615
  C:011EH         LINE#         616
  C:011EH         LINE#         619
  C:0128H         LINE#         620
  C:0128H         LINE#         622
  C:0130H         LINE#         623
  C:0138H         LINE#         624
  C:0140H         LINE#         627
  C:0152H         LINE#         628
  C:0152H         LINE#         629
  C:0163H         LINE#         630
  C:0163H         LINE#         631
  C:0169H         LINE#         632
  C:0169H         LINE#         633
  C:016BH         LINE#         635
  C:016EH         LINE#         637
  C:016EH         LINE#         639
  C:0176H         LINE#         640
  C:0176H         LINE#         641
  C:017CH         LINE#         642
  C:0185H         LINE#         644
  C:0185H         LINE#         645
  C:0187H         LINE#         646
  C:018CH         LINE#         647
  C:0192H         LINE#         648
  C:0192H         LINE#         649
  C:0195H         LINE#         653
  C:0195H         LINE#         655
  C:0198H         LINE#         656
  C:01A2H         LINE#         659
  C:01AAH         LINE#         660
  C:01AAH         LINE#         661
  C:01ACH         LINE#         662
  C:01B1H         LINE#         663
  C:01B9H         LINE#         664
  C:01B9H         LINE#         666
  C:01BFH         LINE#         667
  C:01BFH         LINE#         669
  C:01D7H         LINE#         670
  C:01D7H         LINE#         672
  C:01E0H         LINE#         673
BL51 BANKED LINKER/LOCATER V6.22                                                      02/08/2018  14:09:45  PAGE 105


  C:01E0H         LINE#         675
  C:01E8H         LINE#         676
  C:01E8H         LINE#         679
  C:0204H         LINE#         680
  C:0213H         LINE#         681
  C:0213H         LINE#         682
  C:022BH         LINE#         683
  C:0233H         LINE#         685
  C:0239H         LINE#         686
  C:0241H         LINE#         687
  C:0266H         LINE#         688
  C:027AH         LINE#         690
  C:027DH         LINE#         693
  C:027DH         LINE#         699
  C:0294H         LINE#         700
  C:0294H         LINE#         701
  C:02A3H         LINE#         702
  C:02A3H         LINE#         703
  C:02A9H         LINE#         705
  C:02B5H         LINE#         706
  C:02B5H         LINE#         708
  C:02DFH         LINE#         709
  C:02EEH         LINE#         710
  C:02EEH         LINE#         711
  C:0306H         LINE#         712
  C:030EH         LINE#         714
  C:0348H         LINE#         715
  C:0362H         LINE#         716
  C:0364H         LINE#         717
  C:0366H         LINE#         719
  C:0368H         LINE#         720
  C:036AH         LINE#         721
  C:036CH         LINE#         723
  C:036EH         LINE#         725
  C:036EH         LINE#         727
  C:0377H         LINE#         728
  C:0377H         LINE#         729
  C:037DH         LINE#         730
  C:037DH         LINE#         731
  C:038EH         LINE#         732
  C:038EH         LINE#         733
  C:03B2H         LINE#         734
  C:03B2H         LINE#         736
  C:03CBH         LINE#         737
  C:03E9H         LINE#         738
  C:03F9H         LINE#         739
  C:03FCH         LINE#         740
  C:0424H         LINE#         742
  C:0440H         LINE#         743
  C:0440H         LINE#         744
  C:044FH         LINE#         745
  C:044FH         LINE#         746
  C:0451H         LINE#         747
  C:0453H         LINE#         748
  C:045AH         LINE#         749
  C:045DH         LINE#         750
  C:045FH         LINE#         751
BL51 BANKED LINKER/LOCATER V6.22                                                      02/08/2018  14:09:45  PAGE 106


  C:0462H         LINE#         752
  C:0464H         LINE#         753
  C:0467H         LINE#         754
  C:0469H         LINE#         755
  C:046CH         LINE#         757
  C:046CH         LINE#         758
  C:046EH         LINE#         759
  C:0471H         LINE#         760
  C:0471H         LINE#         761
  C:0471H         LINE#         762
  C:0471H         LINE#         763
  C:0471H         LINE#         765
  C:0489H         LINE#         766
  C:0489H         LINE#         767
  C:04A2H         LINE#         768
  C:04A2H         LINE#         769
  C:04A2H         LINE#         770
  C:04A9H         LINE#         771
  C:04A9H         LINE#         772
  C:04AFH         LINE#         773
  C:04B4H         LINE#         777
  C:04D9H         LINE#         779
  C:04EDH         LINE#         781
  C:04F0H         LINE#         783
  C:04F0H         LINE#         784
  C:0504H         LINE#         785
  C:0504H         LINE#         786
  C:0510H         LINE#         787
  C:0510H         LINE#         788
  C:0516H         LINE#         789
  C:0524H         LINE#         790
  C:0524H         LINE#         791
  C:0556H         LINE#         792
  C:0570H         LINE#         793
  C:0572H         LINE#         794
  C:0574H         LINE#         795
  C:0576H         LINE#         796
  C:0578H         LINE#         797
  C:057AH         LINE#         798
  C:057CH         LINE#         799
  C:057CH         LINE#         801
  C:0587H         LINE#         802
  C:0587H         LINE#         803
  C:058AH         LINE#         804
  C:058AH         LINE#         805
  C:05A3H         LINE#         806
  C:05A5H         LINE#         807
  C:05A7H         LINE#         808
  C:05AAH         LINE#         810
  C:05AAH         LINE#         811
  C:05ACH         LINE#         812
  C:05AFH         LINE#         813
  C:05AFH         LINE#         814
  C:05AFH         LINE#         815
  C:05AFH         LINE#         817
  C:05AFH         LINE#         818
  C:05B7H         LINE#         819
BL51 BANKED LINKER/LOCATER V6.22                                                      02/08/2018  14:09:45  PAGE 107


  C:05B7H         LINE#         820
  C:05BCH         LINE#         821
  C:05C4H         LINE#         825
  C:05E9H         LINE#         826
  C:05FDH         LINE#         827
  C:0600H         LINE#         829
  C:0600H         LINE#         830
  C:0614H         LINE#         831
  C:0614H         LINE#         832
  C:0620H         LINE#         833
  C:0620H         LINE#         834
  C:0626H         LINE#         836
  C:0634H         LINE#         837
  C:0634H         LINE#         838
  C:0667H         LINE#         839
  C:0681H         LINE#         840
  C:0683H         LINE#         841
  C:0685H         LINE#         842
  C:0687H         LINE#         843
  C:0689H         LINE#         844
  C:068BH         LINE#         845
  C:068DH         LINE#         846
  C:068DH         LINE#         848
  C:0698H         LINE#         849
  C:0698H         LINE#         850
  C:069BH         LINE#         851
  C:069BH         LINE#         852
  C:06B4H         LINE#         853
  C:06B6H         LINE#         854
  C:06B8H         LINE#         855
  C:06BBH         LINE#         857
  C:06BBH         LINE#         858
  C:06BDH         LINE#         859
  C:06C0H         LINE#         860
  C:06C0H         LINE#         861
  C:06C0H         LINE#         862
  C:06C0H         LINE#         863
  C:06C0H         LINE#         864
  C:06C8H         LINE#         865
  C:06C8H         LINE#         866
  C:06CDH         LINE#         867
  C:06D5H         LINE#         871
  C:06FAH         LINE#         872
  C:070EH         LINE#         873
  C:0711H         LINE#         875
  C:0711H         LINE#         876
  C:0725H         LINE#         877
  C:0725H         LINE#         878
  C:0731H         LINE#         879
  C:0731H         LINE#         880
  C:0737H         LINE#         882
  C:0745H         LINE#         883
  C:0745H         LINE#         884
  C:0777H         LINE#         885
  C:0791H         LINE#         886
  C:0793H         LINE#         887
  C:0795H         LINE#         888
BL51 BANKED LINKER/LOCATER V6.22                                                      02/08/2018  14:09:45  PAGE 108


  C:0797H         LINE#         889
  C:0799H         LINE#         890
  C:079BH         LINE#         891
  C:079DH         LINE#         892
  C:079DH         LINE#         894
  C:07A8H         LINE#         895
  C:07A8H         LINE#         896
  C:07ABH         LINE#         897
  C:07ABH         LINE#         898
  C:07C4H         LINE#         899
  C:07C6H         LINE#         900
  C:07C8H         LINE#         901
  C:07CBH         LINE#         903
  C:07CBH         LINE#         904
  C:07CDH         LINE#         905
  C:07D0H         LINE#         906
  C:07D0H         LINE#         907
  C:07D0H         LINE#         908
  C:07D0H         LINE#         910
  C:07D0H         LINE#         911
  C:07D0H         LINE#         912
  C:07E8H         LINE#         913
  C:07E8H         LINE#         914
  C:07F1H         LINE#         915
  C:07F1H         LINE#         916
  C:07FAH         LINE#         917
  C:07FAH         LINE#         919
  C:0816H         LINE#         920
  C:0825H         LINE#         921
  C:0825H         LINE#         922
  C:083DH         LINE#         923
  C:0845H         LINE#         925
  C:084BH         LINE#         926
  C:0853H         LINE#         927
  C:0878H         LINE#         928
  C:088CH         LINE#         929
  C:088FH         LINE#         932
  C:088FH         LINE#         933
  C:08A6H         LINE#         934
  C:08A6H         LINE#         935
  C:08B5H         LINE#         936
  C:08B5H         LINE#         937
  C:08BBH         LINE#         939
  C:08C7H         LINE#         940
  C:08C7H         LINE#         942
  C:08F1H         LINE#         943
  C:0900H         LINE#         944
  C:0900H         LINE#         945
  C:0918H         LINE#         946
  C:0920H         LINE#         948
  C:095BH         LINE#         949
  C:0975H         LINE#         950
  C:0977H         LINE#         951
  C:0979H         LINE#         952
  C:097BH         LINE#         953
  C:097DH         LINE#         954
  C:097FH         LINE#         955
BL51 BANKED LINKER/LOCATER V6.22                                                      02/08/2018  14:09:45  PAGE 109


  C:0981H         LINE#         956
  C:0981H         LINE#         958
  C:098AH         LINE#         959
  C:098AH         LINE#         960
  C:0990H         LINE#         961
  C:0990H         LINE#         962
  C:09A1H         LINE#         963
  C:09A1H         LINE#         964
  C:09C5H         LINE#         965
  C:09C5H         LINE#         967
  C:09DEH         LINE#         968
  C:09FCH         LINE#         969
  C:0A0AH         LINE#         970
  C:0A0DH         LINE#         971
  C:0A35H         LINE#         973
  C:0A51H         LINE#         974
  C:0A51H         LINE#         975
  C:0A60H         LINE#         976
  C:0A62H         LINE#         977
  C:0A62H         LINE#         978
  C:0A62H         LINE#         979
  C:0A62H         LINE#         981
  C:0A62H         LINE#         982
  C:0A62H         LINE#         983
  C:0A62H         LINE#         984
  C:0A62H         LINE#         985
  C:0A64H         LINE#         987
  C:0A64H         LINE#         988
  C:0A6BH         LINE#         989
  C:0A6BH         LINE#         990
  C:0A73H         LINE#         991
  C:0A73H         LINE#         992
  C:0A75H         LINE#         993
  C:0A75H         LINE#         994
  C:0A75H         LINE#         995
  C:0A75H         LINE#         996
  C:0A75H         LINE#         997
  C:0A75H         LINE#         998
  C:0A7CH         LINE#         999
  C:0A7CH         LINE#         1000
  C:0A7EH         LINE#         1001
  C:0A83H         LINE#         1002
  C:0A89H         LINE#         1003
  C:0A89H         LINE#         1006
  C:0A8CH         LINE#         1007
  C:0A8CH         LINE#         1008
  C:0A8EH         LINE#         1009
  C:0A94H         LINE#         1010
  C:0AA9H         LINE#         1011
  C:0AB2H         LINE#         1012
  C:0AB2H         LINE#         1014
  C:0AB5H         LINE#         1015
  C:0AB5H         LINE#         1016
  C:0AB7H         LINE#         1017
  C:0AB7H         LINE#         1018
  C:0AB7H         LINE#         1019
  C:0AB7H         LINE#         1020
BL51 BANKED LINKER/LOCATER V6.22                                                      02/08/2018  14:09:45  PAGE 110


  C:0AB7H         LINE#         1021
  C:0AB9H         LINE#         1023
  C:0AB9H         LINE#         1024
  C:0AC1H         LINE#         1025
  C:0AC1H         LINE#         1026
  C:0AC7H         LINE#         1027
  C:0AD0H         LINE#         1029
  C:0AD0H         LINE#         1030
  C:0AD0H         LINE#         1031
  C:0AD0H         LINE#         1032
  C:0AD0H         LINE#         1033
  C:0AD3H         LINE#         1034
  -------         ENDPROC       USART0RECDEAL
  -------         PROC          USARTMANAGER
  C:8027H         LINE#         1052
  C:8027H         LINE#         1053
  C:8027H         LINE#         1054
  C:8027H         LINE#         1055
  C:8027H         LINE#         1056
  C:8027H         LINE#         1057
  C:8027H         LINE#         1060
  C:8027H         LINE#         1062
  C:802EH         LINE#         1063
  C:8031H         LINE#         1064
  -------         ENDPROC       USARTMANAGER
  -------         ENDMOD        UART

  -------         MODULE        PCT25VF
  C:0000H         SYMBOL        _ICE_DUMMY_
  C:7B12H         PUBLIC        WREN_Check
  D:0080H         PUBLIC        P0
  D:0090H         PUBLIC        P1
  D:00A0H         PUBLIC        P2
  C:7F4EH         PUBLIC        _Send_Byte
  D:00B0H         PUBLIC        P3
  D:00C0H         PUBLIC        P4
  C:4BA6H         PUBLIC        _Write_Cont
  C:735AH         PUBLIC        _Byte_Write
  D:00C8H         PUBLIC        P5
  D:00A8H         PUBLIC        IE
  C:7F74H         PUBLIC        Read_Status_Register
  C:7B5AH         PUBLIC        Get_Byte
  D:00B8H         PUBLIC        IP
  C:80BDH         PUBLIC        CE_Low
  C:794DH         PUBLIC        Poll_SO
  C:7A95H         PUBLIC        Wait_Busy
  C:0012H         PUBLIC        Hold_Low
  D:00D8H         PUBLIC        CCON
  C:748CH         PUBLIC        Jedec_ID_Read
  C:7A12H         PUBLIC        WREN_AAI_Check
  C:7F96H         PUBLIC        W25QXX_Lock
  C:7E97H         PUBLIC        SST25VF_UnLock
  C:8076H         PUBLIC        DBSY
  C:806BH         PUBLIC        EBSY
  D:0098H         PUBLIC        SCON
  D:0088H         PUBLIC        TCON
  C:8060H         PUBLIC        WRDI
BL51 BANKED LINKER/LOCATER V6.22                                                      02/08/2018  14:09:45  PAGE 111


  B:0090H.6       PUBLIC        MISO
  C:5936H         PUBLIC        _AAI_Write
  C:001AH         PUBLIC        WP_Low
  C:3D9FH         PUBLIC        _FLASH_BufferWrite
  C:7FFFH         PUBLIC        WREN
  C:7ED9H         PUBLIC        Flash_Unlock
  C:7D39H         PUBLIC        _delay_nms
  C:8055H         PUBLIC        EWSR
  C:73F9H         PUBLIC        _Auto_Add_IncA
  C:7C14H         PUBLIC        _Auto_Add_IncB
  C:7527H         PUBLIC        _Sector_Erase
  D:00E0H         PUBLIC        ACC
  C:44F6H         PUBLIC        FRAM_TEST
  C:7ABFH         PUBLIC        Wait_Busy_AAI
  C:7EEEH         PUBLIC        _delay_nus
  X:0318H         PUBLIC        manID
  C:5FA9H         PUBLIC        _HighSpeed_Read_Cont
  X:0319H         PUBLIC        devID
  C:7D57H         PUBLIC        _WRSR
  C:77BCH         PUBLIC        _Block_Erase_32K
  C:76B8H         PUBLIC        _Byte_Program
  C:74D4H         PUBLIC        _HighSpeed_Read
  C:77F9H         PUBLIC        _Block_Erase_64K
  C:7307H         PUBLIC        _Auto_Add_IncA_EBSY
  D:00C1H         PUBLIC        WDT_CONTR
  C:8081H         PUBLIC        Chip_Erase
  C:7A3FH         PUBLIC        _Auto_Add_IncB_EBSY
  C:7EC4H         PUBLIC        Flash_Lock
  C:5F11H         PUBLIC        _FLASH_PageWrite
  C:0026H         PUBLIC        CE_High
  C:7E09H         PUBLIC        SST25VF_Lock
  C:7A6BH         PUBLIC        _Read_ID
  C:0021H         PUBLIC        UnWP
  C:0019H         PUBLIC        Unhold
  C:7FD4H         PUBLIC        W25QXX_UnLock
  C:7B86H         PUBLIC        _W25QXX_WRSR
  C:5CA7H         PUBLIC        _Read_Cont
  C:7BF1H         PUBLIC        SST25VF_Init
  B:00C0H.5       PUBLIC        SST25VF_CS
  D:00D0H         PUBLIC        PSW
  C:777DH         PUBLIC        _Read
  -------         PROC          SST25VF_INIT
  C:7BF1H         LINE#         160
  C:7BF1H         LINE#         161
  C:7BF1H         LINE#         164
  C:7BF7H         LINE#         166
  C:7BFAH         LINE#         167
  C:7C01H         LINE#         168
  C:7C07H         LINE#         169
  C:7C0EH         LINE#         171
  -------         ENDPROC       SST25VF_INIT
  C:7F3EH         SYMBOL        L?0157
  C:7F47H         SYMBOL        L?0158
  C:7F4AH         SYMBOL        L?0159
  -------         PROC          L?0156
  -------         ENDPROC       L?0156
  C:7F3EH         SYMBOL        L?0157
BL51 BANKED LINKER/LOCATER V6.22                                                      02/08/2018  14:09:45  PAGE 112


  C:7F47H         SYMBOL        L?0158
  C:7F4AH         SYMBOL        L?0159
  -------         PROC          _SEND_BYTE
  D:0007H         SYMBOL        out
  C:7F4EH         LINE#         186
  C:7F4EH         LINE#         187
  C:7F4EH         LINE#         201
  -------         ENDPROC       _SEND_BYTE
  -------         PROC          L?0162
  -------         ENDPROC       L?0162
  -------         PROC          GET_BYTE
  -------         DO            
  D:0007H         SYMBOL        in
  -------         ENDDO         
  C:7B5AH         LINE#         216
  C:7B5AH         LINE#         217
  C:7B5AH         LINE#         233
  C:7B5FH         LINE#         234
  C:7B5FH         LINE#         235
  -------         ENDPROC       GET_BYTE
  -------         PROC          POLL_SO
  -------         DO            
  X:02C1H         SYMBOL        i
  X:02C3H         SYMBOL        temp
  -------         ENDDO         
  C:794DH         LINE#         250
  C:794DH         LINE#         251
  C:794DH         LINE#         252
  C:7955H         LINE#         254
  C:7958H         LINE#         255
  C:795BH         LINE#         256
  C:7961H         LINE#         257
  C:7961H         LINE#         258
  C:7965H         LINE#         259
  C:796CH         LINE#         260
  C:797AH         LINE#         262
  C:797DH         LINE#         263
  C:7980H         LINE#         264
  -------         ENDPROC       POLL_SO
  -------         PROC          CE_HIGH
  C:0026H         LINE#         278
  C:0026H         LINE#         279
  C:0026H         LINE#         280
  C:0028H         LINE#         281
  -------         ENDPROC       CE_HIGH
  -------         PROC          L?0165
  -------         ENDPROC       L?0165
  -------         PROC          CE_LOW
  C:80BDH         LINE#         295
  C:80BDH         LINE#         296
  C:80BDH         LINE#         297
  C:80BFH         LINE#         298
  -------         ENDPROC       CE_LOW
  -------         PROC          HOLD_LOW
  C:0012H         LINE#         311
  C:0012H         LINE#         312
  C:0012H         LINE#         316
BL51 BANKED LINKER/LOCATER V6.22                                                      02/08/2018  14:09:45  PAGE 113


  -------         ENDPROC       HOLD_LOW
  -------         PROC          UNHOLD
  C:0019H         LINE#         329
  C:0019H         LINE#         330
  C:0019H         LINE#         334
  -------         ENDPROC       UNHOLD
  -------         PROC          WP_LOW
  C:001AH         LINE#         347
  C:001AH         LINE#         348
  C:001AH         LINE#         352
  -------         ENDPROC       WP_LOW
  -------         PROC          UNWP
  C:0021H         LINE#         365
  C:0021H         LINE#         366
  C:0021H         LINE#         370
  -------         ENDPROC       UNWP
  -------         PROC          READ_STATUS_REGISTER
  -------         DO            
  D:0007H         SYMBOL        byte
  -------         ENDDO         
  C:7F74H         LINE#         383
  C:7F74H         LINE#         384
  C:7F74H         LINE#         385
  C:7F76H         LINE#         386
  C:7F79H         LINE#         387
  C:7F7EH         LINE#         388
  C:7F81H         LINE#         389
  C:7F84H         LINE#         390
  C:7F84H         LINE#         391
  -------         ENDPROC       READ_STATUS_REGISTER
  -------         PROC          EWSR
  C:8055H         LINE#         409
  C:8055H         LINE#         410
  C:8055H         LINE#         411
  C:8058H         LINE#         412
  C:805DH         LINE#         413
  -------         ENDPROC       EWSR
  -------         PROC          _WRSR
  X:02B2H         SYMBOL        byte
  C:7D57H         LINE#         427
  C:7D5FH         LINE#         428
  C:7D5FH         LINE#         429
  C:7D62H         LINE#         430
  C:7D67H         LINE#         431
  C:7D70H         LINE#         433
  -------         ENDPROC       _WRSR
  -------         PROC          _W25QXX_WRSR
  X:02B2H         SYMBOL        status
  C:7B86H         LINE#         438
  C:7B8EH         LINE#         439
  C:7B8EH         LINE#         440
  C:7B91H         LINE#         441
  C:7B96H         LINE#         442
  C:7B9FH         LINE#         443
  C:7BA7H         LINE#         444
  -------         ENDPROC       _W25QXX_WRSR
  -------         PROC          WREN
BL51 BANKED LINKER/LOCATER V6.22                                                      02/08/2018  14:09:45  PAGE 114


  C:7FFFH         LINE#         460
  C:7FFFH         LINE#         461
  C:7FFFH         LINE#         462
  C:8002H         LINE#         463
  C:8007H         LINE#         464
  C:800AH         LINE#         465
  -------         ENDPROC       WREN
  -------         PROC          WRDI
  C:8060H         LINE#         479
  C:8060H         LINE#         480
  C:8060H         LINE#         481
  C:8063H         LINE#         482
  C:8068H         LINE#         483
  -------         ENDPROC       WRDI
  -------         PROC          EBSY
  C:806BH         LINE#         498
  C:806BH         LINE#         499
  C:806BH         LINE#         500
  C:806EH         LINE#         501
  C:8073H         LINE#         502
  -------         ENDPROC       EBSY
  -------         PROC          DBSY
  C:8076H         LINE#         517
  C:8076H         LINE#         518
  C:8076H         LINE#         519
  C:8079H         LINE#         520
  C:807EH         LINE#         521
  -------         ENDPROC       DBSY
  -------         PROC          W25QXX_LOCK
  C:7F96H         LINE#         537
  C:7F96H         LINE#         538
  C:7F96H         LINE#         539
  C:7F99H         LINE#         540
  C:7F9CH         LINE#         542
  C:7FA3H         LINE#         543
  -------         ENDPROC       W25QXX_LOCK
  -------         PROC          SST25VF_LOCK
  C:7E09H         LINE#         547
  C:7E09H         LINE#         548
  C:7E09H         LINE#         549
  C:7E0CH         LINE#         550
  C:7E13H         LINE#         551
  C:7E1AH         LINE#         552
  -------         ENDPROC       SST25VF_LOCK
  -------         PROC          W25QXX_UNLOCK
  C:7FD4H         LINE#         556
  C:7FD4H         LINE#         557
  C:7FD4H         LINE#         558
  C:7FD7H         LINE#         559
  C:7FDAH         LINE#         560
  C:7FE0H         LINE#         561
  -------         ENDPROC       W25QXX_UNLOCK
  -------         PROC          SST25VF_UNLOCK
  C:7E97H         LINE#         565
  C:7E97H         LINE#         566
  C:7E97H         LINE#         567
  C:7E9AH         LINE#         568
BL51 BANKED LINKER/LOCATER V6.22                                                      02/08/2018  14:09:45  PAGE 115


  C:7EA1H         LINE#         569
  C:7EA7H         LINE#         570
  -------         ENDPROC       SST25VF_UNLOCK
  -------         PROC          FLASH_LOCK
  C:7EC4H         LINE#         574
  C:7EC4H         LINE#         575
  C:7EC4H         LINE#         576
  C:7ECBH         LINE#         577
  C:7ECBH         LINE#         578
  C:7ECEH         LINE#         579
  C:7ECEH         LINE#         580
  C:7ED5H         LINE#         581
  C:7ED5H         LINE#         582
  C:7ED8H         LINE#         583
  C:7ED8H         LINE#         585
  -------         ENDPROC       FLASH_LOCK
  -------         PROC          FLASH_UNLOCK
  C:7ED9H         LINE#         588
  C:7ED9H         LINE#         589
  C:7ED9H         LINE#         591
  C:7EE0H         LINE#         592
  C:7EE0H         LINE#         593
  C:7EE3H         LINE#         594
  C:7EE3H         LINE#         595
  C:7EEAH         LINE#         596
  C:7EEAH         LINE#         597
  C:7EEDH         LINE#         598
  C:7EEDH         LINE#         599
  -------         ENDPROC       FLASH_UNLOCK
  -------         PROC          _READ_ID
  X:0298H         SYMBOL        ID_addr
  -------         DO            
  D:0007H         SYMBOL        byte
  -------         ENDDO         
  C:7A6BH         LINE#         621
  C:7A73H         LINE#         622
  C:7A73H         LINE#         624
  C:7A76H         LINE#         625
  C:7A7BH         LINE#         626
  C:7A80H         LINE#         627
  C:7A85H         LINE#         628
  C:7A8EH         LINE#         629
  C:7A91H         LINE#         630
  C:7A94H         LINE#         631
  C:7A94H         LINE#         632
  -------         ENDPROC       _READ_ID
  -------         PROC          JEDEC_ID_READ
  -------         DO            
  X:02FAH         SYMBOL        temp
  -------         ENDDO         
  C:748CH         LINE#         649
  C:748CH         LINE#         650
  C:748CH         LINE#         653
  C:7496H         LINE#         655
  C:7499H         LINE#         656
  C:749EH         LINE#         657
  C:74A1H         LINE#         658
BL51 BANKED LINKER/LOCATER V6.22                                                      02/08/2018  14:09:45  PAGE 116


  C:74A4H         LINE#         659
  C:74C2H         LINE#         660
  C:74C5H         LINE#         662
  C:74D3H         LINE#         663
  -------         ENDPROC       JEDEC_ID_READ
  -------         PROC          _READ
  X:02A6H         SYMBOL        Dst
  -------         DO            
  D:0007H         SYMBOL        byte
  -------         ENDDO         
  C:777DH         LINE#         682
  C:7783H         LINE#         683
  C:7783H         LINE#         684
  C:7785H         LINE#         686
  C:7788H         LINE#         687
  C:778DH         LINE#         688
  C:7793H         LINE#         689
  C:77A4H         LINE#         690
  C:77B5H         LINE#         691
  C:77B8H         LINE#         692
  C:77BBH         LINE#         693
  C:77BBH         LINE#         694
  -------         ENDPROC       _READ
  C:5CA1H         SYMBOL        L?0164
  -------         PROC          L?0163
  -------         ENDPROC       L?0163
  C:5CA1H         SYMBOL        L?0164
  -------         PROC          _READ_CONT
  X:02BFH         SYMBOL        pBuffer
  X:02C2H         SYMBOL        Dst
  X:02C6H         SYMBOL        no_bytes
  -------         DO            
  X:02CAH         SYMBOL        i
  -------         ENDDO         
  C:5CA7H         LINE#         711
  C:5CB6H         LINE#         712
  C:5CB6H         LINE#         713
  C:5CC0H         LINE#         714
  C:5CC3H         LINE#         715
  C:5CC8H         LINE#         716
  C:5CCEH         LINE#         717
  C:5CE3H         LINE#         718
  C:5CF4H         LINE#         719
  C:5D1EH         LINE#         720
  C:5D1EH         LINE#         721
  C:5D41H         LINE#         722
  C:5D62H         LINE#         723
  -------         ENDPROC       _READ_CONT
  -------         PROC          _HIGHSPEED_READ
  X:02FEH         SYMBOL        Dst
  -------         DO            
  D:0007H         SYMBOL        byte
  -------         ENDDO         
  C:74D4H         LINE#         744
  C:74DAH         LINE#         745
  C:74DAH         LINE#         746
  C:74DCH         LINE#         748
BL51 BANKED LINKER/LOCATER V6.22                                                      02/08/2018  14:09:45  PAGE 117


  C:74DFH         LINE#         749
  C:74E4H         LINE#         750
  C:74EAH         LINE#         751
  C:74FFH         LINE#         752
  C:7510H         LINE#         753
  C:7515H         LINE#         754
  C:7518H         LINE#         755
  C:751BH         LINE#         756
  C:751BH         LINE#         757
  -------         ENDPROC       _HIGHSPEED_READ
  -------         PROC          _HIGHSPEED_READ_CONT
  X:02CEH         SYMBOL        Dst
  X:02D2H         SYMBOL        no_bytes
  X:02D6H         SYMBOL        pBuffer
  -------         DO            
  X:02D9H         SYMBOL        i
  -------         ENDDO         
  C:5FA9H         LINE#         773
  C:5FAFH         LINE#         774
  C:5FAFH         LINE#         775
  C:5FB9H         LINE#         776
  C:5FBCH         LINE#         777
  C:5FC1H         LINE#         778
  C:5FC7H         LINE#         779
  C:5FDCH         LINE#         780
  C:5FEDH         LINE#         781
  C:5FF2H         LINE#         782
  C:601EH         LINE#         783
  C:601EH         LINE#         784
  C:6041H         LINE#         785
  C:6062H         LINE#         786
  -------         ENDPROC       _HIGHSPEED_READ_CONT
  -------         PROC          _BYTE_PROGRAM
  X:02B2H         SYMBOL        Dst
  X:02B6H         SYMBOL        byte
  C:76B8H         LINE#         807
  C:76BBH         LINE#         808
  C:76BBH         LINE#         809
  C:76BEH         LINE#         810
  C:76C3H         LINE#         811
  C:76C9H         LINE#         812
  C:76DEH         LINE#         813
  C:76EFH         LINE#         814
  C:76F7H         LINE#         815
  -------         ENDPROC       _BYTE_PROGRAM
  -------         PROC          _AUTO_ADD_INCA
  X:02EBH         SYMBOL        Dst
  X:02EFH         SYMBOL        byte1
  X:02F0H         SYMBOL        byte2
  C:73F9H         LINE#         846
  C:73FCH         LINE#         847
  C:73FCH         LINE#         848
  C:73FFH         LINE#         849
  C:7404H         LINE#         850
  C:740AH         LINE#         851
  C:741FH         LINE#         852
  C:7430H         LINE#         853
BL51 BANKED LINKER/LOCATER V6.22                                                      02/08/2018  14:09:45  PAGE 118


  C:7438H         LINE#         854
  C:7440H         LINE#         855
  -------         ENDPROC       _AUTO_ADD_INCA
  -------         PROC          _AUTO_ADD_INCB
  X:0310H         SYMBOL        byte1
  X:0311H         SYMBOL        byte2
  C:7C14H         LINE#         886
  C:7C1CH         LINE#         887
  C:7C1CH         LINE#         888
  C:7C1FH         LINE#         889
  C:7C24H         LINE#         890
  C:7C2CH         LINE#         891
  C:7C34H         LINE#         892
  -------         ENDPROC       _AUTO_ADD_INCB
  -------         PROC          _AUTO_ADD_INCA_EBSY
  X:02BBH         SYMBOL        Dst
  X:02BFH         SYMBOL        byte1
  X:02C0H         SYMBOL        byte2
  C:7307H         LINE#         925
  C:730DH         LINE#         926
  C:730DH         LINE#         927
  C:7310H         LINE#         929
  C:7313H         LINE#         930
  C:7318H         LINE#         931
  C:731EH         LINE#         932
  C:7333H         LINE#         933
  C:7344H         LINE#         934
  C:734CH         LINE#         935
  C:7354H         LINE#         936
  C:7357H         LINE#         938
  -------         ENDPROC       _AUTO_ADD_INCA_EBSY
  -------         PROC          _AUTO_ADD_INCB_EBSY
  X:02BBH         SYMBOL        byte1
  X:02BCH         SYMBOL        byte2
  C:7A3FH         LINE#         972
  C:7A47H         LINE#         973
  C:7A47H         LINE#         974
  C:7A4AH         LINE#         975
  C:7A4FH         LINE#         976
  C:7A57H         LINE#         977
  C:7A5FH         LINE#         978
  C:7A62H         LINE#         980
  C:7A65H         LINE#         982
  C:7A68H         LINE#         983
  -------         ENDPROC       _AUTO_ADD_INCB_EBSY
  -------         PROC          CHIP_ERASE
  C:8081H         LINE#         997
  C:8081H         LINE#         998
  C:8081H         LINE#         999
  C:8084H         LINE#         1000
  C:8089H         LINE#         1001
  -------         ENDPROC       CHIP_ERASE
  -------         PROC          L?0168
  -------         ENDPROC       L?0168
  -------         PROC          _SECTOR_ERASE
  X:02B2H         SYMBOL        Dst
  C:7527H         LINE#         1015
BL51 BANKED LINKER/LOCATER V6.22                                                      02/08/2018  14:09:45  PAGE 119


  C:752DH         LINE#         1016
  C:752DH         LINE#         1019
  C:7530H         LINE#         1020
  C:7535H         LINE#         1021
  C:753BH         LINE#         1022
  C:7550H         LINE#         1023
  C:7561H         LINE#         1024
  -------         ENDPROC       _SECTOR_ERASE
  -------         PROC          _BLOCK_ERASE_32K
  X:0302H         SYMBOL        Dst
  C:77BCH         LINE#         1038
  C:77C2H         LINE#         1039
  C:77C2H         LINE#         1040
  C:77C5H         LINE#         1041
  C:77CAH         LINE#         1042
  C:77D0H         LINE#         1043
  C:77E5H         LINE#         1044
  C:77F6H         LINE#         1045
  -------         ENDPROC       _BLOCK_ERASE_32K
  -------         PROC          _BLOCK_ERASE_64K
  X:0306H         SYMBOL        Dst
  C:77F9H         LINE#         1059
  C:77FFH         LINE#         1060
  C:77FFH         LINE#         1061
  C:7802H         LINE#         1062
  C:7807H         LINE#         1063
  C:780DH         LINE#         1064
  C:7822H         LINE#         1065
  C:7833H         LINE#         1066
  -------         ENDPROC       _BLOCK_ERASE_64K
  -------         PROC          WAIT_BUSY
  -------         DO            
  X:02C8H         SYMBOL        i
  -------         ENDDO         
  C:7A95H         LINE#         1081
  C:7A95H         LINE#         1082
  C:7A95H         LINE#         1084
  C:7A9FH         LINE#         1086
  C:7AA6H         LINE#         1087
  C:7AA6H         LINE#         1089
  C:7AADH         LINE#         1090
  C:7ABBH         LINE#         1092
  C:7ABEH         LINE#         1093
  -------         ENDPROC       WAIT_BUSY
  -------         PROC          WAIT_BUSY_AAI
  -------         DO            
  X:0312H         SYMBOL        i
  -------         ENDDO         
  C:7ABFH         LINE#         1106
  C:7ABFH         LINE#         1107
  C:7ABFH         LINE#         1109
  C:7AC9H         LINE#         1111
  C:7AD0H         LINE#         1112
  C:7AD0H         LINE#         1113
  C:7AD7H         LINE#         1114
  C:7AE5H         LINE#         1117
  C:7AE8H         LINE#         1118
BL51 BANKED LINKER/LOCATER V6.22                                                      02/08/2018  14:09:45  PAGE 120


  -------         ENDPROC       WAIT_BUSY_AAI
  -------         PROC          WREN_CHECK
  -------         DO            
  X:0314H         SYMBOL        i
  -------         ENDDO         
  C:7B12H         LINE#         1131
  C:7B12H         LINE#         1132
  C:7B12H         LINE#         1134
  C:7B1AH         LINE#         1136
  C:7B21H         LINE#         1137
  C:7B21H         LINE#         1138
  C:7B28H         LINE#         1139
  C:7B36H         LINE#         1142
  C:7B39H         LINE#         1143
  -------         ENDPROC       WREN_CHECK
  -------         PROC          WREN_AAI_CHECK
  -------         DO            
  X:0316H         SYMBOL        i
  -------         ENDDO         
  C:7A12H         LINE#         1156
  C:7A12H         LINE#         1157
  C:7A12H         LINE#         1159
  C:7A1CH         LINE#         1161
  C:7A26H         LINE#         1162
  C:7A26H         LINE#         1163
  C:7A2DH         LINE#         1164
  C:7A3BH         LINE#         1167
  C:7A3EH         LINE#         1168
  -------         ENDPROC       WREN_AAI_CHECK
  -------         PROC          _BYTE_WRITE
  X:02F1H         SYMBOL        Dst
  X:02F5H         SYMBOL        byte
  C:735AH         LINE#         1173
  C:7360H         LINE#         1174
  C:7360H         LINE#         1176
  C:7363H         LINE#         1179
  C:737EH         LINE#         1180
  C:737EH         LINE#         1181
  C:7381H         LINE#         1182
  C:7387H         LINE#         1183
  C:738AH         LINE#         1184
  C:738AH         LINE#         1185
  C:738AH         LINE#         1186
  C:738AH         LINE#         1187
  C:738AH         LINE#         1188
  C:738AH         LINE#         1189
  C:738AH         LINE#         1190
  C:738AH         LINE#         1191
  C:738AH         LINE#         1192
  C:738AH         LINE#         1193
  C:738AH         LINE#         1194
  C:738AH         LINE#         1195
  C:738AH         LINE#         1196
  C:738AH         LINE#         1200
  C:738DH         LINE#         1201
  C:73A4H         LINE#         1202
  C:73A7H         LINE#         1204
BL51 BANKED LINKER/LOCATER V6.22                                                      02/08/2018  14:09:45  PAGE 121


  -------         ENDPROC       _BYTE_WRITE
  C:5F02H         SYMBOL        L?0161
  -------         PROC          L?0160
  -------         ENDPROC       L?0160
  C:5F02H         SYMBOL        L?0161
  -------         PROC          _FLASH_PAGEWRITE
  X:02BFH         SYMBOL        pBuffer
  X:02C2H         SYMBOL        WriteAddr
  X:02C6H         SYMBOL        NumByteToWrite
  C:5F11H         LINE#         1217
  C:5F20H         LINE#         1218
  C:5F20H         LINE#         1220
  C:5F23H         LINE#         1221
  C:5F26H         LINE#         1223
  C:5F2BH         LINE#         1224
  C:5F39H         LINE#         1225
  C:5F4EH         LINE#         1226
  C:5F5FH         LINE#         1229
  C:5F6EH         LINE#         1230
  C:5F6EH         LINE#         1231
  C:5F74H         LINE#         1232
  C:5F74H         LINE#         1234
  C:5F82H         LINE#         1235
  C:5F82H         LINE#         1236
  C:5F94H         LINE#         1237
  C:5F9EH         LINE#         1238
  C:5FA0H         LINE#         1239
  C:5FA3H         LINE#         1240
  C:5FA6H         LINE#         1243
  -------         ENDPROC       _FLASH_PAGEWRITE
  -------         PROC          _FLASH_BUFFERWRITE
  X:02B2H         SYMBOL        pBuffer
  X:02B5H         SYMBOL        WriteAddr
  X:02B9H         SYMBOL        NumByteToWrite
  -------         DO            
  X:02BBH         SYMBOL        NumOfPage
  X:02BCH         SYMBOL        NumOfSingle
  D:0005H         SYMBOL        Addr
  X:02BDH         SYMBOL        count
  X:02BEH         SYMBOL        temp
  -------         ENDDO         
  C:3D9FH         LINE#         1255
  C:3DAEH         LINE#         1256
  C:3DAEH         LINE#         1257
  C:3DB9H         LINE#         1258
  C:3DC7H         LINE#         1259
  C:3DCEH         LINE#         1260
  C:3DD9H         LINE#         1261
  C:3DDCH         LINE#         1262
  C:3DE2H         LINE#         1263
  C:3DE2H         LINE#         1264
  C:3DE8H         LINE#         1265
  C:3DE8H         LINE#         1266
  C:3DF2H         LINE#         1267
  C:3DF5H         LINE#         1269
  C:3DF5H         LINE#         1271
  C:3DFFH         LINE#         1272
BL51 BANKED LINKER/LOCATER V6.22                                                      02/08/2018  14:09:45  PAGE 122


  C:3DFFH         LINE#         1273
  C:3E22H         LINE#         1274
  C:3E42H         LINE#         1275
  C:3E4DH         LINE#         1276
  C:3E4FH         LINE#         1277
  C:3E52H         LINE#         1279
  C:3E69H         LINE#         1280
  C:3E69H         LINE#         1281
  C:3E6CH         LINE#         1283
  C:3E6CH         LINE#         1284
  C:3E75H         LINE#         1285
  C:3E75H         LINE#         1286
  C:3E83H         LINE#         1287
  C:3E83H         LINE#         1288
  C:3E88H         LINE#         1289
  C:3E8BH         LINE#         1290
  C:3EB4H         LINE#         1291
  C:3EC2H         LINE#         1292
  C:3ED9H         LINE#         1293
  C:3EDBH         LINE#         1295
  C:3EDBH         LINE#         1296
  C:3EF2H         LINE#         1297
  C:3EF2H         LINE#         1298
  C:3EF5H         LINE#         1300
  C:3EF5H         LINE#         1301
  C:3F08H         LINE#         1302
  C:3F10H         LINE#         1303
  C:3F12H         LINE#         1305
  C:3F15H         LINE#         1306
  C:3F3EH         LINE#         1307
  C:3F4BH         LINE#         1309
  C:3F55H         LINE#         1310
  C:3F55H         LINE#         1312
  C:3F78H         LINE#         1314
  C:3F98H         LINE#         1316
  C:3FA3H         LINE#         1317
  C:3FA5H         LINE#         1318
  C:3FA8H         LINE#         1320
  C:3FAEH         LINE#         1321
  C:3FAEH         LINE#         1322
  C:3FC8H         LINE#         1323
  C:3FC8H         LINE#         1324
  C:3FC8H         LINE#         1325
  C:3FC8H         LINE#         1326
  -------         ENDPROC       _FLASH_BUFFERWRITE
  -------         PROC          _AAI_WRITE
  X:02B2H         SYMBOL        Dst
  X:02B6H         SYMBOL        p
  X:02B9H         SYMBOL        no_bytes
  C:5936H         LINE#         1332
  C:5947H         LINE#         1333
  C:5947H         LINE#         1334
  C:5950H         LINE#         1335
  C:5950H         LINE#         1336
  C:5964H         LINE#         1337
  C:5972H         LINE#         1339
  C:5972H         LINE#         1340
BL51 BANKED LINKER/LOCATER V6.22                                                      02/08/2018  14:09:45  PAGE 123


  C:5975H         LINE#         1341
  C:59A0H         LINE#         1343
  C:59A0H         LINE#         1344
  C:59A0H         LINE#         1346
  C:59B1H         LINE#         1347
  C:59B1H         LINE#         1348
  C:59B4H         LINE#         1349
  C:59B9H         LINE#         1350
  C:59CBH         LINE#         1351
  C:59E0H         LINE#         1352
  C:59E3H         LINE#         1354
  C:59E6H         LINE#         1355
  C:59F4H         LINE#         1356
  C:59FEH         LINE#         1357
  C:5A00H         LINE#         1358
  -------         ENDPROC       _AAI_WRITE
  C:4BA0H         SYMBOL        L?0167
  -------         PROC          L?0166
  -------         ENDPROC       L?0166
  C:4BA0H         SYMBOL        L?0167
  -------         PROC          _WRITE_CONT
  X:02A8H         SYMBOL        Dst
  X:02ACH         SYMBOL        p
  X:02AFH         SYMBOL        no_bytes
  -------         DO            
  X:02B1H         SYMBOL        i
  C:4C7FH         SYMBOL        slow_write
  -------         ENDDO         
  C:4BA6H         LINE#         1365
  C:4BB7H         LINE#         1366
  C:4BB7H         LINE#         1368
  C:4BBAH         LINE#         1371
  C:4BD5H         LINE#         1372
  C:4BD5H         LINE#         1373
  C:4BD8H         LINE#         1374
  C:4BDEH         LINE#         1375
  C:4BE1H         LINE#         1376
  C:4BE1H         LINE#         1377
  C:4BE1H         LINE#         1378
  C:4BE1H         LINE#         1379
  C:4BE1H         LINE#         1380
  C:4BE1H         LINE#         1381
  C:4BE1H         LINE#         1382
  C:4BE1H         LINE#         1383
  C:4BE1H         LINE#         1384
  C:4BE1H         LINE#         1385
  C:4BE1H         LINE#         1386
  C:4BE1H         LINE#         1387
  C:4BE1H         LINE#         1388
  C:4BE1H         LINE#         1392
  C:4BEFH         LINE#         1393
  C:4BEFH         LINE#         1394
  C:4C16H         LINE#         1395
  C:4C16H         LINE#         1396
  C:4C3FH         LINE#         1397
  C:4C42H         LINE#         1398
  C:4C42H         LINE#         1399
BL51 BANKED LINKER/LOCATER V6.22                                                      02/08/2018  14:09:45  PAGE 124


  C:4C42H         LINE#         1400
  C:4C49H         LINE#         1401
  C:4C49H         LINE#         1402
  C:4C74H         LINE#         1403
  C:4C76H         LINE#         1406
  C:4C76H         LINE#         1408
  C:4C85H         LINE#         1410
  C:4C85H         LINE#         1411
  C:4C88H         LINE#         1412
  C:4CA9H         LINE#         1413
  C:4CACH         LINE#         1414
  C:4CCBH         LINE#         1415
  C:4CD5H         LINE#         1416
  C:4CE5H         LINE#         1417
  C:4CE5H         LINE#         1419
  -------         ENDPROC       _WRITE_CONT
  -------         PROC          FRAM_TEST
  -------         DO            
  D:0006H         SYMBOL        i
  -------         ENDDO         
  C:44F6H         LINE#         1423
  C:44F6H         LINE#         1424
  C:44F6H         LINE#         1427
  C:44F9H         LINE#         1428
  C:44FCH         LINE#         1429
  C:4507H         LINE#         1430
  C:450AH         LINE#         1431
  C:450DH         LINE#         1433
  C:4527H         LINE#         1434
  C:453BH         LINE#         1436
  C:4550H         LINE#         1437
  C:455BH         LINE#         1440
  C:457AH         LINE#         1441
  C:458EH         LINE#         1442
  C:45A3H         LINE#         1443
  C:45AEH         LINE#         1445
  C:45CCH         LINE#         1446
  C:45E6H         LINE#         1447
  C:45F9H         LINE#         1448
  C:4604H         LINE#         1451
  C:4622H         LINE#         1459
  C:4636H         LINE#         1460
  C:4649H         LINE#         1461
  -------         ENDPROC       FRAM_TEST
  -------         PROC          _DELAY_NMS
  D:0006H         SYMBOL        i
  -------         DO            
  D:0004H         SYMBOL        j
  -------         ENDDO         
  C:7D39H         LINE#         1480
  C:7D39H         LINE#         1481
  C:7D39H         LINE#         1484
  C:7D42H         LINE#         1485
  C:7D42H         LINE#         1486
  C:7D4FH         LINE#         1487
  C:7D56H         LINE#         1489
  -------         ENDPROC       _DELAY_NMS
BL51 BANKED LINKER/LOCATER V6.22                                                      02/08/2018  14:09:45  PAGE 125


  -------         PROC          _DELAY_NUS
  D:0006H         SYMBOL        i
  -------         DO            
  D:0005H         SYMBOL        j
  -------         ENDDO         
  C:7EEEH         LINE#         1507
  C:7EEEH         LINE#         1508
  C:7EEEH         LINE#         1511
  C:7EF7H         LINE#         1512
  C:7EF7H         LINE#         1513
  C:7EFBH         LINE#         1514
  C:7F02H         LINE#         1516
  -------         ENDPROC       _DELAY_NUS
  -------         ENDMOD        PCT25VF

  -------         MODULE        OS_CORE
  C:0000H         SYMBOL        _ICE_DUMMY_
  C:7E21H         PUBLIC        _OS_TaskSuspend
  D:0080H         PUBLIC        P0
  D:0090H         PUBLIC        P1
  D:00A0H         PUBLIC        P2
  D:00B0H         PUBLIC        P3
  D:00C0H         PUBLIC        P4
  D:00C8H         PUBLIC        P5
  B:00A8H.7       PUBLIC        EA
  C:7F17H         PUBLIC        OSSched
  D:00A8H         PUBLIC        IE
  D:00B8H         PUBLIC        IP
  C:8033H         PUBLIC        _OSTaskSuspend
  D:00D8H         PUBLIC        CCON
  D:0008H         PUBLIC        OSIntNesting
  C:7DC0H         PUBLIC        _OSTaskResume
  D:0009H         PUBLIC        OSTaskRuning
  D:0098H         PUBLIC        SCON
  D:0088H         PUBLIC        TCON
  C:7F85H         PUBLIC        OSInit
  C:6F42H         PUBLIC        _OSWait
  D:000AH         PUBLIC        Os_Enter_Sum
  C:7D1AH         PUBLIC        OSTimeTick
  C:7E39H         PUBLIC        OSFindNextRunningTask
  D:000BH         PUBLIC        OSTaskID
  D:00E0H         PUBLIC        ACC
  D:000CH         PUBLIC        OSWaitTick
  C:7C37H         PUBLIC        _OSTimeDly
  C:808CH         PUBLIC        OSMapTbl
  D:000FH         PUBLIC        OSNextTaskID
  C:7BAAH         PUBLIC        OSIntExit
  C:7836H         PUBLIC        __OSTaskCreate
  D:0010H         PUBLIC        OSTaskCreated
  D:00D0H         PUBLIC        PSW
  -------         PROC          OSINIT
  C:7F85H         LINE#         87
  C:7F85H         LINE#         89
  C:7F88H         LINE#         90
  C:7F8AH         LINE#         95
  C:7F8CH         LINE#         96
  C:7F8FH         LINE#         97
BL51 BANKED LINKER/LOCATER V6.22                                                      02/08/2018  14:09:45  PAGE 126


  C:7F91H         LINE#         98
  C:7F93H         LINE#         99
  -------         ENDPROC       OSINIT
  -------         PROC          __OSTASKCREATE
  D:0001H         SYMBOL        TaskID
  D:0006H         SYMBOL        task
  D:0002H         SYMBOL        ptos
  C:7836H         LINE#         119
  C:783CH         LINE#         121
  C:7842H         LINE#         122
  C:7842H         LINE#         123
  C:7846H         LINE#         125
  C:784FH         LINE#         126
  C:784FH         LINE#         127
  C:7852H         LINE#         128
  C:7852H         LINE#         129
  C:7859H         LINE#         130
  C:785BH         LINE#         151
  C:7864H         LINE#         152
  C:7867H         LINE#         153
  C:786CH         LINE#         154
  C:786FH         LINE#         155
  C:786FH         LINE#         156
  C:7871H         LINE#         157
  -------         ENDPROC       __OSTASKCREATE
  -------         PROC          _OSTASKRESUME
  D:0007H         SYMBOL        TaskID
  C:7DC0H         LINE#         217
  C:7DC0H         LINE#         219
  C:7DC6H         LINE#         220
  C:7DC6H         LINE#         221
  C:7DCAH         LINE#         223
  C:7DD1H         LINE#         234
  C:7DD6H         LINE#         235
  C:7DD6H         LINE#         236
  -------         ENDPROC       _OSTASKRESUME
  -------         PROC          _OS_TASKSUSPEND
  D:0007H         SYMBOL        TaskID
  C:7E21H         LINE#         254
  C:7E21H         LINE#         256
  C:7E27H         LINE#         257
  C:7E27H         LINE#         258
  C:7E2BH         LINE#         260
  C:7E33H         LINE#         271
  C:7E38H         LINE#         272
  C:7E38H         LINE#         273
  -------         ENDPROC       _OS_TASKSUSPEND
  -------         PROC          _OSTASKSUSPEND
  D:0007H         SYMBOL        TaskID
  C:8033H         LINE#         291
  C:8033H         LINE#         293
  C:8039H         LINE#         295
  C:803CH         LINE#         296
  -------         ENDPROC       _OSTASKSUSPEND
  -------         PROC          OSFINDNEXTRUNNINGTASK
  -------         DO            
  D:0007H         SYMBOL        temp
BL51 BANKED LINKER/LOCATER V6.22                                                      02/08/2018  14:09:45  PAGE 127


  -------         ENDDO         
  C:7E39H         LINE#         314
  C:7E39H         LINE#         318
  C:7E3EH         LINE#         321
  C:7E41H         LINE#         322
  C:7E41H         LINE#         323
  C:7E45H         LINE#         324
  C:7E45H         LINE#         325
  C:7E45H         LINE#         326
  C:7E45H         LINE#         327
  C:7E49H         LINE#         328
  C:7E50H         LINE#         351
  -------         ENDPROC       OSFINDNEXTRUNNINGTASK
  -------         PROC          OSINTEXIT
  C:7BAAH         LINE#         368
  C:7BAAH         LINE#         371
  C:7BAEH         LINE#         373
  C:7BB5H         LINE#         374
  C:7BB5H         LINE#         375
  C:7BB7H         LINE#         376
  C:7BB7H         LINE#         377
  C:7BBBH         LINE#         378
  C:7BBBH         LINE#         379
  C:7BBDH         LINE#         380
  C:7BC0H         LINE#         381
  C:7BC3H         LINE#         382
  C:7BC6H         LINE#         383
  C:7BC6H         LINE#         384
  C:7BCBH         LINE#         385
  C:7BCDH         LINE#         386
  -------         ENDPROC       OSINTEXIT
  -------         PROC          OSSCHED
  C:7F17H         LINE#         403
  C:7F17H         LINE#         406
  C:7F1BH         LINE#         407
  C:7F1FH         LINE#         408
  C:7F1FH         LINE#         409
  C:7F22H         LINE#         410
  C:7F25H         LINE#         411
  C:7F25H         LINE#         412
  C:7F2AH         LINE#         413
  -------         ENDPROC       OSSCHED
  -------         PROC          OSTIMETICK
  -------         DO            
  D:0007H         SYMBOL        i
  -------         ENDDO         
  C:7D1AH         LINE#         430
  C:7D1AH         LINE#         434
  C:7D1CH         LINE#         435
  C:7D1CH         LINE#         436
  C:7D23H         LINE#         437
  C:7D23H         LINE#         438
  C:7D24H         LINE#         439
  C:7D2BH         LINE#         440
  C:7D2BH         LINE#         442
  C:7D32H         LINE#         453
  C:7D32H         LINE#         454
BL51 BANKED LINKER/LOCATER V6.22                                                      02/08/2018  14:09:45  PAGE 128


  C:7D32H         LINE#         455
  C:7D36H         LINE#         456
  -------         ENDPROC       OSTIMETICK
  -------         PROC          _OSTIMEDLY
  D:0007H         SYMBOL        ticks
  C:7C37H         LINE#         475
  C:7C37H         LINE#         477
  C:7C3EH         LINE#         478
  C:7C42H         LINE#         479
  C:7C4AH         LINE#         480
  C:7C4AH         LINE#         481
  C:7C4FH         LINE#         482
  C:7C52H         LINE#         483
  C:7C54H         LINE#         484
  C:7C59H         LINE#         485
  -------         ENDPROC       _OSTIMEDLY
  -------         PROC          _OSWAIT
  D:0007H         SYMBOL        typ
  D:0005H         SYMBOL        ticks
  C:6F42H         LINE#         534
  C:6F42H         LINE#         536
  C:6F49H         LINE#         538
  C:6F55H         LINE#         539
  C:6F55H         LINE#         540
  C:6F55H         LINE#         541
  C:6F5AH         LINE#         542
  C:6F5DH         LINE#         543
  C:6F5DH         LINE#         544
  C:6F67H         LINE#         545
  C:6F6AH         LINE#         546
  C:6F6AH         LINE#         548
  C:6F6EH         LINE#         549
  C:6F76H         LINE#         550
  C:6F76H         LINE#         551
  C:6F79H         LINE#         552
  C:6F79H         LINE#         553
  C:6F7EH         LINE#         554
  C:6F81H         LINE#         555
  C:6F86H         LINE#         556
  C:6F8EH         LINE#         557
  C:6F8EH         LINE#         558
  C:6F90H         LINE#         559
  C:6F93H         LINE#         560
  C:6F93H         LINE#         561
  C:6F96H         LINE#         562
  C:6F96H         LINE#         563
  C:6F9DH         LINE#         564
  C:6F9FH         LINE#         565
  C:6F9FH         LINE#         566
  -------         ENDPROC       _OSWAIT
  -------         ENDMOD        OS_CORE

  -------         MODULE        OS_MEM
  C:0000H         SYMBOL        _ICE_DUMMY_
  D:0080H         PUBLIC        P0
  D:0090H         PUBLIC        P1
  D:00A0H         PUBLIC        P2
BL51 BANKED LINKER/LOCATER V6.22                                                      02/08/2018  14:09:45  PAGE 129


  D:00B0H         PUBLIC        P3
  D:00C0H         PUBLIC        P4
  D:00C8H         PUBLIC        P5
  D:00A8H         PUBLIC        IE
  D:00B8H         PUBLIC        IP
  D:00D8H         PUBLIC        CCON
  D:0098H         PUBLIC        SCON
  D:0088H         PUBLIC        TCON
  D:00E0H         PUBLIC        ACC
  D:00D0H         PUBLIC        PSW
  -------         ENDMOD        OS_MEM

  -------         MODULE        OS_Q
  C:0000H         SYMBOL        _ICE_DUMMY_
  D:0080H         PUBLIC        P0
  D:0090H         PUBLIC        P1
  D:00A0H         PUBLIC        P2
  D:00B0H         PUBLIC        P3
  D:00C0H         PUBLIC        P4
  D:00C8H         PUBLIC        P5
  B:00A8H.7       PUBLIC        EA
  D:00A8H         PUBLIC        IE
  D:00B8H         PUBLIC        IP
  C:68A8H         PUBLIC        _OSQPost
  D:0081H         PUBLIC        SP
  D:00D8H         PUBLIC        CCON
  D:0098H         PUBLIC        SCON
  D:0088H         PUBLIC        TCON
  D:00E0H         PUBLIC        ACC
  C:7872H         PUBLIC        _OSQCreate
  D:00D0H         PUBLIC        PSW
  C:6436H         PUBLIC        _OSQPend
  -------         PROC          _OSQCREATE
  D:0007H         SYMBOL        Buf
  D:0005H         SYMBOL        SizeOfBuf
  C:7872H         LINE#         62
  C:7872H         LINE#         64
  C:7872H         LINE#         65
  C:7876H         LINE#         67
  C:787FH         LINE#         68
  C:787FH         LINE#         69
  C:7882H         LINE#         70
  C:7889H         LINE#         72
  C:788FH         LINE#         76
  C:7895H         LINE#         77
  C:789BH         LINE#         80
  C:78A0H         LINE#         81
  C:78A3H         LINE#         82
  C:78A3H         LINE#         84
  C:78A3H         LINE#         85
  C:78A8H         LINE#         86
  C:78AAH         LINE#         87
  C:78AAH         LINE#         89
  -------         ENDPROC       _OSQCREATE
  -------         PROC          _OSQPEND
  D:0007H         SYMBOL        Ret
  D:0005H         SYMBOL        Buf
BL51 BANKED LINKER/LOCATER V6.22                                                      02/08/2018  14:09:45  PAGE 130


  D:0003H         SYMBOL        Tick
  -------         DO            
  D:0007H         SYMBOL        cp
  -------         ENDDO         
  C:6436H         LINE#         119
  C:6436H         LINE#         120
  C:6436H         LINE#         132
  C:643AH         LINE#         134
  C:6443H         LINE#         139
  C:6445H         LINE#         140
  C:644BH         LINE#         145
  C:6457H         LINE#         157
  C:645CH         LINE#         158
  C:645CH         LINE#         161
  C:645EH         LINE#         162
  C:6464H         LINE#         165
  C:6469H         LINE#         166
  C:646CH         LINE#         169
  C:6472H         LINE#         170
  C:6474H         LINE#         173
  C:647CH         LINE#         174
  C:647CH         LINE#         175
  C:647CH         LINE#         176
  C:647CH         LINE#         181
  C:6489H         LINE#         193
  C:6491H         LINE#         194
  C:6491H         LINE#         196
  C:6492H         LINE#         198
  C:6497H         LINE#         199
  C:64A3H         LINE#         200
  C:64A3H         LINE#         202
  C:64A5H         LINE#         206
  C:64A5H         LINE#         208
  C:64ABH         LINE#         209
  C:64ADH         LINE#         210
  C:64B8H         LINE#         214
  C:64BDH         LINE#         215
  C:64C0H         LINE#         216
  C:64C0H         LINE#         218
  C:64C0H         LINE#         221
  C:64C2H         LINE#         224
  C:64C7H         LINE#         225
  C:64C9H         LINE#         226
  C:64C9H         LINE#         227
  -------         ENDPROC       _OSQPEND
  -------         PROC          _OSQPOST
  D:0007H         SYMBOL        Buf
  D:0005H         SYMBOL        Data
  -------         DO            
  D:0006H         SYMBOL        temp
  D:0005H         SYMBOL        i
  -------         ENDDO         
  C:68A8H         LINE#         307
  C:68A8H         LINE#         308
  C:68A8H         LINE#         318
  C:68ACH         LINE#         322
  C:68BAH         LINE#         326
BL51 BANKED LINKER/LOCATER V6.22                                                      02/08/2018  14:09:45  PAGE 131


  C:68BAH         LINE#         329
  C:68BCH         LINE#         330
  C:68C4H         LINE#         333
  C:68D0H         LINE#         334
  C:68DAH         LINE#         335
  C:68DAH         LINE#         337
  C:68DFH         LINE#         341
  C:68DFH         LINE#         344
  C:68EAH         LINE#         345
  C:68ECH         LINE#         350
  C:68EFH         LINE#         352
  C:68F4H         LINE#         353
  C:68F4H         LINE#         355
  C:68FAH         LINE#         357
  C:68FCH         LINE#         358
  C:68FCH         LINE#         359
  C:6900H         LINE#         360
  C:6900H         LINE#         361
  C:6900H         LINE#         362
  C:6900H         LINE#         363
  C:6904H         LINE#         364
  C:6909H         LINE#         365
  C:690FH         LINE#         366
  C:690FH         LINE#         368
  C:691BH         LINE#         369
  C:6920H         LINE#         370
  C:6920H         LINE#         406
  C:6920H         LINE#         407
  C:6925H         LINE#         408
  C:6928H         LINE#         409
  C:6928H         LINE#         411
  C:6928H         LINE#         412
  C:692DH         LINE#         413
  C:692FH         LINE#         414
  C:692FH         LINE#         415
  -------         ENDPROC       _OSQPOST
  -------         ENDMOD        OS_Q

  -------         MODULE        OS_SEM
  C:0000H         SYMBOL        _ICE_DUMMY_
  D:0080H         PUBLIC        P0
  D:0090H         PUBLIC        P1
  D:00A0H         PUBLIC        P2
  D:00B0H         PUBLIC        P3
  D:00C0H         PUBLIC        P4
  D:00C8H         PUBLIC        P5
  D:00A8H         PUBLIC        IE
  D:00B8H         PUBLIC        IP
  D:00D8H         PUBLIC        CCON
  D:0098H         PUBLIC        SCON
  D:0088H         PUBLIC        TCON
  D:00E0H         PUBLIC        ACC
  D:00D0H         PUBLIC        PSW
  -------         ENDMOD        OS_SEM

  -------         MODULE        OS_CPU_C
  C:0000H         SYMBOL        _ICE_DUMMY_
BL51 BANKED LINKER/LOCATER V6.22                                                      02/08/2018  14:09:45  PAGE 132


  D:0080H         PUBLIC        P0
  D:0090H         PUBLIC        P1
  D:00A0H         PUBLIC        P2
  D:00B0H         PUBLIC        P3
  C:7B60H         PUBLIC        _OSTaskStkDel
  D:00C0H         PUBLIC        P4
  D:00C8H         PUBLIC        P5
  B:00A8H.7       PUBLIC        EA
  C:7675H         PUBLIC        _StkDelA
  C:76FAH         PUBLIC        _StkDelB
  C:7E51H         PUBLIC        _StkDelC
  D:00A8H         PUBLIC        IE
  D:00DBH         PUBLIC        CCAPM1
  D:00B8H         PUBLIC        IP
  C:71B8H         PUBLIC        OSTickISR
  C:7FA6H         PUBLIC        OSCPUInit
  D:0081H         PUBLIC        SP
  D:00D8H         PUBLIC        CCON
  D:0011H         PUBLIC        OSTsakStackBotton
  D:0098H         PUBLIC        SCON
  D:0088H         PUBLIC        TCON
  D:00E0H         PUBLIC        ACC
  D:0016H         PUBLIC        OSFastSwap
  X:031BH         PUBLIC        timer_i
  D:00D0H         PUBLIC        PSW
  B:00D8H.0       PUBLIC        CCF0
  B:00D8H.1       PUBLIC        CCF1
  -------         PROC          OSCPUINIT
  -------         DO            
  D:0007H         SYMBOL        i
  -------         ENDDO         
  C:7FA6H         LINE#         80
  C:7FA6H         LINE#         84
  C:7FA8H         LINE#         85
  C:7FA8H         LINE#         86
  C:7FAEH         LINE#         87
  C:7FB2H         LINE#         88
  C:7FB5H         LINE#         90
  -------         ENDPROC       OSCPUINIT
  -------         PROC          _STKDELA
  D:0007H         SYMBOL        TaskID
  -------         DO            
  D:0006H         SYMBOL        cp
  D:0005H         SYMBOL        cp1
  D:0004H         SYMBOL        temp
  D:0007H         SYMBOL        i
  -------         ENDDO         
  C:7675H         LINE#         202
  C:7675H         LINE#         203
  C:7675H         LINE#         208
  C:767BH         LINE#         209
  C:7681H         LINE#         210
  C:7686H         LINE#         211
  C:768FH         LINE#         212
  C:768FH         LINE#         213
  C:769AH         LINE#         214
  C:769DH         LINE#         215
BL51 BANKED LINKER/LOCATER V6.22                                                      02/08/2018  14:09:45  PAGE 133


  C:76A3H         LINE#         217
  C:76A3H         LINE#         218
  C:76AFH         LINE#         219
  C:76B1H         LINE#         220
  C:76B7H         LINE#         221
  -------         ENDPROC       _STKDELA
  -------         PROC          _STKDELB
  D:0007H         SYMBOL        TaskID
  -------         DO            
  D:0005H         SYMBOL        cp
  D:0004H         SYMBOL        cp1
  D:0005H         SYMBOL        temp
  D:0006H         SYMBOL        i
  -------         ENDDO         
  C:76FAH         LINE#         224
  C:76FAH         LINE#         225
  C:76FAH         LINE#         230
  C:7701H         LINE#         231
  C:7707H         LINE#         232
  C:7712H         LINE#         233
  C:7714H         LINE#         234
  C:7714H         LINE#         236
  C:7714H         LINE#         237
  C:7720H         LINE#         238
  C:7722H         LINE#         239
  C:7722H         LINE#         240
  C:7728H         LINE#         241
  C:7731H         LINE#         242
  C:7731H         LINE#         243
  C:7738H         LINE#         244
  C:773BH         LINE#         245
  -------         ENDPROC       _STKDELB
  -------         PROC          _STKDELC
  D:0007H         SYMBOL        TaskID
  -------         DO            
  D:0005H         SYMBOL        cp
  -------         ENDDO         
  C:7E51H         LINE#         247
  C:7E51H         LINE#         248
  C:7E51H         LINE#         253
  C:7E57H         LINE#         254
  C:7E5DH         LINE#         255
  C:7E62H         LINE#         256
  C:7E66H         LINE#         257
  -------         ENDPROC       _STKDELC
  -------         PROC          _OSTASKSTKDEL
  D:0007H         SYMBOL        TaskID
  -------         DO            
  D:0006H         SYMBOL        temp
  -------         ENDDO         
  C:7B60H         LINE#         260
  C:7B60H         LINE#         264
  C:7B62H         LINE#         265
  C:7B66H         LINE#         266
  C:7B66H         LINE#         267
  C:7B67H         LINE#         268
  C:7B69H         LINE#         269
BL51 BANKED LINKER/LOCATER V6.22                                                      02/08/2018  14:09:45  PAGE 134


  C:7B6FH         LINE#         270
  C:7B6FH         LINE#         271
  C:7B71H         LINE#         272
  C:7B71H         LINE#         273
  C:7B7CH         LINE#         274
  C:7B7CH         LINE#         275
  C:7B7CH         LINE#         276
  C:7B7FH         LINE#         277
  C:7B7FH         LINE#         278
  C:7B7FH         LINE#         279
  C:7B82H         LINE#         280
  C:7B82H         LINE#         281
  C:7B82H         LINE#         282
  C:7B85H         LINE#         283
  C:7B85H         LINE#         284
  C:7B85H         LINE#         285
  C:7B85H         LINE#         286
  C:7B85H         LINE#         287
  -------         ENDPROC       _OSTASKSTKDEL
  -------         PROC          OSTICKISR
  C:71B8H         LINE#         310
  C:71D7H         LINE#         313
  C:71DAH         LINE#         314
  C:71DAH         LINE#         320
  C:71DDH         LINE#         330
  C:71E1H         LINE#         333
  C:71E4H         LINE#         338
  C:71E7H         LINE#         339
  C:71E7H         LINE#         340
  C:71EAH         LINE#         341
  C:71EAH         LINE#         342
  C:71ECH         LINE#         343
  C:71EFH         LINE#         344
  C:71F1H         LINE#         345
  C:71F1H         LINE#         346
  -------         ENDPROC       OSTICKISR
  -------         ENDMOD        OS_CPU_C

  -------         MODULE        OS_CPU_A_ASM
  C:801AH         SEGMENT       ?PR?OSCTXSW?OS_CPU_A
  C:79E3H         SEGMENT       ?PR?OSINTCTXSW?OS_CPU_A
  C:7981H         SEGMENT       ?PR?LOADCTX?OS_CPU_A
  C:667CH         SEGMENT       ?PR?C_OSCTXSW?OS_CPU_A
  C:6A35H         SEGMENT       ?PR?_OSTASKSTKINIT?OS_CPU_A
  I:0076H         SEGMENT       ?STACK
  C:667CH         PUBLIC        C_OSCTXSW
  C:7981H         PUBLIC        LOADCTX
  C:801AH         PUBLIC        OSCTXSW
  C:79E3H         PUBLIC        OSINTCTXSW
  I:0076H         PUBLIC        STACK
  C:6A35H         PUBLIC        _OSTASKSTKINIT
  C:66C9H         SYMBOL        ?C0001
  C:669AH         SYMBOL        ?C0002
  C:66A0H         SYMBOL        ?C0003
  C:66BDH         SYMBOL        ?C0004
  C:66C3H         SYMBOL        ?C0005
  C:6702H         SYMBOL        ?C0007
BL51 BANKED LINKER/LOCATER V6.22                                                      02/08/2018  14:09:45  PAGE 135


  C:66D3H         SYMBOL        ?C0008
  C:66D9H         SYMBOL        ?C0009
  C:6705H         SYMBOL        ?C000R
  C:66F7H         SYMBOL        ?C0010
  C:66FDH         SYMBOL        ?C0011
  D:00E0H         SYMBOL        ACC
  D:00F0H         SYMBOL        B
  D:0083H         SYMBOL        DPH
  D:0082H         SYMBOL        DPL
  B:00A8H.7       SYMBOL        EA
  C:798AH         SYMBOL        LOADCTX_0
  C:79ACH         SYMBOL        LOADCTX_2
  C:79B3H         SYMBOL        LOADCTX_3
  C:79F8H         SYMBOL        OSINTCTXSW_0
  N:0000H         SYMBOL        OS_CPU_A_ASM
  D:00D0H         SYMBOL        PSW
  D:0081H         SYMBOL        SP
  C:6A6CH         SYMBOL        STKINIT11
  C:6AA0H         SYMBOL        STKINIT12
  C:6A7EH         SYMBOL        STKINIT15
  C:6A9AH         SYMBOL        STKINIT18
  C:6A74H         SYMBOL        STKINIT5
  C:6A4FH         SYMBOL        STKINIT8
  C:6A35H         LINE#         137
  C:6A37H         LINE#         138
  C:6A39H         LINE#         142
  C:6A3AH         LINE#         143
  C:6A3DH         LINE#         144
  C:6A3EH         LINE#         145
  C:6A40H         LINE#         173
  C:6A41H         LINE#         174
  C:6A42H         LINE#         175
  C:6A44H         LINE#         176
  C:6A46H         LINE#         179
  C:6A47H         LINE#         180
  C:6A49H         LINE#         181
  C:6A4AH         LINE#         182
  C:6A4BH         LINE#         184
  C:6A4DH         LINE#         185
  C:6A4EH         LINE#         186
  C:6A4FH         LINE#         191
  C:6A51H         LINE#         192
  C:6A52H         LINE#         193
  C:6A53H         LINE#         195
  C:6A54H         LINE#         197
  C:6A56H         LINE#         200
  C:6A58H         LINE#         203
  C:6A5AH         LINE#         204
  C:6A5CH         LINE#         205
  C:6A5EH         LINE#         207
  C:6A60H         LINE#         208
  C:6A61H         LINE#         209
  C:6A62H         LINE#         210
  C:6A64H         LINE#         211
  C:6A65H         LINE#         212
  C:6A67H         LINE#         213
  C:6A68H         LINE#         214
BL51 BANKED LINKER/LOCATER V6.22                                                      02/08/2018  14:09:45  PAGE 136


  C:6A69H         LINE#         215
  C:6A6AH         LINE#         217
  C:6A6CH         LINE#         222
  C:6A6DH         LINE#         223
  C:6A6EH         LINE#         224
  C:6A6FH         LINE#         225
  C:6A70H         LINE#         227
  C:6A72H         LINE#         229
  C:6A74H         LINE#         234
  C:6A76H         LINE#         235
  C:6A78H         LINE#         236
  C:6A79H         LINE#         238
  C:6A7AH         LINE#         239
  C:6A7BH         LINE#         240
  C:6A7DH         LINE#         241
  C:6A7EH         LINE#         246
  C:6A80H         LINE#         247
  C:6A81H         LINE#         248
  C:6A82H         LINE#         250
  C:6A83H         LINE#         252
  C:6A85H         LINE#         255
  C:6A87H         LINE#         256
  C:6A89H         LINE#         257
  C:6A8AH         LINE#         258
  C:6A8BH         LINE#         259
  C:6A8CH         LINE#         261
  C:6A8DH         LINE#         262
  C:6A8FH         LINE#         263
  C:6A90H         LINE#         265
  C:6A92H         LINE#         266
  C:6A93H         LINE#         267
  C:6A94H         LINE#         268
  C:6A95H         LINE#         269
  C:6A96H         LINE#         270
  C:6A97H         LINE#         271
  C:6A98H         LINE#         273
  C:6A9AH         LINE#         278
  C:6A9BH         LINE#         279
  C:6A9CH         LINE#         280
  C:6A9DH         LINE#         281
  C:6A9EH         LINE#         283
  C:6AA0H         LINE#         287
  C:6AA2H         LINE#         288
  C:6AA3H         LINE#         289
  C:6AA4H         LINE#         290
  C:6AA5H         LINE#         291
  C:6AA6H         LINE#         293
  C:6AA8H         LINE#         294
  C:6AA9H         LINE#         295
  C:6AAAH         LINE#         297
  C:6AACH         LINE#         298
  C:6AADH         LINE#         299
  C:6AAEH         LINE#         309
  C:6AAFH         LINE#         310
  C:6AB0H         LINE#         312
  C:7981H         LINE#         340
  C:7983H         LINE#         348
BL51 BANKED LINKER/LOCATER V6.22                                                      02/08/2018  14:09:45  PAGE 137


  C:7985H         LINE#         349
  C:7988H         LINE#         350
  C:798AH         LINE#         352
  C:798DH         LINE#         354
  C:798EH         LINE#         355
  C:7990H         LINE#         367
  C:7992H         LINE#         369
  C:7994H         LINE#         370
  C:7996H         LINE#         371
  C:7998H         LINE#         372
  C:799AH         LINE#         373
  C:799CH         LINE#         374
  C:799EH         LINE#         375
  C:79A0H         LINE#         376
  C:79A2H         LINE#         377
  C:79A4H         LINE#         378
  C:79A6H         LINE#         379
  C:79A8H         LINE#         380
  C:79AAH         LINE#         381
  C:79ACH         LINE#         384
  C:79AEH         LINE#         385
  C:79B1H         LINE#         386
  C:79B3H         LINE#         388
  C:801AH         LINE#         415
  C:801CH         LINE#         417
  C:801FH         LINE#         418
  C:8021H         LINE#         420
  C:8022H         LINE#         421
  C:8024H         LINE#         434
  C:667CH         LINE#         457
  C:667EH         LINE#         460
  C:6680H         LINE#         466
  C:6681H         LINE#         468
  C:6683H         LINE#         469
  C:6685H         LINE#         470
  C:6686H         LINE#         471
  C:6687H         LINE#         472
  C:6688H         LINE#         474
  C:668AH         LINE#         475
  C:668CH         LINE#         476
  C:668DH         LINE#         477
  C:668EH         LINE#         478
  C:668FH         LINE#         480
  C:6691H         LINE#         481
  C:6692H         LINE#         482
  C:6694H         LINE#         483
  C:6696H         LINE#         489
  C:6697H         LINE#         490
  C:6698H         LINE#         491
  C:6699H         LINE#         492
  C:669AH         LINE#         494
  C:669BH         LINE#         495
  C:669CH         LINE#         496
  C:669DH         LINE#         497
  C:669EH         LINE#         498
  C:66A0H         LINE#         501
  C:66A2H         LINE#         502
BL51 BANKED LINKER/LOCATER V6.22                                                      02/08/2018  14:09:45  PAGE 138


  C:66A4H         LINE#         503
  C:66A5H         LINE#         504
  C:66A6H         LINE#         505
  C:66A7H         LINE#         507
  C:66A8H         LINE#         508
  C:66A9H         LINE#         510
  C:66AAH         LINE#         511
  C:66ACH         LINE#         516
  C:66AEH         LINE#         517
  C:66AFH         LINE#         518
  C:66B1H         LINE#         519
  C:66B2H         LINE#         520
  C:66B4H         LINE#         522
  C:66B6H         LINE#         523
  C:66B8H         LINE#         524
  C:66B9H         LINE#         525
  C:66BAH         LINE#         526
  C:66BBH         LINE#         527
  C:66BCH         LINE#         528
  C:66BDH         LINE#         530
  C:66BEH         LINE#         531
  C:66BFH         LINE#         532
  C:66C0H         LINE#         533
  C:66C1H         LINE#         534
  C:66C3H         LINE#         537
  C:66C6H         LINE#         539
  C:66C9H         LINE#         544
  C:66CBH         LINE#         545
  C:66CDH         LINE#         546
  C:66CFH         LINE#         558
  C:66D0H         LINE#         559
  C:66D1H         LINE#         560
  C:66D2H         LINE#         561
  C:66D3H         LINE#         563
  C:66D4H         LINE#         564
  C:66D5H         LINE#         565
  C:66D6H         LINE#         566
  C:66D7H         LINE#         567
  C:66D9H         LINE#         570
  C:66DBH         LINE#         571
  C:66DDH         LINE#         572
  C:66DEH         LINE#         573
  C:66DFH         LINE#         574
  C:66E0H         LINE#         576
  C:66E1H         LINE#         577
  C:66E2H         LINE#         579
  C:66E4H         LINE#         580
  C:66E6H         LINE#         581
  C:66E7H         LINE#         582
  C:66E8H         LINE#         583
  C:66EAH         LINE#         589
  C:66ECH         LINE#         590
  C:66EDH         LINE#         591
  C:66EFH         LINE#         592
  C:66F1H         LINE#         594
  C:66F2H         LINE#         595
  C:66F4H         LINE#         596
BL51 BANKED LINKER/LOCATER V6.22                                                      02/08/2018  14:09:45  PAGE 139


  C:66F6H         LINE#         597
  C:66F7H         LINE#         599
  C:66F8H         LINE#         600
  C:66F9H         LINE#         601
  C:66FAH         LINE#         602
  C:66FBH         LINE#         603
  C:66FDH         LINE#         607
  C:6700H         LINE#         609
  C:6702H         LINE#         613
  C:6705H         LINE#         618
  C:79E3H         LINE#         642
  C:79E5H         LINE#         643
  C:79E7H         LINE#         644
  C:79E9H         LINE#         647
  C:79EBH         LINE#         648
  C:79EDH         LINE#         649
  C:79EFH         LINE#         651
  C:79F1H         LINE#         652
  C:79F3H         LINE#         653
  C:79F5H         LINE#         654
  C:79F7H         LINE#         655
  C:79F8H         LINE#         659
  C:79FAH         LINE#         660
  C:79FCH         LINE#         661
  C:79FEH         LINE#         663
  C:7A01H         LINE#         664
  C:7A03H         LINE#         666
  C:7A04H         LINE#         667
  C:7A05H         LINE#         668
  C:7A07H         LINE#         689
  C:7A09H         LINE#         691
  C:7A0BH         LINE#         692
  C:7A0DH         LINE#         693
  C:7A0FH         LINE#         694
  C:7A11H         LINE#         695
  -------         ENDMOD        OS_CPU_A_ASM

  -------         MODULE        ?C?COPY
  C:1A76H         PUBLIC        ?C?COPY
  -------         ENDMOD        ?C?COPY

  -------         MODULE        ?C?CLDPTR
  C:1A9CH         PUBLIC        ?C?CLDPTR
  -------         ENDMOD        ?C?CLDPTR

  -------         MODULE        ?C?CLDOPTR
  C:1AB5H         PUBLIC        ?C?CLDOPTR
  -------         ENDMOD        ?C?CLDOPTR

  -------         MODULE        ?C?CILDOPTR
  C:1AE2H         PUBLIC        ?C?CILDOPTR
  -------         ENDMOD        ?C?CILDOPTR

  -------         MODULE        ?C?CSTPTR
  C:1B15H         PUBLIC        ?C?CSTPTR
  -------         ENDMOD        ?C?CSTPTR

BL51 BANKED LINKER/LOCATER V6.22                                                      02/08/2018  14:09:45  PAGE 140


  -------         MODULE        ?C?CSTOPTR
  C:1B27H         PUBLIC        ?C?CSTOPTR
  -------         ENDMOD        ?C?CSTOPTR

  -------         MODULE        ?C?IMUL
  C:1B49H         PUBLIC        ?C?IMUL
  -------         ENDMOD        ?C?IMUL

  -------         MODULE        ?C?UIDIV
  C:1B5BH         PUBLIC        ?C?UIDIV
  -------         ENDMOD        ?C?UIDIV

  -------         MODULE        ?C?SIDIV
  C:1BB0H         PUBLIC        ?C?SIDIV
  -------         ENDMOD        ?C?SIDIV

  -------         MODULE        ?C?IILDX
  C:1BE6H         PUBLIC        ?C?IILDX
  -------         ENDMOD        ?C?IILDX

  -------         MODULE        ?C?ILDIX
  C:1BFCH         PUBLIC        ?C?ILDIX
  -------         ENDMOD        ?C?ILDIX

  -------         MODULE        ?C?ILDOPTR
  C:1C12H         PUBLIC        ?C?ILDOPTR
  -------         ENDMOD        ?C?ILDOPTR

  -------         MODULE        ?C?ISTOPTR
  C:1C4AH         PUBLIC        ?C?ISTOPTR
  -------         ENDMOD        ?C?ISTOPTR

  -------         MODULE        ?C?LMUL
  C:1C77H         PUBLIC        ?C?LMUL
  -------         ENDMOD        ?C?LMUL

  -------         MODULE        ?C?SLDIV
  C:75EEH         PUBLIC        ?C?SLDIV
  -------         ENDMOD        ?C?SLDIV

  -------         MODULE        ?C?ULCMP
  C:1CC6H         PUBLIC        ?C?ULCMP
  -------         ENDMOD        ?C?ULCMP

  -------         MODULE        ?C?ULSHR
  C:1CD7H         PUBLIC        ?C?ULSHR
  -------         ENDMOD        ?C?ULSHR

  -------         MODULE        ?C?LSHL
  C:1CEAH         PUBLIC        ?C?LSHL
  -------         ENDMOD        ?C?LSHL

  -------         MODULE        ?C?LSTXDATA
  C:1CFDH         PUBLIC        ?C?LSTXDATA
  -------         ENDMOD        ?C?LSTXDATA

  -------         MODULE        ?C?LSTKXDATA
BL51 BANKED LINKER/LOCATER V6.22                                                      02/08/2018  14:09:45  PAGE 141


  C:1D09H         PUBLIC        ?C?LSTKXDATA
  -------         ENDMOD        ?C?LSTKXDATA

  -------         MODULE        ?C?CCASE
  C:1D3AH         PUBLIC        ?C?CCASE
  -------         ENDMOD        ?C?CCASE

  -------         MODULE        ?C?MEMSET
  C:1D60H         PUBLIC        ?C?MEMSET
  -------         ENDMOD        ?C?MEMSET

  -------         MODULE        ?C?ULDIV
  C:1DC8H         PUBLIC        ?C?ULDIV
  -------         ENDMOD        ?C?ULDIV

*** WARNING L16: UNCALLED SEGMENT, IGNORED FOR OVERLAY PROCESS
    SEGMENT: ?PR?RESETEPH1660?EPH1660

*** WARNING L16: UNCALLED SEGMENT, IGNORED FOR OVERLAY PROCESS
    SEGMENT: ?PR?MASTERSPIINITIEPH1660?EPH1660

*** WARNING L16: UNCALLED SEGMENT, IGNORED FOR OVERLAY PROCESS
    SEGMENT: ?PR?EPH1660MANAGER?EPH1660

*** WARNING L16: UNCALLED SEGMENT, IGNORED FOR OVERLAY PROCESS
    SEGMENT: ?PR?REC_GT23_DATA?GT23

*** WARNING L16: UNCALLED SEGMENT, IGNORED FOR OVERLAY PROCESS
    SEGMENT: ?PR?_SSD1963DATA_16?LCD

*** WARNING L16: UNCALLED SEGMENT, IGNORED FOR OVERLAY PROCESS
    SEGMENT: ?PR?READ_SSD1963_DATA?LCD

*** WARNING L16: UNCALLED SEGMENT, IGNORED FOR OVERLAY PROCESS
    SEGMENT: ?PR?DISPLAY_DOT?LCD

*** WARNING L16: UNCALLED SEGMENT, IGNORED FOR OVERLAY PROCESS
    SEGMENT: ?PR?DISPLAYFRAME?LCD

*** WARNING L16: UNCALLED SEGMENT, IGNORED FOR OVERLAY PROCESS
    SEGMENT: ?PR?SHOWSTARTINFUSIONCALL?LCD

*** WARNING L16: UNCALLED SEGMENT, IGNORED FOR OVERLAY PROCESS
    SEGMENT: ?PR?SHOWSTARTSERVICECALL?LCD

*** WARNING L16: UNCALLED SEGMENT, IGNORED FOR OVERLAY PROCESS
    SEGMENT: ?PR?SHOWSTARTEMERGENCYCALL?LCD

*** WARNING L16: UNCALLED SEGMENT, IGNORED FOR OVERLAY PROCESS
    SEGMENT: ?PR?SHOWSTARTHELPCALL?LCD

*** WARNING L16: UNCALLED SEGMENT, IGNORED FOR OVERLAY PROCESS
    SEGMENT: ?PR?RD_ID?MAIN

*** WARNING L16: UNCALLED SEGMENT, IGNORED FOR OVERLAY PROCESS
    SEGMENT: ?PR?DIRRFSERIALCOMPARE?MAIN

BL51 BANKED LINKER/LOCATER V6.22                                                      02/08/2018  14:09:45  PAGE 142


*** WARNING L16: UNCALLED SEGMENT, IGNORED FOR OVERLAY PROCESS
    SEGMENT: ?PR?SYSRESET?SINGLEBUS

*** WARNING L16: UNCALLED SEGMENT, IGNORED FOR OVERLAY PROCESS
    SEGMENT: ?PR?EPH1660MASTERSPI?SPI

*** WARNING L16: UNCALLED SEGMENT, IGNORED FOR OVERLAY PROCESS
    SEGMENT: ?PR?_ISSINGLEITEM?UART

*** WARNING L16: UNCALLED SEGMENT, IGNORED FOR OVERLAY PROCESS
    SEGMENT: ?PR?_USARTINITCONFIG?UART

*** WARNING L16: UNCALLED SEGMENT, IGNORED FOR OVERLAY PROCESS
    SEGMENT: ?PR?USARTMANAGER?UART

*** WARNING L16: UNCALLED SEGMENT, IGNORED FOR OVERLAY PROCESS
    SEGMENT: ?PR?SST25VF_INIT?PCT25VF

*** WARNING L16: UNCALLED SEGMENT, IGNORED FOR OVERLAY PROCESS
    SEGMENT: ?PR?HOLD_LOW?PCT25VF

*** WARNING L16: UNCALLED SEGMENT, IGNORED FOR OVERLAY PROCESS
    SEGMENT: ?PR?UNHOLD?PCT25VF

*** WARNING L16: UNCALLED SEGMENT, IGNORED FOR OVERLAY PROCESS
    SEGMENT: ?PR?WP_LOW?PCT25VF

*** WARNING L16: UNCALLED SEGMENT, IGNORED FOR OVERLAY PROCESS
    SEGMENT: ?PR?UNWP?PCT25VF

*** WARNING L16: UNCALLED SEGMENT, IGNORED FOR OVERLAY PROCESS
    SEGMENT: ?PR?JEDEC_ID_READ?PCT25VF

*** WARNING L16: UNCALLED SEGMENT, IGNORED FOR OVERLAY PROCESS
    SEGMENT: ?PR?_HIGHSPEED_READ?PCT25VF

*** WARNING L16: UNCALLED SEGMENT, IGNORED FOR OVERLAY PROCESS
    SEGMENT: ?PR?_HIGHSPEED_READ_CONT?PCT25VF

*** WARNING L16: UNCALLED SEGMENT, IGNORED FOR OVERLAY PROCESS
    SEGMENT: ?PR?_AUTO_ADD_INCA?PCT25VF

*** WARNING L16: UNCALLED SEGMENT, IGNORED FOR OVERLAY PROCESS
    SEGMENT: ?PR?_AUTO_ADD_INCB?PCT25VF

*** WARNING L16: UNCALLED SEGMENT, IGNORED FOR OVERLAY PROCESS
    SEGMENT: ?PR?CHIP_ERASE?PCT25VF

*** WARNING L16: UNCALLED SEGMENT, IGNORED FOR OVERLAY PROCESS
    SEGMENT: ?PR?_BLOCK_ERASE_32K?PCT25VF

*** WARNING L16: UNCALLED SEGMENT, IGNORED FOR OVERLAY PROCESS
    SEGMENT: ?PR?_BLOCK_ERASE_64K?PCT25VF

*** WARNING L16: UNCALLED SEGMENT, IGNORED FOR OVERLAY PROCESS
    SEGMENT: ?PR?WAIT_BUSY_AAI?PCT25VF

BL51 BANKED LINKER/LOCATER V6.22                                                      02/08/2018  14:09:45  PAGE 143


*** WARNING L16: UNCALLED SEGMENT, IGNORED FOR OVERLAY PROCESS
    SEGMENT: ?PR?WREN_CHECK?PCT25VF

*** WARNING L16: UNCALLED SEGMENT, IGNORED FOR OVERLAY PROCESS
    SEGMENT: ?PR?WREN_AAI_CHECK?PCT25VF

*** WARNING L16: UNCALLED SEGMENT, IGNORED FOR OVERLAY PROCESS
    SEGMENT: ?PR?_BYTE_WRITE?PCT25VF

*** WARNING L16: UNCALLED SEGMENT, IGNORED FOR OVERLAY PROCESS
    SEGMENT: ?PR?FRAM_TEST?PCT25VF

*** WARNING L16: UNCALLED SEGMENT, IGNORED FOR OVERLAY PROCESS
    SEGMENT: ?PR?_OSTASKSTKDEL?OS_CPU_C

Program Size: data=111.6 xdata=796 code=32969
LINK/LOCATE RUN COMPLETE.  38 WARNING(S),  0 ERROR(S)
