BL51 BANKED LINKER/LOCATER V6.22                                                        06/23/2017  13:33:26  PAGE 1


BL51 BANKED LINKER/LOCATER V6.22, INVOKED BY:
C:\KEIL\C51\BIN\BL51.EXE Key.obj, IAP.obj, LcdDriver.obj, main.obj, SingleBus.obj, SPI.obj, uart.obj, Data.obj TO MKTFT-
>> V3.0 RAMSIZE (256)


MEMORY MODEL: SMALL


INPUT MODULES INCLUDED:
  Key.obj (KEY)
  IAP.obj (IAP)
  LcdDriver.obj (LCDDRIVER)
  main.obj (MAIN)
  SingleBus.obj (SINGLEBUS)
  SPI.obj (SPI)
  uart.obj (UART)
  Data.obj (DATA_ASM)
  C:\KEIL\C51\LIB\C51S.LIB (?C_STARTUP)
  C:\KEIL\C51\LIB\C51S.LIB (?C?COPY)
  C:\KEIL\C51\LIB\C51S.LIB (?C?CLDPTR)
  C:\KEIL\C51\LIB\C51S.LIB (?C?CLDOPTR)
  C:\KEIL\C51\LIB\C51S.LIB (?C?CSTOPTR)
  C:\KEIL\C51\LIB\C51S.LIB (?C?IMUL)
  C:\KEIL\C51\LIB\C51S.LIB (?C?UIDIV)
  C:\KEIL\C51\LIB\C51S.LIB (?C?IILDX)
  C:\KEIL\C51\LIB\C51S.LIB (?C?ILDIX)
  C:\KEIL\C51\LIB\C51S.LIB (?C?LADD)
  C:\KEIL\C51\LIB\C51S.LIB (?C?LMUL)
  C:\KEIL\C51\LIB\C51S.LIB (?C?ULDIV)
  C:\KEIL\C51\LIB\C51S.LIB (?C?ULCMP)
  C:\KEIL\C51\LIB\C51S.LIB (?C?ULSHR)
  C:\KEIL\C51\LIB\C51S.LIB (?C?LLDXDATA)
  C:\KEIL\C51\LIB\C51S.LIB (?C?LLDXDATA0)
  C:\KEIL\C51\LIB\C51S.LIB (?C?LLDIXDATA)
  C:\KEIL\C51\LIB\C51S.LIB (?C?LSTXDATA)
  C:\KEIL\C51\LIB\C51S.LIB (?C?LSTKXDATA)
  C:\KEIL\C51\LIB\C51S.LIB (?C?PLDIIDATA)
  C:\KEIL\C51\LIB\C51S.LIB (?C?CCASE)
  C:\KEIL\C51\LIB\C51S.LIB (?C?MEMSET)
  C:\KEIL\C51\LIB\C51S.LIB (?C_INIT)


LINK MAP OF MODULE:  MKTFT-V3.0 (KEY)


            TYPE    BASE      LENGTH    RELOCATION   SEGMENT NAME
            -----------------------------------------------------

            * * * * * * *   D A T A   M E M O R Y   * * * * * * *
            REG     0000H     0008H     ABSOLUTE     "REG BANK 0"
            DATA    0008H     0018H     UNIT         ?DT?SINGLEBUS
            DATA    0020H     0008H     BIT_ADDR     ?BA?SINGLEBUS
            BIT     0028H.0   0001H.5   UNIT         ?BI?SINGLEBUS
            BIT     0029H.5   0001H.0   UNIT         ?BI?MAIN
            BIT     002AH.5   0000H.7   UNIT         ?BI?KEY
            BIT     002BH.4   0000H.2   UNIT         ?BI?LCDDRIVER
                    002BH.6   0000H.2                *** GAP ***
            DATA    002CH     0025H     UNIT         _DATA_GROUP_
BL51 BANKED LINKER/LOCATER V6.22                                                      06/23/2017  13:33:26  PAGE 2


            DATA    0051H     0009H     UNIT         ?DT?_SHOWLANDINGWORD?LCDDRIVER
            DATA    005AH     0009H     UNIT         ?DT?_FMWRITEBYTES1?SPI
            DATA    0063H     0005H     UNIT         ?DT?_FMWRITEBYTE1?SPI
            DATA    0068H     0004H     UNIT         ?DT?_SECTOR_ERASE?SPI
            DATA    006CH     0002H     UNIT         ?DT?MAIN
            DATA    006EH     0001H     UNIT         ?DT?UART
            IDATA   006FH     001DH     UNIT         ?ID?SINGLEBUS
            IDATA   008CH     0006H     UNIT         ?ID?UART
            IDATA   0092H     0005H     UNIT         _IDATA_GROUP_
            IDATA   0097H     0001H     UNIT         ?STACK

            * * * * * * *  X D A T A   M E M O R Y  * * * * * * *
            XDATA   0000H     0109H     UNIT         ?XD?UART
            XDATA   0109H     0099H     UNIT         ?XD?SPI
            XDATA   01A2H     0045H     UNIT         ?XD?MAIN
            XDATA   01E7H     0031H     UNIT         _XDATA_GROUP_
            XDATA   0218H     001EH     UNIT         ?XD?SINGLEBUS
            XDATA   0236H     0004H     UNIT         ?XD?SHOWLANDINGFACE?LCDDRIVER
            XDATA   023AH     0002H     UNIT         ?XD?LCDDRIVER
            XDATA   023CH     0002H     UNIT         ?XD?_SHOWLANDINGWORD?LCDDRIVER
            XDATA   023EH     0001H     UNIT         ?XD?_SEND_DATA?UART

            * * * * * * *   C O D E   M E M O R Y   * * * * * * *
            CODE    0000H     0003H     ABSOLUTE     
            CODE    0003H     0003H     ABSOLUTE     
                    0006H     0005H                  *** GAP ***
            CODE    000BH     0003H     ABSOLUTE     
            CODE    000EH     0015H     UNIT         ?PR?_BCDTOHEX?SINGLEBUS
            CODE    0023H     0003H     ABSOLUTE     
            CODE    0026H     0012H     UNIT         ?PR?_MAKECH1TIMEROUT?SINGLEBUS
                    0038H     0003H                  *** GAP ***
            CODE    003BH     0003H     ABSOLUTE     
            CODE    003EH     0C38H     UNIT         ?PR?BUS0RECDEAL?SINGLEBUS
            CODE    0C76H     0978H     UNIT         ?PR?SHOWBEDPAGE?LCDDRIVER
            CODE    15EEH     04D4H     UNIT         ?PR?_SHOWCALLFACE?LCDDRIVER
            CODE    1AC2H     04C0H     UNIT         ?PR?_SHOWSERCHROOMCOM?LCDDRIVER
            CODE    1F82H     044BH     UNIT         ?PR?_SHOWVERSION?LCDDRIVER
            CODE    23CDH     042BH     UNIT         ?C?LIB_CODE
            CODE    27F8H     0008H     UNIT         ?PR?DISABLEIAP?IAP
            CODE    2800H     001EH     ABSOLUTE     
            CODE    281EH     2C99H     UNIT         ?PR?SHOWSERCHROMMPAGE1?LCDDRIVER
            CODE    54B7H     2C91H     UNIT         ?PR?SHOWSERCHROMMPAGE2?LCDDRIVER
            CODE    8148H     2C91H     UNIT         ?PR?SHOWSERCHROMMPAGE3?LCDDRIVER
            CODE    ADD9H     03FDH     UNIT         ?PR?SHOWBROADCASTING?LCDDRIVER
            CODE    B1D6H     0387H     UNIT         ?PR?SHOWPAGE?LCDDRIVER
            CODE    B55DH     0320H     UNIT         ?PR?TIMER0INT?SINGLEBUS
            CODE    B87DH     0303H     UNIT         ?PR?READPAGECOLOUR?SINGLEBUS
            CODE    BB80H     02F4H     UNIT         ?PR?TIMEROUTDEAL?SINGLEBUS
            CODE    BE74H     02D0H     UNIT         ?PR?SHOWNUMBERPAGE?LCDDRIVER
            CODE    C144H     02BFH     UNIT         ?PR?UARTDEAL?UART
            CODE    C403H     028BH     UNIT         ?PR?PARAMETERINIT?SPI
            CODE    C68EH     0252H     UNIT         ?PR?_KEYDOWNDEAL?KEY
            CODE    C8E0H     0235H     UNIT         ?PR?_GET_GT23_DATA1?SPI
            CODE    CB15H     0212H     UNIT         ?PR?_GET_GT23_DATA?SPI
            CODE    CD27H     01B3H     UNIT         ?PR?SHOWSECPAGE?LCDDRIVER
            CODE    CEDAH     01A3H     UNIT         ?PR?SHOWCALLING?LCDDRIVER
            CODE    D07DH     0194H     UNIT         ?PR?LCMINIT?LCDDRIVER
BL51 BANKED LINKER/LOCATER V6.22                                                      06/23/2017  13:33:26  PAGE 3


            CODE    D211H     017BH     UNIT         ?PR?BUS0SENDDEAL?SINGLEBUS
            CODE    D38CH     017BH     UNIT         ?PR?COMM?UART
            CODE    D507H     0160H     UNIT         ?PR?SHOWSELFERROR?LCDDRIVER
            CODE    D667H     0158H     UNIT         ?PR?VOICECHANNELCTX?SINGLEBUS
            CODE    D7BFH     0151H     UNIT         ?PR?SHOWBUSERROR?LCDDRIVER
            CODE    D910H     014EH     UNIT         ?PR?_LCD_FANGDA_DIS_TEXT?LCDDRIVER
            CODE    DA5EH     0138H     UNIT         ?PR?SHOWLANDINGFACE?LCDDRIVER
            CODE    DB96H     011CH     UNIT         ?PR?UARTINIT?UART
            CODE    DCB2H     00F3H     UNIT         ?PR?SHOWNUMBERPAGEOK?LCDDRIVER
            CODE    DDA5H     00C6H     UNIT         ?PR?INIT?MAIN
            CODE    DE6BH     00C5H     UNIT         ?PR?OSTICKISR?MAIN
            CODE    DF30H     00ADH     UNIT         ?PR?_FMWRITEBYTES?SPI
            CODE    DFDDH     00A9H     UNIT         ?PR?_LCD_FILL?LCDDRIVER
            CODE    E086H     00A6H     UNIT         ?PR?FRAM_TEST?SPI
            CODE    E12CH     009BH     UNIT         ?C_INITSEG
            CODE    E1C7H     0090H     UNIT         ?PR?_READ_CONT?SPI
            CODE    E257H     008CH     UNIT         ?C_C51STARTUP
            CODE    E2E3H     0086H     UNIT         ?PR?_BUS0OUTPUTDATA?SINGLEBUS
            CODE    E369H     0082H     UNIT         ?PR?MAIN?MAIN
            CODE    E3EBH     007DH     UNIT         ?PR?_FMWRITEBYTES1?SPI
            CODE    E468H     0079H     UNIT         ?PR?SAVEPARAMETER?SPI
            CODE    E4E1H     0075H     UNIT         ?PR?_LCD_CLEAR?LCDDRIVER
            CODE    E556H     006CH     UNIT         ?CO?LCDDRIVER
            CODE    E5C2H     0067H     UNIT         ?PR?_SHOWWORD?LCDDRIVER
            CODE    E629H     0065H     UNIT         ?PR?_SHOWASCII?LCDDRIVER
            CODE    E68EH     0065H     UNIT         ?PR?_SHOWLANDINGWORD?LCDDRIVER
            CODE    E6F3H     005FH     UNIT         ?PR?_SET_DISPLAY_AREA?LCDDRIVER
            CODE    E752H     0053H     UNIT         ?PR?_FMREADBYTE?SPI
            CODE    E7A5H     0053H     UNIT         ?PR?READPARAMETER?SPI
            CODE    E7F8H     004CH     UNIT         ?PR?_KEYALWAYSDEAL?KEY
            CODE    E844H     0048H     UNIT         ?PR?_ADDRCOMPARE?SINGLEBUS
            CODE    E88CH     0048H     UNIT         ?PR?LEDCONTROL?SINGLEBUS
            CODE    E8D4H     0043H     UNIT         ?PR?SPIINIT?SPI
            CODE    E917H     0041H     UNIT         ?PR?KEYSCAN?KEY
            CODE    E958H     003DH     UNIT         ?PR?_FMWRITEBYTE1?SPI
            CODE    E995H     003AH     UNIT         ?PR?SINGLEBUSINIT?SINGLEBUS
            CODE    E9CFH     0037H     UNIT         ?PR?_SETSCROLLAREA?LCDDRIVER
            CODE    EA06H     0033H     UNIT         ?PR?_SECTOR_ERASE?SPI
            CODE    EA39H     0032H     UNIT         ?PR?_FMWRITEBYTE?SPI
            CODE    EA6BH     0031H     UNIT         ?PR?_SPITRANSFERBYTE?SPI
            CODE    EA9CH     002DH     UNIT         ?PR?SHOWNORMAL?LCDDRIVER
            CODE    EAC9H     002DH     UNIT         ?PR?_DELAYMS?MAIN
            CODE    EAF6H     002BH     UNIT         ?PR?_SEND_DATA?UART
            CODE    EB21H     0028H     UNIT         ?PR?_KEYUPDEAL?KEY
            CODE    EB49H     0026H     UNIT         ?PR?_SAVEINDICATIONDATA?SINGLEBUS
            CODE    EB6FH     0025H     UNIT         ?PR?SYSRESET?SINGLEBUS
            CODE    EB94H     0022H     UNIT         ?PR?_SAVECALLADDR?SINGLEBUS
            CODE    EBB6H     0020H     UNIT         ?PR?_SETMDLEDSTATE?KEY
            CODE    EBD6H     001FH     UNIT         ?PR?_ADDRCOMPARECHECK?SINGLEBUS
            CODE    EBF5H     001EH     UNIT         ?PR?READ_ID?SPI
            CODE    EC13H     0019H     UNIT         ?PR?_DELAY_NUS?SPI
            CODE    EC2CH     0018H     UNIT         ?PR?_SEND_SSD1963_DATA?LCDDRIVER
            CODE    EC44H     0018H     UNIT         ?PR?_MAKECH0TIMEROUT?SINGLEBUS
            CODE    EC5CH     0018H     UNIT         ?PR?WAIT_BUSY?SPI
            CODE    EC74H     0016H     UNIT         ?PR?_SETSCROLLSTART?LCDDRIVER
            CODE    EC8AH     0011H     UNIT         ?PR?_SETLEDDEALSTATE?KEY
            CODE    EC9BH     0011H     UNIT         ?PR?_IAPWRITEBYTE?IAP
BL51 BANKED LINKER/LOCATER V6.22                                                      06/23/2017  13:33:26  PAGE 4


            CODE    ECACH     0011H     UNIT         ?PR?_IAPREADBYTE?IAP
            CODE    ECBDH     0010H     UNIT         ?PR?BUS0RECINT?SINGLEBUS
            CODE    ECCDH     000FH     UNIT         ?PR?_IAPERASE?IAP
            CODE    ECDCH     000FH     UNIT         ?PR?READ_STATUS_REGISTER?SPI
            CODE    ECEBH     000EH     UNIT         ?PR?_SEND_SSD1963_COMMAND?LCDDRIVER
            CODE    ECF9H     000CH     UNIT         ?PR?_SET_VISUALPAGE?LCDDRIVER
            CODE    ED05H     000CH     UNIT         ?PR?WREN?SPI
            CODE    ED11H     000CH     UNIT         ?PR?_SEND_DATA_BYTE?UART
            CODE    ED1DH     0006H     UNIT         ?PR?_ENABLEIAP?IAP



OVERLAY MAP OF MODULE:   MKTFT-V3.0 (KEY)


SEGMENT                                       DATA_GROUP          IDATA_GROUP         XDATA_GROUP
  +--> CALLED SEGMENT                       START    LENGTH     START    LENGTH     START    LENGTH
---------------------------------------------------------------------------------------------------
?PR?OSTICKISR?MAIN                          -----    -----      -----    -----      -----    -----
  +--> ?PR?KEYSCAN?KEY

*** NEW ROOT ***************************************************

?PR?COMM?UART                               -----    -----      -----    -----      -----    -----
  +--> ?PR?_MAKECH0TIMEROUT?SINGLEBUS

?PR?_MAKECH0TIMEROUT?SINGLEBUS              -----    -----      -----    -----      -----    -----
  +--> ?PR?_SAVECALLADDR?SINGLEBUS

*** NEW ROOT ***************************************************

?C_C51STARTUP                               -----    -----      -----    -----      -----    -----
  +--> ?PR?MAIN?MAIN
  +--> ?C_INITSEG

?PR?MAIN?MAIN                               002CH    0002H      -----    -----      -----    -----
  +--> ?PR?INIT?MAIN
  +--> ?PR?SHOWPAGE?LCDDRIVER
  +--> ?PR?READPAGECOLOUR?SINGLEBUS
  +--> ?PR?BUS0RECDEAL?SINGLEBUS
  +--> ?PR?BUS0SENDDEAL?SINGLEBUS
  +--> ?PR?UARTDEAL?UART
  +--> ?PR?TIMEROUTDEAL?SINGLEBUS
  +--> ?PR?_KEYDOWNDEAL?KEY
  +--> ?PR?_KEYALWAYSDEAL?KEY
  +--> ?PR?_KEYUPDEAL?KEY
  +--> ?PR?KEYSCAN?KEY

?PR?INIT?MAIN                               -----    -----      -----    -----      -----    -----
  +--> ?PR?SINGLEBUSINIT?SINGLEBUS
  +--> ?PR?SPIINIT?SPI
  +--> ?PR?_SETLEDDEALSTATE?KEY
  +--> ?PR?_SETMDLEDSTATE?KEY
  +--> ?PR?PARAMETERINIT?SPI
  +--> ?PR?UARTINIT?UART
  +--> ?PR?_SEND_DATA_BYTE?UART
  +--> ?PR?LCMINIT?LCDDRIVER
BL51 BANKED LINKER/LOCATER V6.22                                                      06/23/2017  13:33:26  PAGE 5


  +--> ?PR?_MAKECH0TIMEROUT?SINGLEBUS

?PR?SPIINIT?SPI                             -----    -----      -----    -----      -----    -----
  +--> ?PR?_SPITRANSFERBYTE?SPI
  +--> ?PR?READ_ID?SPI

?PR?READ_ID?SPI                             -----    -----      -----    -----      -----    -----
  +--> ?PR?_SPITRANSFERBYTE?SPI

?PR?PARAMETERINIT?SPI                       -----    -----      -----    -----      -----    -----
  +--> ?PR?_ENABLEIAP?IAP
  +--> ?PR?_IAPREADBYTE?IAP
  +--> ?PR?READPARAMETER?SPI
  +--> ?PR?_FMREADBYTE?SPI
  +--> ?PR?_FMWRITEBYTE?SPI

?PR?READPARAMETER?SPI                       -----    -----      -----    -----      -----    -----
  +--> ?PR?_ENABLEIAP?IAP
  +--> ?PR?_IAPREADBYTE?IAP
  +--> ?PR?DISABLEIAP?IAP

?PR?_FMREADBYTE?SPI                         0031H    0004H      -----    -----      -----    -----
  +--> ?PR?_SPITRANSFERBYTE?SPI

?PR?_FMWRITEBYTE?SPI                        002FH    0005H      -----    -----      -----    -----
  +--> ?PR?WAIT_BUSY?SPI
  +--> ?PR?_SPITRANSFERBYTE?SPI

?PR?WAIT_BUSY?SPI                           -----    -----      -----    -----      -----    -----
  +--> ?PR?_SPITRANSFERBYTE?SPI
  +--> ?PR?READ_STATUS_REGISTER?SPI
  +--> ?PR?_DELAY_NUS?SPI

?PR?READ_STATUS_REGISTER?SPI                -----    -----      -----    -----      -----    -----
  +--> ?PR?_SPITRANSFERBYTE?SPI

?PR?_DELAY_NUS?SPI                          -----    -----      -----    -----      01E7H    0001H

?PR?UARTINIT?UART                           -----    -----      -----    -----      -----    -----
  +--> ?PR?_FMREADBYTE?SPI

?PR?_SEND_DATA_BYTE?UART                    -----    -----      -----    -----      01E7H    0001H

?PR?LCMINIT?LCDDRIVER                       -----    -----      -----    -----      -----    -----
  +--> ?PR?_DELAYMS?MAIN
  +--> ?PR?_SEND_SSD1963_COMMAND?LCDDRIVER
  +--> ?PR?_SEND_SSD1963_DATA?LCDDRIVER
  +--> ?PR?_SETSCROLLAREA?LCDDRIVER
  +--> ?PR?_LCD_CLEAR?LCDDRIVER
  +--> ?PR?_SHOWVERSION?LCDDRIVER
  +--> ?PR?_SETLEDDEALSTATE?KEY
  +--> ?PR?_SETMDLEDSTATE?KEY
  +--> ?PR?READPAGECOLOUR?SINGLEBUS
  +--> ?PR?SHOWPAGE?LCDDRIVER

?PR?_DELAYMS?MAIN                           -----    -----      -----    -----      01E7H    0002H

BL51 BANKED LINKER/LOCATER V6.22                                                      06/23/2017  13:33:26  PAGE 6


?PR?_SEND_SSD1963_DATA?LCDDRIVER            -----    -----      -----    -----      -----    -----
  +--> ?PR?_SEND_SSD1963_COMMAND?LCDDRIVER

?PR?_SETSCROLLAREA?LCDDRIVER                002EH    0002H      -----    -----      -----    -----
  +--> ?PR?_SEND_SSD1963_COMMAND?LCDDRIVER
  +--> ?PR?_SEND_SSD1963_DATA?LCDDRIVER

?PR?_LCD_CLEAR?LCDDRIVER                    002EH    0002H      -----    -----      01F0H    0004H
  +--> ?PR?_SET_DISPLAY_AREA?LCDDRIVER
  +--> ?PR?_SEND_SSD1963_COMMAND?LCDDRIVER

?PR?_SET_DISPLAY_AREA?LCDDRIVER             0049H    0008H      -----    -----      020DH    0008H
  +--> ?PR?_SEND_SSD1963_COMMAND?LCDDRIVER
  +--> ?PR?_SEND_SSD1963_DATA?LCDDRIVER

?PR?_SHOWVERSION?LCDDRIVER                  002EH    0003H      -----    -----      01E7H    0004H
  +--> ?PR?_GET_GT23_DATA?SPI
  +--> ?PR?_LCD_FANGDA_DIS_TEXT?LCDDRIVER
  +--> ?PR?_SET_VISUALPAGE?LCDDRIVER

?PR?_GET_GT23_DATA?SPI                      003AH    0003H      -----    -----      0208H    0010H
  +--> ?PR?_READ_CONT?SPI

?PR?_READ_CONT?SPI                          003DH    000FH      -----    -----      -----    -----
  +--> ?PR?_SPITRANSFERBYTE?SPI

?PR?_LCD_FANGDA_DIS_TEXT?LCDDRIVER          003AH    000FH      -----    -----      0208H    0005H
  +--> ?PR?_SET_DISPLAY_AREA?LCDDRIVER
  +--> ?PR?_SEND_SSD1963_COMMAND?LCDDRIVER
  +--> ?PR?_SEND_SSD1963_DATA?LCDDRIVER

?PR?_SET_VISUALPAGE?LCDDRIVER               -----    -----      -----    -----      -----    -----
  +--> ?PR?_SETSCROLLSTART?LCDDRIVER

?PR?_SETSCROLLSTART?LCDDRIVER               -----    -----      -----    -----      -----    -----
  +--> ?PR?_SEND_SSD1963_COMMAND?LCDDRIVER
  +--> ?PR?_SEND_SSD1963_DATA?LCDDRIVER

?PR?READPAGECOLOUR?SINGLEBUS                -----    -----      -----    -----      01E7H    0009H
  +--> ?PR?_LCD_CLEAR?LCDDRIVER
  +--> ?PR?_LCD_FILL?LCDDRIVER

?PR?_LCD_FILL?LCDDRIVER                     0031H    000AH      -----    -----      0202H    0004H
  +--> ?PR?_SET_DISPLAY_AREA?LCDDRIVER
  +--> ?PR?_SEND_SSD1963_COMMAND?LCDDRIVER

?PR?SHOWPAGE?LCDDRIVER                      -----    -----      -----    -----      01E7H    0009H
  +--> ?CO?LCDDRIVER
  +--> ?PR?SHOWSECPAGE?LCDDRIVER
  +--> ?PR?_GET_GT23_DATA?SPI
  +--> ?PR?_LCD_FANGDA_DIS_TEXT?LCDDRIVER
  +--> ?PR?SHOWBEDPAGE?LCDDRIVER
  +--> ?PR?_SET_VISUALPAGE?LCDDRIVER

?PR?SHOWSECPAGE?LCDDRIVER                   -----    -----      -----    -----      01F0H    0018H
  +--> ?CO?LCDDRIVER
  +--> ?PR?_FMREADBYTE?SPI
BL51 BANKED LINKER/LOCATER V6.22                                                      06/23/2017  13:33:26  PAGE 7


  +--> ?PR?_GET_GT23_DATA?SPI
  +--> ?PR?_LCD_FANGDA_DIS_TEXT?LCDDRIVER

?PR?SHOWBEDPAGE?LCDDRIVER                   002EH    0003H      -----    -----      01F0H    0012H
  +--> ?CO?LCDDRIVER
  +--> ?PR?_LCD_FILL?LCDDRIVER
  +--> ?PR?_FMREADBYTE?SPI
  +--> ?PR?_GET_GT23_DATA?SPI
  +--> ?PR?_LCD_FANGDA_DIS_TEXT?LCDDRIVER

?PR?BUS0RECDEAL?SINGLEBUS                   -----    -----      0092H    0005H      -----    -----
  +--> ?PR?_BUS0OUTPUTDATA?SINGLEBUS
  +--> ?PR?LEDCONTROL?SINGLEBUS
  +--> ?PR?VOICECHANNELCTX?SINGLEBUS
  +--> ?PR?_FMWRITEBYTE?SPI
  +--> ?PR?SHOWPAGE?LCDDRIVER
  +--> ?PR?_MAKECH0TIMEROUT?SINGLEBUS
  +--> ?PR?_ADDRCOMPARE?SINGLEBUS
  +--> ?PR?_SAVECALLADDR?SINGLEBUS
  +--> ?PR?SHOWBROADCASTING?LCDDRIVER
  +--> ?PR?_SAVEINDICATIONDATA?SINGLEBUS
  +--> ?PR?_SHOWCALLFACE?LCDDRIVER
  +--> ?PR?SYSRESET?SINGLEBUS
  +--> ?PR?_MAKECH1TIMEROUT?SINGLEBUS
  +--> ?PR?SAVEPARAMETER?SPI
  +--> ?PR?READPAGECOLOUR?SINGLEBUS
  +--> ?PR?_SETLEDDEALSTATE?KEY
  +--> ?PR?SHOWNUMBERPAGE?LCDDRIVER
  +--> ?PR?_BCDTOHEX?SINGLEBUS
  +--> ?PR?_FMWRITEBYTES?SPI

?PR?_BUS0OUTPUTDATA?SINGLEBUS               002FH    0004H      -----    -----      -----    -----

?PR?LEDCONTROL?SINGLEBUS                    -----    -----      -----    -----      -----    -----
  +--> ?PR?_MAKECH0TIMEROUT?SINGLEBUS
  +--> ?PR?VOICECHANNELCTX?SINGLEBUS
  +--> ?PR?_SETMDLEDSTATE?KEY
  +--> ?PR?_SETLEDDEALSTATE?KEY

?PR?_ADDRCOMPARE?SINGLEBUS                  -----    -----      -----    -----      -----    -----
  +--> ?PR?_MAKECH0TIMEROUT?SINGLEBUS

?PR?SHOWBROADCASTING?LCDDRIVER              -----    -----      -----    -----      01E7H    0008H
  +--> ?PR?_LCD_FILL?LCDDRIVER
  +--> ?PR?_GET_GT23_DATA?SPI
  +--> ?PR?_LCD_FANGDA_DIS_TEXT?LCDDRIVER
  +--> ?PR?_SET_VISUALPAGE?LCDDRIVER

?PR?_SHOWCALLFACE?LCDDRIVER                 002EH    0002H      -----    -----      01E7H    0004H
  +--> ?PR?_LCD_FILL?LCDDRIVER
  +--> ?PR?_SHOWWORD?LCDDRIVER
  +--> ?PR?_SHOWASCII?LCDDRIVER
  +--> ?PR?_SET_VISUALPAGE?LCDDRIVER

?PR?_SHOWWORD?LCDDRIVER                     0030H    000AH      -----    -----      01EBH    0002H
  +--> ?CO?LCDDRIVER
  +--> ?PR?_GET_GT23_DATA?SPI
BL51 BANKED LINKER/LOCATER V6.22                                                      06/23/2017  13:33:26  PAGE 8


  +--> ?PR?_LCD_FANGDA_DIS_TEXT?LCDDRIVER

?PR?_SHOWASCII?LCDDRIVER                    0030H    000AH      -----    -----      01EBH    0002H
  +--> ?CO?LCDDRIVER
  +--> ?PR?_GET_GT23_DATA?SPI
  +--> ?PR?_LCD_FANGDA_DIS_TEXT?LCDDRIVER

?PR?SYSRESET?SINGLEBUS                      -----    -----      -----    -----      -----    -----
  +--> ?PR?LEDCONTROL?SINGLEBUS
  +--> ?PR?SHOWPAGE?LCDDRIVER

?PR?SAVEPARAMETER?SPI                       -----    -----      -----    -----      -----    -----
  +--> ?PR?_ENABLEIAP?IAP
  +--> ?PR?_IAPERASE?IAP
  +--> ?PR?_IAPWRITEBYTE?IAP
  +--> ?PR?DISABLEIAP?IAP

?PR?SHOWNUMBERPAGE?LCDDRIVER                002EH    0003H      -----    -----      01E7H    0004H
  +--> ?PR?_LCD_FILL?LCDDRIVER
  +--> ?PR?_GET_GT23_DATA?SPI
  +--> ?PR?_LCD_FANGDA_DIS_TEXT?LCDDRIVER
  +--> ?PR?_SET_VISUALPAGE?LCDDRIVER

?PR?_FMWRITEBYTES?SPI                       002EH    0009H      -----    -----      -----    -----
  +--> ?PR?WAIT_BUSY?SPI
  +--> ?PR?_SPITRANSFERBYTE?SPI

?PR?BUS0SENDDEAL?SINGLEBUS                  -----    -----      -----    -----      -----    -----
  +--> ?PR?_MAKECH0TIMEROUT?SINGLEBUS
  +--> ?PR?VOICECHANNELCTX?SINGLEBUS
  +--> ?PR?LEDCONTROL?SINGLEBUS
  +--> ?PR?SHOWPAGE?LCDDRIVER
  +--> ?PR?_BUS0OUTPUTDATA?SINGLEBUS
  +--> ?PR?_SAVECALLADDR?SINGLEBUS
  +--> ?PR?_MAKECH1TIMEROUT?SINGLEBUS
  +--> ?PR?SAVEPARAMETER?SPI
  +--> ?PR?SYSRESET?SINGLEBUS

?PR?UARTDEAL?UART                           -----    -----      -----    -----      -----    -----
  +--> ?PR?_BUS0OUTPUTDATA?SINGLEBUS
  +--> ?PR?_FMWRITEBYTE?SPI
  +--> ?PR?_FMWRITEBYTES?SPI
  +--> ?PR?_FMREADBYTE?SPI
  +--> ?PR?READPAGECOLOUR?SINGLEBUS
  +--> ?PR?SHOWPAGE?LCDDRIVER

?PR?TIMEROUTDEAL?SINGLEBUS                  -----    -----      -----    -----      -----    -----
  +--> ?PR?_BUS0OUTPUTDATA?SINGLEBUS
  +--> ?PR?VOICECHANNELCTX?SINGLEBUS
  +--> ?PR?LEDCONTROL?SINGLEBUS
  +--> ?PR?SHOWPAGE?LCDDRIVER
  +--> ?PR?_SETLEDDEALSTATE?KEY
  +--> ?PR?_DELAYMS?MAIN
  +--> ?PR?SHOWSELFERROR?LCDDRIVER
  +--> ?PR?SHOWNORMAL?LCDDRIVER
  +--> ?PR?SHOWBUSERROR?LCDDRIVER

BL51 BANKED LINKER/LOCATER V6.22                                                      06/23/2017  13:33:26  PAGE 9


?PR?SHOWSELFERROR?LCDDRIVER                 -----    -----      -----    -----      01E7H    0004H
  +--> ?CO?LCDDRIVER
  +--> ?PR?_GET_GT23_DATA1?SPI
  +--> ?PR?_LCD_FANGDA_DIS_TEXT?LCDDRIVER

?PR?_GET_GT23_DATA1?SPI                     002EH    0001H      -----    -----      01EBH    0012H
  +--> ?PR?_READ_CONT?SPI

?PR?SHOWNORMAL?LCDDRIVER                    -----    -----      -----    -----      -----    -----
  +--> ?CO?LCDDRIVER
  +--> ?PR?_LCD_FILL?LCDDRIVER

?PR?SHOWBUSERROR?LCDDRIVER                  -----    -----      -----    -----      01E7H    0004H
  +--> ?CO?LCDDRIVER
  +--> ?PR?_GET_GT23_DATA1?SPI
  +--> ?PR?_LCD_FANGDA_DIS_TEXT?LCDDRIVER

?PR?_KEYDOWNDEAL?KEY                        002EH    0001H      -----    -----      -----    -----
  +--> ?PR?_FMREADBYTE?SPI
  +--> ?PR?SAVEPARAMETER?SPI
  +--> ?PR?_SETLEDDEALSTATE?KEY
  +--> ?PR?_FMWRITEBYTE?SPI
  +--> ?PR?SHOWNUMBERPAGEOK?LCDDRIVER
  +--> ?PR?_BUS0OUTPUTDATA?SINGLEBUS
  +--> ?PR?SHOWSERCHROMMPAGE3?LCDDRIVER
  +--> ?PR?SHOWSERCHROMMPAGE2?LCDDRIVER
  +--> ?PR?SHOWSERCHROMMPAGE1?LCDDRIVER

?PR?SHOWNUMBERPAGEOK?LCDDRIVER              -----    -----      -----    -----      01E7H    0004H
  +--> ?PR?_LCD_FILL?LCDDRIVER
  +--> ?PR?_GET_GT23_DATA?SPI
  +--> ?PR?_LCD_FANGDA_DIS_TEXT?LCDDRIVER
  +--> ?PR?_SET_VISUALPAGE?LCDDRIVER

?PR?SHOWSERCHROMMPAGE3?LCDDRIVER            -----    -----      -----    -----      01E7H    0017H
  +--> ?PR?_SHOWSERCHROOMCOM?LCDDRIVER
  +--> ?PR?_FMREADBYTE?SPI
  +--> ?PR?_GET_GT23_DATA?SPI
  +--> ?PR?_LCD_FANGDA_DIS_TEXT?LCDDRIVER

?PR?_SHOWSERCHROOMCOM?LCDDRIVER             002FH    0001H      -----    -----      01FEH    0004H
  +--> ?PR?_LCD_FILL?LCDDRIVER
  +--> ?PR?_GET_GT23_DATA?SPI
  +--> ?PR?_LCD_FANGDA_DIS_TEXT?LCDDRIVER

?PR?SHOWSERCHROMMPAGE2?LCDDRIVER            -----    -----      -----    -----      01E7H    0017H
  +--> ?PR?_SHOWSERCHROOMCOM?LCDDRIVER
  +--> ?PR?_FMREADBYTE?SPI
  +--> ?PR?_GET_GT23_DATA?SPI
  +--> ?PR?_LCD_FANGDA_DIS_TEXT?LCDDRIVER

?PR?SHOWSERCHROMMPAGE1?LCDDRIVER            -----    -----      -----    -----      01E7H    0017H
  +--> ?PR?_LCD_FILL?LCDDRIVER
  +--> ?PR?_SHOWSERCHROOMCOM?LCDDRIVER
  +--> ?PR?_FMREADBYTE?SPI
  +--> ?PR?_GET_GT23_DATA?SPI
  +--> ?PR?_LCD_FANGDA_DIS_TEXT?LCDDRIVER
BL51 BANKED LINKER/LOCATER V6.22                                                      06/23/2017  13:33:26  PAGE 10


  +--> ?PR?_SET_VISUALPAGE?LCDDRIVER

?PR?_KEYALWAYSDEAL?KEY                      -----    -----      -----    -----      -----    -----
  +--> ?PR?_BUS0OUTPUTDATA?SINGLEBUS
  +--> ?PR?SHOWCALLING?LCDDRIVER

?PR?SHOWCALLING?LCDDRIVER                   -----    -----      -----    -----      01E7H    0004H
  +--> ?PR?_LCD_FILL?LCDDRIVER
  +--> ?PR?_GET_GT23_DATA?SPI
  +--> ?PR?_LCD_FANGDA_DIS_TEXT?LCDDRIVER
  +--> ?PR?_SET_VISUALPAGE?LCDDRIVER

?PR?_KEYUPDEAL?KEY                          -----    -----      -----    -----      -----    -----
  +--> ?PR?_MAKECH0TIMEROUT?SINGLEBUS
  +--> ?PR?_MAKECH1TIMEROUT?SINGLEBUS



SYMBOL TABLE OF MODULE:  MKTFT-V3.0 (KEY)

  VALUE           TYPE          NAME
  ----------------------------------

  -------         MODULE        KEY
  C:0000H         SYMBOL        _ICE_DUMMY_
  D:0080H         PUBLIC        P0
  D:00B2H         PUBLIC        P3M0
  D:0090H         PUBLIC        P1
  D:00B1H         PUBLIC        P3M1
  D:00A0H         PUBLIC        P2
  B:002AH.5       PUBLIC        SET_BY_SERIAL_OK_FLAG
  D:00B0H         PUBLIC        P3
  D:00C0H         PUBLIC        P4
  D:00C8H         PUBLIC        P5
  B:00A8H.7       PUBLIC        EA
  B:002AH.6       PUBLIC        bLedBlueState
  D:00A8H         PUBLIC        IE
  C:E7F8H         PUBLIC        _KeyAlwaysDeal
  D:00B8H         PUBLIC        IP
  B:002AH.7       PUBLIC        bLedRedState
  B:00B0H.3       PUBLIC        DealKey
  D:00D8H         PUBLIC        CCON
  C:E917H         PUBLIC        KeyScan
  B:002BH.0       PUBLIC        Key_SerchRoom_Flag2
  B:002BH.1       PUBLIC        Key_SerchRoom_Flag3
  D:0098H         PUBLIC        SCON
  D:0088H         PUBLIC        TCON
  C:C68EH         PUBLIC        _KeyDownDeal
  C:EC8AH         PUBLIC        _SetLedDealState
  D:00E0H         PUBLIC        ACC
  B:00B0H.3       PUBLIC        LED_DEAL
  B:00C8H.0       PUBLIC        MDB
  B:00C8H.1       PUBLIC        MDG
  C:EBB6H         PUBLIC        _SetMDLedState
  B:00C0H.4       PUBLIC        MDR
  C:EB21H         PUBLIC        _KeyUpDeal
  B:002BH.2       PUBLIC        bLedGreenState
BL51 BANKED LINKER/LOCATER V6.22                                                      06/23/2017  13:33:26  PAGE 11


  B:002BH.3       PUBLIC        bLedDealState
  D:00D0H         PUBLIC        PSW
  -------         PROC          _SETMDLEDSTATE
  D:0007H         SYMBOL        byState
  C:EBB6H         LINE#         64
  C:EBB6H         LINE#         65
  C:EBB6H         LINE#         66
  C:EBBBH         LINE#         75
  C:EBC3H         LINE#         76
  C:EBCCH         LINE#         77
  C:EBD5H         LINE#         79
  -------         ENDPROC       _SETMDLEDSTATE
  -------         PROC          _SETLEDDEALSTATE
  D:0007H         SYMBOL        byState
  C:EC8AH         LINE#         95
  C:EC8AH         LINE#         96
  C:EC8AH         LINE#         97
  C:EC8FH         LINE#         98
  C:EC91H         LINE#         99
  C:EC98H         LINE#         100
  C:EC9AH         LINE#         101
  -------         ENDPROC       _SETLEDDEALSTATE
  -------         PROC          KEYSCAN
  C:E917H         LINE#         118
  C:E917H         LINE#         119
  C:E917H         LINE#         120
  C:E919H         LINE#         121
  C:E91CH         LINE#         122
  C:E91FH         LINE#         123
  C:E921H         LINE#         124
  C:E922H         LINE#         125
  C:E923H         LINE#         126
  C:E924H         LINE#         127
  C:E925H         LINE#         128
  C:E928H         LINE#         129
  C:E928H         LINE#         130
  C:E92BH         LINE#         131
  C:E92FH         LINE#         133
  C:E941H         LINE#         134
  C:E947H         LINE#         135
  C:E949H         LINE#         136
  C:E94CH         LINE#         137
  C:E94CH         LINE#         138
  C:E94FH         LINE#         139
  C:E953H         LINE#         140
  C:E955H         LINE#         141
  C:E957H         LINE#         142
  -------         ENDPROC       KEYSCAN
  -------         PROC          _KEYDOWNDEAL
  D:002EH         SYMBOL        byKey
  C:C68EH         LINE#         159
  C:C690H         LINE#         160
  C:C690H         LINE#         161
  C:C696H         LINE#         162
  C:C696H         LINE#         164
  C:C696H         LINE#         165
  C:C69CH         LINE#         166
BL51 BANKED LINKER/LOCATER V6.22                                                      06/23/2017  13:33:26  PAGE 12


  C:C69CH         LINE#         168
  C:C69CH         LINE#         169
  C:C6A2H         LINE#         170
  C:C6A2H         LINE#         171
  C:C6A4H         LINE#         172
  C:C6ACH         LINE#         173
  C:C6B4H         LINE#         174
  C:C6BCH         LINE#         175
  C:C6CAH         LINE#         176
  C:C6D2H         LINE#         178
  C:C6DBH         LINE#         179
  C:C6E4H         LINE#         180
  C:C6EDH         LINE#         181
  C:C6F6H         LINE#         182
  C:C6FFH         LINE#         183
  C:C708H         LINE#         184
  C:C711H         LINE#         185
  C:C71AH         LINE#         186
  C:C723H         LINE#         187
  C:C72CH         LINE#         188
  C:C735H         LINE#         189
  C:C73EH         LINE#         190
  C:C747H         LINE#         191
  C:C750H         LINE#         192
  C:C759H         LINE#         193
  C:C762H         LINE#         194
  C:C76BH         LINE#         195
  C:C774H         LINE#         196
  C:C77DH         LINE#         197
  C:C786H         LINE#         198
  C:C78FH         LINE#         199
  C:C798H         LINE#         200
  C:C7A1H         LINE#         201
  C:C7AAH         LINE#         202
  C:C7B3H         LINE#         203
  C:C7BCH         LINE#         204
  C:C7C5H         LINE#         205
  C:C7CBH         LINE#         206
  C:C7CFH         LINE#         207
  C:C7D2H         LINE#         208
  C:C7D7H         LINE#         209
  C:C7DDH         LINE#         210
  C:C7E8H         LINE#         211
  C:C7EBH         LINE#         212
  C:C7EEH         LINE#         214
  C:C7EEH         LINE#         215
  C:C7F6H         LINE#         216
  C:C7FEH         LINE#         217
  C:C806H         LINE#         218
  C:C80EH         LINE#         219
  C:C816H         LINE#         220
  C:C81EH         LINE#         221
  C:C826H         LINE#         222
  C:C826H         LINE#         223
  C:C826H         LINE#         224
  C:C828H         LINE#         225
  C:C832H         LINE#         226
BL51 BANKED LINKER/LOCATER V6.22                                                      06/23/2017  13:33:26  PAGE 13


  C:C832H         LINE#         227
  C:C83CH         LINE#         228
  C:C840H         LINE#         229
  C:C848H         LINE#         230
  C:C850H         LINE#         231
  C:C858H         LINE#         232
  C:C858H         LINE#         233
  C:C858H         LINE#         234
  C:C858H         LINE#         235
  C:C85AH         LINE#         236
  C:C85DH         LINE#         237
  C:C85DH         LINE#         238
  C:C865H         LINE#         239
  C:C86DH         LINE#         240
  C:C875H         LINE#         241
  C:C87FH         LINE#         242
  C:C87FH         LINE#         243
  C:C885H         LINE#         244
  C:C887H         LINE#         246
  C:C887H         LINE#         247
  C:C891H         LINE#         248
  C:C895H         LINE#         249
  C:C895H         LINE#         250
  C:C89EH         LINE#         251
  C:C8A0H         LINE#         252
  C:C8A2H         LINE#         253
  C:C8A3H         LINE#         254
  C:C8A6H         LINE#         255
  C:C8A6H         LINE#         256
  C:C8A8H         LINE#         257
  C:C8AAH         LINE#         258
  C:C8ACH         LINE#         259
  C:C8B3H         LINE#         260
  C:C8B5H         LINE#         261
  C:C8B8H         LINE#         262
  C:C8B8H         LINE#         263
  C:C8BBH         LINE#         264
  C:C8BBH         LINE#         265
  C:C8BDH         LINE#         266
  C:C8BFH         LINE#         267
  C:C8C1H         LINE#         268
  C:C8C8H         LINE#         269
  C:C8CAH         LINE#         270
  C:C8CDH         LINE#         271
  C:C8CDH         LINE#         273
  C:C8CDH         LINE#         274
  C:C8CFH         LINE#         275
  C:C8D1H         LINE#         276
  C:C8D3H         LINE#         277
  C:C8DAH         LINE#         278
  C:C8DCH         LINE#         279
  C:C8DFH         LINE#         280
  C:C8DFH         LINE#         281
  C:C8DFH         LINE#         282
  C:C8DFH         LINE#         283
  -------         ENDPROC       _KEYDOWNDEAL
  -------         PROC          _KEYUPDEAL
BL51 BANKED LINKER/LOCATER V6.22                                                      06/23/2017  13:33:26  PAGE 14


  D:0007H         SYMBOL        byKey
  C:EB21H         LINE#         299
  C:EB21H         LINE#         300
  C:EB21H         LINE#         301
  C:EB24H         LINE#         302
  C:EB24H         LINE#         304
  C:EB24H         LINE#         305
  C:EB27H         LINE#         306
  C:EB27H         LINE#         308
  C:EB27H         LINE#         309
  C:EB2BH         LINE#         310
  C:EB2BH         LINE#         311
  C:EB2BH         LINE#         312
  C:EB2DH         LINE#         313
  C:EB37H         LINE#         314
  C:EB37H         LINE#         315
  C:EB3EH         LINE#         316
  C:EB3EH         LINE#         317
  C:EB41H         LINE#         318
  C:EB41H         LINE#         319
  C:EB48H         LINE#         320
  C:EB48H         LINE#         321
  C:EB48H         LINE#         322
  C:EB48H         LINE#         323
  -------         ENDPROC       _KEYUPDEAL
  -------         PROC          _KEYALWAYSDEAL
  D:0007H         SYMBOL        byKey
  C:E7F8H         LINE#         339
  C:E7F8H         LINE#         340
  C:E7F8H         LINE#         341
  C:E7FBH         LINE#         342
  C:E7FBH         LINE#         344
  C:E7FBH         LINE#         345
  C:E7FEH         LINE#         346
  C:E7FEH         LINE#         348
  C:E7FEH         LINE#         349
  C:E802H         LINE#         350
  C:E802H         LINE#         351
  C:E802H         LINE#         352
  C:E80AH         LINE#         353
  C:E80AH         LINE#         354
  C:E80AH         LINE#         355
  C:E80AH         LINE#         356
  C:E80DH         LINE#         357
  C:E80DH         LINE#         358
  C:E815H         LINE#         359
  C:E81DH         LINE#         360
  C:E825H         LINE#         361
  C:E82BH         LINE#         362
  C:E82DH         LINE#         363
  C:E82FH         LINE#         364
  C:E835H         LINE#         365
  C:E83EH         LINE#         366
  C:E841H         LINE#         367
  C:E843H         LINE#         368
  C:E843H         LINE#         369
  C:E843H         LINE#         370
BL51 BANKED LINKER/LOCATER V6.22                                                      06/23/2017  13:33:26  PAGE 15


  -------         ENDPROC       _KEYALWAYSDEAL
  -------         ENDMOD        KEY

  -------         MODULE        IAP
  C:0000H         SYMBOL        _ICE_DUMMY_
  D:0080H         PUBLIC        P0
  D:0090H         PUBLIC        P1
  D:00A0H         PUBLIC        P2
  D:00B0H         PUBLIC        P3
  D:00C0H         PUBLIC        P4
  D:00C8H         PUBLIC        P5
  D:00A8H         PUBLIC        IE
  C:ECCDH         PUBLIC        _IapErase
  D:00C5H         PUBLIC        IAP_CMD
  C:27F8H         PUBLIC        DisableIAP
  D:00B8H         PUBLIC        IP
  D:00C3H         PUBLIC        IAP_ADDRH
  D:00D8H         PUBLIC        CCON
  D:00C4H         PUBLIC        IAP_ADDRL
  C:ED1DH         PUBLIC        _EnableIAP
  C:ECACH         PUBLIC        _IapReadByte
  D:0098H         PUBLIC        SCON
  D:0088H         PUBLIC        TCON
  C:EC9BH         PUBLIC        _IapWriteByte
  D:00C7H         PUBLIC        IAP_CONTR
  D:00E0H         PUBLIC        ACC
  D:00C2H         PUBLIC        IAP_DATA
  D:00C6H         PUBLIC        IAP_TRIG
  D:00D0H         PUBLIC        PSW
  -------         PROC          _ENABLEIAP
  D:0007H         SYMBOL        byCmd
  C:ED1DH         LINE#         42
  C:ED1DH         LINE#         43
  C:ED1DH         LINE#         44
  C:ED20H         LINE#         45
  C:ED22H         LINE#         46
  -------         ENDPROC       _ENABLEIAP
  -------         PROC          DISABLEIAP
  C:27F8H         LINE#         62
  C:27F8H         LINE#         63
  C:27F8H         LINE#         64
  C:27FBH         LINE#         65
  C:27FDH         LINE#         66
  C:27FFH         LINE#         67
  -------         ENDPROC       DISABLEIAP
  -------         PROC          _IAPWRITEBYTE
  D:0002H         SYMBOL        uiAddr
  D:0005H         SYMBOL        byData
  C:EC9BH         LINE#         83
  C:EC9FH         LINE#         84
  C:EC9FH         LINE#         85
  C:ECA1H         LINE#         86
  C:ECA3H         LINE#         87
  C:ECA5H         LINE#         88
  C:ECA8H         LINE#         89
  C:ECABH         LINE#         90
  -------         ENDPROC       _IAPWRITEBYTE
BL51 BANKED LINKER/LOCATER V6.22                                                      06/23/2017  13:33:26  PAGE 16


  -------         PROC          _IAPREADBYTE
  D:0004H         SYMBOL        uiAddr
  C:ECACH         LINE#         106
  C:ECB0H         LINE#         107
  C:ECB0H         LINE#         108
  C:ECB2H         LINE#         109
  C:ECB4H         LINE#         110
  C:ECB7H         LINE#         111
  C:ECBAH         LINE#         112
  C:ECBCH         LINE#         113
  -------         ENDPROC       _IAPREADBYTE
  -------         PROC          _IAPERASE
  D:0004H         SYMBOL        uiAddr
  C:ECCDH         LINE#         130
  C:ECD1H         LINE#         131
  C:ECD1H         LINE#         132
  C:ECD3H         LINE#         133
  C:ECD5H         LINE#         134
  C:ECD8H         LINE#         135
  C:ECDBH         LINE#         136
  -------         ENDPROC       _IAPERASE
  -------         ENDMOD        IAP

  -------         MODULE        LCDDRIVER
  C:0000H         SYMBOL        _ICE_DUMMY_
  D:0080H         PUBLIC        P0
  B:002BH.4       PUBLIC        First_Serchroom_Flag
  D:00B2H         PUBLIC        P3M0
  D:0090H         PUBLIC        P1
  D:00B1H         PUBLIC        P3M1
  D:00A0H         PUBLIC        P2
  D:00B0H         PUBLIC        P3
  D:00C0H         PUBLIC        P4
  C:E694H         PUBLIC        _ShowLandingWord
  D:00C8H         PUBLIC        P5
  C:ECF9H         PUBLIC        _Set_VisualPage
  B:00B0H.5       PUBLIC        LCD_LED
  D:00A8H         PUBLIC        IE
  C:1F82H         PUBLIC        _ShowVersion
  C:E62FH         PUBLIC        _ShowAscii
  C:EA9CH         PUBLIC        ShowNormal
  C:BE74H         PUBLIC        ShowNumberPage
  C:ECEBH         PUBLIC        _Send_Ssd1963_Command
  C:15EEH         PUBLIC        _ShowCallFace
  D:00B8H         PUBLIC        IP
  B:0090H.1       PUBLIC        SSD1963_RST
  C:E9CFH         PUBLIC        _SetScrollArea
  C:B1D6H         PUBLIC        ShowPage
  D:00D8H         PUBLIC        CCON
  B:00C8H.3       PUBLIC        SSD1963_CD
  C:DCB2H         PUBLIC        ShowNumberPageOK
  C:0C76H         PUBLIC        ShowBedPage
  C:EC74H         PUBLIC        _SetScrollStart
  C:D07DH         PUBLIC        LcmInit
  C:E57AH         PUBLIC        byAsciiTable
  D:0098H         PUBLIC        SCON
  D:0088H         PUBLIC        TCON
BL51 BANKED LINKER/LOCATER V6.22                                                      06/23/2017  13:33:26  PAGE 17


  B:002BH.5       PUBLIC        Broadcasting_Flag
  B:00B0H.7       PUBLIC        SSD1963_RD
  B:0090H.0       PUBLIC        SSD1963_CS
  C:E5A6H         PUBLIC        byLandingWord
  C:D507H         PUBLIC        ShowSelfError
  C:CD27H         PUBLIC        ShowSecPage
  C:E5CAH         PUBLIC        _ShowWord
  C:D93EH         PUBLIC        _lcd_fangda_dis_text
  C:E6F3H         PUBLIC        _Set_Display_Area
  D:00E0H         PUBLIC        ACC
  C:EC35H         PUBLIC        _Send_Ssd1963_Data
  B:00B0H.6       PUBLIC        SSD1963_WR
  C:DA5EH         PUBLIC        ShowLandingFace
  D:00C1H         PUBLIC        WDT_CONTR
  C:D7BFH         PUBLIC        ShowBusError
  C:1AC2H         PUBLIC        _ShowSerchRoomCom
  C:E4E1H         PUBLIC        _Lcd_Clear
  C:CEDAH         PUBLIC        ShowCalling
  C:E58EH         PUBLIC        byWordTable
  C:281EH         PUBLIC        ShowSerchRommPage1
  C:54B7H         PUBLIC        ShowSerchRommPage2
  C:8148H         PUBLIC        ShowSerchRommPage3
  X:023AH         PUBLIC        fontbuf
  D:00D0H         PUBLIC        PSW
  C:ADD9H         PUBLIC        ShowBROADCASTing
  C:DFFFH         PUBLIC        _Lcd_Fill
  C:E5B0H         PUBLIC        ColorIndex
  -------         PROC          _SEND_SSD1963_COMMAND
  D:0007H         SYMBOL        ssd1963_command
  C:ECEBH         LINE#         74
  C:ECEBH         LINE#         75
  C:ECEBH         LINE#         76
  C:ECEDH         LINE#         78
  C:ECEFH         LINE#         79
  C:ECF2H         LINE#         80
  C:ECF4H         LINE#         82
  C:ECF6H         LINE#         83
  C:ECF8H         LINE#         84
  -------         ENDPROC       _SEND_SSD1963_COMMAND
  C:EC2CH         SYMBOL        L?0211
  C:EC30H         SYMBOL        L?0212
  C:EC31H         SYMBOL        L?0213
  -------         PROC          L?0210
  -------         ENDPROC       L?0210
  C:EC2CH         SYMBOL        L?0211
  C:EC30H         SYMBOL        L?0212
  C:EC31H         SYMBOL        L?0213
  -------         PROC          _SEND_SSD1963_DATA
  D:0004H         SYMBOL        ssd1963_data
  C:EC35H         LINE#         85
  C:EC39H         LINE#         86
  C:EC39H         LINE#         89
  C:EC3BH         LINE#         90
  C:EC3DH         LINE#         91
  C:EC41H         LINE#         93
  C:EC43H         LINE#         95
  -------         ENDPROC       _SEND_SSD1963_DATA
BL51 BANKED LINKER/LOCATER V6.22                                                      06/23/2017  13:33:26  PAGE 18


  -------         PROC          _SET_DISPLAY_AREA
  D:0049H         SYMBOL        start_x
  D:0004H         SYMBOL        end_x
  D:0002H         SYMBOL        start_y
  D:004FH         SYMBOL        end_y
  -------         DO            
  X:020DH         SYMBOL        shigh_x1
  X:020EH         SYMBOL        slow_x1
  X:020FH         SYMBOL        shigh_x2
  X:0210H         SYMBOL        slow_x2
  X:0211H         SYMBOL        shigh_y1
  X:0212H         SYMBOL        slow_y1
  X:0213H         SYMBOL        shigh_y2
  X:0214H         SYMBOL        slow_y2
  -------         ENDDO         
  C:E6F3H         LINE#         96
  C:E6F7H         LINE#         97
  C:E6F7H         LINE#         100
  C:E6FDH         LINE#         101
  C:E700H         LINE#         102
  C:E703H         LINE#         103
  C:E706H         LINE#         104
  C:E709H         LINE#         105
  C:E70CH         LINE#         106
  C:E710H         LINE#         107
  C:E714H         LINE#         108
  C:E719H         LINE#         109
  C:E723H         LINE#         110
  C:E729H         LINE#         111
  C:E72FH         LINE#         112
  C:E735H         LINE#         113
  C:E73AH         LINE#         114
  C:E740H         LINE#         115
  C:E746H         LINE#         116
  C:E74CH         LINE#         117
  -------         ENDPROC       _SET_DISPLAY_AREA
  -------         PROC          _SETSCROLLAREA
  D:002EH         SYMBOL        top
  D:0082H         SYMBOL        scroll
  D:0002H         SYMBOL        bottom
  C:E9CFH         LINE#         119
  C:E9D7H         LINE#         120
  C:E9D7H         LINE#         121
  C:E9DCH         LINE#         122
  C:E9E4H         LINE#         123
  C:E9EBH         LINE#         124
  C:E9F3H         LINE#         125
  C:E9F9H         LINE#         126
  C:EA00H         LINE#         127
  -------         ENDPROC       _SETSCROLLAREA
  -------         PROC          _SETSCROLLSTART
  D:0002H         SYMBOL        line
  C:EC74H         LINE#         129
  C:EC78H         LINE#         130
  C:EC78H         LINE#         131
  C:EC7DH         LINE#         132
  C:EC84H         LINE#         133
BL51 BANKED LINKER/LOCATER V6.22                                                      06/23/2017  13:33:26  PAGE 19


  -------         ENDPROC       _SETSCROLLSTART
  -------         PROC          _SET_VISUALPAGE
  D:0007H         SYMBOL        VisualPage
  C:ECF9H         LINE#         135
  C:ECF9H         LINE#         136
  C:ECF9H         LINE#         137
  -------         ENDPROC       _SET_VISUALPAGE
  C:DFDFH         SYMBOL        L?0205
  C:DFF4H         SYMBOL        L?0206
  C:DFF8H         SYMBOL        L?0207
  -------         PROC          L?0204
  -------         ENDPROC       L?0204
  C:DFDFH         SYMBOL        L?0205
  C:DFF4H         SYMBOL        L?0206
  C:DFF8H         SYMBOL        L?0207
  -------         PROC          _LCD_FILL
  D:0006H         SYMBOL        start_x
  D:0082H         SYMBOL        start_y
  D:0035H         SYMBOL        width
  D:0037H         SYMBOL        height
  D:0039H         SYMBOL        color
  -------         DO            
  X:0202H         SYMBOL        i
  X:0204H         SYMBOL        j
  -------         ENDDO         
  C:DFFFH         LINE#         139
  C:E007H         LINE#         140
  C:E007H         LINE#         142
  C:E034H         LINE#         143
  C:E039H         LINE#         144
  C:E03DH         LINE#         145
  C:E040H         LINE#         146
  C:E056H         LINE#         147
  C:E056H         LINE#         148
  C:E06CH         LINE#         149
  C:E06CH         LINE#         151
  C:E06EH         LINE#         152
  C:E070H         LINE#         153
  C:E079H         LINE#         154
  C:E085H         LINE#         155
  -------         ENDPROC       _LCD_FILL
  -------         PROC          _LCD_CLEAR
  D:002EH         SYMBOL        color
  D:0001H         SYMBOL        VisualPage
  -------         DO            
  X:01F0H         SYMBOL        k
  X:01F2H         SYMBOL        j
  -------         ENDDO         
  C:E4E1H         LINE#         156
  C:E4E7H         LINE#         157
  C:E4E7H         LINE#         159
  C:E508H         LINE#         160
  C:E50DH         LINE#         161
  C:E511H         LINE#         162
  C:E514H         LINE#         163
  C:E51BH         LINE#         164
  C:E51BH         LINE#         165
BL51 BANKED LINKER/LOCATER V6.22                                                      06/23/2017  13:33:26  PAGE 20


  C:E522H         LINE#         166
  C:E522H         LINE#         167
  C:E524H         LINE#         168
  C:E526H         LINE#         169
  C:E53CH         LINE#         171
  C:E552H         LINE#         172
  C:E555H         LINE#         173
  -------         ENDPROC       _LCD_CLEAR
  C:D91CH         SYMBOL        L?0202
  C:D936H         SYMBOL        L?0203
  -------         PROC          L?0201
  -------         ENDPROC       L?0201
  C:D91CH         SYMBOL        L?0202
  C:D936H         SYMBOL        L?0203
  -------         PROC          _LCD_FANGDA_DIS_TEXT
  D:003AH         SYMBOL        x
  D:0082H         SYMBOL        y
  D:003EH         SYMBOL        type_x_wide
  D:003FH         SYMBOL        type_y_height
  D:0040H         SYMBOL        mul_col
  D:0041H         SYMBOL        mul_row
  D:0042H         SYMBOL        fcolor
  D:0044H         SYMBOL        bcolor
  D:0046H         SYMBOL        p
  -------         DO            
  X:0208H         SYMBOL        i
  X:0209H         SYMBOL        j
  X:020AH         SYMBOL        k
  X:020BH         SYMBOL        m
  X:020CH         SYMBOL        n
  -------         ENDDO         
  C:D93EH         LINE#         174
  C:D948H         LINE#         175
  C:D948H         LINE#         177
  C:D980H         LINE#         180
  C:D985H         LINE#         181
  C:D996H         LINE#         182
  C:D996H         LINE#         183
  C:D9A7H         LINE#         184
  C:D9A7H         LINE#         185
  C:D9BFH         LINE#         186
  C:D9BFH         LINE#         187
  C:D9C2H         LINE#         188
  C:D9C2H         LINE#         189
  C:D9D0H         LINE#         190
  C:D9D0H         LINE#         191
  C:DA10H         LINE#         192
  C:DA10H         LINE#         193
  C:DA17H         LINE#         194
  C:DA19H         LINE#         197
  C:DA19H         LINE#         198
  C:DA20H         LINE#         199
  C:DA20H         LINE#         200
  C:DA2BH         LINE#         201
  C:DA33H         LINE#         202
  C:DA3FH         LINE#         203
  C:DA48H         LINE#         204
BL51 BANKED LINKER/LOCATER V6.22                                                      06/23/2017  13:33:26  PAGE 21


  C:DA51H         LINE#         205
  C:DA5AH         LINE#         206
  C:DA5DH         LINE#         207
  -------         ENDPROC       _LCD_FANGDA_DIS_TEXT
  -------         PROC          L?0208
  -------         ENDPROC       L?0208
  -------         PROC          _SHOWWORD
  D:0030H         SYMBOL        byRow
  D:0032H         SYMBOL        byCol
  D:0003H         SYMBOL        byWord
  D:0035H         SYMBOL        fcolor
  D:0037H         SYMBOL        bcolor
  D:0039H         SYMBOL        size
  -------         DO            
  X:01EBH         SYMBOL        uiHPosition
  X:01ECH         SYMBOL        uiLPosition
  -------         ENDDO         
  C:E5CAH         LINE#         208
  C:E5D2H         LINE#         209
  C:E5D2H         LINE#         211
  C:E5E5H         LINE#         212
  C:E5F9H         LINE#         213
  C:E5FEH         LINE#         214
  -------         ENDPROC       _SHOWWORD
  -------         PROC          L?0209
  -------         ENDPROC       L?0209
  -------         PROC          _SHOWASCII
  D:0030H         SYMBOL        byRow
  D:0032H         SYMBOL        byCol
  D:0003H         SYMBOL        byAscii
  D:0035H         SYMBOL        fcolor
  D:0037H         SYMBOL        bcolor
  D:0039H         SYMBOL        size
  -------         DO            
  X:01EBH         SYMBOL        uiHPosition
  X:01ECH         SYMBOL        uiLPosition
  -------         ENDDO         
  C:E62FH         LINE#         216
  C:E637H         LINE#         217
  C:E637H         LINE#         219
  C:E64AH         LINE#         220
  C:E65EH         LINE#         221
  C:E663H         LINE#         222
  -------         ENDPROC       _SHOWASCII
  -------         PROC          _SHOWCALLFACE
  D:002EH         SYMBOL        byRoomAddr
  D:002FH         SYMBOL        byBedAddr
  D:0001H         SYMBOL        byCmd
  -------         DO            
  X:01E7H         SYMBOL        fcolor
  X:01E9H         SYMBOL        bcolor
  -------         ENDDO         
  C:15EEH         LINE#         239
  C:15F4H         LINE#         240
  C:15F4H         LINE#         242
  C:15F7H         LINE#         243
  C:15F7H         LINE#         244
BL51 BANKED LINKER/LOCATER V6.22                                                      06/23/2017  13:33:26  PAGE 22


  C:15FAH         LINE#         245
  C:160FH         LINE#         246
  C:160FH         LINE#         247
  C:160FH         LINE#         248
  C:1612H         LINE#         249
  C:161BH         LINE#         253
  C:1624H         LINE#         254
  C:1624H         LINE#         255
  C:1646H         LINE#         256
  C:1667H         LINE#         257
  C:1689H         LINE#         258
  C:16A3H         LINE#         259
  C:16C5H         LINE#         260
  C:16E2H         LINE#         261
  C:16E5H         LINE#         266
  C:16E5H         LINE#         267
  C:16E8H         LINE#         268
  C:16F1H         LINE#         269
  C:1718H         LINE#         270
  C:1740H         LINE#         271
  C:1761H         LINE#         272
  C:1788H         LINE#         273
  C:17B0H         LINE#         274
  C:17CAH         LINE#         275
  C:17ECH         LINE#         276
  C:1809H         LINE#         277
  C:1809H         LINE#         278
  C:180CH         LINE#         279
  C:180CH         LINE#         280
  C:180FH         LINE#         281
  C:1818H         LINE#         282
  C:181BH         LINE#         283
  C:1824H         LINE#         284
  C:184BH         LINE#         285
  C:1873H         LINE#         286
  C:1894H         LINE#         287
  C:18BBH         LINE#         288
  C:18E3H         LINE#         289
  C:1905H         LINE#         290
  C:1927H         LINE#         291
  C:1949H         LINE#         292
  C:196BH         LINE#         293
  C:1988H         LINE#         294
  C:198BH         LINE#         295
  C:198BH         LINE#         296
  C:198EH         LINE#         297
  C:1997H         LINE#         298
  C:199AH         LINE#         299
  C:19A3H         LINE#         300
  C:19CAH         LINE#         301
  C:19F2H         LINE#         302
  C:1A13H         LINE#         303
  C:1A35H         LINE#         304
  C:1A57H         LINE#         305
  C:1A79H         LINE#         306
  C:1A9BH         LINE#         307
  C:1ABDH         LINE#         308
BL51 BANKED LINKER/LOCATER V6.22                                                      06/23/2017  13:33:26  PAGE 23


  C:1ABDH         LINE#         309
  C:1ABDH         LINE#         310
  -------         ENDPROC       _SHOWCALLFACE
  -------         PROC          _SHOWVERSION
  D:002EH         SYMBOL        hversion
  D:002FH         SYMBOL        lversion
  D:0030H         SYMBOL        page
  -------         DO            
  X:01E7H         SYMBOL        fcolor
  X:01E9H         SYMBOL        bcolor
  -------         ENDDO         
  C:1F82H         LINE#         327
  C:1F88H         LINE#         328
  C:1F88H         LINE#         330
  C:1F90H         LINE#         331
  C:1F97H         LINE#         332
  C:1FA0H         LINE#         333
  C:1FA4H         LINE#         334
  C:1FD0H         LINE#         336
  C:2000H         LINE#         339
  C:2009H         LINE#         340
  C:200DH         LINE#         341
  C:2039H         LINE#         343
  C:206AH         LINE#         345
  C:2073H         LINE#         346
  C:2077H         LINE#         347
  C:20A3H         LINE#         349
  C:20D4H         LINE#         352
  C:20DDH         LINE#         353
  C:20E1H         LINE#         354
  C:210DH         LINE#         356
  C:213EH         LINE#         359
  C:2147H         LINE#         360
  C:214BH         LINE#         361
  C:2177H         LINE#         363
  C:21A8H         LINE#         366
  C:21B1H         LINE#         367
  C:21B5H         LINE#         368
  C:21E1H         LINE#         370
  C:2212H         LINE#         372
  C:221BH         LINE#         373
  C:221FH         LINE#         374
  C:224BH         LINE#         376
  C:227CH         LINE#         379
  C:2288H         LINE#         380
  C:228CH         LINE#         381
  C:22B8H         LINE#         383
  C:22E9H         LINE#         386
  C:22F2H         LINE#         387
  C:22F6H         LINE#         388
  C:2322H         LINE#         390
  C:2353H         LINE#         392
  C:235FH         LINE#         393
  C:2363H         LINE#         394
  C:238FH         LINE#         396
  C:23C0H         LINE#         397
  C:23C4H         LINE#         398
BL51 BANKED LINKER/LOCATER V6.22                                                      06/23/2017  13:33:26  PAGE 24


  C:23C7H         LINE#         400
  C:23CCH         LINE#         401
  -------         ENDPROC       _SHOWVERSION
  -------         PROC          L?0214
  -------         ENDPROC       L?0214
  -------         PROC          _SHOWLANDINGWORD
  D:0051H         SYMBOL        byRow
  D:0053H         SYMBOL        byCol
  D:0003H         SYMBOL        byWord
  D:0056H         SYMBOL        fcolor
  D:0058H         SYMBOL        bcolor
  -------         DO            
  X:023CH         SYMBOL        byHPosition
  X:023DH         SYMBOL        byLPosition
  -------         ENDDO         
  C:E694H         LINE#         417
  C:E69CH         LINE#         418
  C:E69CH         LINE#         420
  C:E6AFH         LINE#         421
  C:E6C3H         LINE#         422
  C:E6C8H         LINE#         423
  -------         ENDPROC       _SHOWLANDINGWORD
  -------         PROC          SHOWLANDINGFACE
  -------         DO            
  X:0236H         SYMBOL        fcolor
  X:0238H         SYMBOL        bcolor
  -------         ENDDO         
  C:DA5EH         LINE#         440
  C:DA5EH         LINE#         441
  C:DA5EH         LINE#         443
  C:DA66H         LINE#         444
  C:DA6DH         LINE#         445
  C:DA85H         LINE#         446
  C:DA9EH         LINE#         447
  C:DAB7H         LINE#         448
  C:DAD6H         LINE#         449
  C:DAF5H         LINE#         450
  C:DAFEH         LINE#         451
  C:DB2FH         LINE#         452
  C:DB60H         LINE#         453
  C:DB91H         LINE#         454
  -------         ENDPROC       SHOWLANDINGFACE
  -------         PROC          SHOWBEDPAGE
  -------         DO            
  X:01F0H         SYMBOL        byData1
  X:01F1H         SYMBOL        byData2
  X:01F2H         SYMBOL        i
  D:002EH         SYMBOL        G2312_code
  X:01F3H         SYMBOL        byData
  X:01FBH         SYMBOL        fcolor
  X:01FDH         SYMBOL        bcolor
  X:01FFH         SYMBOL        DisplayAddr
  X:0201H         SYMBOL        DispalyCount
  C:133CH         SYMBOL        ShowBedPage1
  C:14DBH         SYMBOL        ShowBedPage2
  -------         ENDDO         
  C:0C76H         LINE#         471
BL51 BANKED LINKER/LOCATER V6.22                                                      06/23/2017  13:33:26  PAGE 25


  C:0C76H         LINE#         472
  C:0C76H         LINE#         480
  C:0C7DH         LINE#         481
  C:0C7DH         LINE#         482
  C:0C86H         LINE#         483
  C:0C8FH         LINE#         484
  C:0CA9H         LINE#         485
  C:0CC3H         LINE#         486
  C:0CC5H         LINE#         488
  C:0CC5H         LINE#         489
  C:0CCEH         LINE#         490
  C:0CD4H         LINE#         491
  C:0CD4H         LINE#         493
  C:0CEBH         LINE#         495
  C:0CF5H         LINE#         496
  C:0D0EH         LINE#         497
  C:0D13H         LINE#         498
  C:0D13H         LINE#         499
  C:0D2BH         LINE#         500
  C:0D37H         LINE#         502
  C:0D40H         LINE#         503
  C:0D56H         LINE#         504
  C:0D86H         LINE#         506
  C:0D8FH         LINE#         507
  C:0DA5H         LINE#         508
  C:0DD6H         LINE#         510
  C:0DDFH         LINE#         511
  C:0DF5H         LINE#         512
  C:0E26H         LINE#         514
  C:0E32H         LINE#         515
  C:0E42H         LINE#         516
  C:0E73H         LINE#         518
  C:0E7CH         LINE#         519
  C:0EADH         LINE#         522
  C:0EB6H         LINE#         523
  C:0EB9H         LINE#         524
  C:0EBDH         LINE#         525
  C:0EBDH         LINE#         526
  C:0ED7H         LINE#         527
  C:0ED7H         LINE#         528
  C:0EEDH         LINE#         529
  C:0F22H         LINE#         530
  C:0F2CH         LINE#         531
  C:0F32H         LINE#         532
  C:0F35H         LINE#         533
  C:0F4FH         LINE#         534
  C:0F4FH         LINE#         535
  C:0F70H         LINE#         536
  C:0FA5H         LINE#         537
  C:0FAFH         LINE#         538
  C:0FB6H         LINE#         539
  C:0FB6H         LINE#         540
  C:0FBFH         LINE#         541
  C:0FBFH         LINE#         542
  C:0FCEH         LINE#         545
  C:0FD7H         LINE#         546
  C:0FEDH         LINE#         547
BL51 BANKED LINKER/LOCATER V6.22                                                      06/23/2017  13:33:26  PAGE 26


  C:101DH         LINE#         549
  C:1026H         LINE#         550
  C:103CH         LINE#         551
  C:106DH         LINE#         553
  C:1076H         LINE#         554
  C:108CH         LINE#         555
  C:10BDH         LINE#         557
  C:10C9H         LINE#         558
  C:10D9H         LINE#         559
  C:110AH         LINE#         561
  C:1113H         LINE#         562
  C:1144H         LINE#         564
  C:114EH         LINE#         565
  C:1167H         LINE#         566
  C:116CH         LINE#         567
  C:116CH         LINE#         568
  C:1184H         LINE#         569
  C:1190H         LINE#         572
  C:1199H         LINE#         573
  C:119CH         LINE#         574
  C:11A0H         LINE#         575
  C:11A0H         LINE#         576
  C:11BAH         LINE#         577
  C:11BAH         LINE#         578
  C:11D0H         LINE#         579
  C:1205H         LINE#         580
  C:120FH         LINE#         581
  C:1215H         LINE#         582
  C:1218H         LINE#         583
  C:1232H         LINE#         584
  C:1232H         LINE#         585
  C:1253H         LINE#         586
  C:1288H         LINE#         587
  C:1292H         LINE#         588
  C:1299H         LINE#         589
  C:1299H         LINE#         590
  C:12A2H         LINE#         591
  C:12A2H         LINE#         592
  C:12B1H         LINE#         595
  C:12BAH         LINE#         596
  C:12C4H         LINE#         597
  C:12DDH         LINE#         598
  C:12EBH         LINE#         599
  C:12F6H         LINE#         600
  C:12F6H         LINE#         601
  C:12FDH         LINE#         602
  C:1332H         LINE#         603
  C:133CH         LINE#         605
  C:133CH         LINE#         607
  C:133CH         LINE#         608
  C:133CH         LINE#         609
  C:133CH         LINE#         624
  C:133CH         LINE#         625
  C:1346H         LINE#         626
  C:135FH         LINE#         627
  C:136DH         LINE#         628
  C:137BH         LINE#         629
BL51 BANKED LINKER/LOCATER V6.22                                                      06/23/2017  13:33:26  PAGE 27


  C:1387H         LINE#         630
  C:13BCH         LINE#         631
  C:13C6H         LINE#         632
  C:13D2H         LINE#         633
  C:1407H         LINE#         634
  C:1411H         LINE#         636
  C:141AH         LINE#         637
  C:144FH         LINE#         638
  C:1459H         LINE#         642
  C:1463H         LINE#         643
  C:147CH         LINE#         644
  C:148AH         LINE#         646
  C:1495H         LINE#         647
  C:1495H         LINE#         648
  C:149CH         LINE#         649
  C:14D1H         LINE#         650
  C:14DBH         LINE#         652
  C:14DBH         LINE#         654
  C:14DBH         LINE#         655
  C:14DBH         LINE#         656
  C:14DBH         LINE#         670
  C:14DBH         LINE#         671
  C:14E5H         LINE#         672
  C:14FEH         LINE#         673
  C:150CH         LINE#         674
  C:151AH         LINE#         675
  C:1526H         LINE#         676
  C:155BH         LINE#         677
  C:1565H         LINE#         678
  C:1571H         LINE#         679
  C:15A6H         LINE#         680
  C:15B0H         LINE#         681
  C:15B9H         LINE#         682
  -------         ENDPROC       SHOWBEDPAGE
  -------         PROC          SHOWSECPAGE
  -------         DO            
  X:01F0H         SYMBOL        i
  X:01F1H         SYMBOL        byData1
  X:01F2H         SYMBOL        byData2
  X:01F3H         SYMBOL        fcolor
  X:01F5H         SYMBOL        bcolor
  X:01F7H         SYMBOL        byData
  X:0205H         SYMBOL        DisplayAddr
  X:0207H         SYMBOL        DispalyCount
  -------         ENDDO         
  C:CD27H         LINE#         699
  C:CD27H         LINE#         700
  C:CD27H         LINE#         707
  C:CD2EH         LINE#         708
  C:CD2EH         LINE#         709
  C:CD37H         LINE#         710
  C:CD40H         LINE#         711
  C:CD5AH         LINE#         712
  C:CD74H         LINE#         713
  C:CD76H         LINE#         715
  C:CD76H         LINE#         716
  C:CD7EH         LINE#         717
BL51 BANKED LINKER/LOCATER V6.22                                                      06/23/2017  13:33:26  PAGE 28


  C:CD85H         LINE#         718
  C:CD85H         LINE#         719
  C:CD8FH         LINE#         720
  C:CD94H         LINE#         721
  C:CDB8H         LINE#         722
  C:CDC1H         LINE#         723
  C:CDC4H         LINE#         724
  C:CDC8H         LINE#         725
  C:CDC8H         LINE#         726
  C:CDE2H         LINE#         727
  C:CDE2H         LINE#         728
  C:CDF8H         LINE#         729
  C:CE2DH         LINE#         730
  C:CE37H         LINE#         731
  C:CE3DH         LINE#         732
  C:CE40H         LINE#         733
  C:CE5AH         LINE#         734
  C:CE5AH         LINE#         735
  C:CE7BH         LINE#         736
  C:CEB0H         LINE#         737
  C:CEBAH         LINE#         738
  C:CEC1H         LINE#         739
  C:CEC1H         LINE#         740
  C:CECAH         LINE#         741
  C:CECAH         LINE#         742
  C:CED9H         LINE#         743
  -------         ENDPROC       SHOWSECPAGE
  -------         PROC          _SHOWSERCHROOMCOM
  D:002FH         SYMBOL        page
  -------         DO            
  X:01FEH         SYMBOL        fcolor
  X:0200H         SYMBOL        bcolor
  -------         ENDDO         
  C:1AC2H         LINE#         744
  C:1AC4H         LINE#         745
  C:1AC4H         LINE#         747
  C:1ACCH         LINE#         748
  C:1AD3H         LINE#         749
  C:1AEEH         LINE#         750
  C:1B0DH         LINE#         751
  C:1B2CH         LINE#         752
  C:1B4BH         LINE#         753
  C:1B6AH         LINE#         754
  C:1B89H         LINE#         755
  C:1BA8H         LINE#         756
  C:1BC7H         LINE#         757
  C:1BE6H         LINE#         758
  C:1C05H         LINE#         760
  C:1C0EH         LINE#         761
  C:1C3FH         LINE#         762
  C:1C48H         LINE#         763
  C:1C79H         LINE#         764
  C:1C82H         LINE#         765
  C:1CB3H         LINE#         767
  C:1CBCH         LINE#         768
  C:1CEDH         LINE#         769
  C:1CF6H         LINE#         770
BL51 BANKED LINKER/LOCATER V6.22                                                      06/23/2017  13:33:26  PAGE 29


  C:1D27H         LINE#         771
  C:1D30H         LINE#         772
  C:1D61H         LINE#         773
  C:1D6AH         LINE#         774
  C:1D9BH         LINE#         775
  C:1DA4H         LINE#         776
  C:1DD5H         LINE#         777
  C:1DE1H         LINE#         778
  C:1E12H         LINE#         779
  C:1E1BH         LINE#         780
  C:1E4CH         LINE#         781
  C:1E6BH         LINE#         782
  C:1E8AH         LINE#         783
  C:1EA9H         LINE#         784
  C:1EC8H         LINE#         785
  C:1EE7H         LINE#         786
  C:1F06H         LINE#         787
  C:1F25H         LINE#         788
  C:1F44H         LINE#         789
  C:1F63H         LINE#         790
  -------         ENDPROC       _SHOWSERCHROOMCOM
  -------         PROC          SHOWSERCHROMMPAGE1
  -------         DO            
  X:01E7H         SYMBOL        fcolor
  X:01E9H         SYMBOL        bcolor
  X:01EBH         SYMBOL        serchroomcount
  X:01ECH         SYMBOL        nursenumber
  X:01EDH         SYMBOL        nursenumber1
  X:01EEH         SYMBOL        nursenumber2
  X:01EFH         SYMBOL        minute
  X:01F0H         SYMBOL        minute1
  X:01F1H         SYMBOL        minute2
  X:01F2H         SYMBOL        hour
  X:01F3H         SYMBOL        hour1
  X:01F4H         SYMBOL        hour2
  X:01F5H         SYMBOL        day
  X:01F6H         SYMBOL        day1
  X:01F7H         SYMBOL        day2
  X:01F8H         SYMBOL        month
  X:01F9H         SYMBOL        month1
  X:01FAH         SYMBOL        month2
  X:01FBH         SYMBOL        year
  X:01FCH         SYMBOL        year1
  X:01FDH         SYMBOL        year2
  -------         ENDDO         
  C:281EH         LINE#         807
  C:281EH         LINE#         808
  C:281EH         LINE#         810
  C:2823H         LINE#         811
  C:2825H         LINE#         812
  C:2829H         LINE#         813
  C:282DH         LINE#         814
  C:2831H         LINE#         815
  C:2835H         LINE#         816
  C:2839H         LINE#         817
  C:2841H         LINE#         818
  C:2848H         LINE#         819
BL51 BANKED LINKER/LOCATER V6.22                                                      06/23/2017  13:33:26  PAGE 30


  C:284EH         LINE#         820
  C:284EH         LINE#         822
  C:284EH         LINE#         823
  C:2851H         LINE#         824
  C:2851H         LINE#         825
  C:2853H         LINE#         826
  C:2871H         LINE#         827
  C:2871H         LINE#         828
  C:2876H         LINE#         829
  C:287EH         LINE#         830
  C:2884H         LINE#         831
  C:2884H         LINE#         832
  C:288DH         LINE#         833
  C:288DH         LINE#         835
  C:289DH         LINE#         836
  C:28A0H         LINE#         837
  C:28A7H         LINE#         838
  C:28B3H         LINE#         839
  C:28BDH         LINE#         841
  C:28C4H         LINE#         842
  C:28EDH         LINE#         843
  C:28F9H         LINE#         844
  C:292AH         LINE#         846
  C:293AH         LINE#         847
  C:294AH         LINE#         848
  C:295AH         LINE#         849
  C:296AH         LINE#         850
  C:297AH         LINE#         851
  C:2989H         LINE#         852
  C:2992H         LINE#         853
  C:29A1H         LINE#         854
  C:29AAH         LINE#         855
  C:29B9H         LINE#         856
  C:29C2H         LINE#         857
  C:29CFH         LINE#         858
  C:29D8H         LINE#         859
  C:29E5H         LINE#         860
  C:29EEH         LINE#         863
  C:29F7H         LINE#         864
  C:2A28H         LINE#         865
  C:2A31H         LINE#         866
  C:2A62H         LINE#         867
  C:2A6EH         LINE#         868
  C:2A9FH         LINE#         869
  C:2AABH         LINE#         870
  C:2ADCH         LINE#         871
  C:2AE5H         LINE#         872
  C:2B16H         LINE#         873
  C:2B22H         LINE#         874
  C:2B53H         LINE#         875
  C:2B5FH         LINE#         876
  C:2B62H         LINE#         877
  C:2B6BH         LINE#         878
  C:2B9CH         LINE#         879
  C:2BA8H         LINE#         880
  C:2BD9H         LINE#         881
  C:2BE5H         LINE#         882
BL51 BANKED LINKER/LOCATER V6.22                                                      06/23/2017  13:33:26  PAGE 31


  C:2C16H         LINE#         883
  C:2C22H         LINE#         884
  C:2C53H         LINE#         885
  C:2C5FH         LINE#         886
  C:2C90H         LINE#         887
  C:2C99H         LINE#         888
  C:2CCAH         LINE#         889
  C:2CD6H         LINE#         890
  C:2D07H         LINE#         891
  C:2D13H         LINE#         892
  C:2D44H         LINE#         893
  C:2D44H         LINE#         896
  C:2D50H         LINE#         897
  C:2D50H         LINE#         898
  C:2D60H         LINE#         899
  C:2D63H         LINE#         900
  C:2D6AH         LINE#         901
  C:2D76H         LINE#         902
  C:2D80H         LINE#         903
  C:2D87H         LINE#         904
  C:2DB8H         LINE#         905
  C:2DC4H         LINE#         906
  C:2DF5H         LINE#         908
  C:2E05H         LINE#         909
  C:2E15H         LINE#         910
  C:2E25H         LINE#         911
  C:2E35H         LINE#         912
  C:2E45H         LINE#         913
  C:2E54H         LINE#         914
  C:2E5DH         LINE#         915
  C:2E6CH         LINE#         916
  C:2E75H         LINE#         917
  C:2E84H         LINE#         918
  C:2E8DH         LINE#         919
  C:2E9AH         LINE#         920
  C:2EA3H         LINE#         921
  C:2EB0H         LINE#         922
  C:2EB9H         LINE#         925
  C:2EC2H         LINE#         926
  C:2EF3H         LINE#         927
  C:2EFCH         LINE#         928
  C:2F2DH         LINE#         929
  C:2F39H         LINE#         930
  C:2F6AH         LINE#         931
  C:2F76H         LINE#         932
  C:2FA7H         LINE#         933
  C:2FB0H         LINE#         934
  C:2FE1H         LINE#         935
  C:2FEDH         LINE#         936
  C:301EH         LINE#         937
  C:302AH         LINE#         938
  C:305BH         LINE#         939
  C:3064H         LINE#         940
  C:3095H         LINE#         941
  C:30A1H         LINE#         942
  C:30D2H         LINE#         943
  C:30DEH         LINE#         944
BL51 BANKED LINKER/LOCATER V6.22                                                      06/23/2017  13:33:26  PAGE 32


  C:310FH         LINE#         945
  C:311BH         LINE#         946
  C:314CH         LINE#         947
  C:3158H         LINE#         948
  C:3189H         LINE#         949
  C:3192H         LINE#         950
  C:31C3H         LINE#         951
  C:31CFH         LINE#         952
  C:3200H         LINE#         953
  C:320CH         LINE#         954
  C:323DH         LINE#         955
  C:323DH         LINE#         959
  C:3249H         LINE#         960
  C:3249H         LINE#         961
  C:3259H         LINE#         962
  C:325CH         LINE#         963
  C:3263H         LINE#         964
  C:326FH         LINE#         965
  C:3279H         LINE#         966
  C:3280H         LINE#         967
  C:32B1H         LINE#         968
  C:32BDH         LINE#         969
  C:32EEH         LINE#         971
  C:32FEH         LINE#         972
  C:330EH         LINE#         973
  C:331EH         LINE#         974
  C:332EH         LINE#         975
  C:333EH         LINE#         976
  C:334DH         LINE#         977
  C:3356H         LINE#         978
  C:3365H         LINE#         979
  C:336EH         LINE#         980
  C:337DH         LINE#         981
  C:3386H         LINE#         982
  C:3393H         LINE#         983
  C:339CH         LINE#         984
  C:33A9H         LINE#         985
  C:33B2H         LINE#         986
  C:33BBH         LINE#         987
  C:33ECH         LINE#         988
  C:33F5H         LINE#         989
  C:3426H         LINE#         990
  C:3432H         LINE#         991
  C:3463H         LINE#         992
  C:346FH         LINE#         993
  C:34A0H         LINE#         994
  C:34A9H         LINE#         995
  C:34DAH         LINE#         996
  C:34E6H         LINE#         997
  C:3517H         LINE#         998
  C:3523H         LINE#         999
  C:3554H         LINE#         1000
  C:355DH         LINE#         1001
  C:358EH         LINE#         1002
  C:359AH         LINE#         1003
  C:35CBH         LINE#         1004
  C:35D7H         LINE#         1005
BL51 BANKED LINKER/LOCATER V6.22                                                      06/23/2017  13:33:26  PAGE 33


  C:3608H         LINE#         1006
  C:3614H         LINE#         1007
  C:3645H         LINE#         1008
  C:3651H         LINE#         1009
  C:3682H         LINE#         1010
  C:368BH         LINE#         1011
  C:36BCH         LINE#         1012
  C:36C8H         LINE#         1013
  C:36F9H         LINE#         1014
  C:3705H         LINE#         1015
  C:3736H         LINE#         1016
  C:3736H         LINE#         1018
  C:3742H         LINE#         1019
  C:3742H         LINE#         1020
  C:3752H         LINE#         1021
  C:3755H         LINE#         1022
  C:375CH         LINE#         1023
  C:3768H         LINE#         1024
  C:3772H         LINE#         1025
  C:3779H         LINE#         1026
  C:37AAH         LINE#         1027
  C:37B6H         LINE#         1028
  C:37E7H         LINE#         1030
  C:37F7H         LINE#         1031
  C:3807H         LINE#         1032
  C:3817H         LINE#         1033
  C:3827H         LINE#         1034
  C:3837H         LINE#         1035
  C:3846H         LINE#         1036
  C:384FH         LINE#         1037
  C:385EH         LINE#         1038
  C:3867H         LINE#         1039
  C:3876H         LINE#         1040
  C:387FH         LINE#         1041
  C:388CH         LINE#         1042
  C:3895H         LINE#         1043
  C:38A2H         LINE#         1044
  C:38ABH         LINE#         1045
  C:38B4H         LINE#         1046
  C:38E5H         LINE#         1047
  C:38EEH         LINE#         1048
  C:391FH         LINE#         1049
  C:392BH         LINE#         1050
  C:395CH         LINE#         1051
  C:3968H         LINE#         1052
  C:3999H         LINE#         1053
  C:39A2H         LINE#         1054
  C:39D3H         LINE#         1055
  C:39DFH         LINE#         1056
  C:3A10H         LINE#         1057
  C:3A1CH         LINE#         1058
  C:3A4DH         LINE#         1059
  C:3A56H         LINE#         1060
  C:3A87H         LINE#         1061
  C:3A93H         LINE#         1062
  C:3AC4H         LINE#         1063
  C:3AD0H         LINE#         1064
BL51 BANKED LINKER/LOCATER V6.22                                                      06/23/2017  13:33:26  PAGE 34


  C:3B01H         LINE#         1065
  C:3B0DH         LINE#         1066
  C:3B3EH         LINE#         1067
  C:3B4AH         LINE#         1068
  C:3B7BH         LINE#         1069
  C:3B84H         LINE#         1070
  C:3BB5H         LINE#         1071
  C:3BC1H         LINE#         1072
  C:3BF2H         LINE#         1073
  C:3BFEH         LINE#         1074
  C:3C2FH         LINE#         1075
  C:3C2FH         LINE#         1076
  C:3C3BH         LINE#         1077
  C:3C3BH         LINE#         1079
  C:3C3BH         LINE#         1080
  C:3C3BH         LINE#         1081
  C:3C3BH         LINE#         1082
  C:3C3BH         LINE#         1083
  C:3C3BH         LINE#         1084
  C:3C3BH         LINE#         1085
  C:3C3BH         LINE#         1086
  C:3C3BH         LINE#         1087
  C:3C3BH         LINE#         1089
  C:3C3BH         LINE#         1090
  C:3C3BH         LINE#         1091
  C:3C3BH         LINE#         1092
  C:3C3BH         LINE#         1093
  C:3C3BH         LINE#         1094
  C:3C3BH         LINE#         1095
  C:3C3BH         LINE#         1096
  C:3C3BH         LINE#         1097
  C:3C3BH         LINE#         1098
  C:3C3BH         LINE#         1099
  C:3C3BH         LINE#         1100
  C:3C3BH         LINE#         1101
  C:3C3BH         LINE#         1102
  C:3C3BH         LINE#         1103
  C:3C3BH         LINE#         1104
  C:3C3BH         LINE#         1105
  C:3C3BH         LINE#         1106
  C:3C3BH         LINE#         1107
  C:3C3BH         LINE#         1108
  C:3C3BH         LINE#         1109
  C:3C3BH         LINE#         1110
  C:3C3BH         LINE#         1111
  C:3C3BH         LINE#         1112
  C:3C3BH         LINE#         1113
  C:3C3BH         LINE#         1114
  C:3C3BH         LINE#         1115
  C:3C3BH         LINE#         1116
  C:3C3BH         LINE#         1117
  C:3C3BH         LINE#         1118
  C:3C3BH         LINE#         1119
  C:3C3BH         LINE#         1120
  C:3C3BH         LINE#         1121
  C:3C3BH         LINE#         1122
  C:3C3BH         LINE#         1123
BL51 BANKED LINKER/LOCATER V6.22                                                      06/23/2017  13:33:26  PAGE 35


  C:3C3BH         LINE#         1124
  C:3C3BH         LINE#         1125
  C:3C3BH         LINE#         1126
  C:3C3BH         LINE#         1127
  C:3C3BH         LINE#         1128
  C:3C3BH         LINE#         1129
  C:3C3BH         LINE#         1130
  C:3C3BH         LINE#         1131
  C:3C3BH         LINE#         1132
  C:3C3BH         LINE#         1133
  C:3C3BH         LINE#         1134
  C:3C3BH         LINE#         1135
  C:3C3EH         LINE#         1137
  C:3C3EH         LINE#         1138
  C:3C4EH         LINE#         1139
  C:3C51H         LINE#         1140
  C:3C58H         LINE#         1141
  C:3C64H         LINE#         1142
  C:3C6EH         LINE#         1146
  C:3C75H         LINE#         1147
  C:3CA6H         LINE#         1148
  C:3CB2H         LINE#         1149
  C:3CE3H         LINE#         1151
  C:3CF3H         LINE#         1152
  C:3D03H         LINE#         1153
  C:3D13H         LINE#         1154
  C:3D23H         LINE#         1155
  C:3D33H         LINE#         1156
  C:3D42H         LINE#         1157
  C:3D4BH         LINE#         1158
  C:3D5AH         LINE#         1159
  C:3D63H         LINE#         1160
  C:3D72H         LINE#         1161
  C:3D7BH         LINE#         1162
  C:3D88H         LINE#         1163
  C:3D91H         LINE#         1164
  C:3D9EH         LINE#         1165
  C:3DA7H         LINE#         1168
  C:3DB0H         LINE#         1169
  C:3DE1H         LINE#         1170
  C:3DEAH         LINE#         1171
  C:3E1BH         LINE#         1172
  C:3E27H         LINE#         1173
  C:3E58H         LINE#         1174
  C:3E64H         LINE#         1175
  C:3E95H         LINE#         1176
  C:3E9EH         LINE#         1177
  C:3ECFH         LINE#         1178
  C:3EDBH         LINE#         1179
  C:3F0CH         LINE#         1180
  C:3F18H         LINE#         1181
  C:3F1BH         LINE#         1182
  C:3F24H         LINE#         1183
  C:3F55H         LINE#         1184
  C:3F61H         LINE#         1185
  C:3F92H         LINE#         1186
  C:3F9EH         LINE#         1187
BL51 BANKED LINKER/LOCATER V6.22                                                      06/23/2017  13:33:26  PAGE 36


  C:3FCFH         LINE#         1188
  C:3FDBH         LINE#         1189
  C:400CH         LINE#         1190
  C:4018H         LINE#         1191
  C:4049H         LINE#         1192
  C:4052H         LINE#         1193
  C:4083H         LINE#         1194
  C:408FH         LINE#         1195
  C:40C0H         LINE#         1196
  C:40CCH         LINE#         1197
  C:40FDH         LINE#         1202
  C:410DH         LINE#         1203
  C:4110H         LINE#         1204
  C:4117H         LINE#         1205
  C:4123H         LINE#         1206
  C:412DH         LINE#         1207
  C:4134H         LINE#         1208
  C:4165H         LINE#         1209
  C:4171H         LINE#         1210
  C:41A2H         LINE#         1212
  C:41B2H         LINE#         1213
  C:41C2H         LINE#         1214
  C:41D2H         LINE#         1215
  C:41E2H         LINE#         1216
  C:41F2H         LINE#         1217
  C:4201H         LINE#         1218
  C:420AH         LINE#         1219
  C:4219H         LINE#         1220
  C:4222H         LINE#         1221
  C:4231H         LINE#         1222
  C:423AH         LINE#         1223
  C:4247H         LINE#         1224
  C:4250H         LINE#         1225
  C:425DH         LINE#         1226
  C:4266H         LINE#         1229
  C:426FH         LINE#         1230
  C:42A0H         LINE#         1231
  C:42A9H         LINE#         1232
  C:42DAH         LINE#         1233
  C:42E6H         LINE#         1234
  C:4317H         LINE#         1235
  C:4323H         LINE#         1236
  C:4354H         LINE#         1237
  C:435DH         LINE#         1238
  C:438EH         LINE#         1239
  C:439AH         LINE#         1240
  C:43CBH         LINE#         1241
  C:43D7H         LINE#         1242
  C:4408H         LINE#         1243
  C:4411H         LINE#         1244
  C:4442H         LINE#         1245
  C:444EH         LINE#         1246
  C:447FH         LINE#         1247
  C:448BH         LINE#         1248
  C:44BCH         LINE#         1249
  C:44C8H         LINE#         1250
  C:44F9H         LINE#         1251
BL51 BANKED LINKER/LOCATER V6.22                                                      06/23/2017  13:33:26  PAGE 37


  C:4505H         LINE#         1252
  C:4536H         LINE#         1253
  C:453FH         LINE#         1254
  C:4570H         LINE#         1255
  C:457CH         LINE#         1256
  C:45ADH         LINE#         1257
  C:45B9H         LINE#         1258
  C:45EAH         LINE#         1264
  C:45FAH         LINE#         1265
  C:45FDH         LINE#         1266
  C:4604H         LINE#         1267
  C:4610H         LINE#         1268
  C:461AH         LINE#         1269
  C:4621H         LINE#         1270
  C:4652H         LINE#         1271
  C:465EH         LINE#         1272
  C:468FH         LINE#         1274
  C:469FH         LINE#         1275
  C:46AFH         LINE#         1276
  C:46BFH         LINE#         1277
  C:46CFH         LINE#         1278
  C:46DFH         LINE#         1279
  C:46EEH         LINE#         1280
  C:46F7H         LINE#         1281
  C:4706H         LINE#         1282
  C:470FH         LINE#         1283
  C:471EH         LINE#         1284
  C:4727H         LINE#         1285
  C:4734H         LINE#         1286
  C:473DH         LINE#         1287
  C:474AH         LINE#         1288
  C:4753H         LINE#         1289
  C:475CH         LINE#         1290
  C:478DH         LINE#         1291
  C:4796H         LINE#         1292
  C:47C7H         LINE#         1293
  C:47D3H         LINE#         1294
  C:4804H         LINE#         1295
  C:4810H         LINE#         1296
  C:4841H         LINE#         1297
  C:484AH         LINE#         1298
  C:487BH         LINE#         1299
  C:4887H         LINE#         1300
  C:48B8H         LINE#         1301
  C:48C4H         LINE#         1302
  C:48F5H         LINE#         1303
  C:48FEH         LINE#         1304
  C:492FH         LINE#         1305
  C:493BH         LINE#         1306
  C:496CH         LINE#         1307
  C:4978H         LINE#         1308
  C:49A9H         LINE#         1309
  C:49B5H         LINE#         1310
  C:49E6H         LINE#         1311
  C:49F2H         LINE#         1312
  C:4A23H         LINE#         1313
  C:4A2CH         LINE#         1314
BL51 BANKED LINKER/LOCATER V6.22                                                      06/23/2017  13:33:26  PAGE 38


  C:4A5DH         LINE#         1315
  C:4A69H         LINE#         1316
  C:4A9AH         LINE#         1317
  C:4AA6H         LINE#         1318
  C:4AD7H         LINE#         1322
  C:4AE7H         LINE#         1323
  C:4AEAH         LINE#         1324
  C:4AF1H         LINE#         1325
  C:4AFDH         LINE#         1326
  C:4B07H         LINE#         1327
  C:4B0EH         LINE#         1328
  C:4B3FH         LINE#         1329
  C:4B4BH         LINE#         1330
  C:4B7CH         LINE#         1332
  C:4B8CH         LINE#         1333
  C:4B9CH         LINE#         1334
  C:4BACH         LINE#         1335
  C:4BBCH         LINE#         1336
  C:4BCCH         LINE#         1337
  C:4BDBH         LINE#         1338
  C:4BE4H         LINE#         1339
  C:4BF3H         LINE#         1340
  C:4BFCH         LINE#         1341
  C:4C0BH         LINE#         1342
  C:4C14H         LINE#         1343
  C:4C21H         LINE#         1344
  C:4C2AH         LINE#         1345
  C:4C37H         LINE#         1346
  C:4C40H         LINE#         1347
  C:4C49H         LINE#         1348
  C:4C7AH         LINE#         1349
  C:4C83H         LINE#         1350
  C:4CB4H         LINE#         1351
  C:4CC0H         LINE#         1352
  C:4CF1H         LINE#         1353
  C:4CFDH         LINE#         1354
  C:4D2EH         LINE#         1355
  C:4D37H         LINE#         1356
  C:4D68H         LINE#         1357
  C:4D74H         LINE#         1358
  C:4DA5H         LINE#         1359
  C:4DB1H         LINE#         1360
  C:4DE2H         LINE#         1361
  C:4DEBH         LINE#         1362
  C:4E1CH         LINE#         1363
  C:4E28H         LINE#         1364
  C:4E59H         LINE#         1365
  C:4E65H         LINE#         1366
  C:4E96H         LINE#         1367
  C:4EA2H         LINE#         1368
  C:4ED3H         LINE#         1369
  C:4EDFH         LINE#         1370
  C:4F10H         LINE#         1371
  C:4F19H         LINE#         1372
  C:4F4AH         LINE#         1373
  C:4F56H         LINE#         1374
  C:4F87H         LINE#         1375
BL51 BANKED LINKER/LOCATER V6.22                                                      06/23/2017  13:33:26  PAGE 39


  C:4F93H         LINE#         1376
  C:4FC4H         LINE#         1380
  C:4FD4H         LINE#         1381
  C:4FD7H         LINE#         1382
  C:4FDEH         LINE#         1383
  C:4FEAH         LINE#         1384
  C:4FF4H         LINE#         1385
  C:4FFBH         LINE#         1386
  C:502CH         LINE#         1387
  C:5038H         LINE#         1388
  C:5069H         LINE#         1390
  C:5079H         LINE#         1391
  C:5089H         LINE#         1392
  C:5099H         LINE#         1393
  C:50A9H         LINE#         1394
  C:50B9H         LINE#         1395
  C:50C8H         LINE#         1396
  C:50D1H         LINE#         1397
  C:50E0H         LINE#         1398
  C:50E9H         LINE#         1399
  C:50F8H         LINE#         1400
  C:5101H         LINE#         1401
  C:510EH         LINE#         1402
  C:5117H         LINE#         1403
  C:5124H         LINE#         1404
  C:512DH         LINE#         1405
  C:5136H         LINE#         1406
  C:5167H         LINE#         1407
  C:5170H         LINE#         1408
  C:51A1H         LINE#         1409
  C:51ADH         LINE#         1410
  C:51DEH         LINE#         1411
  C:51EAH         LINE#         1412
  C:521BH         LINE#         1413
  C:5224H         LINE#         1414
  C:5255H         LINE#         1415
  C:5261H         LINE#         1416
  C:5292H         LINE#         1417
  C:529EH         LINE#         1418
  C:52CFH         LINE#         1419
  C:52D8H         LINE#         1420
  C:5309H         LINE#         1421
  C:5315H         LINE#         1422
  C:5346H         LINE#         1423
  C:5352H         LINE#         1424
  C:5383H         LINE#         1425
  C:538FH         LINE#         1426
  C:53C0H         LINE#         1427
  C:53CCH         LINE#         1428
  C:53FDH         LINE#         1429
  C:5406H         LINE#         1430
  C:5437H         LINE#         1431
  C:5443H         LINE#         1432
  C:5474H         LINE#         1433
  C:5480H         LINE#         1434
  C:54B1H         LINE#         1435
  C:54B1H         LINE#         1436
BL51 BANKED LINKER/LOCATER V6.22                                                      06/23/2017  13:33:26  PAGE 40


  C:54B6H         LINE#         1437
  -------         ENDPROC       SHOWSERCHROMMPAGE1
  -------         PROC          SHOWSERCHROMMPAGE2
  -------         DO            
  X:01E7H         SYMBOL        fcolor
  X:01E9H         SYMBOL        bcolor
  X:01EBH         SYMBOL        serchroomcount
  X:01ECH         SYMBOL        nursenumber
  X:01EDH         SYMBOL        nursenumber1
  X:01EEH         SYMBOL        nursenumber2
  X:01EFH         SYMBOL        minute
  X:01F0H         SYMBOL        minute1
  X:01F1H         SYMBOL        minute2
  X:01F2H         SYMBOL        hour
  X:01F3H         SYMBOL        hour1
  X:01F4H         SYMBOL        hour2
  X:01F5H         SYMBOL        day
  X:01F6H         SYMBOL        day1
  X:01F7H         SYMBOL        day2
  X:01F8H         SYMBOL        month
  X:01F9H         SYMBOL        month1
  X:01FAH         SYMBOL        month2
  X:01FBH         SYMBOL        year
  X:01FCH         SYMBOL        year1
  X:01FDH         SYMBOL        year2
  -------         ENDDO         
  C:54B7H         LINE#         1453
  C:54B7H         LINE#         1454
  C:54B7H         LINE#         1456
  C:54BCH         LINE#         1457
  C:54BEH         LINE#         1458
  C:54C2H         LINE#         1459
  C:54C6H         LINE#         1460
  C:54CAH         LINE#         1461
  C:54CEH         LINE#         1462
  C:54D2H         LINE#         1463
  C:54DAH         LINE#         1464
  C:54E1H         LINE#         1465
  C:54E7H         LINE#         1466
  C:54E7H         LINE#         1468
  C:54E7H         LINE#         1469
  C:54ECH         LINE#         1470
  C:54F4H         LINE#         1471
  C:54FAH         LINE#         1472
  C:54FAH         LINE#         1473
  C:5503H         LINE#         1474
  C:5503H         LINE#         1476
  C:5513H         LINE#         1477
  C:5516H         LINE#         1478
  C:551DH         LINE#         1479
  C:5529H         LINE#         1480
  C:5533H         LINE#         1482
  C:553AH         LINE#         1483
  C:556BH         LINE#         1484
  C:5577H         LINE#         1485
  C:55A8H         LINE#         1487
  C:55B8H         LINE#         1488
BL51 BANKED LINKER/LOCATER V6.22                                                      06/23/2017  13:33:26  PAGE 41


  C:55C8H         LINE#         1489
  C:55D8H         LINE#         1490
  C:55E8H         LINE#         1491
  C:55F8H         LINE#         1492
  C:5607H         LINE#         1493
  C:5610H         LINE#         1494
  C:561FH         LINE#         1495
  C:5628H         LINE#         1496
  C:5637H         LINE#         1497
  C:5640H         LINE#         1498
  C:564DH         LINE#         1499
  C:5656H         LINE#         1500
  C:5663H         LINE#         1501
  C:566CH         LINE#         1504
  C:5675H         LINE#         1505
  C:56A6H         LINE#         1506
  C:56AFH         LINE#         1507
  C:56E0H         LINE#         1508
  C:56ECH         LINE#         1509
  C:571DH         LINE#         1510
  C:5729H         LINE#         1511
  C:575AH         LINE#         1512
  C:5763H         LINE#         1513
  C:5794H         LINE#         1514
  C:57A0H         LINE#         1515
  C:57D1H         LINE#         1516
  C:57DDH         LINE#         1517
  C:57ECH         LINE#         1518
  C:57F5H         LINE#         1519
  C:5826H         LINE#         1520
  C:5832H         LINE#         1521
  C:5863H         LINE#         1522
  C:586FH         LINE#         1523
  C:58A0H         LINE#         1524
  C:58ACH         LINE#         1525
  C:58DDH         LINE#         1526
  C:58E9H         LINE#         1527
  C:591AH         LINE#         1528
  C:5923H         LINE#         1529
  C:5954H         LINE#         1530
  C:5960H         LINE#         1531
  C:5991H         LINE#         1532
  C:599DH         LINE#         1533
  C:59CEH         LINE#         1534
  C:59CEH         LINE#         1537
  C:59DAH         LINE#         1538
  C:59DAH         LINE#         1539
  C:59EAH         LINE#         1540
  C:59EDH         LINE#         1541
  C:59F4H         LINE#         1542
  C:5A00H         LINE#         1543
  C:5A0AH         LINE#         1544
  C:5A11H         LINE#         1545
  C:5A42H         LINE#         1546
  C:5A4EH         LINE#         1547
  C:5A7FH         LINE#         1549
  C:5A8FH         LINE#         1550
BL51 BANKED LINKER/LOCATER V6.22                                                      06/23/2017  13:33:26  PAGE 42


  C:5A9FH         LINE#         1551
  C:5AAFH         LINE#         1552
  C:5ABFH         LINE#         1553
  C:5ACFH         LINE#         1554
  C:5ADEH         LINE#         1555
  C:5AE7H         LINE#         1556
  C:5AF6H         LINE#         1557
  C:5AFFH         LINE#         1558
  C:5B0EH         LINE#         1559
  C:5B17H         LINE#         1560
  C:5B24H         LINE#         1561
  C:5B2DH         LINE#         1562
  C:5B3AH         LINE#         1563
  C:5B43H         LINE#         1566
  C:5B4CH         LINE#         1567
  C:5B7DH         LINE#         1568
  C:5B86H         LINE#         1569
  C:5BB7H         LINE#         1570
  C:5BC3H         LINE#         1571
  C:5BF4H         LINE#         1572
  C:5C00H         LINE#         1573
  C:5C31H         LINE#         1574
  C:5C3AH         LINE#         1575
  C:5C6BH         LINE#         1576
  C:5C77H         LINE#         1577
  C:5CA8H         LINE#         1578
  C:5CB4H         LINE#         1579
  C:5CE5H         LINE#         1580
  C:5CEEH         LINE#         1581
  C:5D1FH         LINE#         1582
  C:5D2BH         LINE#         1583
  C:5D5CH         LINE#         1584
  C:5D68H         LINE#         1585
  C:5D99H         LINE#         1586
  C:5DA5H         LINE#         1587
  C:5DD6H         LINE#         1588
  C:5DE2H         LINE#         1589
  C:5E13H         LINE#         1590
  C:5E1CH         LINE#         1591
  C:5E4DH         LINE#         1592
  C:5E59H         LINE#         1593
  C:5E8AH         LINE#         1594
  C:5E96H         LINE#         1595
  C:5EC7H         LINE#         1596
  C:5EC7H         LINE#         1600
  C:5ED3H         LINE#         1601
  C:5ED3H         LINE#         1602
  C:5EE3H         LINE#         1603
  C:5EE6H         LINE#         1604
  C:5EEDH         LINE#         1605
  C:5EF9H         LINE#         1606
  C:5F03H         LINE#         1607
  C:5F0AH         LINE#         1608
  C:5F3BH         LINE#         1609
  C:5F47H         LINE#         1610
  C:5F78H         LINE#         1612
  C:5F88H         LINE#         1613
BL51 BANKED LINKER/LOCATER V6.22                                                      06/23/2017  13:33:26  PAGE 43


  C:5F98H         LINE#         1614
  C:5FA8H         LINE#         1615
  C:5FB8H         LINE#         1616
  C:5FC8H         LINE#         1617
  C:5FD7H         LINE#         1618
  C:5FE0H         LINE#         1619
  C:5FEFH         LINE#         1620
  C:5FF8H         LINE#         1621
  C:6007H         LINE#         1622
  C:6010H         LINE#         1623
  C:601DH         LINE#         1624
  C:6026H         LINE#         1625
  C:6033H         LINE#         1626
  C:603CH         LINE#         1627
  C:6045H         LINE#         1628
  C:6076H         LINE#         1629
  C:607FH         LINE#         1630
  C:60B0H         LINE#         1631
  C:60BCH         LINE#         1632
  C:60EDH         LINE#         1633
  C:60F9H         LINE#         1634
  C:612AH         LINE#         1635
  C:6133H         LINE#         1636
  C:6164H         LINE#         1637
  C:6170H         LINE#         1638
  C:61A1H         LINE#         1639
  C:61ADH         LINE#         1640
  C:61DEH         LINE#         1641
  C:61E7H         LINE#         1642
  C:6218H         LINE#         1643
  C:6224H         LINE#         1644
  C:6255H         LINE#         1645
  C:6261H         LINE#         1646
  C:6292H         LINE#         1647
  C:629EH         LINE#         1648
  C:62CFH         LINE#         1649
  C:62DBH         LINE#         1650
  C:630CH         LINE#         1651
  C:6315H         LINE#         1652
  C:6346H         LINE#         1653
  C:6352H         LINE#         1654
  C:6383H         LINE#         1655
  C:638FH         LINE#         1656
  C:63C0H         LINE#         1657
  C:63C0H         LINE#         1659
  C:63CCH         LINE#         1660
  C:63CCH         LINE#         1661
  C:63DCH         LINE#         1662
  C:63DFH         LINE#         1663
  C:63E6H         LINE#         1664
  C:63F2H         LINE#         1665
  C:63FCH         LINE#         1666
  C:6403H         LINE#         1667
  C:6434H         LINE#         1668
  C:6440H         LINE#         1669
  C:6471H         LINE#         1671
  C:6481H         LINE#         1672
BL51 BANKED LINKER/LOCATER V6.22                                                      06/23/2017  13:33:26  PAGE 44


  C:6491H         LINE#         1673
  C:64A1H         LINE#         1674
  C:64B1H         LINE#         1675
  C:64C1H         LINE#         1676
  C:64D0H         LINE#         1677
  C:64D9H         LINE#         1678
  C:64E8H         LINE#         1679
  C:64F1H         LINE#         1680
  C:6500H         LINE#         1681
  C:6509H         LINE#         1682
  C:6516H         LINE#         1683
  C:651FH         LINE#         1684
  C:652CH         LINE#         1685
  C:6535H         LINE#         1686
  C:653EH         LINE#         1687
  C:656FH         LINE#         1688
  C:6578H         LINE#         1689
  C:65A9H         LINE#         1690
  C:65B5H         LINE#         1691
  C:65E6H         LINE#         1692
  C:65F2H         LINE#         1693
  C:6623H         LINE#         1694
  C:662CH         LINE#         1695
  C:665DH         LINE#         1696
  C:6669H         LINE#         1697
  C:669AH         LINE#         1698
  C:66A6H         LINE#         1699
  C:66D7H         LINE#         1700
  C:66E0H         LINE#         1701
  C:6711H         LINE#         1702
  C:671DH         LINE#         1703
  C:674EH         LINE#         1704
  C:675AH         LINE#         1705
  C:678BH         LINE#         1706
  C:6797H         LINE#         1707
  C:67C8H         LINE#         1708
  C:67D4H         LINE#         1709
  C:6805H         LINE#         1710
  C:680EH         LINE#         1711
  C:683FH         LINE#         1712
  C:684BH         LINE#         1713
  C:687CH         LINE#         1714
  C:6888H         LINE#         1715
  C:68B9H         LINE#         1716
  C:68B9H         LINE#         1717
  C:68C5H         LINE#         1718
  C:68C5H         LINE#         1720
  C:68C5H         LINE#         1721
  C:68C5H         LINE#         1722
  C:68C5H         LINE#         1723
  C:68C5H         LINE#         1724
  C:68C5H         LINE#         1725
  C:68C5H         LINE#         1726
  C:68C5H         LINE#         1727
  C:68C5H         LINE#         1728
  C:68C5H         LINE#         1730
  C:68C5H         LINE#         1731
BL51 BANKED LINKER/LOCATER V6.22                                                      06/23/2017  13:33:26  PAGE 45


  C:68C5H         LINE#         1732
  C:68C5H         LINE#         1733
  C:68C5H         LINE#         1734
  C:68C5H         LINE#         1735
  C:68C5H         LINE#         1736
  C:68C5H         LINE#         1737
  C:68C5H         LINE#         1738
  C:68C5H         LINE#         1739
  C:68C5H         LINE#         1740
  C:68C5H         LINE#         1741
  C:68C5H         LINE#         1742
  C:68C5H         LINE#         1743
  C:68C5H         LINE#         1744
  C:68C5H         LINE#         1745
  C:68C5H         LINE#         1746
  C:68C5H         LINE#         1747
  C:68C5H         LINE#         1748
  C:68C5H         LINE#         1749
  C:68C5H         LINE#         1750
  C:68C5H         LINE#         1751
  C:68C5H         LINE#         1752
  C:68C5H         LINE#         1753
  C:68C5H         LINE#         1754
  C:68C5H         LINE#         1755
  C:68C5H         LINE#         1756
  C:68C5H         LINE#         1757
  C:68C5H         LINE#         1758
  C:68C5H         LINE#         1759
  C:68C5H         LINE#         1760
  C:68C5H         LINE#         1761
  C:68C5H         LINE#         1762
  C:68C5H         LINE#         1763
  C:68C5H         LINE#         1764
  C:68C5H         LINE#         1765
  C:68C5H         LINE#         1766
  C:68C5H         LINE#         1767
  C:68C5H         LINE#         1768
  C:68C5H         LINE#         1769
  C:68C5H         LINE#         1770
  C:68C5H         LINE#         1771
  C:68C5H         LINE#         1772
  C:68C5H         LINE#         1773
  C:68C5H         LINE#         1774
  C:68C5H         LINE#         1775
  C:68C5H         LINE#         1776
  C:68C8H         LINE#         1778
  C:68C8H         LINE#         1779
  C:68D8H         LINE#         1780
  C:68DBH         LINE#         1781
  C:68E2H         LINE#         1782
  C:68EEH         LINE#         1783
  C:68F8H         LINE#         1785
  C:68FFH         LINE#         1786
  C:6930H         LINE#         1787
  C:693CH         LINE#         1788
  C:696DH         LINE#         1790
  C:697DH         LINE#         1791
BL51 BANKED LINKER/LOCATER V6.22                                                      06/23/2017  13:33:26  PAGE 46


  C:698DH         LINE#         1792
  C:699DH         LINE#         1793
  C:69ADH         LINE#         1794
  C:69BDH         LINE#         1795
  C:69CCH         LINE#         1796
  C:69D5H         LINE#         1797
  C:69E4H         LINE#         1798
  C:69EDH         LINE#         1799
  C:69FCH         LINE#         1800
  C:6A05H         LINE#         1801
  C:6A12H         LINE#         1802
  C:6A1BH         LINE#         1803
  C:6A28H         LINE#         1804
  C:6A31H         LINE#         1807
  C:6A3AH         LINE#         1808
  C:6A6BH         LINE#         1809
  C:6A74H         LINE#         1810
  C:6AA5H         LINE#         1811
  C:6AB1H         LINE#         1812
  C:6AE2H         LINE#         1813
  C:6AEEH         LINE#         1814
  C:6B1FH         LINE#         1815
  C:6B28H         LINE#         1816
  C:6B59H         LINE#         1817
  C:6B65H         LINE#         1818
  C:6B96H         LINE#         1819
  C:6BA2H         LINE#         1820
  C:6BB1H         LINE#         1821
  C:6BBAH         LINE#         1822
  C:6BEBH         LINE#         1823
  C:6BF7H         LINE#         1824
  C:6C28H         LINE#         1825
  C:6C34H         LINE#         1826
  C:6C65H         LINE#         1827
  C:6C71H         LINE#         1828
  C:6CA2H         LINE#         1829
  C:6CAEH         LINE#         1830
  C:6CDFH         LINE#         1831
  C:6CE8H         LINE#         1832
  C:6D19H         LINE#         1833
  C:6D25H         LINE#         1834
  C:6D56H         LINE#         1835
  C:6D62H         LINE#         1836
  C:6D93H         LINE#         1839
  C:6DA3H         LINE#         1840
  C:6DA6H         LINE#         1841
  C:6DADH         LINE#         1842
  C:6DB9H         LINE#         1843
  C:6DC3H         LINE#         1844
  C:6DCAH         LINE#         1845
  C:6DFBH         LINE#         1846
  C:6E07H         LINE#         1847
  C:6E38H         LINE#         1849
  C:6E48H         LINE#         1850
  C:6E58H         LINE#         1851
  C:6E68H         LINE#         1852
  C:6E78H         LINE#         1853
BL51 BANKED LINKER/LOCATER V6.22                                                      06/23/2017  13:33:26  PAGE 47


  C:6E88H         LINE#         1854
  C:6E97H         LINE#         1855
  C:6EA0H         LINE#         1856
  C:6EAFH         LINE#         1857
  C:6EB8H         LINE#         1858
  C:6EC7H         LINE#         1859
  C:6ED0H         LINE#         1860
  C:6EDDH         LINE#         1861
  C:6EE6H         LINE#         1862
  C:6EF3H         LINE#         1863
  C:6EFCH         LINE#         1866
  C:6F05H         LINE#         1867
  C:6F36H         LINE#         1868
  C:6F3FH         LINE#         1869
  C:6F70H         LINE#         1870
  C:6F7CH         LINE#         1871
  C:6FADH         LINE#         1872
  C:6FB9H         LINE#         1873
  C:6FEAH         LINE#         1874
  C:6FF3H         LINE#         1875
  C:7024H         LINE#         1876
  C:7030H         LINE#         1877
  C:7061H         LINE#         1878
  C:706DH         LINE#         1879
  C:709EH         LINE#         1880
  C:70A7H         LINE#         1881
  C:70D8H         LINE#         1882
  C:70E4H         LINE#         1883
  C:7115H         LINE#         1884
  C:7121H         LINE#         1885
  C:7152H         LINE#         1886
  C:715EH         LINE#         1887
  C:718FH         LINE#         1888
  C:719BH         LINE#         1889
  C:71CCH         LINE#         1890
  C:71D5H         LINE#         1891
  C:7206H         LINE#         1892
  C:7212H         LINE#         1893
  C:7243H         LINE#         1894
  C:724FH         LINE#         1895
  C:7280H         LINE#         1899
  C:7290H         LINE#         1900
  C:7293H         LINE#         1901
  C:729AH         LINE#         1902
  C:72A6H         LINE#         1903
  C:72B0H         LINE#         1904
  C:72B7H         LINE#         1905
  C:72E8H         LINE#         1906
  C:72F4H         LINE#         1907
  C:7325H         LINE#         1909
  C:7335H         LINE#         1910
  C:7345H         LINE#         1911
  C:7355H         LINE#         1912
  C:7365H         LINE#         1913
  C:7375H         LINE#         1914
  C:7384H         LINE#         1915
  C:738DH         LINE#         1916
BL51 BANKED LINKER/LOCATER V6.22                                                      06/23/2017  13:33:26  PAGE 48


  C:739CH         LINE#         1917
  C:73A5H         LINE#         1918
  C:73B4H         LINE#         1919
  C:73BDH         LINE#         1920
  C:73CAH         LINE#         1921
  C:73D3H         LINE#         1922
  C:73E0H         LINE#         1923
  C:73E9H         LINE#         1924
  C:73F2H         LINE#         1925
  C:7423H         LINE#         1926
  C:742CH         LINE#         1927
  C:745DH         LINE#         1928
  C:7469H         LINE#         1929
  C:749AH         LINE#         1930
  C:74A6H         LINE#         1931
  C:74D7H         LINE#         1932
  C:74E0H         LINE#         1933
  C:7511H         LINE#         1934
  C:751DH         LINE#         1935
  C:754EH         LINE#         1936
  C:755AH         LINE#         1937
  C:758BH         LINE#         1938
  C:7594H         LINE#         1939
  C:75C5H         LINE#         1940
  C:75D1H         LINE#         1941
  C:7602H         LINE#         1942
  C:760EH         LINE#         1943
  C:763FH         LINE#         1944
  C:764BH         LINE#         1945
  C:767CH         LINE#         1946
  C:7688H         LINE#         1947
  C:76B9H         LINE#         1948
  C:76C2H         LINE#         1949
  C:76F3H         LINE#         1950
  C:76FFH         LINE#         1951
  C:7730H         LINE#         1952
  C:773CH         LINE#         1953
  C:776DH         LINE#         1955
  C:777DH         LINE#         1956
  C:7780H         LINE#         1957
  C:7787H         LINE#         1958
  C:7793H         LINE#         1959
  C:779DH         LINE#         1960
  C:77A4H         LINE#         1961
  C:77D5H         LINE#         1962
  C:77E1H         LINE#         1963
  C:7812H         LINE#         1965
  C:7822H         LINE#         1966
  C:7832H         LINE#         1967
  C:7842H         LINE#         1968
  C:7852H         LINE#         1969
  C:7862H         LINE#         1970
  C:7871H         LINE#         1971
  C:787AH         LINE#         1972
  C:7889H         LINE#         1973
  C:7892H         LINE#         1974
  C:78A1H         LINE#         1975
BL51 BANKED LINKER/LOCATER V6.22                                                      06/23/2017  13:33:26  PAGE 49


  C:78AAH         LINE#         1976
  C:78B7H         LINE#         1977
  C:78C0H         LINE#         1978
  C:78CDH         LINE#         1979
  C:78D6H         LINE#         1980
  C:78DFH         LINE#         1981
  C:7910H         LINE#         1982
  C:7919H         LINE#         1983
  C:794AH         LINE#         1984
  C:7956H         LINE#         1985
  C:7987H         LINE#         1986
  C:7993H         LINE#         1987
  C:79C4H         LINE#         1988
  C:79CDH         LINE#         1989
  C:79FEH         LINE#         1990
  C:7A0AH         LINE#         1991
  C:7A3BH         LINE#         1992
  C:7A47H         LINE#         1993
  C:7A78H         LINE#         1994
  C:7A81H         LINE#         1995
  C:7AB2H         LINE#         1996
  C:7ABEH         LINE#         1997
  C:7AEFH         LINE#         1998
  C:7AFBH         LINE#         1999
  C:7B2CH         LINE#         2000
  C:7B38H         LINE#         2001
  C:7B69H         LINE#         2002
  C:7B75H         LINE#         2003
  C:7BA6H         LINE#         2004
  C:7BAFH         LINE#         2005
  C:7BE0H         LINE#         2006
  C:7BECH         LINE#         2007
  C:7C1DH         LINE#         2008
  C:7C29H         LINE#         2009
  C:7C5AH         LINE#         2011
  C:7C6AH         LINE#         2012
  C:7C6DH         LINE#         2013
  C:7C74H         LINE#         2014
  C:7C80H         LINE#         2015
  C:7C8AH         LINE#         2016
  C:7C91H         LINE#         2017
  C:7CC2H         LINE#         2018
  C:7CCEH         LINE#         2019
  C:7CFFH         LINE#         2021
  C:7D0FH         LINE#         2022
  C:7D1FH         LINE#         2023
  C:7D2FH         LINE#         2024
  C:7D3FH         LINE#         2025
  C:7D4FH         LINE#         2026
  C:7D5EH         LINE#         2027
  C:7D67H         LINE#         2028
  C:7D76H         LINE#         2029
  C:7D7FH         LINE#         2030
  C:7D8EH         LINE#         2031
  C:7D97H         LINE#         2032
  C:7DA4H         LINE#         2033
  C:7DADH         LINE#         2034
BL51 BANKED LINKER/LOCATER V6.22                                                      06/23/2017  13:33:26  PAGE 50


  C:7DBAH         LINE#         2035
  C:7DC3H         LINE#         2036
  C:7DCCH         LINE#         2037
  C:7DFDH         LINE#         2038
  C:7E06H         LINE#         2039
  C:7E37H         LINE#         2040
  C:7E43H         LINE#         2041
  C:7E74H         LINE#         2042
  C:7E80H         LINE#         2043
  C:7EB1H         LINE#         2044
  C:7EBAH         LINE#         2045
  C:7EEBH         LINE#         2046
  C:7EF7H         LINE#         2047
  C:7F28H         LINE#         2048
  C:7F34H         LINE#         2049
  C:7F65H         LINE#         2050
  C:7F6EH         LINE#         2051
  C:7F9FH         LINE#         2052
  C:7FABH         LINE#         2053
  C:7FDCH         LINE#         2054
  C:7FE8H         LINE#         2055
  C:8019H         LINE#         2056
  C:8025H         LINE#         2057
  C:8056H         LINE#         2058
  C:8062H         LINE#         2059
  C:8093H         LINE#         2060
  C:809CH         LINE#         2061
  C:80CDH         LINE#         2062
  C:80D9H         LINE#         2063
  C:810AH         LINE#         2064
  C:8116H         LINE#         2065
  C:8147H         LINE#         2066
  C:8147H         LINE#         2067
  -------         ENDPROC       SHOWSERCHROMMPAGE2
  -------         PROC          SHOWSERCHROMMPAGE3
  -------         DO            
  X:01E7H         SYMBOL        fcolor
  X:01E9H         SYMBOL        bcolor
  X:01EBH         SYMBOL        serchroomcount
  X:01ECH         SYMBOL        nursenumber
  X:01EDH         SYMBOL        nursenumber1
  X:01EEH         SYMBOL        nursenumber2
  X:01EFH         SYMBOL        minute
  X:01F0H         SYMBOL        minute1
  X:01F1H         SYMBOL        minute2
  X:01F2H         SYMBOL        hour
  X:01F3H         SYMBOL        hour1
  X:01F4H         SYMBOL        hour2
  X:01F5H         SYMBOL        day
  X:01F6H         SYMBOL        day1
  X:01F7H         SYMBOL        day2
  X:01F8H         SYMBOL        month
  X:01F9H         SYMBOL        month1
  X:01FAH         SYMBOL        month2
  X:01FBH         SYMBOL        year
  X:01FCH         SYMBOL        year1
  X:01FDH         SYMBOL        year2
BL51 BANKED LINKER/LOCATER V6.22                                                      06/23/2017  13:33:26  PAGE 51


  -------         ENDDO         
  C:8148H         LINE#         2083
  C:8148H         LINE#         2084
  C:8148H         LINE#         2086
  C:814DH         LINE#         2087
  C:814FH         LINE#         2088
  C:8153H         LINE#         2089
  C:8157H         LINE#         2090
  C:815BH         LINE#         2091
  C:815FH         LINE#         2092
  C:8163H         LINE#         2093
  C:816BH         LINE#         2094
  C:8172H         LINE#         2095
  C:8178H         LINE#         2096
  C:8178H         LINE#         2098
  C:8178H         LINE#         2099
  C:817DH         LINE#         2100
  C:8185H         LINE#         2101
  C:818BH         LINE#         2102
  C:818BH         LINE#         2103
  C:8194H         LINE#         2104
  C:8194H         LINE#         2106
  C:81A4H         LINE#         2107
  C:81A7H         LINE#         2108
  C:81AEH         LINE#         2109
  C:81BAH         LINE#         2110
  C:81C4H         LINE#         2112
  C:81CBH         LINE#         2113
  C:81FCH         LINE#         2114
  C:8208H         LINE#         2115
  C:8239H         LINE#         2117
  C:8249H         LINE#         2118
  C:8259H         LINE#         2119
  C:8269H         LINE#         2120
  C:8279H         LINE#         2121
  C:8289H         LINE#         2122
  C:8298H         LINE#         2123
  C:82A1H         LINE#         2124
  C:82B0H         LINE#         2125
  C:82B9H         LINE#         2126
  C:82C8H         LINE#         2127
  C:82D1H         LINE#         2128
  C:82DEH         LINE#         2129
  C:82E7H         LINE#         2130
  C:82F4H         LINE#         2131
  C:82FDH         LINE#         2134
  C:8306H         LINE#         2135
  C:8337H         LINE#         2136
  C:8340H         LINE#         2137
  C:8371H         LINE#         2138
  C:837DH         LINE#         2139
  C:83AEH         LINE#         2140
  C:83BAH         LINE#         2141
  C:83EBH         LINE#         2142
  C:83F4H         LINE#         2143
  C:8425H         LINE#         2144
  C:8431H         LINE#         2145
BL51 BANKED LINKER/LOCATER V6.22                                                      06/23/2017  13:33:26  PAGE 52


  C:8462H         LINE#         2146
  C:846EH         LINE#         2147
  C:847DH         LINE#         2148
  C:8486H         LINE#         2149
  C:84B7H         LINE#         2150
  C:84C3H         LINE#         2151
  C:84F4H         LINE#         2152
  C:8500H         LINE#         2153
  C:8531H         LINE#         2154
  C:853DH         LINE#         2155
  C:856EH         LINE#         2156
  C:857AH         LINE#         2157
  C:85ABH         LINE#         2158
  C:85B4H         LINE#         2159
  C:85E5H         LINE#         2160
  C:85F1H         LINE#         2161
  C:8622H         LINE#         2162
  C:862EH         LINE#         2163
  C:865FH         LINE#         2164
  C:865FH         LINE#         2167
  C:866BH         LINE#         2168
  C:866BH         LINE#         2169
  C:867BH         LINE#         2170
  C:867EH         LINE#         2171
  C:8685H         LINE#         2172
  C:8691H         LINE#         2173
  C:869BH         LINE#         2174
  C:86A2H         LINE#         2175
  C:86D3H         LINE#         2176
  C:86DFH         LINE#         2177
  C:8710H         LINE#         2179
  C:8720H         LINE#         2180
  C:8730H         LINE#         2181
  C:8740H         LINE#         2182
  C:8750H         LINE#         2183
  C:8760H         LINE#         2184
  C:876FH         LINE#         2185
  C:8778H         LINE#         2186
  C:8787H         LINE#         2187
  C:8790H         LINE#         2188
  C:879FH         LINE#         2189
  C:87A8H         LINE#         2190
  C:87B5H         LINE#         2191
  C:87BEH         LINE#         2192
  C:87CBH         LINE#         2193
  C:87D4H         LINE#         2196
  C:87DDH         LINE#         2197
  C:880EH         LINE#         2198
  C:8817H         LINE#         2199
  C:8848H         LINE#         2200
  C:8854H         LINE#         2201
  C:8885H         LINE#         2202
  C:8891H         LINE#         2203
  C:88C2H         LINE#         2204
  C:88CBH         LINE#         2205
  C:88FCH         LINE#         2206
  C:8908H         LINE#         2207
BL51 BANKED LINKER/LOCATER V6.22                                                      06/23/2017  13:33:26  PAGE 53


  C:8939H         LINE#         2208
  C:8945H         LINE#         2209
  C:8976H         LINE#         2210
  C:897FH         LINE#         2211
  C:89B0H         LINE#         2212
  C:89BCH         LINE#         2213
  C:89EDH         LINE#         2214
  C:89F9H         LINE#         2215
  C:8A2AH         LINE#         2216
  C:8A36H         LINE#         2217
  C:8A67H         LINE#         2218
  C:8A73H         LINE#         2219
  C:8AA4H         LINE#         2220
  C:8AADH         LINE#         2221
  C:8ADEH         LINE#         2222
  C:8AEAH         LINE#         2223
  C:8B1BH         LINE#         2224
  C:8B27H         LINE#         2225
  C:8B58H         LINE#         2226
  C:8B58H         LINE#         2230
  C:8B64H         LINE#         2231
  C:8B64H         LINE#         2232
  C:8B74H         LINE#         2233
  C:8B77H         LINE#         2234
  C:8B7EH         LINE#         2235
  C:8B8AH         LINE#         2236
  C:8B94H         LINE#         2237
  C:8B9BH         LINE#         2238
  C:8BCCH         LINE#         2239
  C:8BD8H         LINE#         2240
  C:8C09H         LINE#         2242
  C:8C19H         LINE#         2243
  C:8C29H         LINE#         2244
  C:8C39H         LINE#         2245
  C:8C49H         LINE#         2246
  C:8C59H         LINE#         2247
  C:8C68H         LINE#         2248
  C:8C71H         LINE#         2249
  C:8C80H         LINE#         2250
  C:8C89H         LINE#         2251
  C:8C98H         LINE#         2252
  C:8CA1H         LINE#         2253
  C:8CAEH         LINE#         2254
  C:8CB7H         LINE#         2255
  C:8CC4H         LINE#         2256
  C:8CCDH         LINE#         2257
  C:8CD6H         LINE#         2258
  C:8D07H         LINE#         2259
  C:8D10H         LINE#         2260
  C:8D41H         LINE#         2261
  C:8D4DH         LINE#         2262
  C:8D7EH         LINE#         2263
  C:8D8AH         LINE#         2264
  C:8DBBH         LINE#         2265
  C:8DC4H         LINE#         2266
  C:8DF5H         LINE#         2267
  C:8E01H         LINE#         2268
BL51 BANKED LINKER/LOCATER V6.22                                                      06/23/2017  13:33:26  PAGE 54


  C:8E32H         LINE#         2269
  C:8E3EH         LINE#         2270
  C:8E6FH         LINE#         2271
  C:8E78H         LINE#         2272
  C:8EA9H         LINE#         2273
  C:8EB5H         LINE#         2274
  C:8EE6H         LINE#         2275
  C:8EF2H         LINE#         2276
  C:8F23H         LINE#         2277
  C:8F2FH         LINE#         2278
  C:8F60H         LINE#         2279
  C:8F6CH         LINE#         2280
  C:8F9DH         LINE#         2281
  C:8FA6H         LINE#         2282
  C:8FD7H         LINE#         2283
  C:8FE3H         LINE#         2284
  C:9014H         LINE#         2285
  C:9020H         LINE#         2286
  C:9051H         LINE#         2287
  C:9051H         LINE#         2289
  C:905DH         LINE#         2290
  C:905DH         LINE#         2291
  C:906DH         LINE#         2292
  C:9070H         LINE#         2293
  C:9077H         LINE#         2294
  C:9083H         LINE#         2295
  C:908DH         LINE#         2296
  C:9094H         LINE#         2297
  C:90C5H         LINE#         2298
  C:90D1H         LINE#         2299
  C:9102H         LINE#         2301
  C:9112H         LINE#         2302
  C:9122H         LINE#         2303
  C:9132H         LINE#         2304
  C:9142H         LINE#         2305
  C:9152H         LINE#         2306
  C:9161H         LINE#         2307
  C:916AH         LINE#         2308
  C:9179H         LINE#         2309
  C:9182H         LINE#         2310
  C:9191H         LINE#         2311
  C:919AH         LINE#         2312
  C:91A7H         LINE#         2313
  C:91B0H         LINE#         2314
  C:91BDH         LINE#         2315
  C:91C6H         LINE#         2316
  C:91CFH         LINE#         2317
  C:9200H         LINE#         2318
  C:9209H         LINE#         2319
  C:923AH         LINE#         2320
  C:9246H         LINE#         2321
  C:9277H         LINE#         2322
  C:9283H         LINE#         2323
  C:92B4H         LINE#         2324
  C:92BDH         LINE#         2325
  C:92EEH         LINE#         2326
  C:92FAH         LINE#         2327
BL51 BANKED LINKER/LOCATER V6.22                                                      06/23/2017  13:33:26  PAGE 55


  C:932BH         LINE#         2328
  C:9337H         LINE#         2329
  C:9368H         LINE#         2330
  C:9371H         LINE#         2331
  C:93A2H         LINE#         2332
  C:93AEH         LINE#         2333
  C:93DFH         LINE#         2334
  C:93EBH         LINE#         2335
  C:941CH         LINE#         2336
  C:9428H         LINE#         2337
  C:9459H         LINE#         2338
  C:9465H         LINE#         2339
  C:9496H         LINE#         2340
  C:949FH         LINE#         2341
  C:94D0H         LINE#         2342
  C:94DCH         LINE#         2343
  C:950DH         LINE#         2344
  C:9519H         LINE#         2345
  C:954AH         LINE#         2346
  C:954AH         LINE#         2347
  C:9556H         LINE#         2348
  C:9556H         LINE#         2350
  C:9556H         LINE#         2351
  C:9556H         LINE#         2352
  C:9556H         LINE#         2353
  C:9556H         LINE#         2354
  C:9556H         LINE#         2355
  C:9556H         LINE#         2356
  C:9556H         LINE#         2357
  C:9556H         LINE#         2358
  C:9556H         LINE#         2360
  C:9556H         LINE#         2361
  C:9556H         LINE#         2362
  C:9556H         LINE#         2363
  C:9556H         LINE#         2364
  C:9556H         LINE#         2365
  C:9556H         LINE#         2366
  C:9556H         LINE#         2367
  C:9556H         LINE#         2368
  C:9556H         LINE#         2369
  C:9556H         LINE#         2370
  C:9556H         LINE#         2371
  C:9556H         LINE#         2372
  C:9556H         LINE#         2373
  C:9556H         LINE#         2374
  C:9556H         LINE#         2375
  C:9556H         LINE#         2376
  C:9556H         LINE#         2377
  C:9556H         LINE#         2378
  C:9556H         LINE#         2379
  C:9556H         LINE#         2380
  C:9556H         LINE#         2381
  C:9556H         LINE#         2382
  C:9556H         LINE#         2383
  C:9556H         LINE#         2384
  C:9556H         LINE#         2385
  C:9556H         LINE#         2386
BL51 BANKED LINKER/LOCATER V6.22                                                      06/23/2017  13:33:26  PAGE 56


  C:9556H         LINE#         2387
  C:9556H         LINE#         2388
  C:9556H         LINE#         2389
  C:9556H         LINE#         2390
  C:9556H         LINE#         2391
  C:9556H         LINE#         2392
  C:9556H         LINE#         2393
  C:9556H         LINE#         2394
  C:9556H         LINE#         2395
  C:9556H         LINE#         2396
  C:9556H         LINE#         2397
  C:9556H         LINE#         2398
  C:9556H         LINE#         2399
  C:9556H         LINE#         2400
  C:9556H         LINE#         2401
  C:9556H         LINE#         2402
  C:9556H         LINE#         2403
  C:9556H         LINE#         2404
  C:9556H         LINE#         2405
  C:9556H         LINE#         2406
  C:9559H         LINE#         2408
  C:9559H         LINE#         2409
  C:9569H         LINE#         2410
  C:956CH         LINE#         2411
  C:9573H         LINE#         2412
  C:957FH         LINE#         2413
  C:9589H         LINE#         2415
  C:9590H         LINE#         2416
  C:95C1H         LINE#         2417
  C:95CDH         LINE#         2418
  C:95FEH         LINE#         2420
  C:960EH         LINE#         2421
  C:961EH         LINE#         2422
  C:962EH         LINE#         2423
  C:963EH         LINE#         2424
  C:964EH         LINE#         2425
  C:965DH         LINE#         2426
  C:9666H         LINE#         2427
  C:9675H         LINE#         2428
  C:967EH         LINE#         2429
  C:968DH         LINE#         2430
  C:9696H         LINE#         2431
  C:96A3H         LINE#         2432
  C:96ACH         LINE#         2433
  C:96B9H         LINE#         2434
  C:96C2H         LINE#         2437
  C:96CBH         LINE#         2438
  C:96FCH         LINE#         2439
  C:9705H         LINE#         2440
  C:9736H         LINE#         2441
  C:9742H         LINE#         2442
  C:9773H         LINE#         2443
  C:977FH         LINE#         2444
  C:97B0H         LINE#         2445
  C:97B9H         LINE#         2446
  C:97EAH         LINE#         2447
  C:97F6H         LINE#         2448
BL51 BANKED LINKER/LOCATER V6.22                                                      06/23/2017  13:33:26  PAGE 57


  C:9827H         LINE#         2449
  C:9833H         LINE#         2450
  C:9842H         LINE#         2451
  C:984BH         LINE#         2452
  C:987CH         LINE#         2453
  C:9888H         LINE#         2454
  C:98B9H         LINE#         2455
  C:98C5H         LINE#         2456
  C:98F6H         LINE#         2457
  C:9902H         LINE#         2458
  C:9933H         LINE#         2459
  C:993FH         LINE#         2460
  C:9970H         LINE#         2461
  C:9979H         LINE#         2462
  C:99AAH         LINE#         2463
  C:99B6H         LINE#         2464
  C:99E7H         LINE#         2465
  C:99F3H         LINE#         2466
  C:9A24H         LINE#         2469
  C:9A34H         LINE#         2470
  C:9A37H         LINE#         2471
  C:9A3EH         LINE#         2472
  C:9A4AH         LINE#         2473
  C:9A54H         LINE#         2474
  C:9A5BH         LINE#         2475
  C:9A8CH         LINE#         2476
  C:9A98H         LINE#         2477
  C:9AC9H         LINE#         2479
  C:9AD9H         LINE#         2480
  C:9AE9H         LINE#         2481
  C:9AF9H         LINE#         2482
  C:9B09H         LINE#         2483
  C:9B19H         LINE#         2484
  C:9B28H         LINE#         2485
  C:9B31H         LINE#         2486
  C:9B40H         LINE#         2487
  C:9B49H         LINE#         2488
  C:9B58H         LINE#         2489
  C:9B61H         LINE#         2490
  C:9B6EH         LINE#         2491
  C:9B77H         LINE#         2492
  C:9B84H         LINE#         2493
  C:9B8DH         LINE#         2496
  C:9B96H         LINE#         2497
  C:9BC7H         LINE#         2498
  C:9BD0H         LINE#         2499
  C:9C01H         LINE#         2500
  C:9C0DH         LINE#         2501
  C:9C3EH         LINE#         2502
  C:9C4AH         LINE#         2503
  C:9C7BH         LINE#         2504
  C:9C84H         LINE#         2505
  C:9CB5H         LINE#         2506
  C:9CC1H         LINE#         2507
  C:9CF2H         LINE#         2508
  C:9CFEH         LINE#         2509
  C:9D2FH         LINE#         2510
BL51 BANKED LINKER/LOCATER V6.22                                                      06/23/2017  13:33:26  PAGE 58


  C:9D38H         LINE#         2511
  C:9D69H         LINE#         2512
  C:9D75H         LINE#         2513
  C:9DA6H         LINE#         2514
  C:9DB2H         LINE#         2515
  C:9DE3H         LINE#         2516
  C:9DEFH         LINE#         2517
  C:9E20H         LINE#         2518
  C:9E2CH         LINE#         2519
  C:9E5DH         LINE#         2520
  C:9E66H         LINE#         2521
  C:9E97H         LINE#         2522
  C:9EA3H         LINE#         2523
  C:9ED4H         LINE#         2524
  C:9EE0H         LINE#         2525
  C:9F11H         LINE#         2529
  C:9F21H         LINE#         2530
  C:9F24H         LINE#         2531
  C:9F2BH         LINE#         2532
  C:9F37H         LINE#         2533
  C:9F41H         LINE#         2534
  C:9F48H         LINE#         2535
  C:9F79H         LINE#         2536
  C:9F85H         LINE#         2537
  C:9FB6H         LINE#         2539
  C:9FC6H         LINE#         2540
  C:9FD6H         LINE#         2541
  C:9FE6H         LINE#         2542
  C:9FF6H         LINE#         2543
  C:A006H         LINE#         2544
  C:A015H         LINE#         2545
  C:A01EH         LINE#         2546
  C:A02DH         LINE#         2547
  C:A036H         LINE#         2548
  C:A045H         LINE#         2549
  C:A04EH         LINE#         2550
  C:A05BH         LINE#         2551
  C:A064H         LINE#         2552
  C:A071H         LINE#         2553
  C:A07AH         LINE#         2554
  C:A083H         LINE#         2555
  C:A0B4H         LINE#         2556
  C:A0BDH         LINE#         2557
  C:A0EEH         LINE#         2558
  C:A0FAH         LINE#         2559
  C:A12BH         LINE#         2560
  C:A137H         LINE#         2561
  C:A168H         LINE#         2562
  C:A171H         LINE#         2563
  C:A1A2H         LINE#         2564
  C:A1AEH         LINE#         2565
  C:A1DFH         LINE#         2566
  C:A1EBH         LINE#         2567
  C:A21CH         LINE#         2568
  C:A225H         LINE#         2569
  C:A256H         LINE#         2570
  C:A262H         LINE#         2571
BL51 BANKED LINKER/LOCATER V6.22                                                      06/23/2017  13:33:26  PAGE 59


  C:A293H         LINE#         2572
  C:A29FH         LINE#         2573
  C:A2D0H         LINE#         2574
  C:A2DCH         LINE#         2575
  C:A30DH         LINE#         2576
  C:A319H         LINE#         2577
  C:A34AH         LINE#         2578
  C:A353H         LINE#         2579
  C:A384H         LINE#         2580
  C:A390H         LINE#         2581
  C:A3C1H         LINE#         2582
  C:A3CDH         LINE#         2583
  C:A3FEH         LINE#         2585
  C:A40EH         LINE#         2586
  C:A411H         LINE#         2587
  C:A418H         LINE#         2588
  C:A424H         LINE#         2589
  C:A42EH         LINE#         2590
  C:A435H         LINE#         2591
  C:A466H         LINE#         2592
  C:A472H         LINE#         2593
  C:A4A3H         LINE#         2595
  C:A4B3H         LINE#         2596
  C:A4C3H         LINE#         2597
  C:A4D3H         LINE#         2598
  C:A4E3H         LINE#         2599
  C:A4F3H         LINE#         2600
  C:A502H         LINE#         2601
  C:A50BH         LINE#         2602
  C:A51AH         LINE#         2603
  C:A523H         LINE#         2604
  C:A532H         LINE#         2605
  C:A53BH         LINE#         2606
  C:A548H         LINE#         2607
  C:A551H         LINE#         2608
  C:A55EH         LINE#         2609
  C:A567H         LINE#         2610
  C:A570H         LINE#         2611
  C:A5A1H         LINE#         2612
  C:A5AAH         LINE#         2613
  C:A5DBH         LINE#         2614
  C:A5E7H         LINE#         2615
  C:A618H         LINE#         2616
  C:A624H         LINE#         2617
  C:A655H         LINE#         2618
  C:A65EH         LINE#         2619
  C:A68FH         LINE#         2620
  C:A69BH         LINE#         2621
  C:A6CCH         LINE#         2622
  C:A6D8H         LINE#         2623
  C:A709H         LINE#         2624
  C:A712H         LINE#         2625
  C:A743H         LINE#         2626
  C:A74FH         LINE#         2627
  C:A780H         LINE#         2628
  C:A78CH         LINE#         2629
  C:A7BDH         LINE#         2630
BL51 BANKED LINKER/LOCATER V6.22                                                      06/23/2017  13:33:26  PAGE 60


  C:A7C9H         LINE#         2631
  C:A7FAH         LINE#         2632
  C:A806H         LINE#         2633
  C:A837H         LINE#         2634
  C:A840H         LINE#         2635
  C:A871H         LINE#         2636
  C:A87DH         LINE#         2637
  C:A8AEH         LINE#         2638
  C:A8BAH         LINE#         2639
  C:A8EBH         LINE#         2641
  C:A8FBH         LINE#         2642
  C:A8FEH         LINE#         2643
  C:A905H         LINE#         2644
  C:A911H         LINE#         2645
  C:A91BH         LINE#         2646
  C:A922H         LINE#         2647
  C:A953H         LINE#         2648
  C:A95FH         LINE#         2649
  C:A990H         LINE#         2651
  C:A9A0H         LINE#         2652
  C:A9B0H         LINE#         2653
  C:A9C0H         LINE#         2654
  C:A9D0H         LINE#         2655
  C:A9E0H         LINE#         2656
  C:A9EFH         LINE#         2657
  C:A9F8H         LINE#         2658
  C:AA07H         LINE#         2659
  C:AA10H         LINE#         2660
  C:AA1FH         LINE#         2661
  C:AA28H         LINE#         2662
  C:AA35H         LINE#         2663
  C:AA3EH         LINE#         2664
  C:AA4BH         LINE#         2665
  C:AA54H         LINE#         2666
  C:AA5DH         LINE#         2667
  C:AA8EH         LINE#         2668
  C:AA97H         LINE#         2669
  C:AAC8H         LINE#         2670
  C:AAD4H         LINE#         2671
  C:AB05H         LINE#         2672
  C:AB11H         LINE#         2673
  C:AB42H         LINE#         2674
  C:AB4BH         LINE#         2675
  C:AB7CH         LINE#         2676
  C:AB88H         LINE#         2677
  C:ABB9H         LINE#         2678
  C:ABC5H         LINE#         2679
  C:ABF6H         LINE#         2680
  C:ABFFH         LINE#         2681
  C:AC30H         LINE#         2682
  C:AC3CH         LINE#         2683
  C:AC6DH         LINE#         2684
  C:AC79H         LINE#         2685
  C:ACAAH         LINE#         2686
  C:ACB6H         LINE#         2687
  C:ACE7H         LINE#         2688
  C:ACF3H         LINE#         2689
BL51 BANKED LINKER/LOCATER V6.22                                                      06/23/2017  13:33:26  PAGE 61


  C:AD24H         LINE#         2690
  C:AD2DH         LINE#         2691
  C:AD5EH         LINE#         2692
  C:AD6AH         LINE#         2693
  C:AD9BH         LINE#         2694
  C:ADA7H         LINE#         2695
  C:ADD8H         LINE#         2696
  C:ADD8H         LINE#         2697
  -------         ENDPROC       SHOWSERCHROMMPAGE3
  -------         PROC          SHOWNUMBERPAGE
  -------         DO            
  D:0007H         SYMBOL        sec
  D:0001H         SYMBOL        sec1
  D:002EH         SYMBOL        sec2
  D:0006H         SYMBOL        room
  D:002FH         SYMBOL        room1
  D:0030H         SYMBOL        room2
  X:01E7H         SYMBOL        fcolor
  X:01E9H         SYMBOL        bcolor
  -------         ENDDO         
  C:BE74H         LINE#         2698
  C:BE74H         LINE#         2699
  C:BE74H         LINE#         2703
  C:BE7CH         LINE#         2704
  C:BE83H         LINE#         2705
  C:BE89H         LINE#         2706
  C:BE8FH         LINE#         2707
  C:BE93H         LINE#         2708
  C:BE99H         LINE#         2709
  C:BEA1H         LINE#         2710
  C:BEACH         LINE#         2711
  C:BEB5H         LINE#         2712
  C:BEC0H         LINE#         2713
  C:BEC4H         LINE#         2714
  C:BED3H         LINE#         2715
  C:BEDCH         LINE#         2716
  C:BF0DH         LINE#         2717
  C:BF16H         LINE#         2718
  C:BF47H         LINE#         2719
  C:BF50H         LINE#         2720
  C:BF81H         LINE#         2721
  C:BF8AH         LINE#         2722
  C:BFBBH         LINE#         2723
  C:BFC4H         LINE#         2724
  C:BFF5H         LINE#         2725
  C:BFFEH         LINE#         2726
  C:C02FH         LINE#         2727
  C:C038H         LINE#         2728
  C:C069H         LINE#         2729
  C:C072H         LINE#         2730
  C:C0A3H         LINE#         2731
  C:C0ACH         LINE#         2732
  C:C0DDH         LINE#         2733
  C:C10EH         LINE#         2734
  C:C13FH         LINE#         2735
  -------         ENDPROC       SHOWNUMBERPAGE
  -------         PROC          SHOWNUMBERPAGEOK
BL51 BANKED LINKER/LOCATER V6.22                                                      06/23/2017  13:33:26  PAGE 62


  -------         DO            
  X:01E7H         SYMBOL        fcolor
  X:01E9H         SYMBOL        bcolor
  -------         ENDDO         
  C:DCB2H         LINE#         2737
  C:DCB2H         LINE#         2738
  C:DCB2H         LINE#         2740
  C:DCB5H         LINE#         2741
  C:DCB5H         LINE#         2742
  C:DCB8H         LINE#         2743
  C:DCC1H         LINE#         2744
  C:DCF2H         LINE#         2745
  C:DCFBH         LINE#         2746
  C:DD2CH         LINE#         2747
  C:DD35H         LINE#         2748
  C:DD66H         LINE#         2749
  C:DD6FH         LINE#         2750
  C:DDA0H         LINE#         2751
  -------         ENDPROC       SHOWNUMBERPAGEOK
  -------         PROC          SHOWCALLING
  -------         DO            
  X:01E7H         SYMBOL        fcolor
  X:01E9H         SYMBOL        bcolor
  -------         ENDDO         
  C:CEDAH         LINE#         2753
  C:CEDAH         LINE#         2754
  C:CEDAH         LINE#         2756
  C:CEDFH         LINE#         2757
  C:CEDFH         LINE#         2758
  C:CEE2H         LINE#         2759
  C:CEEBH         LINE#         2760
  C:CF1CH         LINE#         2761
  C:CF25H         LINE#         2762
  C:CF56H         LINE#         2763
  C:CF5FH         LINE#         2764
  C:CF90H         LINE#         2765
  C:CF99H         LINE#         2766
  C:CFCAH         LINE#         2767
  C:CFD3H         LINE#         2768
  C:D004H         LINE#         2769
  C:D00DH         LINE#         2770
  C:D03EH         LINE#         2771
  C:D047H         LINE#         2772
  C:D078H         LINE#         2773
  -------         ENDPROC       SHOWCALLING
  -------         PROC          SHOWBROADCASTING
  -------         DO            
  X:01E7H         SYMBOL        tempbed
  X:01E8H         SYMBOL        temproom
  X:01E9H         SYMBOL        tempbedh
  X:01EAH         SYMBOL        tempbedl
  X:01EBH         SYMBOL        fcolor
  X:01EDH         SYMBOL        bcolor
  -------         ENDDO         
  C:ADD9H         LINE#         2775
  C:ADD9H         LINE#         2776
  C:ADD9H         LINE#         2780
BL51 BANKED LINKER/LOCATER V6.22                                                      06/23/2017  13:33:26  PAGE 63


  C:ADDEH         LINE#         2781
  C:ADDEH         LINE#         2782
  C:ADE1H         LINE#         2783
  C:ADEAH         LINE#         2784
  C:ADF2H         LINE#         2785
  C:AE00H         LINE#         2786
  C:AE00H         LINE#         2787
  C:AE02H         LINE#         2788
  C:AE05H         LINE#         2789
  C:AE0CH         LINE#         2790
  C:AE1AH         LINE#         2791
  C:AE25H         LINE#         2792
  C:AE2CH         LINE#         2793
  C:AE5DH         LINE#         2794
  C:AE69H         LINE#         2795
  C:AE9AH         LINE#         2796
  C:AEA3H         LINE#         2797
  C:AED4H         LINE#         2798
  C:AEDDH         LINE#         2799
  C:AF0EH         LINE#         2800
  C:AF14H         LINE#         2801
  C:AF14H         LINE#         2802
  C:AF14H         LINE#         2803
  C:AF14H         LINE#         2804
  C:AF14H         LINE#         2805
  C:AF14H         LINE#         2806
  C:AF14H         LINE#         2807
  C:AF14H         LINE#         2808
  C:AF14H         LINE#         2809
  C:AF14H         LINE#         2810
  C:AF14H         LINE#         2811
  C:AF14H         LINE#         2812
  C:AF14H         LINE#         2813
  C:AF14H         LINE#         2814
  C:AF14H         LINE#         2815
  C:AF17H         LINE#         2816
  C:AF2CH         LINE#         2817
  C:AF2CH         LINE#         2818
  C:AF2EH         LINE#         2819
  C:AF33H         LINE#         2820
  C:AF3AH         LINE#         2821
  C:AF46H         LINE#         2822
  C:AF51H         LINE#         2823
  C:AF58H         LINE#         2824
  C:AF89H         LINE#         2825
  C:AF95H         LINE#         2826
  C:AFC6H         LINE#         2827
  C:AFCFH         LINE#         2828
  C:B000H         LINE#         2829
  C:B009H         LINE#         2830
  C:B03AH         LINE#         2831
  C:B043H         LINE#         2832
  C:B074H         LINE#         2833
  C:B07DH         LINE#         2834
  C:B0AEH         LINE#         2835
  C:B0B7H         LINE#         2836
  C:B0E8H         LINE#         2837
BL51 BANKED LINKER/LOCATER V6.22                                                      06/23/2017  13:33:26  PAGE 64


  C:B0F1H         LINE#         2838
  C:B122H         LINE#         2839
  C:B12BH         LINE#         2840
  C:B15CH         LINE#         2841
  C:B165H         LINE#         2842
  C:B196H         LINE#         2843
  C:B19FH         LINE#         2844
  C:B1D0H         LINE#         2845
  C:B1D5H         LINE#         2846
  C:B1D5H         LINE#         2847
  -------         ENDPROC       SHOWBROADCASTING
  -------         PROC          SHOWBUSERROR
  -------         DO            
  X:01E7H         SYMBOL        fcolor
  X:01E9H         SYMBOL        bcolor
  -------         ENDDO         
  C:D7BFH         LINE#         2853
  C:D7BFH         LINE#         2854
  C:D7BFH         LINE#         2857
  C:D7C7H         LINE#         2858
  C:D7C7H         LINE#         2859
  C:D7D9H         LINE#         2860
  C:D7D9H         LINE#         2861
  C:D7D9H         LINE#         2862
  C:D7D9H         LINE#         2863
  C:D7DBH         LINE#         2865
  C:D7DBH         LINE#         2866
  C:D7F5H         LINE#         2867
  C:D80FH         LINE#         2868
  C:D80FH         LINE#         2869
  C:D811H         LINE#         2871
  C:D811H         LINE#         2872
  C:D81AH         LINE#         2873
  C:D820H         LINE#         2874
  C:D820H         LINE#         2876
  C:D82BH         LINE#         2877
  C:D85CH         LINE#         2878
  C:D867H         LINE#         2879
  C:D898H         LINE#         2880
  C:D8A3H         LINE#         2881
  C:D8D4H         LINE#         2882
  C:D8DFH         LINE#         2883
  -------         ENDPROC       SHOWBUSERROR
  -------         PROC          SHOWSELFERROR
  -------         DO            
  X:01E7H         SYMBOL        fcolor
  X:01E9H         SYMBOL        bcolor
  -------         ENDDO         
  C:D507H         LINE#         2889
  C:D507H         LINE#         2890
  C:D507H         LINE#         2893
  C:D510H         LINE#         2894
  C:D516H         LINE#         2896
  C:D51EH         LINE#         2897
  C:D51EH         LINE#         2898
  C:D530H         LINE#         2899
  C:D530H         LINE#         2900
BL51 BANKED LINKER/LOCATER V6.22                                                      06/23/2017  13:33:26  PAGE 65


  C:D530H         LINE#         2901
  C:D530H         LINE#         2902
  C:D532H         LINE#         2904
  C:D532H         LINE#         2905
  C:D54CH         LINE#         2906
  C:D566H         LINE#         2907
  C:D566H         LINE#         2908
  C:D568H         LINE#         2910
  C:D568H         LINE#         2911
  C:D571H         LINE#         2912
  C:D577H         LINE#         2913
  C:D577H         LINE#         2915
  C:D582H         LINE#         2916
  C:D5B3H         LINE#         2917
  C:D5BEH         LINE#         2918
  C:D5EFH         LINE#         2919
  C:D5FAH         LINE#         2920
  C:D62BH         LINE#         2921
  C:D636H         LINE#         2922
  -------         ENDPROC       SHOWSELFERROR
  -------         PROC          SHOWNORMAL
  C:EA9CH         LINE#         2928
  C:EA9CH         LINE#         2929
  C:EA9CH         LINE#         2930
  -------         ENDPROC       SHOWNORMAL
  -------         PROC          SHOWPAGE
  -------         DO            
  X:01E7H         SYMBOL        byData1
  X:01E8H         SYMBOL        byData2
  X:01E9H         SYMBOL        byData3
  X:01EAH         SYMBOL        fcolor
  X:01ECH         SYMBOL        bcolor
  X:01EEH         SYMBOL        ccolor
  -------         ENDDO         
  C:B1D6H         LINE#         2949
  C:B1D6H         LINE#         2950
  C:B1D6H         LINE#         2953
  C:B1DCH         LINE#         2954
  C:B1DCH         LINE#         2956
  C:B1DCH         LINE#         2957
  C:B1E5H         LINE#         2958
  C:B1E5H         LINE#         2959
  C:B1EEH         LINE#         2960
  C:B1F7H         LINE#         2961
  C:B200H         LINE#         2963
  C:B21AH         LINE#         2964
  C:B234H         LINE#         2965
  C:B24EH         LINE#         2966
  C:B250H         LINE#         2968
  C:B250H         LINE#         2969
  C:B258H         LINE#         2970
  C:B25FH         LINE#         2971
  C:B267H         LINE#         2972
  C:B267H         LINE#         2974
  C:B26BH         LINE#         2975
  C:B26BH         LINE#         2976
  C:B26EH         LINE#         2977
BL51 BANKED LINKER/LOCATER V6.22                                                      06/23/2017  13:33:26  PAGE 66


  C:B26EH         LINE#         2980
  C:B279H         LINE#         2981
  C:B279H         LINE#         2982
  C:B283H         LINE#         2983
  C:B28AH         LINE#         2984
  C:B294H         LINE#         2985
  C:B29CH         LINE#         2986
  C:B2A9H         LINE#         2987
  C:B2A9H         LINE#         2988
  C:B2B4H         LINE#         2989
  C:B2E5H         LINE#         2990
  C:B2F9H         LINE#         2991
  C:B32AH         LINE#         2992
  C:B33CH         LINE#         2993
  C:B36DH         LINE#         2994
  C:B381H         LINE#         2995
  C:B3B2H         LINE#         2996
  C:B3BBH         LINE#         2997
  C:B3E7H         LINE#         2998
  C:B3EAH         LINE#         3000
  C:B3EAH         LINE#         3001
  C:B3FEH         LINE#         3002
  C:B42FH         LINE#         3003
  C:B441H         LINE#         3004
  C:B472H         LINE#         3005
  C:B486H         LINE#         3006
  C:B4B7H         LINE#         3007
  C:B4C0H         LINE#         3008
  C:B4F1H         LINE#         3009
  C:B4F1H         LINE#         3010
  C:B4F1H         LINE#         3013
  C:B4F9H         LINE#         3014
  C:B4F9H         LINE#         3015
  C:B502H         LINE#         3016
  C:B50BH         LINE#         3017
  C:B525H         LINE#         3018
  C:B53FH         LINE#         3019
  C:B541H         LINE#         3021
  C:B541H         LINE#         3022
  C:B54AH         LINE#         3023
  C:B550H         LINE#         3024
  C:B550H         LINE#         3025
  C:B554H         LINE#         3026
  C:B554H         LINE#         3027
  C:B557H         LINE#         3028
  C:B557H         LINE#         3029
  C:B55CH         LINE#         3030
  -------         ENDPROC       SHOWPAGE
  -------         PROC          LCMINIT
  C:D07DH         LINE#         3031
  C:D07DH         LINE#         3032
  C:D07DH         LINE#         3035
  C:D080H         LINE#         3036
  C:D083H         LINE#         3037
  C:D085H         LINE#         3038
  C:D087H         LINE#         3039
  C:D089H         LINE#         3040
BL51 BANKED LINKER/LOCATER V6.22                                                      06/23/2017  13:33:26  PAGE 67


  C:D08BH         LINE#         3043
  C:D08DH         LINE#         3044
  C:D094H         LINE#         3045
  C:D096H         LINE#         3046
  C:D09DH         LINE#         3047
  C:D0A2H         LINE#         3048
  C:D0A9H         LINE#         3049
  C:D0AEH         LINE#         3050
  C:D0B5H         LINE#         3051
  C:D0BCH         LINE#         3052
  C:D0C1H         LINE#         3053
  C:D0C6H         LINE#         3054
  C:D0CDH         LINE#         3055
  C:D0D4H         LINE#         3056
  C:D0D9H         LINE#         3057
  C:D0DEH         LINE#         3058
  C:D0E5H         LINE#         3059
  C:D0EAH         LINE#         3060
  C:D0EFH         LINE#         3061
  C:D0F4H         LINE#         3062
  C:D0F9H         LINE#         3063
  C:D100H         LINE#         3064
  C:D105H         LINE#         3065
  C:D10AH         LINE#         3066
  C:D10CH         LINE#         3067
  C:D10CH         LINE#         3068
  C:D10FH         LINE#         3069
  C:D114H         LINE#         3070
  C:D119H         LINE#         3071
  C:D11EH         LINE#         3072
  C:D120H         LINE#         3073
  C:D123H         LINE#         3074
  C:D128H         LINE#         3075
  C:D12DH         LINE#         3076
  C:D132H         LINE#         3077
  C:D137H         LINE#         3078
  C:D13CH         LINE#         3079
  C:D141H         LINE#         3080
  C:D146H         LINE#         3081
  C:D14BH         LINE#         3082
  C:D14BH         LINE#         3083
  C:D14EH         LINE#         3084
  C:D152H         LINE#         3085
  C:D157H         LINE#         3086
  C:D15CH         LINE#         3087
  C:D161H         LINE#         3088
  C:D166H         LINE#         3089
  C:D16BH         LINE#         3090
  C:D170H         LINE#         3091
  C:D170H         LINE#         3092
  C:D173H         LINE#         3093
  C:D175H         LINE#         3094
  C:D175H         LINE#         3095
  C:D178H         LINE#         3096
  C:D17DH         LINE#         3097
  C:D182H         LINE#         3098
  C:D184H         LINE#         3099
BL51 BANKED LINKER/LOCATER V6.22                                                      06/23/2017  13:33:26  PAGE 68


  C:D184H         LINE#         3100
  C:D187H         LINE#         3101
  C:D18CH         LINE#         3102
  C:D191H         LINE#         3103
  C:D19BH         LINE#         3104
  C:D1A0H         LINE#         3105
  C:D1A7H         LINE#         3106
  C:D1ACH         LINE#         3107
  C:D1B1H         LINE#         3108
  C:D1B6H         LINE#         3109
  C:D1BBH         LINE#         3110
  C:D1C0H         LINE#         3111
  C:D1C7H         LINE#         3112
  C:D1CCH         LINE#         3113
  C:D1D1H         LINE#         3114
  C:D1D6H         LINE#         3116
  C:D1DDH         LINE#         3117
  C:D1DFH         LINE#         3118
  C:D1E1H         LINE#         3119
  C:D1E9H         LINE#         3120
  C:D1F2H         LINE#         3122
  C:D1F4H         LINE#         3123
  C:D1FDH         LINE#         3125
  C:D202H         LINE#         3126
  C:D207H         LINE#         3127
  C:D20BH         LINE#         3128
  C:D20EH         LINE#         3129
  -------         ENDPROC       LCMINIT
  -------         ENDMOD        LCDDRIVER

  -------         MODULE        MAIN
  C:0000H         SYMBOL        _ICE_DUMMY_
  B:0029H.5       PUBLIC        bUsartRecFrame
  D:0080H         PUBLIC        P0
  D:00B2H         PUBLIC        P3M0
  D:0090H         PUBLIC        P1
  D:00B4H         PUBLIC        P4M0
  D:00B1H         PUBLIC        P3M1
  D:00A0H         PUBLIC        P2
  D:00CAH         PUBLIC        P5M0
  D:00B3H         PUBLIC        P4M1
  D:00B0H         PUBLIC        P3
  D:00C9H         PUBLIC        P5M1
  D:00C0H         PUBLIC        P4
  D:00C8H         PUBLIC        P5
  B:00A8H.7       PUBLIC        EA
  C:E369H         PUBLIC        Main
  X:01A2H         PUBLIC        byKeyValue
  B:00B0H.5       PUBLIC        LCD_LED
  D:00F9H         PUBLIC        CH
  D:00A8H         PUBLIC        IE
  D:00E9H         PUBLIC        CL
  D:00FAH         PUBLIC        CCAP0H
  D:00EAH         PUBLIC        CCAP0L
  B:00D8H.6       PUBLIC        CR
  C:DDA5H         PUBLIC        Init
  D:00DAH         PUBLIC        CCAPM0
BL51 BANKED LINKER/LOCATER V6.22                                                      06/23/2017  13:33:26  PAGE 69


  B:0029H.6       PUBLIC        bDealKeyAlwaysDown
  D:00B8H         PUBLIC        IP
  B:0029H.7       PUBLIC        CheckBusLow_Flag
  C:DE6BH         PUBLIC        OSTickISR
  D:006CH         PUBLIC        uiIsrTimerCount
  X:01A3H         PUBLIC        byDealKeyAlwaysDownTime
  D:00D9H         PUBLIC        CMOD
  D:00D8H         PUBLIC        CCON
  B:00C0H.6       PUBLIC        PW
  D:00BBH         PUBLIC        P4SW
  D:0098H         PUBLIC        SCON
  B:002AH.0       PUBLIC        bLcdOn
  B:002AH.1       PUBLIC        bDealKeyShortDown
  D:0088H         PUBLIC        TCON
  X:01A4H         PUBLIC        byDealKeyErrorDownTime
  X:01A5H         PUBLIC        stLocalControl
  X:01E5H         PUBLIC        byDealKeyShortDownTime
  B:00C0H.7       PUBLIC        RST_BUS
  D:00E0H         PUBLIC        ACC
  B:0090H.3       PUBLIC        CBD
  B:002AH.2       PUBLIC        bTimer0OutDeal
  B:002AH.3       PUBLIC        bDealKeyUp
  B:0090H.2       PUBLIC        CGB
  C:EAC9H         PUBLIC        _Delayms
  B:00C8H.2       PUBLIC        CTA
  D:00C1H         PUBLIC        WDT_CONTR
  B:00C0H.0       PUBLIC        CTD
  B:00B0H.4       PUBLIC        KDR
  X:01E6H         PUBLIC        msTimer
  B:0090H.4       PUBLIC        VOL
  B:002AH.4       PUBLIC        Display_BusLow_Flag
  D:00D0H         PUBLIC        PSW
  B:00D8H.0       PUBLIC        CCF0
  -------         PROC          OSTICKISR
  C:DE6BH         LINE#         64
  C:DE88H         LINE#         67
  C:DE9CH         LINE#         71
  C:DEA5H         LINE#         72
  C:DEA5H         LINE#         73
  C:DEA7H         LINE#         74
  C:DEA9H         LINE#         75
  C:DEA9H         LINE#         77
  C:DEAFH         LINE#         78
  C:DEAFH         LINE#         79
  C:DEB7H         LINE#         80
  C:DEBBH         LINE#         81
  C:DEBBH         LINE#         82
  C:DEC0H         LINE#         83
  C:DEC2H         LINE#         85
  C:DECAH         LINE#         86
  C:DECAH         LINE#         87
  C:DECCH         LINE#         88
  C:DED2H         LINE#         90
  C:DED2H         LINE#         91
  C:DED4H         LINE#         93
  C:DEDAH         LINE#         94
  C:DEDAH         LINE#         95
BL51 BANKED LINKER/LOCATER V6.22                                                      06/23/2017  13:33:26  PAGE 70


  C:DEE2H         LINE#         96
  C:DEE6H         LINE#         97
  C:DEE6H         LINE#         98
  C:DEE9H         LINE#         99
  C:DEE9H         LINE#         100
  C:DEEBH         LINE#         101
  C:DEF3H         LINE#         102
  C:DEF3H         LINE#         103
  C:DEF5H         LINE#         104
  C:DEF7H         LINE#         105
  C:DEFCH         LINE#         106
  C:DEFCH         LINE#         107
  C:DEFEH         LINE#         109
  C:DF04H         LINE#         110
  C:DF04H         LINE#         111
  C:DF0CH         LINE#         112
  C:DF10H         LINE#         113
  C:DF10H         LINE#         114
  C:DF13H         LINE#         115
  C:DF15H         LINE#         116
  C:DF15H         LINE#         117
  C:DF15H         LINE#         118
  -------         ENDPROC       OSTICKISR
  -------         PROC          _DELAYMS
  D:0006H         SYMBOL        ms
  -------         DO            
  X:01E7H         SYMBOL        i
  -------         ENDDO         
  C:EAC9H         LINE#         128
  C:EAC9H         LINE#         129
  C:EAC9H         LINE#         131
  C:EACDH         LINE#         132
  C:EACDH         LINE#         133
  C:EAEBH         LINE#         134
  C:EAEEH         LINE#         135
  C:EAF5H         LINE#         137
  -------         ENDPROC       _DELAYMS
  -------         PROC          INIT
  C:DDA5H         LINE#         154
  C:DDA5H         LINE#         155
  C:DDA5H         LINE#         156
  C:DDB4H         LINE#         157
  C:DDB6H         LINE#         158
  C:DDB8H         LINE#         159
  C:DDBAH         LINE#         160
  C:DDBCH         LINE#         161
  C:DDBEH         LINE#         162
  C:DDC0H         LINE#         164
  C:DDC2H         LINE#         165
  C:DDC4H         LINE#         167
  C:DDC6H         LINE#         168
  C:DDC8H         LINE#         169
  C:DDCAH         LINE#         170
  C:DDCCH         LINE#         173
  C:DDCEH         LINE#         174
  C:DDD0H         LINE#         175
  C:DDD2H         LINE#         180
BL51 BANKED LINKER/LOCATER V6.22                                                      06/23/2017  13:33:26  PAGE 71


  C:DDD7H         LINE#         181
  C:DDDBH         LINE#         182
  C:DDDFH         LINE#         183
  C:DDE3H         LINE#         186
  C:DDE7H         LINE#         190
  C:DDEAH         LINE#         191
  C:DDECH         LINE#         192
  C:DDEEH         LINE#         193
  C:DDF0H         LINE#         194
  C:DDF3H         LINE#         195
  C:DDF7H         LINE#         197
  C:DDFAH         LINE#         199
  C:DDFCH         LINE#         202
  C:DDFFH         LINE#         203
  C:DE01H         LINE#         206
  C:DE04H         LINE#         215
  C:DE07H         LINE#         216
  C:DE0AH         LINE#         224
  C:DE0DH         LINE#         225
  C:DE10H         LINE#         230
  C:DE13H         LINE#         231
  C:DE16H         LINE#         237
  C:DE18H         LINE#         240
  C:DE1BH         LINE#         241
  C:DE1EH         LINE#         243
  C:DE23H         LINE#         244
  C:DE28H         LINE#         247
  C:DE2BH         LINE#         253
  C:DE2EH         LINE#         254
  C:DE33H         LINE#         259
  C:DE36H         LINE#         263
  C:DE38H         LINE#         264
  C:DE3AH         LINE#         265
  C:DE3CH         LINE#         266
  C:DE3EH         LINE#         267
  C:DE40H         LINE#         268
  C:DE42H         LINE#         273
  C:DE44H         LINE#         277
  C:DE47H         LINE#         278
  C:DE49H         LINE#         279
  C:DE4BH         LINE#         280
  C:DE4DH         LINE#         281
  C:DE4FH         LINE#         286
  C:DE55H         LINE#         287
  C:DE5BH         LINE#         288
  C:DE5DH         LINE#         289
  C:DE65H         LINE#         290
  -------         ENDPROC       INIT
  -------         PROC          MAIN
  -------         DO            
  D:002CH         SYMBOL        iii
  -------         ENDDO         
  C:E369H         LINE#         310
  C:E369H         LINE#         311
  C:E369H         LINE#         312
  C:E36EH         LINE#         314
  C:E371H         LINE#         315
BL51 BANKED LINKER/LOCATER V6.22                                                      06/23/2017  13:33:26  PAGE 72


  C:E371H         LINE#         316
  C:E371H         LINE#         320
  C:E374H         LINE#         321
  C:E377H         LINE#         322
  C:E377H         LINE#         323
  C:E379H         LINE#         324
  C:E37DH         LINE#         325
  C:E380H         LINE#         326
  C:E380H         LINE#         327
  C:E383H         LINE#         328
  C:E383H         LINE#         329
  C:E385H         LINE#         330
  C:E389H         LINE#         331
  C:E389H         LINE#         332
  C:E38BH         LINE#         333
  C:E38EH         LINE#         334
  C:E38EH         LINE#         335
  C:E390H         LINE#         336
  C:E394H         LINE#         337
  C:E397H         LINE#         338
  C:E39AH         LINE#         339
  C:E39AH         LINE#         342
  C:E39DH         LINE#         343
  C:E39DH         LINE#         344
  C:E3A0H         LINE#         345
  C:E3A0H         LINE#         346
  C:E3A3H         LINE#         347
  C:E3A3H         LINE#         348
  C:E3A6H         LINE#         349
  C:E3A6H         LINE#         351
  C:E3A9H         LINE#         352
  C:E3A9H         LINE#         353
  C:E3ABH         LINE#         354
  C:E3AEH         LINE#         355
  C:E3AEH         LINE#         356
  C:E3B1H         LINE#         357
  C:E3B1H         LINE#         358
  C:E3B3H         LINE#         359
  C:E3B6H         LINE#         360
  C:E3B6H         LINE#         363
  C:E3B9H         LINE#         364
  C:E3B9H         LINE#         365
  C:E3BBH         LINE#         366
  C:E3C0H         LINE#         367
  C:E3C0H         LINE#         369
  C:E3C3H         LINE#         370
  C:E3C3H         LINE#         371
  C:E3C5H         LINE#         372
  C:E3CAH         LINE#         373
  C:E3CAH         LINE#         375
  C:E3CDH         LINE#         376
  C:E3CDH         LINE#         377
  C:E3CFH         LINE#         378
  C:E3D4H         LINE#         379
  C:E3D4H         LINE#         381
  C:E3E6H         LINE#         382
  C:E3E6H         LINE#         383
BL51 BANKED LINKER/LOCATER V6.22                                                      06/23/2017  13:33:26  PAGE 73


  C:E3E9H         LINE#         384
  C:E3E9H         LINE#         386
  -------         ENDPROC       MAIN
  -------         ENDMOD        MAIN

  -------         MODULE        SINGLEBUS
  C:0000H         SYMBOL        _ICE_DUMMY_
  D:0008H         PUBLIC        byBus0DisableCount
  D:0092H         PUBLIC        P1M0
  D:0091H         PUBLIC        P1M1
  D:0080H         PUBLIC        P0
  D:00B2H         PUBLIC        P3M0
  D:0090H         PUBLIC        P1
  B:0028H.0       PUBLIC        INDICTION_Flag
  D:00B4H         PUBLIC        P4M0
  D:00B1H         PUBLIC        P3M1
  D:00A0H         PUBLIC        P2
  D:00B3H         PUBLIC        P4M1
  D:00B0H         PUBLIC        P3
  D:00C0H         PUBLIC        P4
  D:00C8H         PUBLIC        P5
  B:00A8H.7       PUBLIC        EA
  B:0028H.1       PUBLIC        SET_BY_SERIAL_FLAG
  X:0218H         PUBLIC        Self_BusHigh_Count
  B:0020H.7       PUBLIC        bBusy
  B:0021H.2       PUBLIC        bBus0Enable
  B:00B0H.5       PUBLIC        LCD_LED
  B:0022H.7       PUBLIC        bWaitAck
  C:EB9AH         PUBLIC        _SaveCallAddr
  B:0023H.4       PUBLIC        bEnCallDeal
  D:00A8H         PUBLIC        IE
  B:0024H.0       PUBLIC        bPWState
  B:0024H.4       PUBLIC        bConfusionNoting
  X:021AH         PUBLIC        INDICTION_Count
  B:00C0H.3       PUBLIC        Bus0SendPin
  D:00FBH         PUBLIC        CCAP1H
  D:0009H         PUBLIC        byBus0TxTail
  B:0028H.2       PUBLIC        SerchRoomFlag
  D:00DAH         PUBLIC        CCAPM0
  X:021CH         PUBLIC        Real_TimeBuf
  C:EB49H         PUBLIC        _SaveIndicationData
  X:0221H         PUBLIC        SerchRoom
  B:0021H.1       PUBLIC        bBus0OnRec
  D:00B8H         PUBLIC        IP
  B:0021H.5       PUBLIC        bBus0OnSendFreq
  B:0023H.2       PUBLIC        bEnHelpDeal
  B:0028H.3       PUBLIC        HaveSerchRoomFlag
  B:0025H.2       PUBLIC        bEnAllBroad
  B:0022H.2       PUBLIC        bOfficeBroad
  B:00B0H.2       PUBLIC        Bus0RecPin
  D:000AH         PUBLIC        byBus0RecTimeOut
  B:0020H.5       PUBLIC        bDealKeyDown
  X:0222H         PUBLIC        NurseComeCount
  B:0020H.0       PUBLIC        bLanding
  D:00D8H         PUBLIC        CCON
  C:ECBDH         PUBLIC        Bus0RecInt
  X:0224H         PUBLIC        SerchRoomCount
BL51 BANKED LINKER/LOCATER V6.22                                                      06/23/2017  13:33:26  PAGE 74


  B:0025H.5       PUBLIC        bEnAutoListen
  B:00C0H.6       PUBLIC        PW
  C:E995H         PUBLIC        SingleBusInit
  B:0028H.4       PUBLIC        Self_BusLow_Flag
  B:0025H.6       PUBLIC        bEnVoiceNote
  B:0022H.5       PUBLIC        bChannel0Talked
  C:EBD6H         PUBLIC        _AddrCompareCheck
  B:0021H.4       PUBLIC        bBus0OnSendBit
  B:0020H.3       PUBLIC        bChannel1Talked
  B:0020H.4       PUBLIC        bNurseIn
  B:0024H.3       PUBLIC        bServiceNoting
  B:0025H.0       PUBLIC        bEnSickRoomBroad
  B:0026H.2       PUBLIC        bBus0SendFinish
  D:0020H         PUBLIC        byDevState1
  D:0022H         PUBLIC        byDevState2
  D:0098H         PUBLIC        SCON
  B:0026H.1       PUBLIC        bBus0RecBit9
  B:0023H.3       PUBLIC        bEnEmergencyDeal
  D:0024H         PUBLIC        byDevState3
  D:0089H         PUBLIC        TMOD
  D:0088H         PUBLIC        TCON
  X:0226H         PUBLIC        BusLowDTime
  D:0027H         PUBLIC        byDevState4
  C:BB80H         PUBLIC        TimerOutDeal
  X:0227H         PUBLIC        NurseComeRoom
  X:022AH         PUBLIC        Self_BusLow_Count
  B:0025H.7       PUBLIC        bEnKeyVoice
  B:0028H.5       PUBLIC        BusLow_Flag
  B:0025H.3       PUBLIC        bEnSoundNote
  B:0028H.6       PUBLIC        NUMBER_SET_STOP_FLAG
  B:0024H.7       PUBLIC        bCalledRing
  B:0088H.1       PUBLIC        IE0
  B:0028H.7       PUBLIC        SerchRoomKeyFlag
  B:0026H.0       PUBLIC        bBus0RecFinish
  B:0024H.5       PUBLIC        bMusicPlaying
  D:008EH         PUBLIC        AUXR
  B:0029H.0       PUBLIC        bBus0SndBitOk
  D:000BH         PUBLIC        byBus0SendData
  D:00C7H         PUBLIC        IAP_CONTR
  B:00C0H.7       PUBLIC        RST_BUS
  C:EB6FH         PUBLIC        SysReset
  D:00E0H         PUBLIC        ACC
  C:E851H         PUBLIC        _AddrCompare
  B:0090H.3       PUBLIC        CBD
  B:00A8H.1       PUBLIC        ET0
  B:0088H.5       PUBLIC        TF0
  X:022CH         PUBLIC        BusLow_Count
  B:0021H.7       PUBLIC        bBus0Error
  B:0090H.2       PUBLIC        CGB
  D:008CH         PUBLIC        TH0
  B:00B0H.3       PUBLIC        LED_DEAL
  D:008DH         PUBLIC        TH1
  B:0088H.0       PUBLIC        IT0
  B:00A8H.0       PUBLIC        EX0
  B:00A8H.2       PUBLIC        EX1
  B:0024H.6       PUBLIC        bVoiceNoting
  D:008AH         PUBLIC        TL0
BL51 BANKED LINKER/LOCATER V6.22                                                      06/23/2017  13:33:26  PAGE 75


  D:0012H         PUBLIC        byBus0RecData
  D:008BH         PUBLIC        TL1
  D:0019H         PUBLIC        byBus0SendCount
  B:0025H.1       PUBLIC        bEnOfficeBroad
  B:00C8H.0       PUBLIC        MDB
  B:0023H.5       PUBLIC        bEnMusicplay
  B:0020H.6       PUBLIC        bSetKeyDown
  B:0088H.4       PUBLIC        TR0
  B:0029H.1       PUBLIC        AllBusLow_Flag
  I:006FH         PUBLIC        byBus0TxQ
  D:0025H         PUBLIC        byEnable1
  B:00C8H.1       PUBLIC        MDG
  B:00C8H.2       PUBLIC        CTA
  B:0021H.6       PUBLIC        bBus0SendError
  D:0023H         PUBLIC        byEnable2
  B:0022H.0       PUBLIC        bSelfBroad
  B:0029H.2       PUBLIC        Page_Flag
  B:00C0H.0       PUBLIC        CTD
  B:0029H.3       PUBLIC        BusLowRenewOK_Flag
  B:0022H.4       PUBLIC        bChannel0Talk
  B:0023H.0       PUBLIC        bEnInfusionDeal
  B:0020H.2       PUBLIC        bChannel1Talk
  C:D211H         PUBLIC        Bus0SendDeal
  C:B55DH         PUBLIC        Timer0Int
  D:001AH         PUBLIC        byBus0RecCount
  B:0024H.2       PUBLIC        bHelpNoting
  B:0025H.4       PUBLIC        bEnOutRing
  B:00C0H.4       PUBLIC        MDR
  D:001BH         PUBLIC        byBus0SendBuf
  B:0023H.1       PUBLIC        bEnServiceDeal
  C:D671H         PUBLIC        VoiceChannelCtx
  B:0022H.1       PUBLIC        bAllBroad
  B:0020H.1       PUBLIC        bIndicatingOther
  B:0029H.4       PUBLIC        INSPERCTOR_Flag
  B:0027H.0       PUBLIC        bIndication
  X:022EH         PUBLIC        PageNumber
  B:0026H.4       PUBLIC        bBus0SendBit
  B:0021H.0       PUBLIC        bBus0StartRec
  D:0021H         PUBLIC        byBus0State0
  B:0022H.6       PUBLIC        bWaitListen
  C:E308H         PUBLIC        _Bus0OutputData
  D:001CH         PUBLIC        byBus0RecSendCount
  D:0026H         PUBLIC        byBus0State1
  C:003EH         PUBLIC        Bus0RecDeal
  D:001DH         PUBLIC        byBus0RecBuf
  C:0015H         PUBLIC        _BcdToHex
  B:0021H.3       PUBLIC        bBus0ReqSend
  C:B87DH         PUBLIC        ReadPageColour
  X:0230H         PUBLIC        SET_BY_SERIAL_COUNT
  B:0026H.3       PUBLIC        bBus0Disable
  X:0232H         PUBLIC        INSPERCTOR_Count
  D:001EH         PUBLIC        byBus0TxHead
  B:0022H.3       PUBLIC        bSickRoomBroad
  D:00D0H         PUBLIC        PSW
  C:EC51H         PUBLIC        _MakeCH0TimerOut
  D:001FH         PUBLIC        byBus0SendStopCount
  B:0026H.5       PUBLIC        bBus0RecBit
BL51 BANKED LINKER/LOCATER V6.22                                                      06/23/2017  13:33:26  PAGE 76


  B:0027H.1       PUBLIC        bLcdState
  B:0024H.1       PUBLIC        bEmergencyNoting
  C:E892H         PUBLIC        LedControl
  C:002DH         PUBLIC        _MakeCH1TimerOut
  -------         PROC          READPAGECOLOUR
  -------         DO            
  X:01E7H         SYMBOL        fcolor
  X:01E9H         SYMBOL        bcolor
  X:01EBH         SYMBOL        ccolor
  X:01EDH         SYMBOL        byData1
  X:01EEH         SYMBOL        byData2
  X:01EFH         SYMBOL        byData3
  -------         ENDDO         
  C:B87DH         LINE#         113
  C:B87DH         LINE#         114
  C:B87DH         LINE#         117
  C:B888H         LINE#         118
  C:B888H         LINE#         119
  C:B891H         LINE#         120
  C:B899H         LINE#         121
  C:B8A1H         LINE#         122
  C:B8A4H         LINE#         123
  C:B8A6H         LINE#         124
  C:B8AEH         LINE#         125
  C:B8B9H         LINE#         126
  C:B8BDH         LINE#         127
  C:B8C4H         LINE#         128
  C:B8C8H         LINE#         129
  C:B8D3H         LINE#         130
  C:B8D7H         LINE#         131
  C:B8DDH         LINE#         132
  C:B8E1H         LINE#         133
  C:B8EDH         LINE#         134
  C:B8F1H         LINE#         135
  C:B8FDH         LINE#         136
  C:B901H         LINE#         137
  C:B90DH         LINE#         138
  C:B90EH         LINE#         139
  C:B90EH         LINE#         141
  C:B916H         LINE#         142
  C:B91DH         LINE#         143
  C:B91FH         LINE#         144
  C:B923H         LINE#         145
  C:B92EH         LINE#         146
  C:B932H         LINE#         147
  C:B939H         LINE#         148
  C:B93DH         LINE#         149
  C:B93FH         LINE#         150
  C:B943H         LINE#         151
  C:B949H         LINE#         152
  C:B94DH         LINE#         153
  C:B959H         LINE#         154
  C:B95DH         LINE#         155
  C:B969H         LINE#         156
  C:B96DH         LINE#         157
  C:B979H         LINE#         158
  C:B97DH         LINE#         159
BL51 BANKED LINKER/LOCATER V6.22                                                      06/23/2017  13:33:26  PAGE 77


  C:B987H         LINE#         161
  C:B990H         LINE#         162
  C:B997H         LINE#         163
  C:B999H         LINE#         164
  C:B99DH         LINE#         165
  C:B9A8H         LINE#         166
  C:B9ACH         LINE#         167
  C:B9B3H         LINE#         168
  C:B9B7H         LINE#         169
  C:B9C2H         LINE#         170
  C:B9C6H         LINE#         171
  C:B9CCH         LINE#         172
  C:B9D0H         LINE#         173
  C:B9D7H         LINE#         174
  C:B9DBH         LINE#         175
  C:B9E7H         LINE#         176
  C:B9EBH         LINE#         177
  C:B9F7H         LINE#         178
  C:B9FBH         LINE#         179
  C:BA05H         LINE#         181
  C:BA0AH         LINE#         182
  C:BA0CH         LINE#         184
  C:BA0CH         LINE#         185
  C:BA14H         LINE#         186
  C:BA1BH         LINE#         187
  C:BA23H         LINE#         188
  C:BA23H         LINE#         189
  C:BA30H         LINE#         190
  C:BA4EH         LINE#         191
  C:BA59H         LINE#         192
  C:BA59H         LINE#         193
  C:BA62H         LINE#         194
  C:BA6AH         LINE#         195
  C:BA6DH         LINE#         196
  C:BA6FH         LINE#         197
  C:BA77H         LINE#         198
  C:BA82H         LINE#         199
  C:BA86H         LINE#         200
  C:BA8DH         LINE#         201
  C:BA91H         LINE#         202
  C:BA9CH         LINE#         203
  C:BAA0H         LINE#         204
  C:BAA6H         LINE#         205
  C:BAAAH         LINE#         206
  C:BAB6H         LINE#         207
  C:BABAH         LINE#         208
  C:BAC6H         LINE#         209
  C:BACAH         LINE#         210
  C:BAD6H         LINE#         211
  C:BAD7H         LINE#         212
  C:BAD7H         LINE#         214
  C:BADFH         LINE#         215
  C:BAE6H         LINE#         216
  C:BAE8H         LINE#         217
  C:BAECH         LINE#         218
  C:BAF7H         LINE#         219
  C:BAFBH         LINE#         220
BL51 BANKED LINKER/LOCATER V6.22                                                      06/23/2017  13:33:26  PAGE 78


  C:BB02H         LINE#         221
  C:BB06H         LINE#         222
  C:BB11H         LINE#         223
  C:BB15H         LINE#         224
  C:BB1BH         LINE#         225
  C:BB1FH         LINE#         226
  C:BB2BH         LINE#         227
  C:BB2FH         LINE#         228
  C:BB3BH         LINE#         229
  C:BB3FH         LINE#         230
  C:BB4BH         LINE#         231
  C:BB4CH         LINE#         232
  C:BB4CH         LINE#         234
  C:BB51H         LINE#         235
  C:BB53H         LINE#         237
  C:BB53H         LINE#         238
  C:BB5CH         LINE#         239
  C:BB62H         LINE#         240
  C:BB62H         LINE#         241
  -------         ENDPROC       READPAGECOLOUR
  -------         PROC          SINGLEBUSINIT
  C:E995H         LINE#         258
  C:E995H         LINE#         259
  C:E995H         LINE#         261
  C:E998H         LINE#         262
  C:E99BH         LINE#         263
  C:E99EH         LINE#         264
  C:E9A1H         LINE#         266
  C:E9A3H         LINE#         267
  C:E9A5H         LINE#         268
  C:E9A8H         LINE#         269
  C:E9ABH         LINE#         270
  C:E9AEH         LINE#         271
  C:E9B0H         LINE#         272
  C:E9B3H         LINE#         273
  C:E9B5H         LINE#         274
  C:E9B7H         LINE#         276
  C:E9BAH         LINE#         277
  C:E9BCH         LINE#         278
  C:E9BEH         LINE#         279
  C:E9C1H         LINE#         280
  C:E9C1H         LINE#         281
  C:E9C3H         LINE#         282
  C:E9C5H         LINE#         284
  C:E9C5H         LINE#         285
  C:E9C7H         LINE#         286
  C:E9C7H         LINE#         287
  C:E9CEH         LINE#         288
  -------         ENDPROC       SINGLEBUSINIT
  -------         PROC          BUS0RECINT
  C:ECBDH         LINE#         305
  C:ECBFH         LINE#         307
  C:ECC3H         LINE#         308
  C:ECC5H         LINE#         309
  C:ECC7H         LINE#         310
  C:ECCAH         LINE#         311
  -------         ENDPROC       BUS0RECINT
BL51 BANKED LINKER/LOCATER V6.22                                                      06/23/2017  13:33:26  PAGE 79


  -------         PROC          TIMER0INT
  C:B55DH         LINE#         329
  C:B576H         LINE#         331
  C:B578H         LINE#         332
  C:B57BH         LINE#         333
  C:B57EH         LINE#         334
  C:B580H         LINE#         336
  C:B584H         LINE#         338
  C:B587H         LINE#         339
  C:B587H         LINE#         340
  C:B58DH         LINE#         341
  C:B596H         LINE#         342
  C:B596H         LINE#         343
  C:B598H         LINE#         344
  C:B59AH         LINE#         345
  C:B59DH         LINE#         346
  C:B59DH         LINE#         347
  C:B5A3H         LINE#         348
  C:B5A3H         LINE#         349
  C:B5A6H         LINE#         350
  C:B5A8H         LINE#         351
  C:B5AAH         LINE#         352
  C:B5AAH         LINE#         353
  C:B5ADH         LINE#         354
  C:B5B0H         LINE#         355
  C:B5B4H         LINE#         356
  C:B5B4H         LINE#         357
  C:B5B7H         LINE#         359
  C:B5B7H         LINE#         360
  C:B5B9H         LINE#         361
  C:B5B9H         LINE#         362
  C:B5B9H         LINE#         363
  C:B5BCH         LINE#         364
  C:B5C2H         LINE#         365
  C:B5C2H         LINE#         366
  C:B5C8H         LINE#         367
  C:B5D1H         LINE#         368
  C:B5D1H         LINE#         369
  C:B5D4H         LINE#         370
  C:B5D6H         LINE#         371
  C:B5DFH         LINE#         372
  C:B5DFH         LINE#         373
  C:B5E1H         LINE#         374
  C:B5E4H         LINE#         375
  C:B5E4H         LINE#         376
  C:B5F0H         LINE#         377
  C:B5F0H         LINE#         378
  C:B5F3H         LINE#         379
  C:B5F6H         LINE#         380
  C:B5F8H         LINE#         382
  C:B5F8H         LINE#         383
  C:B5FBH         LINE#         384
  C:B605H         LINE#         385
  C:B60BH         LINE#         386
  C:B612H         LINE#         387
  C:B612H         LINE#         388
  C:B615H         LINE#         389
BL51 BANKED LINKER/LOCATER V6.22                                                      06/23/2017  13:33:26  PAGE 80


  C:B61BH         LINE#         390
  C:B61BH         LINE#         391
  C:B61DH         LINE#         392
  C:B61DH         LINE#         393
  C:B620H         LINE#         394
  C:B623H         LINE#         395
  C:B625H         LINE#         396
  C:B629H         LINE#         397
  C:B629H         LINE#         398
  C:B629H         LINE#         399
  C:B62CH         LINE#         400
  C:B630H         LINE#         401
  C:B632H         LINE#         403
  C:B632H         LINE#         404
  C:B634H         LINE#         405
  C:B63AH         LINE#         406
  C:B63AH         LINE#         407
  C:B63DH         LINE#         408
  C:B63FH         LINE#         409
  C:B641H         LINE#         410
  C:B641H         LINE#         411
  C:B644H         LINE#         412
  C:B648H         LINE#         413
  C:B648H         LINE#         414
  C:B64AH         LINE#         415
  C:B64DH         LINE#         416
  C:B64DH         LINE#         417
  C:B651H         LINE#         418
  C:B653H         LINE#         420
  C:B653H         LINE#         421
  C:B659H         LINE#         422
  C:B65CH         LINE#         423
  C:B65CH         LINE#         424
  C:B65FH         LINE#         425
  C:B65FH         LINE#         426
  C:B65FH         LINE#         427
  C:B65FH         LINE#         428
  C:B65FH         LINE#         430
  C:B667H         LINE#         431
  C:B667H         LINE#         432
  C:B66AH         LINE#         433
  C:B66AH         LINE#         434
  C:B66CH         LINE#         435
  C:B66EH         LINE#         436
  C:B670H         LINE#         437
  C:B673H         LINE#         438
  C:B67DH         LINE#         439
  C:B67FH         LINE#         440
  C:B682H         LINE#         442
  C:B682H         LINE#         443
  C:B685H         LINE#         444
  C:B687H         LINE#         445
  C:B68AH         LINE#         446
  C:B68CH         LINE#         447
  C:B68FH         LINE#         448
  C:B68FH         LINE#         449
  C:B692H         LINE#         450
BL51 BANKED LINKER/LOCATER V6.22                                                      06/23/2017  13:33:26  PAGE 81


  C:B698H         LINE#         451
  C:B698H         LINE#         452
  C:B69EH         LINE#         453
  C:B6A4H         LINE#         454
  C:B6A4H         LINE#         455
  C:B6B1H         LINE#         457
  C:B6B1H         LINE#         458
  C:B6B4H         LINE#         459
  C:B6B7H         LINE#         460
  C:B6B9H         LINE#         461
  C:B6BBH         LINE#         462
  C:B6BEH         LINE#         464
  C:B6C0H         LINE#         465
  C:B6C0H         LINE#         466
  C:B6C2H         LINE#         469
  C:B6C5H         LINE#         470
  C:B6C5H         LINE#         472
  C:B6CAH         LINE#         473
  C:B6CAH         LINE#         474
  C:B6CCH         LINE#         476
  C:B6CFH         LINE#         477
  C:B6D1H         LINE#         478
  C:B6D9H         LINE#         479
  C:B6D9H         LINE#         480
  C:B6E2H         LINE#         481
  C:B6E7H         LINE#         482
  C:B6E9H         LINE#         483
  C:B6ECH         LINE#         484
  C:B6ECH         LINE#         485
  C:B6EEH         LINE#         486
  C:B6F0H         LINE#         487
  C:B6F2H         LINE#         488
  C:B6FAH         LINE#         489
  C:B6FAH         LINE#         490
  C:B6FCH         LINE#         491
  C:B6FEH         LINE#         492
  C:B707H         LINE#         493
  C:B707H         LINE#         494
  C:B70AH         LINE#         495
  C:B70DH         LINE#         496
  C:B710H         LINE#         497
  C:B713H         LINE#         498
  C:B716H         LINE#         499
  C:B718H         LINE#         501
  C:B718H         LINE#         502
  C:B71BH         LINE#         503
  C:B71DH         LINE#         504
  C:B71DH         LINE#         505
  C:B721H         LINE#         506
  C:B723H         LINE#         508
  C:B723H         LINE#         509
  C:B728H         LINE#         510
  C:B728H         LINE#         511
  C:B72AH         LINE#         512
  C:B72CH         LINE#         513
  C:B72EH         LINE#         515
  C:B72EH         LINE#         516
BL51 BANKED LINKER/LOCATER V6.22                                                      06/23/2017  13:33:26  PAGE 82


  C:B730H         LINE#         517
  C:B732H         LINE#         518
  C:B732H         LINE#         519
  C:B738H         LINE#         520
  C:B738H         LINE#         521
  C:B738H         LINE#         522
  C:B738H         LINE#         531
  C:B738H         LINE#         533
  C:B73EH         LINE#         534
  C:B73EH         LINE#         535
  C:B742H         LINE#         536
  C:B742H         LINE#         537
  C:B745H         LINE#         538
  C:B745H         LINE#         539
  C:B747H         LINE#         540
  C:B747H         LINE#         541
  C:B747H         LINE#         542
  C:B74AH         LINE#         543
  C:B74AH         LINE#         544
  C:B74CH         LINE#         545
  C:B74FH         LINE#         546
  C:B74FH         LINE#         547
  C:B751H         LINE#         548
  C:B755H         LINE#         549
  C:B758H         LINE#         550
  C:B758H         LINE#         551
  C:B758H         LINE#         552
  C:B758H         LINE#         554
  C:B75CH         LINE#         555
  C:B75CH         LINE#         556
  C:B75FH         LINE#         557
  C:B75FH         LINE#         558
  C:B762H         LINE#         559
  C:B766H         LINE#         560
  C:B766H         LINE#         561
  C:B766H         LINE#         562
  C:B76AH         LINE#         563
  C:B76AH         LINE#         564
  C:B76DH         LINE#         565
  C:B76DH         LINE#         566
  C:B76FH         LINE#         567
  C:B76FH         LINE#         568
  C:B76FH         LINE#         570
  C:B778H         LINE#         571
  C:B778H         LINE#         572
  C:B77BH         LINE#         573
  C:B77BH         LINE#         574
  C:B77DH         LINE#         575
  C:B77DH         LINE#         576
  C:B780H         LINE#         578
  C:B780H         LINE#         579
  C:B789H         LINE#         580
  C:B789H         LINE#         581
  C:B7ADH         LINE#         582
  C:B7ADH         LINE#         583
  C:B7B5H         LINE#         584
  C:B7C5H         LINE#         585
BL51 BANKED LINKER/LOCATER V6.22                                                      06/23/2017  13:33:26  PAGE 83


  C:B7CDH         LINE#         586
  C:B7DEH         LINE#         587
  C:B7E6H         LINE#         588
  C:B7F7H         LINE#         589
  C:B7FFH         LINE#         590
  C:B810H         LINE#         591
  C:B818H         LINE#         592
  C:B829H         LINE#         593
  C:B831H         LINE#         594
  C:B842H         LINE#         595
  C:B84AH         LINE#         596
  C:B85BH         LINE#         597
  C:B85EH         LINE#         598
  C:B860H         LINE#         600
  C:B860H         LINE#         601
  C:B866H         LINE#         602
  C:B866H         LINE#         603
  C:B866H         LINE#         604
  C:B866H         LINE#         605
  C:B866H         LINE#         606
  -------         ENDPROC       TIMER0INT
  C:E2E6H         SYMBOL        L?0582
  -------         PROC          L?0581
  -------         ENDPROC       L?0581
  C:E2E6H         SYMBOL        L?0582
  -------         PROC          _BUS0OUTPUTDATA
  D:002FH         SYMBOL        pbyData
  -------         DO            
  D:0032H         SYMBOL        byTemp
  -------         ENDDO         
  C:E308H         LINE#         622
  C:E30EH         LINE#         623
  C:E30EH         LINE#         624
  C:E311H         LINE#         626
  C:E313H         LINE#         627
  C:E331H         LINE#         628
  C:E331H         LINE#         629
  C:E333H         LINE#         630
  C:E336H         LINE#         631
  C:E336H         LINE#         632
  C:E33DH         LINE#         633
  C:E33DH         LINE#         634
  C:E351H         LINE#         635
  C:E362H         LINE#         636
  C:E364H         LINE#         637
  C:E366H         LINE#         638
  C:E368H         LINE#         639
  -------         ENDPROC       _BUS0OUTPUTDATA
  C:0011H         SYMBOL        L?0593
  -------         PROC          L?0592
  -------         ENDPROC       L?0592
  C:0011H         SYMBOL        L?0593
  -------         PROC          _BCDTOHEX
  D:0007H         SYMBOL        byData
  -------         DO            
  D:0006H         SYMBOL        byRet
  -------         ENDDO         
BL51 BANKED LINKER/LOCATER V6.22                                                      06/23/2017  13:33:26  PAGE 84


  C:0015H         LINE#         655
  C:0015H         LINE#         656
  C:0015H         LINE#         658
  C:0019H         LINE#         659
  C:001DH         LINE#         660
  C:0020H         LINE#         661
  C:0021H         LINE#         662
  C:0022H         LINE#         663
  -------         ENDPROC       _BCDTOHEX
  -------         PROC          _ADDRCOMPARECHECK
  D:0001H         SYMBOL        pstBusFreq
  C:EBD6H         LINE#         680
  C:EBD6H         LINE#         681
  C:EBD6H         LINE#         682
  C:EBF1H         LINE#         683
  C:EBF1H         LINE#         684
  C:EBF3H         LINE#         685
  C:EBF3H         LINE#         687
  C:EBF4H         LINE#         688
  -------         ENDPROC       _ADDRCOMPARECHECK
  C:E84BH         SYMBOL        L?0586
  -------         PROC          L?0585
  -------         ENDPROC       L?0585
  C:E84BH         SYMBOL        L?0586
  -------         PROC          _ADDRCOMPARE
  D:0001H         SYMBOL        pstBusFreq
  C:E851H         LINE#         705
  C:E851H         LINE#         706
  C:E851H         LINE#         707
  C:E862H         LINE#         708
  C:E862H         LINE#         709
  C:E864H         LINE#         710
  C:E864H         LINE#         711
  C:E875H         LINE#         712
  C:E875H         LINE#         713
  C:E877H         LINE#         714
  C:E877H         LINE#         715
  C:E888H         LINE#         716
  C:E888H         LINE#         717
  C:E88AH         LINE#         718
  C:E88AH         LINE#         719
  C:E88BH         LINE#         720
  -------         ENDPROC       _ADDRCOMPARE
  C:EC44H         SYMBOL        L?0588
  -------         PROC          L?0587
  -------         ENDPROC       L?0587
  C:EC44H         SYMBOL        L?0588
  -------         PROC          _MAKECH0TIMEROUT
  D:0007H         SYMBOL        byTimerOut
  D:0005H         SYMBOL        byTimerOutCount
  C:EC51H         LINE#         736
  C:EC51H         LINE#         737
  C:EC51H         LINE#         738
  C:EC56H         LINE#         739
  C:EC58H         LINE#         740
  C:EC5BH         LINE#         741
  -------         ENDPROC       _MAKECH0TIMEROUT
BL51 BANKED LINKER/LOCATER V6.22                                                      06/23/2017  13:33:26  PAGE 85


  C:0026H         SYMBOL        L?0591
  -------         PROC          L?0590
  -------         ENDPROC       L?0590
  C:0026H         SYMBOL        L?0591
  -------         PROC          _MAKECH1TIMEROUT
  D:0007H         SYMBOL        byTimerOut
  D:0005H         SYMBOL        byTimerOutCount
  C:002DH         LINE#         757
  C:002DH         LINE#         758
  C:002DH         LINE#         759
  C:0032H         LINE#         760
  C:0034H         LINE#         761
  C:0037H         LINE#         762
  -------         ENDPROC       _MAKECH1TIMEROUT
  -------         PROC          _SAVEINDICATIONDATA
  D:0001H         SYMBOL        pstBus0SendFreq
  C:EB49H         LINE#         778
  C:EB49H         LINE#         779
  C:EB49H         LINE#         780
  C:EB50H         LINE#         781
  C:EB5AH         LINE#         782
  C:EB64H         LINE#         783
  C:EB6EH         LINE#         784
  -------         ENDPROC       _SAVEINDICATIONDATA
  -------         PROC          L?0594
  -------         ENDPROC       L?0594
  -------         PROC          _SAVECALLADDR
  D:0001H         SYMBOL        pstBusFreq
  C:EB9AH         LINE#         800
  C:EB9AH         LINE#         801
  C:EB9AH         LINE#         802
  C:EBA1H         LINE#         803
  C:EBABH         LINE#         804
  C:EBB5H         LINE#         805
  -------         ENDPROC       _SAVECALLADDR
  -------         PROC          L?0589
  -------         ENDPROC       L?0589
  -------         PROC          LEDCONTROL
  C:E892H         LINE#         821
  C:E892H         LINE#         822
  C:E892H         LINE#         823
  C:E895H         LINE#         824
  C:E895H         LINE#         825
  C:E897H         LINE#         826
  C:E899H         LINE#         827
  C:E8A1H         LINE#         828
  C:E8A1H         LINE#         829
  C:E8A3H         LINE#         830
  C:E8A5H         LINE#         831
  C:E8A8H         LINE#         832
  C:E8A8H         LINE#         833
  C:E8AAH         LINE#         834
  C:E8ACH         LINE#         836
  C:E8ACH         LINE#         837
  C:E8B1H         LINE#         838
  C:E8B1H         LINE#         839
  C:E8B4H         LINE#         840
BL51 BANKED LINKER/LOCATER V6.22                                                      06/23/2017  13:33:26  PAGE 86


  C:E8B4H         LINE#         841
  C:E8B6H         LINE#         842
  C:E8B8H         LINE#         843
  C:E8CAH         LINE#         844
  C:E8CAH         LINE#         845
  C:E8CCH         LINE#         846
  C:E8CEH         LINE#         848
  C:E8CEH         LINE#         849
  C:E8D3H         LINE#         850
  C:E8D3H         LINE#         851
  -------         ENDPROC       LEDCONTROL
  C:D667H         SYMBOL        L?0584
  -------         PROC          L?0583
  -------         ENDPROC       L?0583
  C:D667H         SYMBOL        L?0584
  -------         PROC          VOICECHANNELCTX
  C:D671H         LINE#         867
  C:D671H         LINE#         868
  C:D671H         LINE#         869
  C:D674H         LINE#         870
  C:D674H         LINE#         871
  C:D677H         LINE#         872
  C:D677H         LINE#         873
  C:D677H         LINE#         874
  C:D677H         LINE#         875
  C:D677H         LINE#         876
  C:D677H         LINE#         877
  C:D679H         LINE#         878
  C:D67CH         LINE#         879
  C:D67CH         LINE#         880
  C:D682H         LINE#         881
  C:D68AH         LINE#         882
  C:D692H         LINE#         883
  C:D694H         LINE#         884
  C:D696H         LINE#         885
  C:D696H         LINE#         886
  C:D699H         LINE#         887
  C:D6A1H         LINE#         888
  C:D6A1H         LINE#         889
  C:D6A7H         LINE#         890
  C:D6AFH         LINE#         891
  C:D6B7H         LINE#         892
  C:D6BBH         LINE#         893
  C:D6BBH         LINE#         894
  C:D6BEH         LINE#         895
  C:D6C1H         LINE#         896
  C:D6C1H         LINE#         897
  C:D6C7H         LINE#         898
  C:D6CFH         LINE#         899
  C:D6D7H         LINE#         900
  C:D6D9H         LINE#         901
  C:D6DBH         LINE#         902
  C:D6DBH         LINE#         903
  C:D6DEH         LINE#         904
  C:D6E1H         LINE#         905
  C:D6E1H         LINE#         906
  C:D6E7H         LINE#         907
BL51 BANKED LINKER/LOCATER V6.22                                                      06/23/2017  13:33:26  PAGE 87


  C:D6EFH         LINE#         908
  C:D6F7H         LINE#         909
  C:D6F9H         LINE#         910
  C:D6FBH         LINE#         911
  C:D6FBH         LINE#         912
  C:D6FEH         LINE#         913
  C:D701H         LINE#         914
  C:D701H         LINE#         915
  C:D707H         LINE#         916
  C:D70FH         LINE#         917
  C:D717H         LINE#         918
  C:D719H         LINE#         919
  C:D71BH         LINE#         920
  C:D71BH         LINE#         921
  C:D71EH         LINE#         922
  C:D724H         LINE#         923
  C:D724H         LINE#         924
  C:D72AH         LINE#         925
  C:D732H         LINE#         926
  C:D73AH         LINE#         927
  C:D73EH         LINE#         928
  C:D73EH         LINE#         929
  C:D740H         LINE#         930
  C:D746H         LINE#         931
  C:D746H         LINE#         932
  C:D74CH         LINE#         933
  C:D754H         LINE#         934
  C:D75CH         LINE#         935
  C:D760H         LINE#         936
  C:D760H         LINE#         937
  C:D762H         LINE#         938
  C:D765H         LINE#         939
  C:D765H         LINE#         940
  C:D76BH         LINE#         941
  C:D773H         LINE#         942
  C:D77BH         LINE#         943
  C:D77FH         LINE#         944
  C:D77FH         LINE#         945
  C:D781H         LINE#         946
  C:D784H         LINE#         947
  C:D784H         LINE#         948
  C:D78AH         LINE#         949
  C:D792H         LINE#         950
  C:D79AH         LINE#         951
  C:D79EH         LINE#         952
  C:D7A2H         LINE#         953
  C:D7A3H         LINE#         955
  C:D7A3H         LINE#         956
  C:D7A6H         LINE#         957
  C:D7AEH         LINE#         958
  C:D7B6H         LINE#         959
  C:D7BAH         LINE#         960
  C:D7BEH         LINE#         961
  C:D7BEH         LINE#         962
  -------         ENDPROC       VOICECHANNELCTX
  -------         PROC          SYSRESET
  C:EB6FH         LINE#         979
BL51 BANKED LINKER/LOCATER V6.22                                                      06/23/2017  13:33:26  PAGE 88


  C:EB6FH         LINE#         980
  C:EB6FH         LINE#         981
  C:EB71H         LINE#         982
  C:EB85H         LINE#         983
  C:EB88H         LINE#         984
  C:EB88H         LINE#         985
  C:EB8BH         LINE#         986
  C:EB8DH         LINE#         987
  C:EB91H         LINE#         988
  -------         ENDPROC       SYSRESET
  -------         PROC          BUS0RECDEAL
  -------         DO            
  I:0092H         SYMBOL        timebuf
  C:024CH         SYMBOL        NurseIN
  -------         ENDDO         
  C:003EH         LINE#         1007
  C:003EH         LINE#         1008
  C:003EH         LINE#         1011
  C:0040H         LINE#         1012
  C:0053H         LINE#         1013
  C:0055H         LINE#         1014
  C:0057H         LINE#         1015
  C:0065H         LINE#         1016
  C:0065H         LINE#         1018
  C:0065H         LINE#         1027
  C:00E8H         LINE#         1028
  C:00E8H         LINE#         1047
  C:00E8H         LINE#         1048
  C:00EAH         LINE#         1049
  C:00F0H         LINE#         1050
  C:00F3H         LINE#         1051
  C:00F3H         LINE#         1052
  C:00F6H         LINE#         1054
  C:00F6H         LINE#         1055
  C:00F8H         LINE#         1057
  C:00FEH         LINE#         1058
  C:0102H         LINE#         1059
  C:010BH         LINE#         1060
  C:010DH         LINE#         1061
  C:0115H         LINE#         1062
  C:011BH         LINE#         1063
  C:011BH         LINE#         1064
  C:011DH         LINE#         1066
  C:011DH         LINE#         1067
  C:011FH         LINE#         1069
  C:0125H         LINE#         1070
  C:0128H         LINE#         1071
  C:0128H         LINE#         1072
  C:012AH         LINE#         1075
  C:012AH         LINE#         1076
  C:012CH         LINE#         1078
  C:0132H         LINE#         1079
  C:0136H         LINE#         1080
  C:013FH         LINE#         1081
  C:0141H         LINE#         1082
  C:0149H         LINE#         1083
  C:0151H         LINE#         1084
BL51 BANKED LINKER/LOCATER V6.22                                                      06/23/2017  13:33:26  PAGE 89


  C:0153H         LINE#         1085
  C:0154H         LINE#         1088
  C:0154H         LINE#         1089
  C:0156H         LINE#         1091
  C:015CH         LINE#         1092
  C:0160H         LINE#         1093
  C:0169H         LINE#         1094
  C:016BH         LINE#         1095
  C:0173H         LINE#         1096
  C:0175H         LINE#         1097
  C:0176H         LINE#         1099
  C:0176H         LINE#         1100
  C:017EH         LINE#         1101
  C:0186H         LINE#         1102
  C:018EH         LINE#         1103
  C:0192H         LINE#         1104
  C:019BH         LINE#         1105
  C:019BH         LINE#         1106
  C:019BH         LINE#         1107
  C:01BDH         LINE#         1108
  C:01BDH         LINE#         1109
  C:01BFH         LINE#         1110
  C:01C2H         LINE#         1111
  C:01C5H         LINE#         1112
  C:01CFH         LINE#         1116
  C:01D9H         LINE#         1117
  C:01E6H         LINE#         1118
  C:01E6H         LINE#         1119
  C:01EDH         LINE#         1120
  C:01EDH         LINE#         1121
  C:01EFH         LINE#         1122
  C:01F8H         LINE#         1123
  C:01F8H         LINE#         1124
  C:0205H         LINE#         1125
  C:0205H         LINE#         1126
  C:020CH         LINE#         1127
  C:020CH         LINE#         1128
  C:021BH         LINE#         1129
  C:021BH         LINE#         1130
  C:0220H         LINE#         1131
  C:0222H         LINE#         1132
  C:0224H         LINE#         1133
  C:0224H         LINE#         1134
  C:0224H         LINE#         1135
  C:022BH         LINE#         1136
  C:022BH         LINE#         1137
  C:0231H         LINE#         1138
  C:0231H         LINE#         1139
  C:0247H         LINE#         1140
  C:0247H         LINE#         1141
  C:024AH         LINE#         1142
  C:024CH         LINE#         1143
  C:024CH         LINE#         1144
  C:024CH         LINE#         1145
  C:024CH         LINE#         1146
  C:024CH         LINE#         1147
  C:024CH         LINE#         1148
BL51 BANKED LINKER/LOCATER V6.22                                                      06/23/2017  13:33:26  PAGE 90


  C:024CH         LINE#         1152
  C:0252H         LINE#         1153
  C:0252H         LINE#         1154
  C:0254H         LINE#         1155
  C:025AH         LINE#         1156
  C:0260H         LINE#         1157
  C:0260H         LINE#         1158
  C:026AH         LINE#         1159
  C:0270H         LINE#         1160
  C:0270H         LINE#         1161
  C:027CH         LINE#         1162
  C:027CH         LINE#         1163
  C:027EH         LINE#         1164
  C:028AH         LINE#         1165
  C:028AH         LINE#         1166
  C:029BH         LINE#         1169
  C:02A2H         LINE#         1170
  C:02A2H         LINE#         1171
  C:02B3H         LINE#         1172
  C:02B5H         LINE#         1173
  C:02C4H         LINE#         1174
  C:02C7H         LINE#         1175
  C:02CEH         LINE#         1176
  C:02CEH         LINE#         1177
  C:02DFH         LINE#         1178
  C:02E1H         LINE#         1179
  C:02F0H         LINE#         1180
  C:02F3H         LINE#         1181
  C:02FAH         LINE#         1182
  C:02FAH         LINE#         1183
  C:030BH         LINE#         1184
  C:030DH         LINE#         1185
  C:031CH         LINE#         1186
  C:031FH         LINE#         1187
  C:0326H         LINE#         1188
  C:0326H         LINE#         1189
  C:0337H         LINE#         1190
  C:0339H         LINE#         1191
  C:0348H         LINE#         1192
  C:034BH         LINE#         1193
  C:0352H         LINE#         1194
  C:0352H         LINE#         1195
  C:0363H         LINE#         1196
  C:0365H         LINE#         1197
  C:0374H         LINE#         1198
  C:0377H         LINE#         1199
  C:037EH         LINE#         1200
  C:037EH         LINE#         1201
  C:038FH         LINE#         1202
  C:0391H         LINE#         1203
  C:03A0H         LINE#         1204
  C:03A3H         LINE#         1205
  C:03AAH         LINE#         1206
  C:03AAH         LINE#         1207
  C:03BBH         LINE#         1208
  C:03BDH         LINE#         1209
  C:03CCH         LINE#         1210
BL51 BANKED LINKER/LOCATER V6.22                                                      06/23/2017  13:33:26  PAGE 91


  C:03CFH         LINE#         1211
  C:03D6H         LINE#         1212
  C:03D6H         LINE#         1213
  C:03E7H         LINE#         1214
  C:03E9H         LINE#         1215
  C:03F8H         LINE#         1216
  C:03FBH         LINE#         1217
  C:0402H         LINE#         1218
  C:0402H         LINE#         1219
  C:0413H         LINE#         1220
  C:0415H         LINE#         1221
  C:0424H         LINE#         1222
  C:0427H         LINE#         1223
  C:042EH         LINE#         1224
  C:042EH         LINE#         1225
  C:043FH         LINE#         1226
  C:0441H         LINE#         1227
  C:0450H         LINE#         1228
  C:0453H         LINE#         1229
  C:045AH         LINE#         1230
  C:045AH         LINE#         1231
  C:046BH         LINE#         1232
  C:046DH         LINE#         1233
  C:047CH         LINE#         1234
  C:047FH         LINE#         1235
  C:0486H         LINE#         1236
  C:0486H         LINE#         1237
  C:0497H         LINE#         1238
  C:0499H         LINE#         1239
  C:04A8H         LINE#         1240
  C:04ABH         LINE#         1241
  C:04B2H         LINE#         1242
  C:04B2H         LINE#         1243
  C:04C3H         LINE#         1244
  C:04C5H         LINE#         1245
  C:04D4H         LINE#         1246
  C:04D7H         LINE#         1247
  C:04DEH         LINE#         1248
  C:04DEH         LINE#         1249
  C:04EFH         LINE#         1250
  C:04F1H         LINE#         1251
  C:0500H         LINE#         1252
  C:0503H         LINE#         1253
  C:050EH         LINE#         1254
  C:050EH         LINE#         1255
  C:051FH         LINE#         1256
  C:0521H         LINE#         1257
  C:0530H         LINE#         1258
  C:0530H         LINE#         1259
  C:0530H         LINE#         1262
  C:0530H         LINE#         1274
  C:0533H         LINE#         1275
  C:0533H         LINE#         1276
  C:0555H         LINE#         1277
  C:0555H         LINE#         1278
  C:0557H         LINE#         1279
  C:055AH         LINE#         1280
BL51 BANKED LINKER/LOCATER V6.22                                                      06/23/2017  13:33:26  PAGE 92


  C:055AH         LINE#         1281
  C:055AH         LINE#         1282
  C:055DH         LINE#         1283
  C:055DH         LINE#         1284
  C:0563H         LINE#         1285
  C:0563H         LINE#         1286
  C:0565H         LINE#         1287
  C:0568H         LINE#         1288
  C:0568H         LINE#         1291
  C:0568H         LINE#         1292
  C:056BH         LINE#         1293
  C:056EH         LINE#         1296
  C:0570H         LINE#         1297
  C:0574H         LINE#         1298
  C:0577H         LINE#         1299
  C:0577H         LINE#         1301
  C:0577H         LINE#         1302
  C:057AH         LINE#         1304
  C:057AH         LINE#         1305
  C:057DH         LINE#         1306
  C:0582H         LINE#         1307
  C:0582H         LINE#         1308
  C:0588H         LINE#         1309
  C:0588H         LINE#         1310
  C:0590H         LINE#         1311
  C:0598H         LINE#         1312
  C:05A0H         LINE#         1313
  C:05A4H         LINE#         1314
  C:05ACH         LINE#         1315
  C:05B4H         LINE#         1316
  C:05BCH         LINE#         1317
  C:05BFH         LINE#         1318
  C:05BFH         LINE#         1319
  C:05BFH         LINE#         1320
  C:05BFH         LINE#         1321
  C:05BFH         LINE#         1322
  C:05C2H         LINE#         1323
  C:05C2H         LINE#         1324
  C:05C4H         LINE#         1326
  C:05C7H         LINE#         1327
  C:05CFH         LINE#         1328
  C:05CFH         LINE#         1329
  C:05D1H         LINE#         1330
  C:05D3H         LINE#         1331
  C:05DCH         LINE#         1332
  C:05DCH         LINE#         1333
  C:05DCH         LINE#         1334
  C:05DEH         LINE#         1335
  C:05DEH         LINE#         1336
  C:05E1H         LINE#         1337
  C:05E1H         LINE#         1338
  C:05E1H         LINE#         1339
  C:05E4H         LINE#         1340
  C:05E4H         LINE#         1341
  C:05E6H         LINE#         1343
  C:05E9H         LINE#         1344
  C:05F1H         LINE#         1345
BL51 BANKED LINKER/LOCATER V6.22                                                      06/23/2017  13:33:26  PAGE 93


  C:05F1H         LINE#         1346
  C:05F3H         LINE#         1347
  C:05F5H         LINE#         1348
  C:05FEH         LINE#         1349
  C:05FEH         LINE#         1350
  C:0605H         LINE#         1351
  C:0605H         LINE#         1352
  C:0605H         LINE#         1353
  C:0608H         LINE#         1354
  C:0608H         LINE#         1355
  C:0608H         LINE#         1356
  C:060BH         LINE#         1357
  C:060BH         LINE#         1358
  C:060BH         LINE#         1359
  C:060BH         LINE#         1360
  C:0611H         LINE#         1361
  C:0611H         LINE#         1362
  C:0613H         LINE#         1364
  C:0619H         LINE#         1366
  C:0623H         LINE#         1368
  C:0626H         LINE#         1369
  C:0629H         LINE#         1370
  C:0629H         LINE#         1373
  C:0629H         LINE#         1374
  C:062CH         LINE#         1375
  C:062FH         LINE#         1378
  C:0631H         LINE#         1379
  C:0635H         LINE#         1380
  C:0638H         LINE#         1381
  C:0638H         LINE#         1382
  C:0638H         LINE#         1383
  C:063BH         LINE#         1384
  C:063EH         LINE#         1385
  C:0647H         LINE#         1386
  C:0647H         LINE#         1387
  C:0647H         LINE#         1388
  C:0647H         LINE#         1389
  C:0657H         LINE#         1390
  C:0657H         LINE#         1391
  C:0657H         LINE#         1392
  C:065BH         LINE#         1393
  C:065DH         LINE#         1394
  C:065DH         LINE#         1395
  C:0661H         LINE#         1396
  C:0663H         LINE#         1397
  C:0663H         LINE#         1398
  C:0667H         LINE#         1399
  C:0667H         LINE#         1400
  C:0667H         LINE#         1401
  C:066AH         LINE#         1402
  C:066DH         LINE#         1403
  C:0670H         LINE#         1404
  C:0670H         LINE#         1405
  C:0670H         LINE#         1406
  C:0670H         LINE#         1407
  C:0676H         LINE#         1408
  C:0676H         LINE#         1409
BL51 BANKED LINKER/LOCATER V6.22                                                      06/23/2017  13:33:26  PAGE 94


  C:067FH         LINE#         1410
  C:069BH         LINE#         1412
  C:069BH         LINE#         1413
  C:069EH         LINE#         1414
  C:069EH         LINE#         1417
  C:069EH         LINE#         1418
  C:06A1H         LINE#         1419
  C:06A4H         LINE#         1422
  C:06A6H         LINE#         1423
  C:06AAH         LINE#         1424
  C:06ADH         LINE#         1425
  C:06ADH         LINE#         1426
  C:06B7H         LINE#         1427
  C:06CEH         LINE#         1428
  C:06CEH         LINE#         1429
  C:06CEH         LINE#         1430
  C:06D2H         LINE#         1431
  C:06D4H         LINE#         1432
  C:06D4H         LINE#         1433
  C:06D8H         LINE#         1434
  C:06DAH         LINE#         1435
  C:06DAH         LINE#         1436
  C:06DEH         LINE#         1437
  C:06E0H         LINE#         1438
  C:06E0H         LINE#         1439
  C:06E4H         LINE#         1440
  C:06E4H         LINE#         1441
  C:06E4H         LINE#         1443
  C:06E4H         LINE#         1444
  C:06E7H         LINE#         1445
  C:06E7H         LINE#         1446
  C:06EAH         LINE#         1448
  C:06EAH         LINE#         1481
  C:06ECH         LINE#         1482
  C:06F5H         LINE#         1483
  C:06F5H         LINE#         1485
  C:06F5H         LINE#         1486
  C:06F8H         LINE#         1487
  C:06FBH         LINE#         1488
  C:06FDH         LINE#         1489
  C:070FH         LINE#         1490
  C:070FH         LINE#         1491
  C:070FH         LINE#         1492
  C:070FH         LINE#         1493
  C:070FH         LINE#         1494
  C:070FH         LINE#         1495
  C:070FH         LINE#         1496
  C:070FH         LINE#         1497
  C:0715H         LINE#         1498
  C:0715H         LINE#         1499
  C:0717H         LINE#         1500
  C:071AH         LINE#         1501
  C:071AH         LINE#         1504
  C:071AH         LINE#         1505
  C:071DH         LINE#         1506
  C:0720H         LINE#         1509
  C:0722H         LINE#         1510
BL51 BANKED LINKER/LOCATER V6.22                                                      06/23/2017  13:33:26  PAGE 95


  C:0726H         LINE#         1511
  C:0729H         LINE#         1512
  C:0729H         LINE#         1514
  C:0729H         LINE#         1515
  C:072CH         LINE#         1516
  C:072CH         LINE#         1517
  C:072FH         LINE#         1518
  C:072FH         LINE#         1519
  C:072FH         LINE#         1520
  C:0732H         LINE#         1521
  C:0732H         LINE#         1522
  C:0735H         LINE#         1523
  C:0735H         LINE#         1526
  C:0735H         LINE#         1527
  C:0738H         LINE#         1528
  C:073BH         LINE#         1531
  C:073DH         LINE#         1532
  C:0741H         LINE#         1533
  C:0744H         LINE#         1534
  C:0744H         LINE#         1535
  C:0744H         LINE#         1536
  C:0747H         LINE#         1537
  C:0747H         LINE#         1538
  C:074AH         LINE#         1539
  C:074AH         LINE#         1540
  C:074AH         LINE#         1541
  C:074AH         LINE#         1542
  C:074AH         LINE#         1543
  C:078AH         LINE#         1547
  C:078AH         LINE#         1548
  C:078DH         LINE#         1549
  C:078DH         LINE#         1552
  C:078DH         LINE#         1553
  C:0790H         LINE#         1554
  C:0793H         LINE#         1557
  C:0795H         LINE#         1558
  C:0799H         LINE#         1559
  C:079CH         LINE#         1560
  C:079CH         LINE#         1561
  C:079CH         LINE#         1562
  C:079FH         LINE#         1563
  C:079FH         LINE#         1564
  C:079FH         LINE#         1565
  C:07A2H         LINE#         1566
  C:07A2H         LINE#         1567
  C:07A5H         LINE#         1568
  C:07A5H         LINE#         1569
  C:07A5H         LINE#         1570
  C:07ADH         LINE#         1571
  C:07ADH         LINE#         1572
  C:07ADH         LINE#         1573
  C:07B0H         LINE#         1574
  C:07B4H         LINE#         1575
  C:07B7H         LINE#         1576
  C:07B7H         LINE#         1577
  C:07B7H         LINE#         1578
  C:07BAH         LINE#         1579
BL51 BANKED LINKER/LOCATER V6.22                                                      06/23/2017  13:33:26  PAGE 96


  C:07BAH         LINE#         1580
  C:07C2H         LINE#         1581
  C:07C2H         LINE#         1582
  C:07C2H         LINE#         1583
  C:07C5H         LINE#         1584
  C:07C9H         LINE#         1585
  C:07CCH         LINE#         1586
  C:07CCH         LINE#         1587
  C:07CCH         LINE#         1588
  C:07CFH         LINE#         1589
  C:07CFH         LINE#         1590
  C:07D7H         LINE#         1591
  C:07D7H         LINE#         1592
  C:07DBH         LINE#         1593
  C:07DEH         LINE#         1594
  C:07DEH         LINE#         1595
  C:07DEH         LINE#         1596
  C:07DEH         LINE#         1598
  C:07EEH         LINE#         1600
  C:07F4H         LINE#         1604
  C:07F7H         LINE#         1605
  C:07F7H         LINE#         1606
  C:07F7H         LINE#         1607
  C:07FAH         LINE#         1608
  C:07FDH         LINE#         1609
  C:07FFH         LINE#         1610
  C:0803H         LINE#         1611
  C:0806H         LINE#         1612
  C:0806H         LINE#         1615
  C:080FH         LINE#         1616
  C:080FH         LINE#         1617
  C:0813H         LINE#         1618
  C:0817H         LINE#         1619
  C:081BH         LINE#         1621
  C:0825H         LINE#         1622
  C:082BH         LINE#         1623
  C:082BH         LINE#         1624
  C:0832H         LINE#         1625
  C:0832H         LINE#         1626
  C:0832H         LINE#         1627
  C:0835H         LINE#         1628
  C:0835H         LINE#         1629
  C:0835H         LINE#         1630
  C:0837H         LINE#         1631
  C:0837H         LINE#         1632
  C:083DH         LINE#         1633
  C:083DH         LINE#         1634
  C:0840H         LINE#         1635
  C:0840H         LINE#         1636
  C:0842H         LINE#         1637
  C:0846H         LINE#         1638
  C:0849H         LINE#         1639
  C:0849H         LINE#         1640
  C:0849H         LINE#         1641
  C:0849H         LINE#         1642
  C:084CH         LINE#         1643
  C:084FH         LINE#         1644
BL51 BANKED LINKER/LOCATER V6.22                                                      06/23/2017  13:33:26  PAGE 97


  C:0852H         LINE#         1645
  C:0852H         LINE#         1666
  C:0852H         LINE#         1667
  C:0861H         LINE#         1668
  C:0861H         LINE#         1669
  C:0869H         LINE#         1670
  C:0877H         LINE#         1671
  C:0888H         LINE#         1672
  C:08B1H         LINE#         1673
  C:08B1H         LINE#         1674
  C:08B1H         LINE#         1675
  C:08BBH         LINE#         1676
  C:08BDH         LINE#         1677
  C:08BDH         LINE#         1678
  C:08C7H         LINE#         1679
  C:08C9H         LINE#         1680
  C:08C9H         LINE#         1681
  C:08D3H         LINE#         1682
  C:08D5H         LINE#         1683
  C:08D5H         LINE#         1684
  C:08DFH         LINE#         1685
  C:08E1H         LINE#         1686
  C:08E1H         LINE#         1687
  C:08EBH         LINE#         1688
  C:08EDH         LINE#         1689
  C:08EDH         LINE#         1690
  C:08F7H         LINE#         1691
  C:08F9H         LINE#         1692
  C:08F9H         LINE#         1693
  C:0903H         LINE#         1694
  C:0905H         LINE#         1695
  C:0905H         LINE#         1696
  C:090FH         LINE#         1697
  C:0911H         LINE#         1698
  C:0911H         LINE#         1699
  C:091BH         LINE#         1700
  C:091DH         LINE#         1701
  C:091DH         LINE#         1702
  C:0927H         LINE#         1703
  C:0927H         LINE#         1704
  C:0927H         LINE#         1705
  C:093AH         LINE#         1706
  C:093AH         LINE#         1707
  C:093DH         LINE#         1708
  C:094BH         LINE#         1709
  C:094DH         LINE#         1711
  C:094DH         LINE#         1712
  C:0950H         LINE#         1713
  C:0971H         LINE#         1714
  C:0971H         LINE#         1715
  C:0971H         LINE#         1716
  C:0972H         LINE#         1720
  C:0972H         LINE#         1721
  C:097AH         LINE#         1722
  C:097DH         LINE#         1723
  C:0980H         LINE#         1724
  C:0984H         LINE#         1725
BL51 BANKED LINKER/LOCATER V6.22                                                      06/23/2017  13:33:26  PAGE 98


  C:0984H         LINE#         1726
  C:0987H         LINE#         1729
  C:0987H         LINE#         1730
  C:098FH         LINE#         1731
  C:098FH         LINE#         1732
  C:0991H         LINE#         1733
  C:0991H         LINE#         1734
  C:0991H         LINE#         1735
  C:0991H         LINE#         1736
  C:0991H         LINE#         1737
  C:0991H         LINE#         1738
  C:0991H         LINE#         1739
  C:0994H         LINE#         1740
  C:0998H         LINE#         1741
  C:0998H         LINE#         1742
  C:0999H         LINE#         1743
  C:0999H         LINE#         1744
  C:09A1H         LINE#         1745
  C:09A1H         LINE#         1746
  C:09A3H         LINE#         1747
  C:09A3H         LINE#         1748
  C:09A3H         LINE#         1749
  C:09A3H         LINE#         1750
  C:09A3H         LINE#         1751
  C:09A3H         LINE#         1752
  C:09A3H         LINE#         1753
  C:09A6H         LINE#         1754
  C:09AAH         LINE#         1755
  C:09AAH         LINE#         1756
  C:09ABH         LINE#         1759
  C:09ABH         LINE#         1760
  C:09B3H         LINE#         1761
  C:09B3H         LINE#         1762
  C:09B8H         LINE#         1763
  C:09B8H         LINE#         1764
  C:09B8H         LINE#         1765
  C:09B8H         LINE#         1766
  C:09B8H         LINE#         1767
  C:09B8H         LINE#         1768
  C:09B8H         LINE#         1769
  C:09BBH         LINE#         1770
  C:09C7H         LINE#         1771
  C:09CAH         LINE#         1772
  C:09CAH         LINE#         1773
  C:09CBH         LINE#         1774
  C:09CBH         LINE#         1775
  C:09D3H         LINE#         1776
  C:09D3H         LINE#         1777
  C:09D8H         LINE#         1778
  C:09D8H         LINE#         1779
  C:09D8H         LINE#         1780
  C:09D8H         LINE#         1781
  C:09D8H         LINE#         1782
  C:09D8H         LINE#         1783
  C:09D8H         LINE#         1784
  C:09DBH         LINE#         1785
  C:09E9H         LINE#         1786
BL51 BANKED LINKER/LOCATER V6.22                                                      06/23/2017  13:33:26  PAGE 99


  C:09ECH         LINE#         1787
  C:09ECH         LINE#         1788
  C:09EDH         LINE#         1791
  C:09EDH         LINE#         1792
  C:09F5H         LINE#         1793
  C:09F5H         LINE#         1794
  C:09FAH         LINE#         1795
  C:09FAH         LINE#         1796
  C:09FAH         LINE#         1797
  C:09FAH         LINE#         1798
  C:09FAH         LINE#         1799
  C:09FAH         LINE#         1800
  C:09FAH         LINE#         1801
  C:09FDH         LINE#         1802
  C:0A02H         LINE#         1803
  C:0A0DH         LINE#         1804
  C:0A11H         LINE#         1805
  C:0A14H         LINE#         1806
  C:0A17H         LINE#         1807
  C:0A17H         LINE#         1808
  C:0A17H         LINE#         1809
  C:0A17H         LINE#         1810
  C:0A1FH         LINE#         1811
  C:0A1FH         LINE#         1812
  C:0A21H         LINE#         1814
  C:0A24H         LINE#         1815
  C:0A26H         LINE#         1816
  C:0A28H         LINE#         1817
  C:0A2CH         LINE#         1818
  C:0A2FH         LINE#         1819
  C:0A30H         LINE#         1820
  C:0A30H         LINE#         1821
  C:0A30H         LINE#         1822
  C:0A30H         LINE#         1823
  C:0A39H         LINE#         1824
  C:0A39H         LINE#         1825
  C:0A3BH         LINE#         1826
  C:0A40H         LINE#         1827
  C:0A43H         LINE#         1828
  C:0A43H         LINE#         1829
  C:0A43H         LINE#         1944
  C:0A43H         LINE#         1945
  C:0A43H         LINE#         1946
  C:0A50H         LINE#         1947
  C:0A5FH         LINE#         1948
  C:0A67H         LINE#         1949
  C:0A72H         LINE#         1950
  C:0A81H         LINE#         1951
  C:0A87H         LINE#         1952
  C:0A87H         LINE#         1953
  C:0A89H         LINE#         1954
  C:0A97H         LINE#         1955
  C:0A9EH         LINE#         1956
  C:0AA4H         LINE#         1957
  C:0AAFH         LINE#         1958
  C:0AB8H         LINE#         1959
  C:0ABFH         LINE#         1960
BL51 BANKED LINKER/LOCATER V6.22                                                      06/23/2017  13:33:26  PAGE 100


  C:0ABFH         LINE#         1961
  C:0AD2H         LINE#         1962
  C:0AD5H         LINE#         1963
  C:0ADCH         LINE#         1964
  C:0ADCH         LINE#         1965
  C:0AEFH         LINE#         1966
  C:0AF2H         LINE#         1967
  C:0AF9H         LINE#         1968
  C:0AF9H         LINE#         1969
  C:0B0CH         LINE#         1970
  C:0B0FH         LINE#         1971
  C:0B16H         LINE#         1972
  C:0B16H         LINE#         1973
  C:0B29H         LINE#         1974
  C:0B2BH         LINE#         1975
  C:0B32H         LINE#         1976
  C:0B32H         LINE#         1977
  C:0B45H         LINE#         1978
  C:0B47H         LINE#         1979
  C:0B4EH         LINE#         1980
  C:0B4EH         LINE#         1981
  C:0B61H         LINE#         1982
  C:0B63H         LINE#         1983
  C:0B6AH         LINE#         1984
  C:0B6AH         LINE#         1985
  C:0B7DH         LINE#         1986
  C:0B7FH         LINE#         1987
  C:0B86H         LINE#         1988
  C:0B86H         LINE#         1989
  C:0B9BH         LINE#         1990
  C:0B9EH         LINE#         1991
  C:0BA5H         LINE#         1992
  C:0BA5H         LINE#         1993
  C:0BBAH         LINE#         1994
  C:0BBDH         LINE#         1995
  C:0BC4H         LINE#         1996
  C:0BC4H         LINE#         1997
  C:0BD9H         LINE#         1998
  C:0BDCH         LINE#         1999
  C:0BE3H         LINE#         2000
  C:0BE3H         LINE#         2001
  C:0BF8H         LINE#         2002
  C:0BFAH         LINE#         2003
  C:0C01H         LINE#         2004
  C:0C01H         LINE#         2005
  C:0C16H         LINE#         2006
  C:0C18H         LINE#         2007
  C:0C1FH         LINE#         2008
  C:0C1FH         LINE#         2009
  C:0C34H         LINE#         2010
  C:0C36H         LINE#         2011
  C:0C3DH         LINE#         2012
  C:0C3DH         LINE#         2013
  C:0C52H         LINE#         2014
  C:0C54H         LINE#         2015
  C:0C5BH         LINE#         2016
  C:0C5BH         LINE#         2017
BL51 BANKED LINKER/LOCATER V6.22                                                      06/23/2017  13:33:26  PAGE 101


  C:0C75H         LINE#         2018
  C:0C75H         LINE#         2019
  C:0C75H         LINE#         2020
  C:0C75H         LINE#         2021
  C:0C75H         LINE#         2022
  C:0C75H         LINE#         2023
  -------         ENDPROC       BUS0RECDEAL
  -------         PROC          BUS0SENDDEAL
  C:D211H         LINE#         2041
  C:D211H         LINE#         2042
  C:D211H         LINE#         2044
  C:D213H         LINE#         2045
  C:D226H         LINE#         2046
  C:D228H         LINE#         2047
  C:D22AH         LINE#         2048
  C:D26BH         LINE#         2049
  C:D26BH         LINE#         2056
  C:D26BH         LINE#         2057
  C:D26BH         LINE#         2058
  C:D26BH         LINE#         2059
  C:D26BH         LINE#         2060
  C:D26BH         LINE#         2061
  C:D26EH         LINE#         2062
  C:D26EH         LINE#         2063
  C:D272H         LINE#         2064
  C:D272H         LINE#         2065
  C:D275H         LINE#         2066
  C:D275H         LINE#         2067
  C:D275H         LINE#         2068
  C:D275H         LINE#         2069
  C:D275H         LINE#         2070
  C:D275H         LINE#         2072
  C:D278H         LINE#         2073
  C:D278H         LINE#         2076
  C:D278H         LINE#         2077
  C:D27BH         LINE#         2078
  C:D27EH         LINE#         2081
  C:D280H         LINE#         2082
  C:D284H         LINE#         2083
  C:D287H         LINE#         2084
  C:D287H         LINE#         2085
  C:D291H         LINE#         2086
  C:D291H         LINE#         2087
  C:D291H         LINE#         2088
  C:D294H         LINE#         2089
  C:D294H         LINE#         2090
  C:D29AH         LINE#         2091
  C:D29AH         LINE#         2092
  C:D29CH         LINE#         2093
  C:D2A2H         LINE#         2094
  C:D2A2H         LINE#         2095
  C:D2A2H         LINE#         2096
  C:D2A5H         LINE#         2097
  C:D2A5H         LINE#         2098
  C:D2ACH         LINE#         2099
  C:D2ACH         LINE#         2100
  C:D2AFH         LINE#         2101
BL51 BANKED LINKER/LOCATER V6.22                                                      06/23/2017  13:33:26  PAGE 102


  C:D2B5H         LINE#         2102
  C:D2B5H         LINE#         2103
  C:D2BDH         LINE#         2104
  C:D2C5H         LINE#         2105
  C:D2CDH         LINE#         2106
  C:D2D1H         LINE#         2107
  C:D2D9H         LINE#         2108
  C:D2E1H         LINE#         2109
  C:D2E9H         LINE#         2110
  C:D2F2H         LINE#         2111
  C:D2F2H         LINE#         2112
  C:D2F2H         LINE#         2113
  C:D2F2H         LINE#         2114
  C:D2F2H         LINE#         2115
  C:D2F8H         LINE#         2116
  C:D2F8H         LINE#         2117
  C:D2FAH         LINE#         2118
  C:D2FCH         LINE#         2119
  C:D302H         LINE#         2120
  C:D302H         LINE#         2121
  C:D302H         LINE#         2122
  C:D304H         LINE#         2123
  C:D304H         LINE#         2125
  C:D30EH         LINE#         2126
  C:D311H         LINE#         2127
  C:D311H         LINE#         2128
  C:D311H         LINE#         2129
  C:D313H         LINE#         2130
  C:D313H         LINE#         2131
  C:D313H         LINE#         2132
  C:D313H         LINE#         2134
  C:D316H         LINE#         2135
  C:D316H         LINE#         2136
  C:D318H         LINE#         2137
  C:D31CH         LINE#         2138
  C:D31FH         LINE#         2139
  C:D31FH         LINE#         2140
  C:D31FH         LINE#         2141
  C:D322H         LINE#         2142
  C:D325H         LINE#         2143
  C:D325H         LINE#         2144
  C:D327H         LINE#         2146
  C:D32AH         LINE#         2147
  C:D32CH         LINE#         2148
  C:D335H         LINE#         2149
  C:D335H         LINE#         2150
  C:D33CH         LINE#         2151
  C:D33CH         LINE#         2152
  C:D33CH         LINE#         2154
  C:D346H         LINE#         2155
  C:D349H         LINE#         2156
  C:D349H         LINE#         2157
  C:D34CH         LINE#         2158
  C:D34CH         LINE#         2159
  C:D34CH         LINE#         2160
  C:D350H         LINE#         2161
  C:D356H         LINE#         2162
BL51 BANKED LINKER/LOCATER V6.22                                                      06/23/2017  13:33:26  PAGE 103


  C:D359H         LINE#         2163
  C:D35CH         LINE#         2164
  C:D35FH         LINE#         2165
  C:D35FH         LINE#         2166
  C:D361H         LINE#         2167
  C:D365H         LINE#         2168
  C:D368H         LINE#         2169
  C:D368H         LINE#         2170
  C:D368H         LINE#         2171
  C:D368H         LINE#         2172
  C:D36AH         LINE#         2173
  C:D36DH         LINE#         2174
  C:D36FH         LINE#         2175
  C:D373H         LINE#         2176
  C:D374H         LINE#         2177
  C:D374H         LINE#         2178
  C:D377H         LINE#         2179
  C:D377H         LINE#         2180
  C:D377H         LINE#         2181
  C:D37FH         LINE#         2182
  C:D37FH         LINE#         2183
  C:D37FH         LINE#         2184
  C:D381H         LINE#         2185
  C:D389H         LINE#         2186
  C:D38BH         LINE#         2187
  C:D38BH         LINE#         2188
  C:D38BH         LINE#         2189
  C:D38BH         LINE#         2190
  C:D38BH         LINE#         2191
  -------         ENDPROC       BUS0SENDDEAL
  -------         PROC          TIMEROUTDEAL
  -------         DO            
  C:BE61H         SYMBOL        Bus0BugRet
  -------         ENDDO         
  C:BB80H         LINE#         2208
  C:BB80H         LINE#         2209
  C:BB80H         LINE#         2211
  C:BB89H         LINE#         2212
  C:BB89H         LINE#         2213
  C:BB8BH         LINE#         2214
  C:BB91H         LINE#         2215
  C:BB91H         LINE#         2216
  C:BB95H         LINE#         2217
  C:BB95H         LINE#         2218
  C:BB98H         LINE#         2219
  C:BB98H         LINE#         2220
  C:BB98H         LINE#         2221
  C:BB98H         LINE#         2222
  C:BB98H         LINE#         2223
  C:BB98H         LINE#         2224
  C:BB98H         LINE#         2225
  C:BB98H         LINE#         2226
  C:BB98H         LINE#         2227
  C:BB98H         LINE#         2228
  C:BB9AH         LINE#         2229
  C:BBA4H         LINE#         2230
  C:BBA4H         LINE#         2231
BL51 BANKED LINKER/LOCATER V6.22                                                      06/23/2017  13:33:26  PAGE 104


  C:BBA4H         LINE#         2232
  C:BBA4H         LINE#         2233
  C:BBA4H         LINE#         2234
  C:BBA4H         LINE#         2235
  C:BBA4H         LINE#         2236
  C:BBA4H         LINE#         2237
  C:BBA4H         LINE#         2238
  C:BBA4H         LINE#         2239
  C:BBA6H         LINE#         2241
  C:BBA6H         LINE#         2242
  C:BBA6H         LINE#         2243
  C:BBA6H         LINE#         2244
  C:BBA6H         LINE#         2245
  C:BBA6H         LINE#         2246
  C:BBA9H         LINE#         2248
  C:BBA9H         LINE#         2249
  C:BBAFH         LINE#         2250
  C:BBB5H         LINE#         2251
  C:BBB5H         LINE#         2252
  C:BBB8H         LINE#         2253
  C:BBB8H         LINE#         2254
  C:BBC0H         LINE#         2255
  C:BBC8H         LINE#         2256
  C:BBD0H         LINE#         2257
  C:BBD4H         LINE#         2258
  C:BBDCH         LINE#         2259
  C:BBE4H         LINE#         2260
  C:BBE7H         LINE#         2261
  C:BBE7H         LINE#         2262
  C:BBE9H         LINE#         2263
  C:BBF3H         LINE#         2264
  C:BBF3H         LINE#         2265
  C:BBFBH         LINE#         2266
  C:BC03H         LINE#         2267
  C:BC0BH         LINE#         2268
  C:BC0FH         LINE#         2269
  C:BC17H         LINE#         2270
  C:BC1FH         LINE#         2271
  C:BC27H         LINE#         2272
  C:BC30H         LINE#         2273
  C:BC32H         LINE#         2275
  C:BC32H         LINE#         2276
  C:BC3EH         LINE#         2277
  C:BC41H         LINE#         2278
  C:BC44H         LINE#         2279
  C:BC44H         LINE#         2280
  C:BC46H         LINE#         2282
  C:BC46H         LINE#         2283
  C:BC4CH         LINE#         2284
  C:BC4CH         LINE#         2285
  C:BC4CH         LINE#         2286
  C:BC4CH         LINE#         2287
  C:BC4CH         LINE#         2289
  C:BC52H         LINE#         2290
  C:BC52H         LINE#         2291
  C:BC54H         LINE#         2292
  C:BC57H         LINE#         2293
BL51 BANKED LINKER/LOCATER V6.22                                                      06/23/2017  13:33:26  PAGE 105


  C:BC57H         LINE#         2294
  C:BC5BH         LINE#         2295
  C:BC5BH         LINE#         2296
  C:BC5EH         LINE#         2297
  C:BC5EH         LINE#         2298
  C:BC5EH         LINE#         2299
  C:BC5EH         LINE#         2300
  C:BC60H         LINE#         2301
  C:BC63H         LINE#         2302
  C:BC63H         LINE#         2303
  C:BC65H         LINE#         2304
  C:BC68H         LINE#         2305
  C:BC68H         LINE#         2306
  C:BC6AH         LINE#         2307
  C:BC6EH         LINE#         2308
  C:BC71H         LINE#         2309
  C:BC71H         LINE#         2310
  C:BC71H         LINE#         2311
  C:BC71H         LINE#         2312
  C:BC71H         LINE#         2313
  C:BC73H         LINE#         2315
  C:BC73H         LINE#         2316
  C:BC79H         LINE#         2317
  C:BC7CH         LINE#         2318
  C:BC7CH         LINE#         2319
  C:BC7FH         LINE#         2320
  C:BC7FH         LINE#         2321
  C:BC85H         LINE#         2322
  C:BC8EH         LINE#         2323
  C:BC90H         LINE#         2324
  C:BC93H         LINE#         2325
  C:BC93H         LINE#         2326
  C:BC95H         LINE#         2327
  C:BC98H         LINE#         2328
  C:BC98H         LINE#         2329
  C:BC9AH         LINE#         2330
  C:BC9EH         LINE#         2331
  C:BCA1H         LINE#         2332
  C:BCA1H         LINE#         2333
  C:BCA4H         LINE#         2334
  C:BCA7H         LINE#         2335
  C:BCA7H         LINE#         2336
  C:BCA9H         LINE#         2338
  C:BCA9H         LINE#         2339
  C:BCAFH         LINE#         2340
  C:BCAFH         LINE#         2341
  C:BCAFH         LINE#         2342
  C:BCAFH         LINE#         2343
  C:BCAFH         LINE#         2345
  C:BCB7H         LINE#         2346
  C:BCB7H         LINE#         2347
  C:BCBAH         LINE#         2348
  C:BCC4H         LINE#         2349
  C:BCC4H         LINE#         2350
  C:BCC6H         LINE#         2351
  C:BCCAH         LINE#         2352
  C:BCCAH         LINE#         2353
BL51 BANKED LINKER/LOCATER V6.22                                                      06/23/2017  13:33:26  PAGE 106


  C:BCCAH         LINE#         2354
  C:BCD2H         LINE#         2355
  C:BCD2H         LINE#         2356
  C:BCD5H         LINE#         2357
  C:BCDAH         LINE#         2358
  C:BCDAH         LINE#         2359
  C:BCDCH         LINE#         2363
  C:BCE0H         LINE#         2365
  C:BCE0H         LINE#         2366
  C:BCE7H         LINE#         2367
  C:BCE7H         LINE#         2368
  C:BCE9H         LINE#         2372
  C:BCEDH         LINE#         2374
  C:BCEDH         LINE#         2375
  C:BCF4H         LINE#         2376
  C:BCF4H         LINE#         2377
  C:BCF6H         LINE#         2381
  C:BCFAH         LINE#         2383
  C:BCFAH         LINE#         2384
  C:BCFAH         LINE#         2387
  C:BCFDH         LINE#         2388
  C:BCFDH         LINE#         2389
  C:BCFFH         LINE#         2390
  C:BD01H         LINE#         2391
  C:BD03H         LINE#         2392
  C:BD05H         LINE#         2395
  C:BD08H         LINE#         2396
  C:BD08H         LINE#         2397
  C:BD12H         LINE#         2398
  C:BD14H         LINE#         2399
  C:BD1BH         LINE#         2402
  C:BD2AH         LINE#         2403
  C:BD2AH         LINE#         2404
  C:BD2CH         LINE#         2405
  C:BD30H         LINE#         2406
  C:BD34H         LINE#         2407
  C:BD36H         LINE#         2408
  C:BD36H         LINE#         2410
  C:BD45H         LINE#         2411
  C:BD4CH         LINE#         2413
  C:BD5BH         LINE#         2414
  C:BD5BH         LINE#         2415
  C:BD5FH         LINE#         2416
  C:BD61H         LINE#         2417
  C:BD63H         LINE#         2418
  C:BD65H         LINE#         2419
  C:BD67H         LINE#         2420
  C:BD67H         LINE#         2423
  C:BD85H         LINE#         2424
  C:BD8CH         LINE#         2425
  C:BD9FH         LINE#         2426
  C:BD9FH         LINE#         2427
  C:BDA9H         LINE#         2428
  C:BDABH         LINE#         2432
  C:BDBAH         LINE#         2433
  C:BDC1H         LINE#         2436
  C:BDC1H         LINE#         2440
BL51 BANKED LINKER/LOCATER V6.22                                                      06/23/2017  13:33:26  PAGE 107


  C:BDD0H         LINE#         2441
  C:BDD7H         LINE#         2442
  C:BDE6H         LINE#         2443
  C:BDE6H         LINE#         2444
  C:BDEAH         LINE#         2445
  C:BDECH         LINE#         2446
  C:BDECH         LINE#         2450
  C:BDEFH         LINE#         2451
  C:BDEFH         LINE#         2452
  C:BDEFH         LINE#         2453
  C:BDF1H         LINE#         2455
  C:BDF1H         LINE#         2456
  C:BDF7H         LINE#         2457
  C:BDF7H         LINE#         2458
  C:BDFBH         LINE#         2459
  C:BDFBH         LINE#         2460
  C:BDFDH         LINE#         2461
  C:BDFFH         LINE#         2462
  C:BE06H         LINE#         2465
  C:BE09H         LINE#         2466
  C:BE09H         LINE#         2467
  C:BE0CH         LINE#         2469
  C:BE0CH         LINE#         2470
  C:BE0EH         LINE#         2471
  C:BE10H         LINE#         2473
  C:BE15H         LINE#         2474
  C:BE1CH         LINE#         2476
  C:BE21H         LINE#         2477
  C:BE28H         LINE#         2478
  C:BE2BH         LINE#         2481
  C:BE2DH         LINE#         2482
  C:BE33H         LINE#         2484
  C:BE38H         LINE#         2485
  C:BE3BH         LINE#         2486
  C:BE3BH         LINE#         2490
  C:BE3BH         LINE#         2491
  C:BE3EH         LINE#         2492
  C:BE40H         LINE#         2493
  C:BE42H         LINE#         2496
  C:BE42H         LINE#         2498
  C:BE44H         LINE#         2499
  C:BE46H         LINE#         2501
  C:BE4BH         LINE#         2502
  C:BE52H         LINE#         2503
  C:BE57H         LINE#         2504
  C:BE5EH         LINE#         2506
  C:BE61H         LINE#         2510
  C:BE61H         LINE#         2511
  C:BE66H         LINE#         2512
  C:BE69H         LINE#         2513
  C:BE6BH         LINE#         2514
  C:BE6DH         LINE#         2515
  C:BE73H         LINE#         2517
  C:BE73H         LINE#         2518
  C:BE73H         LINE#         2519
  C:BE73H         LINE#         2520
  C:BE73H         LINE#         2521
BL51 BANKED LINKER/LOCATER V6.22                                                      06/23/2017  13:33:26  PAGE 108


  -------         ENDPROC       TIMEROUTDEAL
  -------         ENDMOD        SINGLEBUS

  -------         MODULE        SPI
  C:0000H         SYMBOL        _ICE_DUMMY_
  C:E3EBH         PUBLIC        _FmWriteBytes1
  D:0080H         PUBLIC        P0
  D:0090H         PUBLIC        P1
  D:00B4H         PUBLIC        P4M0
  D:00A0H         PUBLIC        P2
  D:00B3H         PUBLIC        P4M1
  D:00B0H         PUBLIC        P3
  D:00C0H         PUBLIC        P4
  D:00C8H         PUBLIC        P5
  D:00CEH         PUBLIC        SPCTL
  C:E958H         PUBLIC        _FmWriteByte1
  C:EBF5H         PUBLIC        READ_ID
  X:0109H         PUBLIC        Modify_SEC_Name
  D:00A8H         PUBLIC        IE
  C:EA8FH         PUBLIC        _SpiTransferByte
  C:C8E0H         PUBLIC        _Get_GT23_Data1
  C:ECDCH         PUBLIC        Read_Status_Register
  X:010AH         PUBLIC        GT23_32Address
  D:00B8H         PUBLIC        IP
  C:EC65H         PUBLIC        Wait_Busy
  D:00D8H         PUBLIC        CCON
  C:E7A5H         PUBLIC        ReadParameter
  C:EC13H         PUBLIC        _Delay_nus
  X:010EH         PUBLIC        FRAM_BUFF
  D:0098H         PUBLIC        SCON
  D:0088H         PUBLIC        TCON
  X:011AH         PUBLIC        ID_Number_Flag
  C:E468H         PUBLIC        SaveParameter
  X:011BH         PUBLIC        Modify_Room_Number
  C:ED05H         PUBLIC        WREN
  C:C403H         PUBLIC        ParameterInit
  X:011CH         PUBLIC        GT23_Rec_Length
  C:E8D4H         PUBLIC        SpiInit
  C:EA06H         PUBLIC        _Sector_Erase
  D:00E0H         PUBLIC        ACC
  C:E086H         PUBLIC        FRAM_TEST
  C:E771H         PUBLIC        _FmReadByte
  C:DF30H         PUBLIC        _FmWriteBytes
  C:EA39H         PUBLIC        _FmWriteByte
  X:011DH         PUBLIC        GT23_Rec_Data
  X:019DH         PUBLIC        ID_Number
  X:019EH         PUBLIC        GT23_16HAddress
  C:CB15H         PUBLIC        _Get_GT23_Data
  X:01A0H         PUBLIC        GT23_16LAddress
  D:00CDH         PUBLIC        SPSTAT
  B:00C0H.5       PUBLIC        SST_CS
  C:E1C7H         PUBLIC        _Read_Cont
  D:00D0H         PUBLIC        PSW
  D:00CFH         PUBLIC        SPDAT
  -------         PROC          _DELAY_NUS
  D:0007H         SYMBOL        i
  -------         DO            
BL51 BANKED LINKER/LOCATER V6.22                                                      06/23/2017  13:33:26  PAGE 109


  X:01E7H         SYMBOL        j
  -------         ENDDO         
  C:EC13H         LINE#         60
  C:EC13H         LINE#         61
  C:EC13H         LINE#         63
  C:EC19H         LINE#         64
  C:EC19H         LINE#         65
  C:EC28H         LINE#         66
  C:EC2BH         LINE#         67
  -------         ENDPROC       _DELAY_NUS
  C:EA86H         SYMBOL        L?0101
  C:EA8BH         SYMBOL        L?0102
  -------         PROC          L?0100
  -------         ENDPROC       L?0100
  C:EA86H         SYMBOL        L?0101
  C:EA8BH         SYMBOL        L?0102
  -------         PROC          _SPITRANSFERBYTE
  D:0007H         SYMBOL        byData
  C:EA8FH         LINE#         83
  C:EA8FH         LINE#         84
  C:EA8FH         LINE#         85
  C:EA91H         LINE#         86
  C:EA96H         LINE#         87
  C:EA99H         LINE#         88
  C:EA9BH         LINE#         89
  -------         ENDPROC       _SPITRANSFERBYTE
  -------         PROC          READ_ID
  -------         DO            
  D:0007H         SYMBOL        byRet
  -------         ENDDO         
  C:EBF5H         LINE#         90
  C:EBF5H         LINE#         91
  C:EBF5H         LINE#         93
  C:EBF7H         LINE#         94
  C:EBFCH         LINE#         95
  C:EC01H         LINE#         96
  C:EC06H         LINE#         97
  C:EC0BH         LINE#         98
  C:EC10H         LINE#         99
  C:EC12H         LINE#         100
  C:EC12H         LINE#         101
  -------         ENDPROC       READ_ID
  -------         PROC          SPIINIT
  C:E8D4H         LINE#         117
  C:E8D4H         LINE#         118
  C:E8D4H         LINE#         119
  C:E8D7H         LINE#         120
  C:E8DAH         LINE#         121
  C:E8DDH         LINE#         122
  C:E8E0H         LINE#         123
  C:E8E2H         LINE#         124
  C:E8E7H         LINE#         125
  C:E8E9H         LINE#         126
  C:E8EBH         LINE#         127
  C:E8F0H         LINE#         128
  C:E8F5H         LINE#         129
  C:E8F7H         LINE#         130
BL51 BANKED LINKER/LOCATER V6.22                                                      06/23/2017  13:33:26  PAGE 110


  C:E8FFH         LINE#         131
  C:E902H         LINE#         132
  C:E909H         LINE#         133
  C:E910H         LINE#         134
  C:E916H         LINE#         135
  -------         ENDPROC       SPIINIT
  -------         PROC          READ_STATUS_REGISTER
  -------         DO            
  D:0007H         SYMBOL        byRet
  -------         ENDDO         
  C:ECDCH         LINE#         151
  C:ECDCH         LINE#         152
  C:ECDCH         LINE#         154
  C:ECDEH         LINE#         155
  C:ECE3H         LINE#         156
  C:ECE8H         LINE#         157
  C:ECEAH         LINE#         158
  C:ECEAH         LINE#         159
  -------         ENDPROC       READ_STATUS_REGISTER
  C:EC5CH         SYMBOL        L?0106
  C:EC60H         SYMBOL        L?0107
  -------         PROC          L?0105
  -------         ENDPROC       L?0105
  C:EC5CH         SYMBOL        L?0106
  C:EC60H         SYMBOL        L?0107
  -------         PROC          WAIT_BUSY
  C:EC65H         LINE#         175
  C:EC65H         LINE#         176
  C:EC65H         LINE#         177
  C:EC6CH         LINE#         178
  C:EC6CH         LINE#         179
  C:EC71H         LINE#         180
  C:EC73H         LINE#         181
  -------         ENDPROC       WAIT_BUSY
  C:E76BH         SYMBOL        L?0104
  -------         PROC          L?0103
  -------         ENDPROC       L?0103
  C:E76BH         SYMBOL        L?0104
  -------         PROC          _FMREADBYTE
  D:0031H         SYMBOL        uiAddr
  -------         DO            
  D:0007H         SYMBOL        byRet
  -------         ENDDO         
  C:E771H         LINE#         197
  C:E779H         LINE#         198
  C:E779H         LINE#         200
  C:E77BH         LINE#         201
  C:E780H         LINE#         202
  C:E78FH         LINE#         203
  C:E797H         LINE#         204
  C:E79DH         LINE#         205
  C:E7A2H         LINE#         206
  C:E7A4H         LINE#         207
  C:E7A4H         LINE#         208
  -------         ENDPROC       _FMREADBYTE
  -------         PROC          _READ_CONT
  D:003DH         SYMBOL        pBuffer
BL51 BANKED LINKER/LOCATER V6.22                                                      06/23/2017  13:33:26  PAGE 111


  D:0040H         SYMBOL        Dst
  D:0044H         SYMBOL        no_bytes
  -------         DO            
  D:0048H         SYMBOL        i
  -------         ENDDO         
  C:E1C7H         LINE#         225
  C:E1D5H         LINE#         226
  C:E1D5H         LINE#         227
  C:E1DEH         LINE#         228
  C:E1E0H         LINE#         229
  C:E1E5H         LINE#         230
  C:E1F8H         LINE#         231
  C:E200H         LINE#         232
  C:E206H         LINE#         233
  C:E225H         LINE#         234
  C:E225H         LINE#         235
  C:E23AH         LINE#         236
  C:E254H         LINE#         237
  C:E256H         LINE#         239
  -------         ENDPROC       _READ_CONT
  -------         PROC          _FMWRITEBYTE
  D:002FH         SYMBOL        uiAddr
  D:0033H         SYMBOL        byData
  C:EA39H         LINE#         256
  C:EA41H         LINE#         257
  C:EA41H         LINE#         258
  C:EA41H         LINE#         259
  C:EA41H         LINE#         260
  C:EA41H         LINE#         261
  C:EA44H         LINE#         262
  C:EA46H         LINE#         263
  C:EA48H         LINE#         264
  C:EA48H         LINE#         265
  C:EA4BH         LINE#         266
  C:EA4EH         LINE#         267
  C:EA4EH         LINE#         268
  C:EA51H         LINE#         269
  C:EA51H         LINE#         270
  C:EA51H         LINE#         271
  C:EA51H         LINE#         272
  C:EA54H         LINE#         273
  C:EA56H         LINE#         274
  C:EA58H         LINE#         275
  C:EA58H         LINE#         276
  C:EA5BH         LINE#         277
  C:EA61H         LINE#         278
  C:EA66H         LINE#         279
  C:EA68H         LINE#         280
  -------         ENDPROC       _FMWRITEBYTE
  -------         PROC          _FMWRITEBYTE1
  D:0063H         SYMBOL        uiAddr
  D:0067H         SYMBOL        byData
  C:E958H         LINE#         284
  C:E960H         LINE#         285
  C:E960H         LINE#         287
  C:E960H         LINE#         288
  C:E960H         LINE#         289
BL51 BANKED LINKER/LOCATER V6.22                                                      06/23/2017  13:33:26  PAGE 112


  C:E960H         LINE#         290
  C:E963H         LINE#         291
  C:E965H         LINE#         292
  C:E96AH         LINE#         293
  C:E97DH         LINE#         294
  C:E985H         LINE#         295
  C:E98BH         LINE#         296
  C:E990H         LINE#         297
  C:E992H         LINE#         298
  -------         ENDPROC       _FMWRITEBYTE1
  -------         PROC          _FMWRITEBYTES
  D:002EH         SYMBOL        uiAddr
  D:0032H         SYMBOL        uiLen
  D:0034H         SYMBOL        pbyData
  C:DF30H         LINE#         318
  C:DF38H         LINE#         319
  C:DF38H         LINE#         320
  C:DF41H         LINE#         321
  C:DF41H         LINE#         323
  C:DF41H         LINE#         324
  C:DF41H         LINE#         325
  C:DF41H         LINE#         326
  C:DF41H         LINE#         327
  C:DF44H         LINE#         328
  C:DF46H         LINE#         329
  C:DF4BH         LINE#         330
  C:DF5EH         LINE#         331
  C:DF66H         LINE#         332
  C:DF6CH         LINE#         333
  C:DF6CH         LINE#         334
  C:DF6EH         LINE#         335
  C:DF7BH         LINE#         336
  C:DF7BH         LINE#         337
  C:DF7BH         LINE#         338
  C:DF7BH         LINE#         339
  C:DF7BH         LINE#         340
  C:DF7EH         LINE#         341
  C:DF80H         LINE#         342
  C:DF85H         LINE#         343
  C:DF98H         LINE#         344
  C:DFA0H         LINE#         345
  C:DFA6H         LINE#         346
  C:DFB6H         LINE#         347
  C:DFCEH         LINE#         348
  C:DFD0H         LINE#         349
  C:DFD3H         LINE#         350
  C:DFD5H         LINE#         351
  C:DFD7H         LINE#         352
  C:DFD9H         LINE#         353
  C:DFD9H         LINE#         354
  C:DFDCH         LINE#         355
  -------         ENDPROC       _FMWRITEBYTES
  -------         PROC          _FMWRITEBYTES1
  D:005AH         SYMBOL        uiAddr
  D:005EH         SYMBOL        uiLen
  D:0060H         SYMBOL        pbyData
  C:E3EBH         LINE#         430
BL51 BANKED LINKER/LOCATER V6.22                                                      06/23/2017  13:33:26  PAGE 113


  C:E3F3H         LINE#         431
  C:E3F3H         LINE#         432
  C:E3F9H         LINE#         433
  C:E3F9H         LINE#         435
  C:E3F9H         LINE#         437
  C:E406H         LINE#         438
  C:E406H         LINE#         439
  C:E406H         LINE#         440
  C:E406H         LINE#         441
  C:E406H         LINE#         442
  C:E409H         LINE#         443
  C:E40BH         LINE#         444
  C:E410H         LINE#         445
  C:E423H         LINE#         446
  C:E42BH         LINE#         447
  C:E431H         LINE#         448
  C:E441H         LINE#         449
  C:E459H         LINE#         450
  C:E45BH         LINE#         451
  C:E45EH         LINE#         452
  C:E460H         LINE#         453
  C:E462H         LINE#         454
  C:E464H         LINE#         455
  C:E464H         LINE#         456
  C:E467H         LINE#         457
  -------         ENDPROC       _FMWRITEBYTES1
  -------         PROC          READPARAMETER
  C:E7A5H         LINE#         474
  C:E7A5H         LINE#         475
  C:E7A5H         LINE#         476
  C:E7AFH         LINE#         477
  C:E7B9H         LINE#         478
  C:E7BFH         LINE#         479
  C:E7C4H         LINE#         480
  C:E7CEH         LINE#         481
  C:E7CEH         LINE#         482
  C:E7E8H         LINE#         483
  C:E7EAH         LINE#         484
  C:E7EDH         LINE#         486
  C:E7F3H         LINE#         487
  C:E7F7H         LINE#         488
  -------         ENDPROC       READPARAMETER
  -------         PROC          SAVEPARAMETER
  C:E468H         LINE#         505
  C:E468H         LINE#         506
  C:E468H         LINE#         507
  C:E472H         LINE#         508
  C:E47CH         LINE#         509
  C:E482H         LINE#         510
  C:E487H         LINE#         511
  C:E48EH         LINE#         512
  C:E493H         LINE#         513
  C:E49DH         LINE#         514
  C:E49DH         LINE#         515
  C:E4B7H         LINE#         516
  C:E4B9H         LINE#         518
  C:E4BFH         LINE#         519
BL51 BANKED LINKER/LOCATER V6.22                                                      06/23/2017  13:33:26  PAGE 114


  C:E4C3H         LINE#         520
  C:E4C6H         LINE#         521
  C:E4CBH         LINE#         522
  C:E4D1H         LINE#         523
  C:E4D6H         LINE#         524
  C:E4DEH         LINE#         525
  -------         ENDPROC       SAVEPARAMETER
  -------         PROC          PARAMETERINIT
  -------         DO            
  D:0003H         SYMBOL        byTemp
  -------         ENDDO         
  C:C403H         LINE#         542
  C:C403H         LINE#         543
  C:C403H         LINE#         546
  C:C408H         LINE#         547
  C:C411H         LINE#         548
  C:C411H         LINE#         549
  C:C414H         LINE#         550
  C:C417H         LINE#         552
  C:C417H         LINE#         553
  C:C420H         LINE#         554
  C:C429H         LINE#         555
  C:C432H         LINE#         556
  C:C440H         LINE#         557
  C:C446H         LINE#         559
  C:C44FH         LINE#         560
  C:C458H         LINE#         561
  C:C461H         LINE#         562
  C:C46AH         LINE#         563
  C:C473H         LINE#         564
  C:C47CH         LINE#         565
  C:C485H         LINE#         566
  C:C48EH         LINE#         567
  C:C497H         LINE#         568
  C:C4A0H         LINE#         569
  C:C4A9H         LINE#         570
  C:C4B2H         LINE#         571
  C:C4BBH         LINE#         572
  C:C4C4H         LINE#         573
  C:C4CDH         LINE#         574
  C:C4D6H         LINE#         575
  C:C4DFH         LINE#         576
  C:C4E8H         LINE#         577
  C:C4F1H         LINE#         578
  C:C4FAH         LINE#         579
  C:C503H         LINE#         580
  C:C50CH         LINE#         581
  C:C515H         LINE#         582
  C:C51EH         LINE#         583
  C:C527H         LINE#         584
  C:C530H         LINE#         585
  C:C539H         LINE#         586
  C:C53FH         LINE#         587
  C:C543H         LINE#         588
  C:C543H         LINE#         590
  C:C550H         LINE#         591
  C:C555H         LINE#         592
BL51 BANKED LINKER/LOCATER V6.22                                                      06/23/2017  13:33:26  PAGE 115


  C:C555H         LINE#         593
  C:C563H         LINE#         594
  C:C56DH         LINE#         595
  C:C56DH         LINE#         596
  C:C575H         LINE#         597
  C:C57DH         LINE#         598
  C:C585H         LINE#         599
  C:C58DH         LINE#         600
  C:C595H         LINE#         601
  C:C598H         LINE#         603
  C:C598H         LINE#         604
  C:C5A3H         LINE#         605
  C:C5A8H         LINE#         606
  C:C5A8H         LINE#         607
  C:C5B6H         LINE#         608
  C:C5C0H         LINE#         609
  C:C5C0H         LINE#         610
  C:C5C8H         LINE#         611
  C:C5D0H         LINE#         612
  C:C5D8H         LINE#         613
  C:C5E0H         LINE#         614
  C:C5E9H         LINE#         616
  C:C5E9H         LINE#         617
  C:C5F7H         LINE#         618
  C:C603H         LINE#         619
  C:C603H         LINE#         620
  C:C613H         LINE#         621
  C:C65DH         LINE#         622
  C:C65DH         LINE#         623
  C:C662H         LINE#         624
  C:C664H         LINE#         626
  C:C669H         LINE#         627
  C:C677H         LINE#         628
  C:C67BH         LINE#         630
  C:C67DH         LINE#         631
  C:C68DH         LINE#         632
  -------         ENDPROC       PARAMETERINIT
  -------         PROC          _GET_GT23_DATA
  D:003AH         SYMBOL        highbyte
  D:003BH         SYMBOL        lowbyte
  D:003CH         SYMBOL        word_size
  -------         DO            
  X:0208H         SYMBOL        address1
  X:020CH         SYMBOL        address2
  X:0210H         SYMBOL        address3
  X:0214H         SYMBOL        address4
  -------         ENDDO         
  C:CB15H         LINE#         648
  C:CB1BH         LINE#         649
  C:CB1BH         LINE#         652
  C:CB35H         LINE#         653
  C:CB35H         LINE#         654
  C:CB40H         LINE#         655
  C:CB40H         LINE#         656
  C:CB40H         LINE#         657
  C:CB40H         LINE#         658
  C:CB60H         LINE#         659
BL51 BANKED LINKER/LOCATER V6.22                                                      06/23/2017  13:33:26  PAGE 116


  C:CB6CH         LINE#         660
  C:CB76H         LINE#         661
  C:CB79H         LINE#         663
  C:CB79H         LINE#         664
  C:CB91H         LINE#         665
  C:CBABH         LINE#         666
  C:CBB5H         LINE#         667
  C:CBB7H         LINE#         669
  C:CBB7H         LINE#         670
  C:CBD4H         LINE#         671
  C:CBEEH         LINE#         672
  C:CC01H         LINE#         673
  C:CC04H         LINE#         683
  C:CC04H         LINE#         685
  C:CC04H         LINE#         686
  C:CC2CH         LINE#         687
  C:CC2CH         LINE#         688
  C:CC34H         LINE#         689
  C:CC34H         LINE#         690
  C:CC34H         LINE#         691
  C:CC34H         LINE#         692
  C:CC4CH         LINE#         693
  C:CC67H         LINE#         694
  C:CC7CH         LINE#         695
  C:CC95H         LINE#         696
  C:CCA8H         LINE#         697
  C:CCAAH         LINE#         698
  C:CCAAH         LINE#         699
  C:CCC2H         LINE#         700
  C:CCDDH         LINE#         701
  C:CCF2H         LINE#         702
  C:CD0DH         LINE#         703
  C:CD26H         LINE#         704
  C:CD26H         LINE#         705
  C:CD26H         LINE#         706
  C:CD26H         LINE#         708
  -------         ENDPROC       _GET_GT23_DATA
  -------         PROC          _GET_GT23_DATA1
  D:0001H         SYMBOL        word
  D:002EH         SYMBOL        word_size
  -------         DO            
  X:01EBH         SYMBOL        address1
  X:01EFH         SYMBOL        address2
  X:01F3H         SYMBOL        address3
  X:01F7H         SYMBOL        address4
  X:01FBH         SYMBOL        highbyte
  X:01FCH         SYMBOL        lowbyte
  -------         ENDDO         
  C:C8E0H         LINE#         727
  C:C8E2H         LINE#         728
  C:C8E2H         LINE#         731
  C:C8EAH         LINE#         732
  C:C8F1H         LINE#         733
  C:C8F8H         LINE#         734
  C:C910H         LINE#         735
  C:C910H         LINE#         736
  C:C91EH         LINE#         737
BL51 BANKED LINKER/LOCATER V6.22                                                      06/23/2017  13:33:26  PAGE 117


  C:C91EH         LINE#         738
  C:C91EH         LINE#         739
  C:C91EH         LINE#         740
  C:C940H         LINE#         741
  C:C94CH         LINE#         742
  C:C956H         LINE#         743
  C:C959H         LINE#         745
  C:C959H         LINE#         746
  C:C973H         LINE#         747
  C:C98DH         LINE#         748
  C:C997H         LINE#         749
  C:C999H         LINE#         751
  C:C999H         LINE#         752
  C:C9B8H         LINE#         753
  C:C9D2H         LINE#         754
  C:C9E5H         LINE#         755
  C:C9E8H         LINE#         765
  C:C9E8H         LINE#         767
  C:C9E8H         LINE#         768
  C:CA12H         LINE#         769
  C:CA12H         LINE#         770
  C:CA1AH         LINE#         771
  C:CA1AH         LINE#         772
  C:CA1AH         LINE#         773
  C:CA1AH         LINE#         774
  C:CA34H         LINE#         775
  C:CA51H         LINE#         776
  C:CA66H         LINE#         777
  C:CA7FH         LINE#         778
  C:CA92H         LINE#         779
  C:CA94H         LINE#         780
  C:CA94H         LINE#         781
  C:CAAEH         LINE#         782
  C:CACBH         LINE#         783
  C:CAE0H         LINE#         784
  C:CAFBH         LINE#         785
  C:CB14H         LINE#         786
  C:CB14H         LINE#         787
  C:CB14H         LINE#         788
  C:CB14H         LINE#         790
  -------         ENDPROC       _GET_GT23_DATA1
  -------         PROC          WREN
  C:ED05H         LINE#         805
  C:ED05H         LINE#         806
  C:ED05H         LINE#         807
  C:ED07H         LINE#         808
  C:ED0CH         LINE#         809
  C:ED0EH         LINE#         810
  -------         ENDPROC       WREN
  -------         PROC          _SECTOR_ERASE
  D:0068H         SYMBOL        Dst
  C:EA06H         LINE#         825
  C:EA0EH         LINE#         826
  C:EA0EH         LINE#         829
  C:EA10H         LINE#         830
  C:EA15H         LINE#         831
  C:EA28H         LINE#         832
BL51 BANKED LINKER/LOCATER V6.22                                                      06/23/2017  13:33:26  PAGE 118


  C:EA30H         LINE#         833
  C:EA36H         LINE#         834
  C:EA38H         LINE#         835
  -------         ENDPROC       _SECTOR_ERASE
  -------         PROC          FRAM_TEST
  -------         DO            
  D:0007H         SYMBOL        i
  -------         ENDDO         
  C:E086H         LINE#         852
  C:E086H         LINE#         853
  C:E086H         LINE#         856
  C:E08CH         LINE#         857
  C:E090H         LINE#         858
  C:E094H         LINE#         859
  C:E098H         LINE#         860
  C:E09CH         LINE#         861
  C:E0A0H         LINE#         863
  C:E0A4H         LINE#         864
  C:E0A8H         LINE#         865
  C:E0ACH         LINE#         866
  C:E0B0H         LINE#         867
  C:E0B4H         LINE#         870
  C:E0C5H         LINE#         871
  C:E0DFH         LINE#         873
  C:E0E9H         LINE#         874
  C:E0F0H         LINE#         876
  C:E100H         LINE#         877
  C:E11AH         LINE#         878
  C:E121H         LINE#         880
  -------         ENDPROC       FRAM_TEST
  -------         ENDMOD        SPI

  -------         MODULE        UART
  C:0000H         SYMBOL        _ICE_DUMMY_
  D:0080H         PUBLIC        P0
  X:0000H         PUBLIC        byUartBuff
  D:0090H         PUBLIC        P1
  D:00A0H         PUBLIC        P2
  D:00B0H         PUBLIC        P3
  D:00C0H         PUBLIC        P4
  D:00C8H         PUBLIC        P5
  B:00B0H.5       PUBLIC        LCD_LED
  D:00A8H         PUBLIC        IE
  C:C144H         PUBLIC        UartDeal
  B:00A8H.4       PUBLIC        ES
  D:00B8H         PUBLIC        IP
  B:0098H.0       PUBLIC        RI
  B:0098H.1       PUBLIC        TI
  D:00D8H         PUBLIC        CCON
  C:D38CH         PUBLIC        comm
  D:0099H         PUBLIC        SBUF
  D:0087H         PUBLIC        PCON
  D:0098H         PUBLIC        SCON
  C:DB96H         PUBLIC        UartInit
  D:0089H         PUBLIC        TMOD
  D:0088H         PUBLIC        TCON
  D:008EH         PUBLIC        AUXR
BL51 BANKED LINKER/LOCATER V6.22                                                      06/23/2017  13:33:26  PAGE 119


  D:00E0H         PUBLIC        ACC
  D:008DH         PUBLIC        TH1
  D:008BH         PUBLIC        TL1
  B:0088H.6       PUBLIC        TR1
  C:ED11H         PUBLIC        _Send_Data_Byte
  X:00FFH         PUBLIC        Page_Color
  X:0104H         PUBLIC        Fbaud
  C:EAF6H         PUBLIC        _Send_Data
  X:0108H         PUBLIC        Fbaud_Type
  D:006EH         PUBLIC        byUsartData
  I:008CH         PUBLIC        stUartControl
  D:00D0H         PUBLIC        PSW
  -------         PROC          UARTINIT
  C:DB96H         LINE#         52
  C:DB96H         LINE#         53
  C:DB96H         LINE#         55
  C:DB9AH         LINE#         56
  C:DB9CH         LINE#         57
  C:DB9EH         LINE#         59
  C:DBA1H         LINE#         60
  C:DBA4H         LINE#         61
  C:DBA7H         LINE#         62
  C:DBAAH         LINE#         68
  C:DBBBH         LINE#         69
  C:DBBBH         LINE#         70
  C:DBC9H         LINE#         71
  C:DBEEH         LINE#         72
  C:DBEEH         LINE#         73
  C:DBEEH         LINE#         74
  C:DBF8H         LINE#         75
  C:DBFAH         LINE#         76
  C:DBFAH         LINE#         77
  C:DC04H         LINE#         78
  C:DC06H         LINE#         79
  C:DC06H         LINE#         80
  C:DC10H         LINE#         81
  C:DC12H         LINE#         82
  C:DC12H         LINE#         83
  C:DC1CH         LINE#         84
  C:DC1EH         LINE#         85
  C:DC1EH         LINE#         86
  C:DC28H         LINE#         87
  C:DC2AH         LINE#         88
  C:DC2AH         LINE#         89
  C:DC34H         LINE#         90
  C:DC36H         LINE#         91
  C:DC36H         LINE#         92
  C:DC40H         LINE#         93
  C:DC42H         LINE#         94
  C:DC42H         LINE#         95
  C:DC4CH         LINE#         96
  C:DC4EH         LINE#         97
  C:DC4EH         LINE#         98
  C:DC4EH         LINE#         99
  C:DC50H         LINE#         100
  C:DC50H         LINE#         101
  C:DC5AH         LINE#         102
BL51 BANKED LINKER/LOCATER V6.22                                                      06/23/2017  13:33:26  PAGE 120


  C:DC5CH         LINE#         103
  C:DC5CH         LINE#         104
  C:DC5CH         LINE#         106
  C:DC5CH         LINE#         107
  C:DC66H         LINE#         108
  C:DC66H         LINE#         109
  C:DC79H         LINE#         110
  C:DC79H         LINE#         111
  C:DC87H         LINE#         112
  C:DC89H         LINE#         114
  C:DC89H         LINE#         115
  C:DC8CH         LINE#         116
  C:DCADH         LINE#         117
  C:DCADH         LINE#         120
  C:DCAFH         LINE#         121
  C:DCB1H         LINE#         122
  -------         ENDPROC       UARTINIT
  -------         PROC          UARTDEAL
  -------         DO            
  C:C3C9H         SYMBOL        ExitDeal
  -------         ENDDO         
  C:C144H         LINE#         138
  C:C144H         LINE#         139
  C:C144H         LINE#         143
  C:C14BH         LINE#         144
  C:C14BH         LINE#         145
  C:C151H         LINE#         146
  C:C159H         LINE#         147
  C:C161H         LINE#         148
  C:C167H         LINE#         149
  C:C16CH         LINE#         150
  C:C16FH         LINE#         151
  C:C171H         LINE#         152
  C:C174H         LINE#         156
  C:C174H         LINE#         159
  C:C185H         LINE#         160
  C:C185H         LINE#         162
  C:C185H         LINE#         163
  C:C196H         LINE#         164
  C:C196H         LINE#         166
  C:C196H         LINE#         167
  C:C1A7H         LINE#         168
  C:C1A7H         LINE#         170
  C:C1A7H         LINE#         171
  C:C1B2H         LINE#         172
  C:C1B2H         LINE#         173
  C:C1BCH         LINE#         175
  C:C1C6H         LINE#         176
  C:C1D4H         LINE#         177
  C:C1D4H         LINE#         178
  C:C1D4H         LINE#         179
  C:C1D7H         LINE#         180
  C:C1D7H         LINE#         181
  C:C1E1H         LINE#         182
  C:C1F1H         LINE#         183
  C:C1F1H         LINE#         184
  C:C1F1H         LINE#         185
BL51 BANKED LINKER/LOCATER V6.22                                                      06/23/2017  13:33:26  PAGE 121


  C:C1F4H         LINE#         186
  C:C1F4H         LINE#         187
  C:C1FEH         LINE#         188
  C:C210H         LINE#         189
  C:C210H         LINE#         190
  C:C210H         LINE#         191
  C:C213H         LINE#         192
  C:C213H         LINE#         193
  C:C222H         LINE#         194
  C:C23CH         LINE#         195
  C:C246H         LINE#         196
  C:C258H         LINE#         197
  C:C258H         LINE#         198
  C:C258H         LINE#         199
  C:C25BH         LINE#         200
  C:C25BH         LINE#         201
  C:C260H         LINE#         204
  C:C266H         LINE#         205
  C:C26EH         LINE#         206
  C:C276H         LINE#         207
  C:C27CH         LINE#         208
  C:C284H         LINE#         209
  C:C28CH         LINE#         210
  C:C294H         LINE#         211
  C:C29DH         LINE#         213
  C:C2A6H         LINE#         214
  C:C2A6H         LINE#         215
  C:C2D3H         LINE#         216
  C:C2E7H         LINE#         217
  C:C2EFH         LINE#         218
  C:C2FEH         LINE#         219
  C:C2FEH         LINE#         220
  C:C304H         LINE#         221
  C:C311H         LINE#         222
  C:C317H         LINE#         223
  C:C317H         LINE#         225
  C:C321H         LINE#         226
  C:C348H         LINE#         227
  C:C352H         LINE#         228
  C:C36BH         LINE#         229
  C:C379H         LINE#         230
  C:C387H         LINE#         231
  C:C395H         LINE#         232
  C:C3A3H         LINE#         233
  C:C3B1H         LINE#         234
  C:C3B9H         LINE#         235
  C:C3B9H         LINE#         236
  C:C3BCH         LINE#         237
  C:C3C0H         LINE#         238
  C:C3C3H         LINE#         239
  C:C3C3H         LINE#         240
  C:C3C3H         LINE#         242
  C:C3C3H         LINE#         243
  C:C3C9H         LINE#         244
  C:C3C9H         LINE#         245
  C:C3D1H         LINE#         246
  C:C3D9H         LINE#         247
BL51 BANKED LINKER/LOCATER V6.22                                                      06/23/2017  13:33:26  PAGE 122


  C:C3E1H         LINE#         248
  C:C3E9H         LINE#         249
  C:C3F1H         LINE#         250
  C:C3F9H         LINE#         251
  C:C402H         LINE#         252
  -------         ENDPROC       UARTDEAL
  -------         PROC          COMM
  C:D38CH         LINE#         269
  C:D3ABH         LINE#         271
  C:D3B1H         LINE#         272
  C:D3B1H         LINE#         273
  C:D3B3H         LINE#         275
  C:D3B6H         LINE#         277
  C:D3BDH         LINE#         278
  C:D3DCH         LINE#         279
  C:D3DCH         LINE#         352
  C:D3DCH         LINE#         353
  C:D3E1H         LINE#         354
  C:D3E1H         LINE#         355
  C:D3E5H         LINE#         356
  C:D3E9H         LINE#         357
  C:D3EBH         LINE#         358
  C:D3EBH         LINE#         360
  C:D3EEH         LINE#         362
  C:D3EEH         LINE#         363
  C:D3F2H         LINE#         364
  C:D3F2H         LINE#         365
  C:D3F5H         LINE#         366
  C:D3F5H         LINE#         367
  C:D3FBH         LINE#         368
  C:D40AH         LINE#         369
  C:D413H         LINE#         370
  C:D413H         LINE#         371
  C:D417H         LINE#         372
  C:D41BH         LINE#         376
  C:D426H         LINE#         377
  C:D426H         LINE#         379
  C:D42AH         LINE#         380
  C:D42EH         LINE#         381
  C:D42EH         LINE#         384
  C:D42EH         LINE#         385
  C:D431H         LINE#         386
  C:D431H         LINE#         387
  C:D437H         LINE#         388
  C:D446H         LINE#         389
  C:D44FH         LINE#         390
  C:D44FH         LINE#         391
  C:D44FH         LINE#         393
  C:D44FH         LINE#         394
  C:D451H         LINE#         395
  C:D451H         LINE#         396
  C:D457H         LINE#         397
  C:D466H         LINE#         399
  C:D469H         LINE#         400
  C:D46EH         LINE#         401
  C:D46EH         LINE#         402
  C:D478H         LINE#         403
BL51 BANKED LINKER/LOCATER V6.22                                                      06/23/2017  13:33:26  PAGE 123


  C:D47AH         LINE#         406
  C:D47DH         LINE#         407
  C:D47DH         LINE#         408
  C:D487H         LINE#         409
  C:D494H         LINE#         410
  C:D494H         LINE#         411
  C:D496H         LINE#         413
  C:D498H         LINE#         416
  C:D498H         LINE#         417
  C:D498H         LINE#         418
  C:D498H         LINE#         419
  C:D498H         LINE#         420
  C:D498H         LINE#         421
  C:D49AH         LINE#         422
  C:D49AH         LINE#         423
  C:D4A0H         LINE#         424
  C:D4AFH         LINE#         425
  C:D4BEH         LINE#         426
  C:D4BEH         LINE#         427
  C:D4C2H         LINE#         428
  C:D4C2H         LINE#         429
  C:D4C4H         LINE#         430
  C:D4C4H         LINE#         431
  C:D4CCH         LINE#         432
  C:D4CCH         LINE#         433
  C:D4CEH         LINE#         434
  C:D4D0H         LINE#         436
  C:D4D0H         LINE#         437
  C:D4D0H         LINE#         438
  C:D4D0H         LINE#         439
  C:D4D0H         LINE#         440
  C:D4D2H         LINE#         441
  C:D4D2H         LINE#         442
  C:D4D6H         LINE#         443
  C:D4DBH         LINE#         444
  C:D4DBH         LINE#         445
  C:D4DDH         LINE#         447
  C:D4DDH         LINE#         448
  C:D4DFH         LINE#         449
  C:D4DFH         LINE#         450
  C:D4E3H         LINE#         451
  C:D4E6H         LINE#         452
  C:D4E8H         LINE#         453
  C:D4E8H         LINE#         454
  C:D4E8H         LINE#         456
  C:D4E8H         LINE#         457
  C:D4EAH         LINE#         458
  C:D4EAH         LINE#         459
  -------         ENDPROC       COMM
  -------         PROC          _SEND_DATA
  D:0001H         SYMBOL        Databuf
  D:0005H         SYMBOL        l
  -------         DO            
  X:023EH         SYMBOL        i
  -------         ENDDO         
  C:EAF6H         LINE#         462
  C:EAF6H         LINE#         463
BL51 BANKED LINKER/LOCATER V6.22                                                      06/23/2017  13:33:26  PAGE 124


  C:EAF6H         LINE#         466
  C:EAF8H         LINE#         467
  C:EB05H         LINE#         468
  C:EB05H         LINE#         469
  C:EB0AH         LINE#         470
  C:EB0DH         LINE#         471
  C:EB0FH         LINE#         472
  C:EB16H         LINE#         473
  C:EB1EH         LINE#         474
  C:EB20H         LINE#         475
  -------         ENDPROC       _SEND_DATA
  -------         PROC          _SEND_DATA_BYTE
  D:0007H         SYMBOL        SendData
  -------         DO            
  X:01E7H         SYMBOL        i
  -------         ENDDO         
  C:ED11H         LINE#         478
  C:ED11H         LINE#         479
  C:ED11H         LINE#         482
  C:ED13H         LINE#         483
  C:ED15H         LINE#         484
  C:ED18H         LINE#         485
  C:ED1AH         LINE#         486
  C:ED1CH         LINE#         487
  -------         ENDPROC       _SEND_DATA_BYTE
  -------         ENDMOD        UART

  -------         MODULE        DATA_ASM
  C:2808H         SYMBOL        CBROADTIME
  C:280EH         SYMBOL        CBROADVOL
  C:280CH         SYMBOL        CCH0TALKEDVOL
  C:2811H         SYMBOL        CCH0TALKVOL
  C:280DH         SYMBOL        CCH1TALKEDVOL
  C:2812H         SYMBOL        CCH1TALKVOL
  C:2803H         SYMBOL        CENABLE1
  C:2804H         SYMBOL        CENABLE2
  C:2809H         SYMBOL        CLISTENDELAY
  C:2814H         SYMBOL        CMAXVOL
  C:2815H         SYMBOL        CMINVOL
  C:2810H         SYMBOL        CMUSICVOL
  C:280FH         SYMBOL        CNOTEVOL
  C:2805H         SYMBOL        CPRIO
  C:2816H         SYMBOL        CRESERVE1
  C:2817H         SYMBOL        CRESERVE2
  C:2818H         SYMBOL        CRESERVE3
  C:2806H         SYMBOL        CRINGTIME
  C:280BH         SYMBOL        CRINGVOL
  C:2813H         SYMBOL        CSELFRINGVOL
  C:2819H         SYMBOL        CSERIALNUM1
  C:281AH         SYMBOL        CSERIALNUM2
  C:281BH         SYMBOL        CSERIALNUM3
  C:2807H         SYMBOL        CTALKTIME
  C:281CH         SYMBOL        CVERSIONHI
  C:281DH         SYMBOL        CVERSIONLO
  C:280AH         SYMBOL        CVOLUMSTEP
  N:0000H         SYMBOL        DATA_ASM
  C:2802H         SYMBOL        SELFBEDADDR
BL51 BANKED LINKER/LOCATER V6.22                                                      06/23/2017  13:33:26  PAGE 125


  C:2801H         SYMBOL        SELFROOMADDR
  C:2800H         SYMBOL        SELFSECADDR
  -------         ENDMOD        DATA_ASM

  -------         MODULE        ?C?COPY
  C:249DH         PUBLIC        ?C?COPY
  -------         ENDMOD        ?C?COPY

  -------         MODULE        ?C?CLDPTR
  C:24C3H         PUBLIC        ?C?CLDPTR
  -------         ENDMOD        ?C?CLDPTR

  -------         MODULE        ?C?CLDOPTR
  C:24DCH         PUBLIC        ?C?CLDOPTR
  -------         ENDMOD        ?C?CLDOPTR

  -------         MODULE        ?C?CSTOPTR
  C:2509H         PUBLIC        ?C?CSTOPTR
  -------         ENDMOD        ?C?CSTOPTR

  -------         MODULE        ?C?IMUL
  C:252BH         PUBLIC        ?C?IMUL
  -------         ENDMOD        ?C?IMUL

  -------         MODULE        ?C?UIDIV
  C:253DH         PUBLIC        ?C?UIDIV
  -------         ENDMOD        ?C?UIDIV

  -------         MODULE        ?C?IILDX
  C:2592H         PUBLIC        ?C?IILDX
  -------         ENDMOD        ?C?IILDX

  -------         MODULE        ?C?ILDIX
  C:25A8H         PUBLIC        ?C?ILDIX
  -------         ENDMOD        ?C?ILDIX

  -------         MODULE        ?C?LADD
  C:25BEH         PUBLIC        ?C?LADD
  -------         ENDMOD        ?C?LADD

  -------         MODULE        ?C?LMUL
  C:25CBH         PUBLIC        ?C?LMUL
  -------         ENDMOD        ?C?LMUL

  -------         MODULE        ?C?ULDIV
  C:2656H         PUBLIC        ?C?ULDIV
  -------         ENDMOD        ?C?ULDIV

  -------         MODULE        ?C?ULCMP
  C:26E8H         PUBLIC        ?C?ULCMP
  -------         ENDMOD        ?C?ULCMP

  -------         MODULE        ?C?ULSHR
  C:26F9H         PUBLIC        ?C?ULSHR
  -------         ENDMOD        ?C?ULSHR

  -------         MODULE        ?C?LLDXDATA
BL51 BANKED LINKER/LOCATER V6.22                                                      06/23/2017  13:33:26  PAGE 126


  C:270CH         PUBLIC        ?C?LLDXDATA
  -------         ENDMOD        ?C?LLDXDATA

  -------         MODULE        ?C?LLDXDATA0
  C:2718H         PUBLIC        ?C?LLDXDATA0
  -------         ENDMOD        ?C?LLDXDATA0

  -------         MODULE        ?C?LLDIXDATA
  C:272DH         PUBLIC        ?C?LLDIXDATA
  C:2724H         PUBLIC        ?C?LLDIXDATA1
  C:2726H         PUBLIC        ?C?LLDIXDATA8
  -------         ENDMOD        ?C?LLDIXDATA

  -------         MODULE        ?C?LSTXDATA
  C:2759H         PUBLIC        ?C?LSTXDATA
  -------         ENDMOD        ?C?LSTXDATA

  -------         MODULE        ?C?LSTKXDATA
  C:2765H         PUBLIC        ?C?LSTKXDATA
  -------         ENDMOD        ?C?LSTKXDATA

  -------         MODULE        ?C?PLDIIDATA
  C:2796H         PUBLIC        ?C?PLDIIDATA
  -------         ENDMOD        ?C?PLDIIDATA

  -------         MODULE        ?C?CCASE
  C:27A6H         PUBLIC        ?C?CCASE
  -------         ENDMOD        ?C?CCASE

  -------         MODULE        ?C?MEMSET
  C:27CCH         PUBLIC        ?C?MEMSET
  -------         ENDMOD        ?C?MEMSET

*** WARNING L16: UNCALLED SEGMENT, IGNORED FOR OVERLAY PROCESS
    SEGMENT: ?PR?SHOWLANDINGFACE?LCDDRIVER

*** WARNING L16: UNCALLED SEGMENT, IGNORED FOR OVERLAY PROCESS
    SEGMENT: ?PR?_ADDRCOMPARECHECK?SINGLEBUS

*** WARNING L16: UNCALLED SEGMENT, IGNORED FOR OVERLAY PROCESS
    SEGMENT: ?PR?_FMWRITEBYTE1?SPI

*** WARNING L16: UNCALLED SEGMENT, IGNORED FOR OVERLAY PROCESS
    SEGMENT: ?PR?WREN?SPI

*** WARNING L16: UNCALLED SEGMENT, IGNORED FOR OVERLAY PROCESS
    SEGMENT: ?PR?_SECTOR_ERASE?SPI

*** WARNING L16: UNCALLED SEGMENT, IGNORED FOR OVERLAY PROCESS
    SEGMENT: ?PR?FRAM_TEST?SPI

Program Size: data=151.6 xdata=575 code=60699
LINK/LOCATE RUN COMPLETE.  6 WARNING(S),  0 ERROR(S)
