BL51 BANKED LINKER/LOCATER V6.22                                                        03/06/2019  08:16:57  PAGE 1


BL51 BANKED LINKER/LOCATER V6.22, INVOKED BY:
C:\KEIL\C51\BIN\BL51.EXE IAP.obj, Key.obj, main.obj, SingleBus.obj, parameter.obj, .\OS_CORE.obj, .\OS_MEM.obj, .\OS_Q.o
>> bj, .\OS_SEM.obj, .\OS_CPU_C.obj, .\OS_CPU_A.obj TO YHFJ-ZB-GSM-V21 RAMSIZE (256) CODE (?CO?PARAMETER (0X4000))


MEMORY MODEL: SMALL


INPUT MODULES INCLUDED:
  IAP.obj (IAP)
  Key.obj (KEY)
  main.obj (MAIN)
  SingleBus.obj (SINGLEBUS)
  parameter.obj (PARAMETER)
  .\OS_CORE.obj (OS_CORE)
  .\OS_MEM.obj (OS_MEM)
  .\OS_Q.obj (OS_Q)
  .\OS_SEM.obj (OS_SEM)
  .\OS_CPU_C.obj (OS_CPU_C)
  .\OS_CPU_A.obj (OS_CPU_A_ASM)
  C:\KEIL\C51\LIB\C51S.LIB (?C_STARTUP)
  C:\KEIL\C51\LIB\C51S.LIB (?C?COPY)
  C:\KEIL\C51\LIB\C51S.LIB (?C?CLDPTR)
  C:\KEIL\C51\LIB\C51S.LIB (?C?CLDOPTR)
  C:\KEIL\C51\LIB\C51S.LIB (?C?CSTPTR)
  C:\KEIL\C51\LIB\C51S.LIB (?C?CSTOPTR)
  C:\KEIL\C51\LIB\C51S.LIB (?C?UIDIV)
  C:\KEIL\C51\LIB\C51S.LIB (?C?CCASE)
  C:\KEIL\C51\LIB\C51S.LIB (?C?MEMSET)
  C:\KEIL\C51\LIB\C51S.LIB (?C_INIT)


LINK MAP OF MODULE:  YHFJ-ZB-GSM-V21 (IAP)


            TYPE    BASE      LENGTH    RELOCATION   SEGMENT NAME
            -----------------------------------------------------

            * * * * * * *   D A T A   M E M O R Y   * * * * * * *
            REG     0000H     0008H     ABSOLUTE     "REG BANK 0"
            DATA    0008H     0014H     UNIT         _DATA_GROUP_
            DATA    001CH     0003H     UNIT         ?DT?MAIN
                    001FH     0001H                  *** GAP ***
            DATA    0020H     000AH     BIT_ADDR     ?BA?SINGLEBUS
            BIT     002AH.0   0001H.1   UNIT         ?BI?SINGLEBUS
                    002BH.1   0000H.7                *** GAP ***
            DATA    002CH     0030H     UNIT         ?DT?SINGLEBUS
            DATA    005CH     000BH     UNIT         ?DT?OS_CORE
            DATA    0067H     0008H     UNIT         ?DT?OS_CPU_C
            IDATA   006FH     0010H     UNIT         ?ID?MAIN
            IDATA   007FH     0002H     UNIT         ?STACK

            * * * * * * *  X D A T A   M E M O R Y  * * * * * * *
            XDATA   0000H     00E8H     UNIT         ?XD?SINGLEBUS
            XDATA   00E8H     0078H     UNIT         ?XD?MAIN
            XDATA   0160H     0002H     UNIT         _XDATA_GROUP_

            * * * * * * *   C O D E   M E M O R Y   * * * * * * *
BL51 BANKED LINKER/LOCATER V6.22                                                      03/06/2019  08:16:57  PAGE 2


            CODE    0000H     0003H     ABSOLUTE     
            CODE    0003H     0003H     ABSOLUTE     
            CODE    0006H     0004H     UNIT         ?PR?SPIINT?MAIN
                    000AH     0001H                  *** GAP ***
            CODE    000BH     0003H     ABSOLUTE     
            CODE    000EH     0003H     UNIT         ?PR?TIMER1INT?MAIN
                    0011H     0002H                  *** GAP ***
            CODE    0013H     0003H     ABSOLUTE     
            CODE    0016H     0003H     UNIT         ?PR?USARTINT?MAIN
                    0019H     0002H                  *** GAP ***
            CODE    001BH     0003H     ABSOLUTE     
            CODE    001EH     0003H     UNIT         ?PR?ADCINT?MAIN
                    0021H     0002H                  *** GAP ***
            CODE    0023H     0003H     ABSOLUTE     
            CODE    0026H     0003H     UNIT         ?PR?LVDINT?MAIN
                    0029H     0002H                  *** GAP ***
            CODE    002BH     0003H     ABSOLUTE     
                    002EH     0005H                  *** GAP ***
            CODE    0033H     0003H     ABSOLUTE     
                    0036H     0005H                  *** GAP ***
            CODE    003BH     0003H     ABSOLUTE     
            CODE    003EH     000DH     UNIT         ?PR?LED0FLASH?SINGLEBUS
            CODE    004BH     0003H     ABSOLUTE     
            CODE    004EH     069AH     UNIT         ?PR?BUS0RECDEAL?SINGLEBUS
            CODE    06E8H     066FH     UNIT         ?PR?TIMER0INT?SINGLEBUS
            CODE    0D57H     034EH     UNIT         ?PR?BUS0SENDDEAL?SINGLEBUS
            CODE    10A5H     032FH     UNIT         ?PR?_KEYDOWNDEAL?SINGLEBUS
            CODE    13D4H     02EBH     UNIT         ?PR?VOICECHANNELCTX?SINGLEBUS
            CODE    16BFH     02B1H     UNIT         ?PR?MAINTASK?MAIN
            CODE    1970H     0260H     UNIT         ?PR?BUS1RECDEAL?SINGLEBUS
            CODE    1BD0H     0254H     UNIT         ?PR?_BACKLIGHTTIMERTREAT?SINGLEBUS
            CODE    1E24H     0238H     UNIT         ?PR?INITPARAMETER?SINGLEBUS
            CODE    205CH     0217H     UNIT         ?C?LIB_CODE
            CODE    2273H     01FEH     UNIT         ?PR?TIMEROUTDEAL?SINGLEBUS
            CODE    2471H     014DH     UNIT         ?PR?_SAVEPARAMETER?SINGLEBUS
            CODE    25BEH     00B6H     UNIT         ?PR?INIT?MAIN
            CODE    2674H     009EH     UNIT         ?PR?_BUS0OUTPUTDATA?SINGLEBUS
            CODE    2712H     0092H     UNIT         ?PR?_OSQPEND?OS_Q
            CODE    27A4H     008CH     UNIT         ?PR?C_OSCTXSW?OS_CPU_A
            CODE    2830H     008CH     UNIT         ?C_C51STARTUP
            CODE    28BCH     0085H     UNIT         ?PR?KEYUP?KEY
            CODE    2941H     0085H     UNIT         ?PR?_OSQPOST?OS_Q
            CODE    29C6H     0080H     UNIT         ?PR?_BUS1OUTPUTDATA?SINGLEBUS
            CODE    2A46H     007FH     UNIT         ?PR?_BUS0RECDATA?SINGLEBUS
            CODE    2AC5H     007FH     UNIT         ?PR?_BUS1RECDATA?SINGLEBUS
            CODE    2B44H     007CH     UNIT         ?PR?_OSTASKSTKINIT?OS_CPU_A
            CODE    2BC0H     0073H     UNIT         ?PR?_LEVELTOVALUE?SINGLEBUS
            CODE    2C33H     0060H     UNIT         ?PR?SYSRESET?SINGLEBUS
            CODE    2C93H     005EH     UNIT         ?PR?_OSWAIT?OS_CORE
            CODE    2CF1H     005DH     UNIT         ?C_INITSEG
            CODE    2D4EH     005BH     UNIT         ?PR?_GETKEYCALLADDR?SINGLEBUS
            CODE    2DA9H     005AH     UNIT         ?PR?OSTICKISR?OS_CPU_C
            CODE    2E03H     0053H     UNIT         ?PR?_READPARAMETER?SINGLEBUS
            CODE    2E56H     004FH     UNIT         ?PR?SINGLEBUSINIT?SINGLEBUS
            CODE    2EA5H     0048H     UNIT         ?PR?_ADDRCOMPARE?SINGLEBUS
            CODE    2EEDH     0045H     UNIT         ?PR?_PARACRCCHECK?SINGLEBUS
            CODE    2F32H     0044H     UNIT         ?PR?_SAVECALLADDR?SINGLEBUS
BL51 BANKED LINKER/LOCATER V6.22                                                      03/06/2019  08:16:57  PAGE 3


            CODE    2F76H     0043H     UNIT         ?PR?_STKDELA?OS_CPU_C
            CODE    2FB9H     0042H     UNIT         ?PR?_KEYUPDEAL?SINGLEBUS
            CODE    2FFBH     0042H     UNIT         ?PR?_STKDELB?OS_CPU_C
            CODE    303DH     003CH     UNIT         ?PR?__OSTASKCREATE?OS_CORE
            CODE    3079H     003AH     UNIT         ?PR?KEYMANAGER?KEY
            CODE    30B3H     0038H     UNIT         ?PR?_DIRADDRCOMPARE?SINGLEBUS
            CODE    30EBH     0037H     UNIT         ?PR?BUS1SENDDEAL?SINGLEBUS
            CODE    3122H     0037H     UNIT         ?PR?_OSQCREATE?OS_Q
            CODE    3159H     0035H     UNIT         ?PR?_DISPATCHMESSAGE?MAIN
            CODE    318EH     0035H     UNIT         ?PR?CALCPARACRC?SINGLEBUS
            CODE    31C3H     0034H     UNIT         ?PR?_GETVOLLEVEL?SINGLEBUS
            CODE    31F7H     0033H     UNIT         ?PR?KEYDOWN?KEY
            CODE    322AH     0033H     UNIT         ?PR?LOADCTX?OS_CPU_A
            CODE    325DH     002FH     UNIT         ?PR?OSINTCTXSW?OS_CPU_A
            CODE    328CH     002EH     UNIT         ?PR?_DELAYMS?MAIN
            CODE    32BAH     002CH     UNIT         ?PR?_UART_SEND?MAIN
            CODE    32E6H     0026H     UNIT         ?PR?_SAVEINDICATIONDATA?SINGLEBUS
            CODE    330CH     0026H     UNIT         ?PR?_OSTASKSTKDEL?OS_CPU_C
            CODE    3332H     0024H     UNIT         ?PR?_ADDKEYVALUE?SINGLEBUS
            CODE    3356H     0024H     UNIT         ?PR?OSINTEXIT?OS_CORE
            CODE    337AH     0023H     UNIT         ?PR?INITKEYCALLADDR?SINGLEBUS
            CODE    339DH     0023H     UNIT         ?PR?_OSTIMEDLY?OS_CORE
            CODE    33C0H     0022H     UNIT         ?PR?USARTINIT?MAIN
            CODE    33E2H     0022H     UNIT         ?PR?TIMEROUTMANAGER?SINGLEBUS
            CODE    3404H     0020H     UNIT         ?PR?BUS0MANAGE?SINGLEBUS
            CODE    3424H     0020H     UNIT         ?PR?BUS1MANAGE?SINGLEBUS
            CODE    3444H     001FH     UNIT         ?PR?OSTIMETICK?OS_CORE
            CODE    3463H     001EH     UNIT         ?PR?_ADDPLAYVOICEVOL?SINGLEBUS
            CODE    3481H     0019H     UNIT         ?PR?_OSTASKRESUME?OS_CORE
            CODE    349AH     0018H     UNIT         ?PR?_OS_TASKSUSPEND?OS_CORE
            CODE    34B2H     0018H     UNIT         ?PR?OSFINDNEXTRUNNINGTASK?OS_CORE
            CODE    34CAH     0018H     UNIT         ?PR?_STKDELC?OS_CPU_C
            CODE    34E2H     0016H     UNIT         ?PR?_UART_SEND_BYTE?MAIN
            CODE    34F8H     0015H     UNIT         ?PR?_ADDVOL?SINGLEBUS
            CODE    350DH     0014H     UNIT         ?PR?MAIN?MAIN
            CODE    3521H     0014H     UNIT         ?PR?BUS0RECINT?SINGLEBUS
            CODE    3535H     0014H     UNIT         ?PR?OSSCHED?OS_CORE
            CODE    3549H     0012H     UNIT         ?PR?_MAKECH0TIMEROUT?SINGLEBUS
            CODE    355BH     0012H     UNIT         ?PR?_MAKECH1TIMEROUT?SINGLEBUS
            CODE    356DH     0012H     UNIT         ?PR?_DECVOL?SINGLEBUS
            CODE    357FH     0011H     UNIT         ?PR?_IAPWRITEBYTE?IAP
            CODE    3590H     0011H     UNIT         ?PR?_IAPREADBYTE?IAP
            CODE    35A1H     0011H     UNIT         ?PR?OSINIT?OS_CORE
            CODE    35B2H     0010H     UNIT         ?PR?OSCPUINIT?OS_CPU_C
            CODE    35C2H     000FH     UNIT         ?PR?_IAPERASE?IAP
            CODE    35D1H     000EH     UNIT         ?PR?BUS1RECINT?SINGLEBUS
            CODE    35DFH     000DH     UNIT         ?PR?OSCTXSW?OS_CPU_A
            CODE    35ECH     000CH     UNIT         ?PR?_OSTASKSUSPEND?OS_CORE
            CODE    35F8H     000BH     UNIT         ?PR?LED0INIT?SINGLEBUS
            CODE    3603H     0009H     UNIT         ?CO?SINGLEBUS
            CODE    360CH     0009H     UNIT         ?CO?OS_CORE
            CODE    3615H     0008H     UNIT         ?PR?DISABLEIAP?IAP
            CODE    361DH     0007H     UNIT         ?PR?_GETMESSAGE?MAIN
            CODE    3624H     0006H     UNIT         ?PR?_ENABLEIAP?IAP
                    362AH     09D6H                  *** GAP ***
            CODE    4000H     0031H     UNIT         ?CO?PARAMETER

BL51 BANKED LINKER/LOCATER V6.22                                                      03/06/2019  08:16:57  PAGE 4




OVERLAY MAP OF MODULE:   YHFJ-ZB-GSM-V21 (IAP)


SEGMENT                                      DATA_GROUP          XDATA_GROUP
  +--> CALLED SEGMENT                      START    LENGTH     START    LENGTH
------------------------------------------------------------------------------
?PR?TIMER0INT?SINGLEBUS                    -----    -----      -----    -----
  +--> ?PR?_BUS0RECDATA?SINGLEBUS
  +--> ?PR?_BUS1RECDATA?SINGLEBUS

?PR?_BUS0RECDATA?SINGLEBUS                 0008H    0004H      -----    -----

?PR?_BUS1RECDATA?SINGLEBUS                 0008H    0004H      -----    -----

*** NEW ROOT ***************************************************

?PR?OSTICKISR?OS_CPU_C                     -----    -----      -----    -----
  +--> ?PR?OSTIMETICK?OS_CORE
  +--> ?PR?OSINTEXIT?OS_CORE

?PR?OSTIMETICK?OS_CORE                     -----    -----      -----    -----
  +--> ?CO?OS_CORE
  +--> ?PR?OSSCHED?OS_CORE

?PR?OSSCHED?OS_CORE                        -----    -----      -----    -----
  +--> ?PR?OSFINDNEXTRUNNINGTASK?OS_CORE
  +--> ?PR?OSCTXSW?OS_CPU_A

?PR?OSCTXSW?OS_CPU_A                       -----    -----      -----    -----
  +--> ?CO?OS_CORE
  +--> ?PR?C_OSCTXSW?OS_CPU_A

?PR?C_OSCTXSW?OS_CPU_A                     -----    -----      -----    -----
  +--> ?PR?LOADCTX?OS_CPU_A

?PR?LOADCTX?OS_CPU_A                       -----    -----      -----    -----
  +--> ?CO?OS_CORE

?PR?OSINTEXIT?OS_CORE                      -----    -----      -----    -----
  +--> ?PR?OSFINDNEXTRUNNINGTASK?OS_CORE
  +--> ?PR?OSINTCTXSW?OS_CPU_A

?PR?OSINTCTXSW?OS_CPU_A                    -----    -----      -----    -----
  +--> ?PR?OSCTXSW?OS_CPU_A
  +--> ?CO?OS_CORE
  +--> ?PR?C_OSCTXSW?OS_CPU_A

*** NEW ROOT ***************************************************

?C_C51STARTUP                              -----    -----      -----    -----
  +--> ?PR?MAIN?MAIN
  +--> ?C_INITSEG

?PR?MAIN?MAIN                              -----    -----      -----    -----
  +--> ?PR?OSINIT?OS_CORE
BL51 BANKED LINKER/LOCATER V6.22                                                      03/06/2019  08:16:57  PAGE 5


  +--> ?PR?MAINTASK?MAIN
  +--> ?PR?__OSTASKCREATE?OS_CORE

?PR?OSINIT?OS_CORE                         -----    -----      -----    -----
  +--> ?PR?OSCPUINIT?OS_CPU_C

?PR?MAINTASK?MAIN                          -----    -----      -----    -----
  +--> ?PR?INIT?MAIN
  +--> ?PR?_OSQCREATE?OS_Q
  +--> ?PR?BUS0MANAGE?SINGLEBUS
  +--> ?PR?__OSTASKCREATE?OS_CORE
  +--> ?PR?BUS1MANAGE?SINGLEBUS
  +--> ?PR?KEYMANAGER?KEY
  +--> ?PR?TIMEROUTMANAGER?SINGLEBUS
  +--> ?PR?_GETMESSAGE?MAIN
  +--> ?PR?_DISPATCHMESSAGE?MAIN
  +--> ?PR?BUS0RECDEAL?SINGLEBUS
  +--> ?PR?BUS1RECDEAL?SINGLEBUS

?PR?INIT?MAIN                              -----    -----      -----    -----
  +--> ?PR?_DELAYMS?MAIN
  +--> ?PR?INITPARAMETER?SINGLEBUS
  +--> ?PR?USARTINIT?MAIN
  +--> ?PR?_UART_SEND_BYTE?MAIN
  +--> ?PR?SINGLEBUSINIT?SINGLEBUS
  +--> ?PR?INITKEYCALLADDR?SINGLEBUS
  +--> ?PR?_MAKECH0TIMEROUT?SINGLEBUS
  +--> ?PR?LED0INIT?SINGLEBUS

?PR?_DELAYMS?MAIN                          -----    -----      0160H    0002H

?PR?INITPARAMETER?SINGLEBUS                000CH    0002H      -----    -----
  +--> ?PR?_PARACRCCHECK?SINGLEBUS
  +--> ?PR?_ENABLEIAP?IAP
  +--> ?PR?_IAPREADBYTE?IAP
  +--> ?PR?DISABLEIAP?IAP
  +--> ?PR?_READPARAMETER?SINGLEBUS
  +--> ?PR?_SAVEPARAMETER?SINGLEBUS
  +--> ?CO?PARAMETER
  +--> ?PR?CALCPARACRC?SINGLEBUS

?PR?_PARACRCCHECK?SINGLEBUS                000EH    0005H      -----    -----
  +--> ?PR?_ENABLEIAP?IAP
  +--> ?PR?_IAPREADBYTE?IAP
  +--> ?PR?DISABLEIAP?IAP

?PR?_READPARAMETER?SINGLEBUS               000EH    0006H      -----    -----
  +--> ?PR?_ENABLEIAP?IAP
  +--> ?PR?_IAPREADBYTE?IAP
  +--> ?PR?DISABLEIAP?IAP

?PR?_SAVEPARAMETER?SINGLEBUS               000EH    000AH      -----    -----
  +--> ?PR?CALCPARACRC?SINGLEBUS
  +--> ?PR?_ENABLEIAP?IAP
  +--> ?PR?_IAPERASE?IAP
  +--> ?PR?_IAPWRITEBYTE?IAP
  +--> ?PR?_IAPREADBYTE?IAP
BL51 BANKED LINKER/LOCATER V6.22                                                      03/06/2019  08:16:57  PAGE 6


  +--> ?PR?DISABLEIAP?IAP

?PR?CALCPARACRC?SINGLEBUS                  0018H    0004H      -----    -----
  +--> ?PR?_ENABLEIAP?IAP
  +--> ?PR?DISABLEIAP?IAP

?PR?BUS0MANAGE?SINGLEBUS                   -----    -----      -----    -----
  +--> ?PR?_OSQPOST?OS_Q
  +--> ?PR?_OSWAIT?OS_CORE

?PR?_OSQPOST?OS_Q                          -----    -----      -----    -----
  +--> ?CO?OS_CORE
  +--> ?PR?_OSTASKRESUME?OS_CORE

?PR?_OSTASKRESUME?OS_CORE                  -----    -----      -----    -----
  +--> ?CO?OS_CORE
  +--> ?PR?OSSCHED?OS_CORE

?PR?_OSWAIT?OS_CORE                        -----    -----      -----    -----
  +--> ?PR?_OSTASKSUSPEND?OS_CORE
  +--> ?PR?_OSTIMEDLY?OS_CORE
  +--> ?PR?_OS_TASKSUSPEND?OS_CORE
  +--> ?PR?OSSCHED?OS_CORE

?PR?_OSTASKSUSPEND?OS_CORE                 -----    -----      -----    -----
  +--> ?PR?_OS_TASKSUSPEND?OS_CORE
  +--> ?PR?OSSCHED?OS_CORE

?PR?_OS_TASKSUSPEND?OS_CORE                -----    -----      -----    -----
  +--> ?CO?OS_CORE

?PR?_OSTIMEDLY?OS_CORE                     -----    -----      -----    -----
  +--> ?PR?_OS_TASKSUSPEND?OS_CORE
  +--> ?PR?OSSCHED?OS_CORE

?PR?__OSTASKCREATE?OS_CORE                 -----    -----      -----    -----
  +--> ?CO?OS_CORE
  +--> ?PR?_OSTASKSTKINIT?OS_CPU_A
  +--> ?PR?OSSCHED?OS_CORE

?PR?_OSTASKSTKINIT?OS_CPU_A                -----    -----      -----    -----
  +--> ?CO?OS_CORE

?PR?BUS1MANAGE?SINGLEBUS                   -----    -----      -----    -----
  +--> ?PR?_OSQPOST?OS_Q
  +--> ?PR?_OSWAIT?OS_CORE

?PR?KEYMANAGER?KEY                         -----    -----      -----    -----
  +--> ?PR?_OSTIMEDLY?OS_CORE
  +--> ?PR?_OSQPOST?OS_Q

?PR?TIMEROUTMANAGER?SINGLEBUS              -----    -----      -----    -----
  +--> ?PR?_OSWAIT?OS_CORE
  +--> ?PR?_OSQPOST?OS_Q

?PR?_GETMESSAGE?MAIN                       -----    -----      -----    -----
  +--> ?PR?_OSQPEND?OS_Q
BL51 BANKED LINKER/LOCATER V6.22                                                      03/06/2019  08:16:57  PAGE 7



?PR?_OSQPEND?OS_Q                          -----    -----      -----    -----
  +--> ?CO?OS_CORE
  +--> ?PR?_OS_TASKSUSPEND?OS_CORE
  +--> ?PR?OSSCHED?OS_CORE

?PR?_DISPATCHMESSAGE?MAIN                  -----    -----      -----    -----
  +--> ?PR?BUS0RECDEAL?SINGLEBUS
  +--> ?PR?BUS0SENDDEAL?SINGLEBUS
  +--> ?PR?BUS1RECDEAL?SINGLEBUS
  +--> ?PR?BUS1SENDDEAL?SINGLEBUS
  +--> ?PR?KEYDOWN?KEY
  +--> ?PR?KEYUP?KEY
  +--> ?PR?TIMEROUTDEAL?SINGLEBUS

?PR?BUS0RECDEAL?SINGLEBUS                  -----    -----      -----    -----
  +--> ?PR?_ADDRCOMPARE?SINGLEBUS
  +--> ?PR?_DIRADDRCOMPARE?SINGLEBUS
  +--> ?PR?VOICECHANNELCTX?SINGLEBUS
  +--> ?PR?_BUS1OUTPUTDATA?SINGLEBUS
  +--> ?PR?_SAVECALLADDR?SINGLEBUS
  +--> ?PR?_MAKECH0TIMEROUT?SINGLEBUS
  +--> ?PR?_SAVEINDICATIONDATA?SINGLEBUS
  +--> ?PR?_OSWAIT?OS_CORE
  +--> ?PR?SYSRESET?SINGLEBUS
  +--> ?PR?_BUS0OUTPUTDATA?SINGLEBUS
  +--> ?PR?_MAKECH1TIMEROUT?SINGLEBUS
  +--> ?PR?_SAVEPARAMETER?SINGLEBUS
  +--> ?PR?_BACKLIGHTTIMERTREAT?SINGLEBUS

?PR?_ADDRCOMPARE?SINGLEBUS                 -----    -----      -----    -----
  +--> ?PR?_MAKECH0TIMEROUT?SINGLEBUS

?PR?VOICECHANNELCTX?SINGLEBUS              -----    -----      -----    -----
  +--> ?PR?_LEVELTOVALUE?SINGLEBUS

?PR?_LEVELTOVALUE?SINGLEBUS                -----    -----      0160H    0001H

?PR?_BUS1OUTPUTDATA?SINGLEBUS              000DH    0004H      -----    -----

?PR?SYSRESET?SINGLEBUS                     -----    -----      -----    -----
  +--> ?PR?_MAKECH0TIMEROUT?SINGLEBUS
  +--> ?PR?VOICECHANNELCTX?SINGLEBUS
  +--> ?PR?_BUS1OUTPUTDATA?SINGLEBUS

?PR?_BUS0OUTPUTDATA?SINGLEBUS              000FH    0004H      -----    -----

?PR?_BACKLIGHTTIMERTREAT?SINGLEBUS         000CH    0003H      -----    -----
  +--> ?PR?_BUS0OUTPUTDATA?SINGLEBUS
  +--> ?PR?_OSWAIT?OS_CORE

?PR?BUS0SENDDEAL?SINGLEBUS                 -----    -----      -----    -----
  +--> ?PR?VOICECHANNELCTX?SINGLEBUS
  +--> ?PR?_BUS1OUTPUTDATA?SINGLEBUS
  +--> ?PR?_SAVECALLADDR?SINGLEBUS
  +--> ?PR?_MAKECH0TIMEROUT?SINGLEBUS
  +--> ?PR?_OSWAIT?OS_CORE
BL51 BANKED LINKER/LOCATER V6.22                                                      03/06/2019  08:16:57  PAGE 8


  +--> ?PR?_BUS0OUTPUTDATA?SINGLEBUS
  +--> ?PR?_MAKECH1TIMEROUT?SINGLEBUS
  +--> ?PR?_SAVEPARAMETER?SINGLEBUS
  +--> ?PR?SYSRESET?SINGLEBUS

?PR?BUS1RECDEAL?SINGLEBUS                  -----    -----      -----    -----
  +--> ?PR?_KEYDOWNDEAL?SINGLEBUS
  +--> ?PR?_KEYUPDEAL?SINGLEBUS
  +--> ?PR?_SAVEPARAMETER?SINGLEBUS
  +--> ?PR?_BUS0OUTPUTDATA?SINGLEBUS
  +--> ?PR?_OSWAIT?OS_CORE
  +--> ?PR?_BACKLIGHTTIMERTREAT?SINGLEBUS
  +--> ?CO?SINGLEBUS
  +--> ?PR?_BUS1OUTPUTDATA?SINGLEBUS

?PR?_KEYDOWNDEAL?SINGLEBUS                 000CH    0001H      -----    -----
  +--> ?PR?_BUS1OUTPUTDATA?SINGLEBUS
  +--> ?PR?_SAVEPARAMETER?SINGLEBUS
  +--> ?PR?_ADDPLAYVOICEVOL?SINGLEBUS
  +--> ?PR?_DECVOL?SINGLEBUS
  +--> ?PR?_BUS0OUTPUTDATA?SINGLEBUS
  +--> ?PR?_MAKECH1TIMEROUT?SINGLEBUS
  +--> ?PR?_MAKECH0TIMEROUT?SINGLEBUS
  +--> ?PR?INITKEYCALLADDR?SINGLEBUS
  +--> ?PR?_GETKEYCALLADDR?SINGLEBUS
  +--> ?PR?_ADDKEYVALUE?SINGLEBUS
  +--> ?PR?_DIRADDRCOMPARE?SINGLEBUS
  +--> ?PR?_ADDVOL?SINGLEBUS
  +--> ?PR?_GETVOLLEVEL?SINGLEBUS

?PR?_ADDPLAYVOICEVOL?SINGLEBUS             -----    -----      -----    -----
  +--> ?PR?VOICECHANNELCTX?SINGLEBUS

?PR?_DECVOL?SINGLEBUS                      -----    -----      -----    -----
  +--> ?PR?VOICECHANNELCTX?SINGLEBUS

?PR?_ADDVOL?SINGLEBUS                      -----    -----      -----    -----
  +--> ?PR?VOICECHANNELCTX?SINGLEBUS

?PR?_KEYUPDEAL?SINGLEBUS                   -----    -----      -----    -----
  +--> ?PR?_MAKECH1TIMEROUT?SINGLEBUS
  +--> ?PR?_MAKECH0TIMEROUT?SINGLEBUS

?PR?KEYDOWN?KEY                            -----    -----      -----    -----
  +--> ?PR?VOICECHANNELCTX?SINGLEBUS
  +--> ?PR?_MAKECH1TIMEROUT?SINGLEBUS
  +--> ?PR?_MAKECH0TIMEROUT?SINGLEBUS
  +--> ?PR?INITKEYCALLADDR?SINGLEBUS

?PR?KEYUP?KEY                              -----    -----      -----    -----
  +--> ?PR?VOICECHANNELCTX?SINGLEBUS
  +--> ?PR?_BUS0OUTPUTDATA?SINGLEBUS
  +--> ?PR?_BUS1OUTPUTDATA?SINGLEBUS

?PR?TIMEROUTDEAL?SINGLEBUS                 -----    -----      -----    -----
  +--> ?PR?_BUS0OUTPUTDATA?SINGLEBUS
  +--> ?PR?VOICECHANNELCTX?SINGLEBUS
BL51 BANKED LINKER/LOCATER V6.22                                                      03/06/2019  08:16:57  PAGE 9


  +--> ?PR?_BUS1OUTPUTDATA?SINGLEBUS



SYMBOL TABLE OF MODULE:  YHFJ-ZB-GSM-V21 (IAP)

  VALUE           TYPE          NAME
  ----------------------------------

  -------         MODULE        IAP
  C:0000H         SYMBOL        _ICE_DUMMY_
  D:0080H         PUBLIC        P0
  D:0090H         PUBLIC        P1
  D:00A0H         PUBLIC        P2
  D:00B0H         PUBLIC        P3
  D:00C0H         PUBLIC        P4
  D:00C8H         PUBLIC        P5
  D:00A8H         PUBLIC        IE
  C:35C2H         PUBLIC        _IapErase
  D:00C5H         PUBLIC        IAP_CMD
  C:3615H         PUBLIC        DisableIAP
  D:00B8H         PUBLIC        IP
  D:00C3H         PUBLIC        IAP_ADDRH
  D:00D8H         PUBLIC        CCON
  D:00C4H         PUBLIC        IAP_ADDRL
  C:3624H         PUBLIC        _EnableIAP
  C:3590H         PUBLIC        _IapReadByte
  D:0098H         PUBLIC        SCON
  D:0088H         PUBLIC        TCON
  C:357FH         PUBLIC        _IapWriteByte
  D:00C7H         PUBLIC        IAP_CONTR
  D:00E0H         PUBLIC        ACC
  D:00C2H         PUBLIC        IAP_DATA
  D:00C6H         PUBLIC        IAP_TRIG
  D:00D0H         PUBLIC        PSW
  -------         PROC          _ENABLEIAP
  D:0007H         SYMBOL        byCmd
  C:3624H         LINE#         39
  C:3624H         LINE#         40
  C:3624H         LINE#         41
  C:3627H         LINE#         42
  C:3629H         LINE#         43
  -------         ENDPROC       _ENABLEIAP
  -------         PROC          DISABLEIAP
  C:3615H         LINE#         59
  C:3615H         LINE#         60
  C:3615H         LINE#         61
  C:3618H         LINE#         62
  C:361AH         LINE#         63
  C:361CH         LINE#         64
  -------         ENDPROC       DISABLEIAP
  -------         PROC          _IAPWRITEBYTE
  D:0002H         SYMBOL        uiAddr
  D:0005H         SYMBOL        byData
  C:357FH         LINE#         80
  C:3583H         LINE#         81
  C:3583H         LINE#         82
BL51 BANKED LINKER/LOCATER V6.22                                                      03/06/2019  08:16:57  PAGE 10


  C:3585H         LINE#         83
  C:3587H         LINE#         84
  C:3589H         LINE#         85
  C:358CH         LINE#         86
  C:358FH         LINE#         87
  -------         ENDPROC       _IAPWRITEBYTE
  -------         PROC          _IAPREADBYTE
  D:0004H         SYMBOL        uiAddr
  C:3590H         LINE#         103
  C:3594H         LINE#         104
  C:3594H         LINE#         105
  C:3596H         LINE#         106
  C:3598H         LINE#         107
  C:359BH         LINE#         108
  C:359EH         LINE#         109
  C:35A0H         LINE#         110
  -------         ENDPROC       _IAPREADBYTE
  -------         PROC          _IAPERASE
  D:0004H         SYMBOL        uiAddr
  C:35C2H         LINE#         127
  C:35C6H         LINE#         128
  C:35C6H         LINE#         129
  C:35C8H         LINE#         130
  C:35CAH         LINE#         131
  C:35CDH         LINE#         132
  C:35D0H         LINE#         133
  -------         ENDPROC       _IAPERASE
  -------         ENDMOD        IAP

  -------         MODULE        KEY
  C:0000H         SYMBOL        _ICE_DUMMY_
  D:0080H         PUBLIC        P0
  D:0090H         PUBLIC        P1
  D:00A0H         PUBLIC        P2
  D:00B0H         PUBLIC        P3
  D:00C0H         PUBLIC        P4
  D:00C8H         PUBLIC        P5
  D:00A8H         PUBLIC        IE
  D:00B8H         PUBLIC        IP
  D:00D8H         PUBLIC        CCON
  D:0098H         PUBLIC        SCON
  D:0088H         PUBLIC        TCON
  C:31F7H         PUBLIC        KeyDown
  D:00E0H         PUBLIC        ACC
  D:00C1H         PUBLIC        WDT_CONTR
  B:00C8H.3       PUBLIC        led0
  C:3079H         PUBLIC        KeyManager
  B:00C0H.3       PUBLIC        HandlerKey
  C:28BCH         PUBLIC        KeyUp
  D:00D0H         PUBLIC        PSW
  -------         PROC          KEYMANAGER
  C:3079H         LINE#         43
  C:3079H         LINE#         44
  C:3079H         LINE#         45
  C:307BH         LINE#         46
  C:307BH         LINE#         47
  C:307BH         LINE#         48
BL51 BANKED LINKER/LOCATER V6.22                                                      03/06/2019  08:16:57  PAGE 11


  C:307EH         LINE#         49
  C:3083H         LINE#         50
  C:3086H         LINE#         51
  C:3086H         LINE#         52
  C:3086H         LINE#         53
  C:3086H         LINE#         54
  C:308BH         LINE#         55
  C:308EH         LINE#         56
  C:308EH         LINE#         57
  C:308EH         LINE#         58
  C:308EH         LINE#         59
  C:3095H         LINE#         60
  C:3099H         LINE#         61
  C:309CH         LINE#         62
  C:309CH         LINE#         63
  C:309FH         LINE#         64
  C:30A4H         LINE#         65
  C:30A6H         LINE#         66
  C:30ADH         LINE#         67
  C:30B1H         LINE#         68
  -------         ENDPROC       KEYMANAGER
  -------         PROC          KEYDOWN
  C:31F7H         LINE#         85
  C:31F7H         LINE#         86
  C:31F7H         LINE#         87
  C:31F9H         LINE#         88
  C:31FCH         LINE#         89
  C:3202H         LINE#         90
  C:3202H         LINE#         91
  C:3209H         LINE#         93
  C:3209H         LINE#         94
  C:3216H         LINE#         95
  C:3216H         LINE#         96
  C:321DH         LINE#         98
  C:321DH         LINE#         99
  C:3226H         LINE#         100
  C:3226H         LINE#         101
  C:3229H         LINE#         102
  C:3229H         LINE#         103
  -------         ENDPROC       KEYDOWN
  -------         PROC          KEYUP
  C:28BCH         LINE#         119
  C:28BCH         LINE#         120
  C:28BCH         LINE#         121
  C:28BEH         LINE#         122
  C:28C1H         LINE#         123
  C:28CAH         LINE#         124
  C:28CAH         LINE#         125
  C:28D2H         LINE#         126
  C:28DAH         LINE#         127
  C:28E2H         LINE#         128
  C:28EAH         LINE#         129
  C:28F2H         LINE#         130
  C:28FAH         LINE#         131
  C:2907H         LINE#         132
  C:2907H         LINE#         133
  C:290AH         LINE#         134
BL51 BANKED LINKER/LOCATER V6.22                                                      03/06/2019  08:16:57  PAGE 12


  C:290CH         LINE#         136
  C:290CH         LINE#         137
  C:290EH         LINE#         138
  C:2912H         LINE#         139
  C:2912H         LINE#         140
  C:291EH         LINE#         141
  C:291EH         LINE#         142
  C:2920H         LINE#         143
  C:2920H         LINE#         144
  C:2921H         LINE#         146
  C:2921H         LINE#         147
  C:2927H         LINE#         148
  C:292DH         LINE#         149
  C:2936H         LINE#         150
  C:293CH         LINE#         151
  C:293EH         LINE#         152
  C:2940H         LINE#         153
  C:2940H         LINE#         154
  -------         ENDPROC       KEYUP
  -------         ENDMOD        KEY

  -------         MODULE        MAIN
  C:0000H         SYMBOL        _ICE_DUMMY_
  D:0093H         PUBLIC        P0M1
  D:0092H         PUBLIC        P1M0
  C:3159H         PUBLIC        _DispatchMessage
  D:0096H         PUBLIC        P2M0
  D:0091H         PUBLIC        P1M1
  D:0080H         PUBLIC        P0
  D:0095H         PUBLIC        P2M1
  D:0090H         PUBLIC        P1
  D:00A0H         PUBLIC        P2
  D:00B0H         PUBLIC        P3
  D:00C0H         PUBLIC        P4
  D:00C8H         PUBLIC        P5
  B:00A8H.7       PUBLIC        EA
  D:00F9H         PUBLIC        CH
  B:00A8H.5       PUBLIC        EADC
  D:00A8H         PUBLIC        IE
  D:00E9H         PUBLIC        CL
  D:00FAH         PUBLIC        CCAP0H
  D:00EAH         PUBLIC        CCAP0L
  B:00D8H.6       PUBLIC        CR
  C:25BEH         PUBLIC        Init
  D:00DAH         PUBLIC        CCAPM0
  B:00A8H.4       PUBLIC        ES
  D:00B8H         PUBLIC        IP
  B:0098H.0       PUBLIC        RI
  C:16BFH         PUBLIC        MainTask
  B:0098H.1       PUBLIC        TI
  D:001DH         PUBLIC        uiIsrTimerCount
  D:00D9H         PUBLIC        CMOD
  D:00D8H         PUBLIC        CCON
  C:350DH         PUBLIC        main
  B:0080H.3       PUBLIC        PW
  B:0090H.7       PUBLIC        MC_CTRL
  C:33C0H         PUBLIC        UsartInit
BL51 BANKED LINKER/LOCATER V6.22                                                      03/06/2019  08:16:57  PAGE 13


  B:00A8H.6       PUBLIC        ELVD
  D:0099H         PUBLIC        SBUF
  D:0087H         PUBLIC        PCON
  D:0098H         PUBLIC        SCON
  D:0089H         PUBLIC        TMOD
  D:0088H         PUBLIC        TCON
  C:001EH         PUBLIC        AdcInt
  X:00E8H         PUBLIC        stLocalControl
  C:0016H         PUBLIC        UsartInt
  D:00AFH         PUBLIC        IE2
  D:008EH         PUBLIC        AUXR
  D:00E0H         PUBLIC        ACC
  B:0080H.4       PUBLIC        CBD
  B:00A8H.3       PUBLIC        ET1
  C:32BAH         PUBLIC        _uart_send
  I:006FH         PUBLIC        byMainCmdQ
  B:0088H.7       PUBLIC        TF1
  B:0080H.5       PUBLIC        CGB
  D:008DH         PUBLIC        TH1
  D:008BH         PUBLIC        TL1
  B:00A0H.0       PUBLIC        VL0
  C:328CH         PUBLIC        _Delayms
  C:0026H         PUBLIC        LvdInt
  B:0090H.5       PUBLIC        MC_CNT
  B:0088H.6       PUBLIC        TR1
  D:00C1H         PUBLIC        WDT_CONTR
  B:00C8H.2       PUBLIC        PW2
  C:0006H         PUBLIC        SpiInt
  B:0090H.6       PUBLIC        MCN
  C:000EH         PUBLIC        TIMER1Int
  B:0080H.7       PUBLIC        KDR
  C:34E2H         PUBLIC        _uart_send_byte
  B:0098H.4       PUBLIC        REN
  C:361DH         PUBLIC        _GetMessage
  B:0090H.4       PUBLIC        XTA
  B:0090H.3       PUBLIC        XTD
  B:00B0H.5       PUBLIC        MUS
  D:00D0H         PUBLIC        PSW
  D:0094H         PUBLIC        P0M0
  -------         PROC          TIMER1INT
  C:000EH         LINE#         28
  C:000EH         LINE#         30
  C:0010H         LINE#         31
  -------         ENDPROC       TIMER1INT
  -------         PROC          USARTINT
  C:0016H         LINE#         33
  C:0016H         LINE#         35
  C:0018H         LINE#         36
  -------         ENDPROC       USARTINT
  -------         PROC          ADCINT
  C:001EH         LINE#         39
  C:001EH         LINE#         41
  C:0020H         LINE#         42
  -------         ENDPROC       ADCINT
  -------         PROC          LVDINT
  C:0026H         LINE#         44
  C:0026H         LINE#         46
BL51 BANKED LINKER/LOCATER V6.22                                                      03/06/2019  08:16:57  PAGE 14


  C:0028H         LINE#         47
  -------         ENDPROC       LVDINT
  -------         PROC          SPIINT
  C:0006H         LINE#         56
  C:0006H         LINE#         58
  C:0009H         LINE#         59
  -------         ENDPROC       SPIINT
  -------         PROC          USARTINIT
  C:33C0H         LINE#         66
  C:33C0H         LINE#         67
  C:33C0H         LINE#         68
  C:33C3H         LINE#         69
  C:33C6H         LINE#         70
  C:33C9H         LINE#         73
  C:33CCH         LINE#         74
  C:33CFH         LINE#         75
  C:33D2H         LINE#         77
  C:33D5H         LINE#         78
  C:33D7H         LINE#         79
  C:33D9H         LINE#         81
  C:33DBH         LINE#         82
  C:33DDH         LINE#         83
  C:33DFH         LINE#         84
  C:33E1H         LINE#         87
  -------         ENDPROC       USARTINIT
  -------         PROC          _UART_SEND
  D:0001H         SYMBOL        SDATA
  D:0005H         SYMBOL        length
  C:32BAH         LINE#         90
  C:32BAH         LINE#         91
  C:32BAH         LINE#         93
  C:32BDH         LINE#         95
  C:32BFH         LINE#         96
  C:32C1H         LINE#         97
  C:32C3H         LINE#         98
  C:32C5H         LINE#         99
  C:32CBH         LINE#         100
  C:32CBH         LINE#         101
  C:32D0H         LINE#         102
  C:32D3H         LINE#         103
  C:32D5H         LINE#         104
  C:32DCH         LINE#         105
  C:32DFH         LINE#         106
  C:32E1H         LINE#         107
  C:32E3H         LINE#         108
  C:32E5H         LINE#         110
  -------         ENDPROC       _UART_SEND
  -------         PROC          _UART_SEND_BYTE
  D:0007H         SYMBOL        SDATA
  C:34E2H         LINE#         114
  C:34E2H         LINE#         115
  C:34E2H         LINE#         117
  C:34E4H         LINE#         118
  C:34E6H         LINE#         119
  C:34E8H         LINE#         120
  C:34EAH         LINE#         121
  C:34ECH         LINE#         122
BL51 BANKED LINKER/LOCATER V6.22                                                      03/06/2019  08:16:57  PAGE 15


  C:34EFH         LINE#         123
  C:34F1H         LINE#         124
  C:34F3H         LINE#         125
  C:34F5H         LINE#         126
  C:34F7H         LINE#         128
  -------         ENDPROC       _UART_SEND_BYTE
  -------         PROC          _DELAYMS
  D:0006H         SYMBOL        ms
  -------         DO            
  X:0160H         SYMBOL        i
  -------         ENDDO         
  C:328CH         LINE#         137
  C:328CH         LINE#         138
  C:328CH         LINE#         140
  C:3290H         LINE#         141
  C:3290H         LINE#         142
  C:32AFH         LINE#         143
  C:32B2H         LINE#         144
  C:32B9H         LINE#         145
  -------         ENDPROC       _DELAYMS
  -------         PROC          INIT
  C:25BEH         LINE#         162
  C:25BEH         LINE#         163
  C:25BEH         LINE#         164
  C:25C1H         LINE#         165
  C:25C4H         LINE#         166
  C:25C6H         LINE#         167
  C:25C8H         LINE#         168
  C:25CBH         LINE#         169
  C:25CFH         LINE#         171
  C:25D2H         LINE#         172
  C:25D4H         LINE#         175
  C:25D7H         LINE#         176
  C:25D9H         LINE#         177
  C:25DBH         LINE#         178
  C:25DDH         LINE#         182
  C:25DFH         LINE#         183
  C:25E7H         LINE#         184
  C:25EFH         LINE#         188
  C:25F2H         LINE#         189
  C:25F5H         LINE#         192
  C:25F8H         LINE#         193
  C:25FBH         LINE#         194
  C:25FDH         LINE#         195
  C:25FFH         LINE#         199
  C:2601H         LINE#         202
  C:2607H         LINE#         204
  C:260DH         LINE#         207
  C:2615H         LINE#         209
  C:2617H         LINE#         210
  C:2619H         LINE#         211
  C:261CH         LINE#         212
  C:261FH         LINE#         213
  C:2621H         LINE#         217
  C:2624H         LINE#         218
  C:2627H         LINE#         219
  C:262BH         LINE#         220
BL51 BANKED LINKER/LOCATER V6.22                                                      03/06/2019  08:16:57  PAGE 16


  C:262FH         LINE#         221
  C:2633H         LINE#         224
  C:263AH         LINE#         227
  C:263DH         LINE#         230
  C:2640H         LINE#         231
  C:2645H         LINE#         234
  C:2648H         LINE#         237
  C:264BH         LINE#         238
  C:2651H         LINE#         239
  C:2660H         LINE#         241
  C:2662H         LINE#         243
  C:2664H         LINE#         244
  C:266BH         LINE#         263
  C:266EH         LINE#         264
  C:2673H         LINE#         265
  -------         ENDPROC       INIT
  -------         PROC          _GETMESSAGE
  D:0007H         SYMBOL        Msg
  C:361DH         LINE#         281
  C:361DH         LINE#         282
  C:361DH         LINE#         283
  -------         ENDPROC       _GETMESSAGE
  -------         PROC          _DISPATCHMESSAGE
  D:0007H         SYMBOL        Msg
  C:3159H         LINE#         300
  C:3159H         LINE#         301
  C:3159H         LINE#         302
  C:3178H         LINE#         303
  C:3178H         LINE#         304
  C:3178H         LINE#         305
  C:317BH         LINE#         306
  C:317BH         LINE#         307
  C:317BH         LINE#         308
  C:317EH         LINE#         309
  C:317EH         LINE#         310
  C:317EH         LINE#         311
  C:3181H         LINE#         312
  C:3181H         LINE#         313
  C:3181H         LINE#         314
  C:3184H         LINE#         315
  C:3184H         LINE#         316
  C:3184H         LINE#         317
  C:3187H         LINE#         318
  C:3187H         LINE#         319
  C:3187H         LINE#         320
  C:318AH         LINE#         321
  C:318AH         LINE#         322
  C:318AH         LINE#         323
  C:318DH         LINE#         324
  C:318DH         LINE#         325
  C:318DH         LINE#         326
  -------         ENDPROC       _DISPATCHMESSAGE
  -------         PROC          MAINTASK
  -------         DO            
  D:001CH         SYMBOL        Msg
  -------         ENDDO         
  C:16BFH         LINE#         342
BL51 BANKED LINKER/LOCATER V6.22                                                      03/06/2019  08:16:57  PAGE 17


  C:16BFH         LINE#         343
  C:16BFH         LINE#         347
  C:16C2H         LINE#         349
  C:16C9H         LINE#         351
  C:16D5H         LINE#         352
  C:16E1H         LINE#         353
  C:16EDH         LINE#         354
  C:16F9H         LINE#         356
  C:16F9H         LINE#         357
  C:16F9H         LINE#         358
  C:16FCH         LINE#         359
  C:1701H         LINE#         360
  C:1706H         LINE#         362
  C:172EH         LINE#         363
  C:172EH         LINE#         364
  C:1732H         LINE#         365
  C:1741H         LINE#         366
  C:1754H         LINE#         367
  C:1764H         LINE#         368
  C:1777H         LINE#         369
  C:1787H         LINE#         370
  C:179AH         LINE#         371
  C:17AAH         LINE#         372
  C:17BDH         LINE#         373
  C:17CDH         LINE#         374
  C:17E0H         LINE#         375
  C:17F0H         LINE#         376
  C:1803H         LINE#         377
  C:1813H         LINE#         378
  C:1826H         LINE#         379
  C:182BH         LINE#         380
  C:182EH         LINE#         381
  C:1830H         LINE#         383
  C:1830H         LINE#         384
  C:1839H         LINE#         385
  C:1839H         LINE#         388
  C:1861H         LINE#         389
  C:1861H         LINE#         390
  C:1865H         LINE#         391
  C:1874H         LINE#         392
  C:1887H         LINE#         393
  C:1897H         LINE#         394
  C:18AAH         LINE#         395
  C:18BAH         LINE#         396
  C:18CDH         LINE#         397
  C:18DDH         LINE#         398
  C:18F0H         LINE#         399
  C:1900H         LINE#         400
  C:1913H         LINE#         401
  C:1923H         LINE#         402
  C:1936H         LINE#         403
  C:1946H         LINE#         404
  C:1959H         LINE#         405
  C:195EH         LINE#         406
  C:1961H         LINE#         407
  C:1964H         LINE#         409
  C:1964H         LINE#         410
BL51 BANKED LINKER/LOCATER V6.22                                                      03/06/2019  08:16:57  PAGE 18


  C:196DH         LINE#         411
  C:196DH         LINE#         414
  -------         ENDPROC       MAINTASK
  -------         PROC          MAIN
  C:350DH         LINE#         431
  C:350DH         LINE#         432
  C:350DH         LINE#         434
  C:3510H         LINE#         437
  C:351BH         LINE#         438
  C:351BH         LINE#         439
  C:351BH         LINE#         440
  C:351CH         LINE#         441
  C:351FH         LINE#         442
  -------         ENDPROC       MAIN
  -------         ENDMOD        MAIN

  -------         MODULE        SINGLEBUS
  C:0000H         SYMBOL        _ICE_DUMMY_
  C:33E2H         PUBLIC        TimerOutManager
  D:002CH         PUBLIC        byBus0DisableCount
  D:0093H         PUBLIC        P0M1
  D:002DH         PUBLIC        byBus1DisableCount
  B:0020H.3       PUBLIC        bRoomAddr
  D:0080H         PUBLIC        P0
  D:00B2H         PUBLIC        P3M0
  D:0090H         PUBLIC        P1
  C:2EEDH         PUBLIC        _ParaCrcCheck
  B:0020H.4       PUBLIC        bKeyAnswer
  D:00B1H         PUBLIC        P3M1
  D:00A0H         PUBLIC        P2
  B:002AH.0       PUBLIC        bNumSeting
  D:00CAH         PUBLIC        P5M0
  D:00B0H         PUBLIC        P3
  D:00C9H         PUBLIC        P5M1
  D:00C0H         PUBLIC        P4
  D:00C8H         PUBLIC        P5
  B:00A8H.7       PUBLIC        EA
  B:0021H.7       PUBLIC        bBusy
  B:0022H.2       PUBLIC        bBus0Enable
  B:0023H.2       PUBLIC        bBus1Enable
  B:0024H.7       PUBLIC        bWaitAck
  C:2F3CH         PUBLIC        _SaveCallAddr
  B:0025H.4       PUBLIC        bEnCallDeal
  D:00A8H         PUBLIC        IE
  B:0020H.1       PUBLIC        bPWState
  X:0000H         PUBLIC        byBus0RxTail
  X:0001H         PUBLIC        byBus1RxTail
  B:00B0H.6       PUBLIC        Bus0SendPin
  B:00B0H.4       PUBLIC        Bus1SendPin
  D:002EH         PUBLIC        byBus0TxTail
  D:002FH         PUBLIC        byBus1TxTail
  B:002AH.1       PUBLIC        bSendCmdCloseLcd
  B:002AH.2       PUBLIC        bKeyBroadDown
  C:318EH         PUBLIC        CalcParaCrc
  D:00DAH         PUBLIC        CCAPM0
  C:32E6H         PUBLIC        _SaveIndicationData
  B:0022H.1       PUBLIC        bBus0OnRec
BL51 BANKED LINKER/LOCATER V6.22                                                      03/06/2019  08:16:57  PAGE 19


  D:00B8H         PUBLIC        IP
  B:0023H.1       PUBLIC        bBus1OnRec
  B:0022H.5       PUBLIC        bBus0OnSendFreq
  B:0025H.2       PUBLIC        bEnHelpDeal
  B:0023H.5       PUBLIC        bBus1OnSendFreq
  B:0026H.2       PUBLIC        bEnAllBroad
  C:35F8H         PUBLIC        led0init
  B:0024H.2       PUBLIC        bOfficeBroad
  B:00B0H.2       PUBLIC        Bus0RecPin
  D:0030H         PUBLIC        byBus0RecTimeOut
  B:0021H.5       PUBLIC        bDealKeyDown
  B:00B0H.3       PUBLIC        Bus1RecPin
  D:0031H         PUBLIC        byBus1RecTimeOut
  B:0021H.0       PUBLIC        bLanding
  D:00D8H         PUBLIC        CCON
  C:3521H         PUBLIC        Bus0RecInt
  C:2E03H         PUBLIC        _ReadParameter
  C:35D1H         PUBLIC        Bus1RecInt
  B:0026H.5       PUBLIC        bEnAutoListen
  B:0027H.6       PUBLIC        bCallDealSending
  B:0080H.3       PUBLIC        PW
  B:0090H.7       PUBLIC        MC_CTRL
  C:3404H         PUBLIC        Bus0Manage
  C:2E56H         PUBLIC        SingleBusInit
  B:0026H.6       PUBLIC        bEnVoiceNote
  C:3424H         PUBLIC        Bus1Manage
  B:002AH.3       PUBLIC        bKeyEnterDown
  B:0024H.5       PUBLIC        bChannel0Talked
  B:0022H.4       PUBLIC        bBus0OnSendBit
  B:0021H.3       PUBLIC        bChannel1Talked
  B:0023H.4       PUBLIC        bBus1OnSendBit
  B:0027H.7       PUBLIC        bSetPrio
  B:002AH.4       PUBLIC        bSendCmdOpenLcd
  B:0026H.0       PUBLIC        bEnSickRoomBroad
  B:002AH.5       PUBLIC        bMainMenuSet
  B:0028H.2       PUBLIC        bBus0SendFinish
  B:0029H.2       PUBLIC        bBus1SendFinish
  D:0021H         PUBLIC        byDevState1
  D:0024H         PUBLIC        byDevState2
  D:0098H         PUBLIC        SCON
  B:0028H.1       PUBLIC        bBus0RecBit9
  B:0025H.3       PUBLIC        bEnEmergencyDeal
  D:0020H         PUBLIC        byDevState3
  D:0089H         PUBLIC        TMOD
  D:0088H         PUBLIC        TCON
  C:3332H         PUBLIC        _AddKeyValue
  B:0029H.1       PUBLIC        bBus1RecBit9
  D:0027H         PUBLIC        byDevState4
  C:2273H         PUBLIC        TimerOutDeal
  C:249CH         PUBLIC        _SaveParameter
  B:0026H.3       PUBLIC        bEnSoundNote
  C:34F8H         PUBLIC        _AddVol
  C:10A5H         PUBLIC        _KeyDownDeal
  C:337AH         PUBLIC        InitKeyCallAddr
  C:1E24H         PUBLIC        InitParameter
  B:0020H.7       PUBLIC        bCalledRing
  B:0088H.1       PUBLIC        IE0
BL51 BANKED LINKER/LOCATER V6.22                                                      03/06/2019  08:16:57  PAGE 20


  B:0088H.3       PUBLIC        IE1
  C:356DH         PUBLIC        _DecVol
  C:2BC0H         PUBLIC        _LevelToValue
  B:0028H.0       PUBLIC        bBus0RecFinish
  B:0020H.5       PUBLIC        bMusicPlaying
  B:0029H.0       PUBLIC        bBus1RecFinish
  B:0020H.0       PUBLIC        bPW2State
  D:008EH         PUBLIC        AUXR
  B:002AH.6       PUBLIC        bBus0SndBitOk
  D:0032H         PUBLIC        byBus0SendData
  D:0039H         PUBLIC        byBus1SendData
  D:00C7H         PUBLIC        IAP_CONTR
  C:2C33H         PUBLIC        SysReset
  D:00E0H         PUBLIC        ACC
  C:2D4EH         PUBLIC        _GetKeyCallAddr
  C:2EB2H         PUBLIC        _AddrCompare
  B:0080H.4       PUBLIC        CBD
  B:00A8H.1       PUBLIC        ET0
  B:0088H.5       PUBLIC        TF0
  B:0022H.7       PUBLIC        bBus0Error
  B:0080H.5       PUBLIC        CGB
  D:008CH         PUBLIC        TH0
  B:0023H.7       PUBLIC        bBus1Error
  B:002AH.7       PUBLIC        fled0
  B:0021H.4       PUBLIC        bHandleDown
  B:0088H.0       PUBLIC        IT0
  B:00A8H.0       PUBLIC        EX0
  B:0088H.2       PUBLIC        IT1
  B:00A8H.2       PUBLIC        EX1
  B:0020H.6       PUBLIC        bVoiceNoting
  C:3463H         PUBLIC        _AddPlayVoiceVol
  C:31C3H         PUBLIC        _GetVolLevel
  D:008AH         PUBLIC        TL0
  D:0040H         PUBLIC        byBus0RecData
  D:0047H         PUBLIC        byBus1RecData
  D:004EH         PUBLIC        byBus0SendCount
  B:0026H.1       PUBLIC        bEnOfficeBroad
  B:00A0H.0       PUBLIC        VL0
  C:3603H         PUBLIC        VolValIndex
  D:004FH         PUBLIC        byBus1SendCount
  B:0025H.5       PUBLIC        bEnMusicplay
  B:0020H.2       PUBLIC        bHandAnswer
  X:0002H         PUBLIC        byBus0RxQ
  X:0026H         PUBLIC        byBus1RxQ
  B:0021H.6       PUBLIC        bSetKeyDown
  B:0090H.5       PUBLIC        MC_CNT
  B:0088H.4       PUBLIC        TR0
  X:004AH         PUBLIC        byBus0TxQ
  X:0091H         PUBLIC        byBus1TxQ
  D:0026H         PUBLIC        byEnable1
  D:00C1H         PUBLIC        WDT_CONTR
  B:0022H.6       PUBLIC        bBus0SendError
  D:0025H         PUBLIC        byEnable2
  B:00C8H.2       PUBLIC        PW2
  B:0023H.6       PUBLIC        bBus1SendError
  B:002BH.0       PUBLIC        bVl0State
  B:0024H.0       PUBLIC        bSelfBroad
BL51 BANKED LINKER/LOCATER V6.22                                                      03/06/2019  08:16:57  PAGE 21


  B:0026H.7       PUBLIC        bEnHandleDeal
  B:0024H.4       PUBLIC        bChannel0Talk
  B:0025H.0       PUBLIC        bEnInfusionDeal
  B:0021H.2       PUBLIC        bChannel1Talk
  C:0D57H         PUBLIC        Bus0SendDeal
  C:06E8H         PUBLIC        Timer0Int
  D:0050H         PUBLIC        byBus0RecCount
  C:30EBH         PUBLIC        Bus1SendDeal
  D:0051H         PUBLIC        byBus1RecCount
  B:0026H.4       PUBLIC        bEnOutRing
  D:0052H         PUBLIC        byBus0SendBuf
  D:0053H         PUBLIC        byBus1SendBuf
  B:0025H.1       PUBLIC        bEnServiceDeal
  B:00C8H.3       PUBLIC        led0
  C:13D4H         PUBLIC        VoiceChannelCtx
  B:0024H.1       PUBLIC        bAllBroad
  C:2FB9H         PUBLIC        _KeyUpDeal
  B:0021H.1       PUBLIC        bIndicatingOther
  C:30B9H         PUBLIC        _DirAddrCompare
  B:0028H.4       PUBLIC        bBus0SendBit
  B:0022H.0       PUBLIC        bBus0StartRec
  B:0029H.4       PUBLIC        bBus1SendBit
  B:0023H.0       PUBLIC        bBus1StartRec
  D:0022H         PUBLIC        byBus0State0
  B:0024H.6       PUBLIC        bWaitListen
  B:0090H.4       PUBLIC        XTA
  C:269EH         PUBLIC        _Bus0OutputData
  D:0023H         PUBLIC        byBus1State0
  D:0054H         PUBLIC        byBus0RecSendCount
  D:0028H         PUBLIC        byBus0State1
  C:29D2H         PUBLIC        _Bus1OutputData
  D:0055H         PUBLIC        byBus1RecSendCount
  D:0029H         PUBLIC        byBus1State1
  C:004EH         PUBLIC        Bus0RecDeal
  B:0090H.3       PUBLIC        XTD
  C:1970H         PUBLIC        Bus1RecDeal
  D:0056H         PUBLIC        byBus0RecBuf
  C:2A46H         PUBLIC        _Bus0RecData
  D:0057H         PUBLIC        byBus1RecBuf
  C:2AC5H         PUBLIC        _Bus1RecData
  B:0022H.3       PUBLIC        bBus0ReqSend
  B:0023H.3       PUBLIC        bBus1ReqSend
  C:1BD0H         PUBLIC        _BackLightTimerTreat
  B:0028H.3       PUBLIC        bBus0Disable
  C:003EH         PUBLIC        led0flash
  X:00E6H         PUBLIC        byBus0RxHead
  B:0029H.3       PUBLIC        bBus1Disable
  X:00E7H         PUBLIC        byBus1RxHead
  D:0058H         PUBLIC        byBus0TxHead
  B:0024H.3       PUBLIC        bSickRoomBroad
  D:00D0H         PUBLIC        PSW
  C:3550H         PUBLIC        _MakeCH0TimerOut
  D:0059H         PUBLIC        byBus1TxHead
  D:005AH         PUBLIC        byBus0SendStopCount
  B:0028H.5       PUBLIC        bBus0RecBit
  C:3562H         PUBLIC        _MakeCH1TimerOut
  D:005BH         PUBLIC        byBus1SendStopCount
BL51 BANKED LINKER/LOCATER V6.22                                                      03/06/2019  08:16:57  PAGE 22


  B:0029H.5       PUBLIC        bBus1RecBit
  D:0094H         PUBLIC        P0M0
  -------         PROC          LED0INIT
  C:35F8H         LINE#         139
  C:35F8H         LINE#         140
  C:35F8H         LINE#         141
  C:35FBH         LINE#         142
  C:35FEH         LINE#         143
  C:3602H         LINE#         144
  -------         ENDPROC       LED0INIT
  -------         PROC          LED0FLASH
  C:003EH         LINE#         146
  C:003EH         LINE#         147
  C:003EH         LINE#         148
  C:0041H         LINE#         149
  C:0041H         LINE#         150
  C:0043H         LINE#         151
  C:0045H         LINE#         152
  C:0046H         LINE#         154
  C:0046H         LINE#         155
  C:0048H         LINE#         156
  C:004AH         LINE#         157
  C:004AH         LINE#         158
  -------         ENDPROC       LED0FLASH
  -------         PROC          SINGLEBUSINIT
  C:2E56H         LINE#         176
  C:2E56H         LINE#         177
  C:2E56H         LINE#         180
  C:2E59H         LINE#         181
  C:2E5CH         LINE#         185
  C:2E5FH         LINE#         186
  C:2E62H         LINE#         191
  C:2E65H         LINE#         192
  C:2E68H         LINE#         196
  C:2E6AH         LINE#         197
  C:2E6CH         LINE#         198
  C:2E6EH         LINE#         199
  C:2E70H         LINE#         201
  C:2E73H         LINE#         202
  C:2E76H         LINE#         204
  C:2E79H         LINE#         205
  C:2E7CH         LINE#         206
  C:2E7EH         LINE#         207
  C:2E81H         LINE#         208
  C:2E83H         LINE#         209
  C:2E85H         LINE#         211
  C:2E88H         LINE#         212
  C:2E8BH         LINE#         213
  C:2E8DH         LINE#         214
  C:2E8FH         LINE#         215
  C:2E91H         LINE#         216
  C:2E93H         LINE#         217
  C:2E96H         LINE#         218
  C:2E96H         LINE#         219
  C:2E98H         LINE#         220
  C:2E9AH         LINE#         222
  C:2E9AH         LINE#         223
BL51 BANKED LINKER/LOCATER V6.22                                                      03/06/2019  08:16:57  PAGE 23


  C:2E9CH         LINE#         224
  C:2E9CH         LINE#         225
  C:2E9FH         LINE#         226
  C:2E9FH         LINE#         227
  C:2EA1H         LINE#         228
  C:2EA2H         LINE#         230
  C:2EA2H         LINE#         231
  C:2EA4H         LINE#         232
  C:2EA4H         LINE#         233
  -------         ENDPROC       SINGLEBUSINIT
  -------         PROC          BUS0RECINT
  C:3521H         LINE#         250
  C:3523H         LINE#         252
  C:352BH         LINE#         253
  C:352DH         LINE#         254
  C:352FH         LINE#         255
  C:3532H         LINE#         256
  -------         ENDPROC       BUS0RECINT
  -------         PROC          BUS1RECINT
  C:35D1H         LINE#         273
  C:35D3H         LINE#         275
  C:35D5H         LINE#         276
  C:35D7H         LINE#         277
  C:35D9H         LINE#         278
  C:35DCH         LINE#         279
  -------         ENDPROC       BUS1RECINT
  -------         PROC          TIMER0INT
  C:06E8H         LINE#         297
  C:0707H         LINE#         300
  C:0709H         LINE#         301
  C:070CH         LINE#         302
  C:070FH         LINE#         303
  C:0711H         LINE#         305
  C:0715H         LINE#         306
  C:0719H         LINE#         308
  C:071CH         LINE#         309
  C:071CH         LINE#         310
  C:0722H         LINE#         311
  C:072BH         LINE#         312
  C:072BH         LINE#         313
  C:072DH         LINE#         314
  C:072FH         LINE#         315
  C:0732H         LINE#         316
  C:0732H         LINE#         317
  C:0738H         LINE#         318
  C:0738H         LINE#         319
  C:073BH         LINE#         320
  C:073DH         LINE#         321
  C:073FH         LINE#         322
  C:073FH         LINE#         323
  C:0742H         LINE#         324
  C:0745H         LINE#         325
  C:0749H         LINE#         326
  C:0749H         LINE#         327
  C:0749H         LINE#         328
  C:0749H         LINE#         329
  C:074CH         LINE#         331
BL51 BANKED LINKER/LOCATER V6.22                                                      03/06/2019  08:16:57  PAGE 24


  C:074CH         LINE#         332
  C:074EH         LINE#         333
  C:074EH         LINE#         334
  C:074EH         LINE#         335
  C:0751H         LINE#         336
  C:0757H         LINE#         337
  C:0757H         LINE#         338
  C:075DH         LINE#         339
  C:0766H         LINE#         340
  C:0766H         LINE#         341
  C:0769H         LINE#         342
  C:076BH         LINE#         343
  C:0776H         LINE#         344
  C:0776H         LINE#         345
  C:0778H         LINE#         346
  C:077BH         LINE#         347
  C:077BH         LINE#         348
  C:0787H         LINE#         349
  C:0787H         LINE#         350
  C:078AH         LINE#         351
  C:078DH         LINE#         352
  C:078FH         LINE#         354
  C:078FH         LINE#         355
  C:0792H         LINE#         356
  C:079CH         LINE#         357
  C:07A2H         LINE#         358
  C:07A9H         LINE#         359
  C:07A9H         LINE#         360
  C:07ACH         LINE#         361
  C:07B2H         LINE#         362
  C:07B2H         LINE#         363
  C:07BBH         LINE#         364
  C:07BBH         LINE#         366
  C:07BBH         LINE#         367
  C:07BBH         LINE#         368
  C:07BEH         LINE#         369
  C:07C1H         LINE#         370
  C:07C3H         LINE#         371
  C:07C7H         LINE#         372
  C:07CBH         LINE#         373
  C:07CFH         LINE#         374
  C:07CFH         LINE#         375
  C:07CFH         LINE#         376
  C:07D2H         LINE#         377
  C:07D6H         LINE#         378
  C:07D8H         LINE#         380
  C:07D8H         LINE#         381
  C:07DAH         LINE#         382
  C:07E0H         LINE#         383
  C:07E0H         LINE#         384
  C:07E3H         LINE#         385
  C:07E5H         LINE#         386
  C:07E7H         LINE#         387
  C:07E7H         LINE#         388
  C:07EAH         LINE#         389
  C:07EEH         LINE#         390
  C:07F2H         LINE#         391
BL51 BANKED LINKER/LOCATER V6.22                                                      03/06/2019  08:16:57  PAGE 25


  C:07F6H         LINE#         392
  C:07F6H         LINE#         393
  C:07F8H         LINE#         394
  C:0800H         LINE#         395
  C:0800H         LINE#         396
  C:0804H         LINE#         397
  C:0806H         LINE#         399
  C:0806H         LINE#         400
  C:080CH         LINE#         401
  C:080FH         LINE#         402
  C:080FH         LINE#         403
  C:0812H         LINE#         404
  C:0812H         LINE#         405
  C:0812H         LINE#         406
  C:0812H         LINE#         407
  C:0812H         LINE#         409
  C:0815H         LINE#         410
  C:0815H         LINE#         411
  C:081BH         LINE#         412
  C:0824H         LINE#         413
  C:0824H         LINE#         414
  C:0826H         LINE#         415
  C:0828H         LINE#         416
  C:082BH         LINE#         417
  C:082BH         LINE#         418
  C:0831H         LINE#         419
  C:0831H         LINE#         420
  C:0834H         LINE#         421
  C:0836H         LINE#         422
  C:0838H         LINE#         423
  C:0838H         LINE#         424
  C:083BH         LINE#         425
  C:083EH         LINE#         426
  C:083EH         LINE#         427
  C:0840H         LINE#         429
  C:0840H         LINE#         430
  C:0842H         LINE#         431
  C:0842H         LINE#         432
  C:0842H         LINE#         433
  C:0845H         LINE#         434
  C:084BH         LINE#         435
  C:084BH         LINE#         436
  C:0851H         LINE#         437
  C:085AH         LINE#         438
  C:085AH         LINE#         439
  C:085DH         LINE#         440
  C:085FH         LINE#         441
  C:0867H         LINE#         442
  C:0867H         LINE#         443
  C:0869H         LINE#         444
  C:086CH         LINE#         445
  C:086CH         LINE#         446
  C:0878H         LINE#         447
  C:0878H         LINE#         448
  C:087BH         LINE#         449
  C:087EH         LINE#         450
  C:0880H         LINE#         452
BL51 BANKED LINKER/LOCATER V6.22                                                      03/06/2019  08:16:57  PAGE 26


  C:0880H         LINE#         453
  C:0883H         LINE#         454
  C:088DH         LINE#         455
  C:0893H         LINE#         456
  C:089AH         LINE#         457
  C:089AH         LINE#         458
  C:089DH         LINE#         459
  C:08A3H         LINE#         460
  C:08A3H         LINE#         461
  C:08ACH         LINE#         462
  C:08ACH         LINE#         464
  C:08ACH         LINE#         465
  C:08ACH         LINE#         466
  C:08AFH         LINE#         467
  C:08B2H         LINE#         468
  C:08B4H         LINE#         469
  C:08B4H         LINE#         470
  C:08B4H         LINE#         471
  C:08B7H         LINE#         472
  C:08BBH         LINE#         473
  C:08BDH         LINE#         475
  C:08BDH         LINE#         476
  C:08BFH         LINE#         477
  C:08C5H         LINE#         478
  C:08C5H         LINE#         479
  C:08C8H         LINE#         480
  C:08CAH         LINE#         481
  C:08CCH         LINE#         482
  C:08CCH         LINE#         483
  C:08CFH         LINE#         484
  C:08CFH         LINE#         485
  C:08D1H         LINE#         486
  C:08D9H         LINE#         487
  C:08D9H         LINE#         488
  C:08DDH         LINE#         489
  C:08DFH         LINE#         491
  C:08DFH         LINE#         492
  C:08E5H         LINE#         493
  C:08E8H         LINE#         494
  C:08E8H         LINE#         495
  C:08EBH         LINE#         496
  C:08EBH         LINE#         497
  C:08EBH         LINE#         498
  C:08EBH         LINE#         499
  C:08EBH         LINE#         501
  C:08F3H         LINE#         502
  C:08F3H         LINE#         503
  C:08F6H         LINE#         504
  C:08F6H         LINE#         505
  C:08F8H         LINE#         506
  C:08FAH         LINE#         507
  C:08FCH         LINE#         508
  C:08FFH         LINE#         509
  C:0909H         LINE#         510
  C:090BH         LINE#         511
  C:090EH         LINE#         513
  C:090EH         LINE#         514
BL51 BANKED LINKER/LOCATER V6.22                                                      03/06/2019  08:16:57  PAGE 27


  C:0911H         LINE#         515
  C:0913H         LINE#         516
  C:0916H         LINE#         517
  C:0918H         LINE#         518
  C:091BH         LINE#         519
  C:091BH         LINE#         520
  C:091EH         LINE#         521
  C:0924H         LINE#         522
  C:0924H         LINE#         524
  C:092AH         LINE#         525
  C:0930H         LINE#         526
  C:0930H         LINE#         527
  C:093DH         LINE#         529
  C:093DH         LINE#         530
  C:0940H         LINE#         531
  C:0943H         LINE#         532
  C:0945H         LINE#         533
  C:0947H         LINE#         534
  C:094AH         LINE#         536
  C:094CH         LINE#         537
  C:094CH         LINE#         539
  C:094EH         LINE#         544
  C:0951H         LINE#         545
  C:0951H         LINE#         547
  C:0956H         LINE#         548
  C:0956H         LINE#         549
  C:0958H         LINE#         551
  C:095BH         LINE#         552
  C:095DH         LINE#         553
  C:0965H         LINE#         554
  C:0965H         LINE#         555
  C:096EH         LINE#         556
  C:0973H         LINE#         557
  C:0975H         LINE#         558
  C:0978H         LINE#         559
  C:0978H         LINE#         560
  C:097AH         LINE#         561
  C:097CH         LINE#         562
  C:097EH         LINE#         563
  C:0986H         LINE#         564
  C:0986H         LINE#         565
  C:0988H         LINE#         566
  C:098AH         LINE#         567
  C:0993H         LINE#         568
  C:0993H         LINE#         569
  C:0996H         LINE#         570
  C:0999H         LINE#         571
  C:099CH         LINE#         572
  C:099FH         LINE#         573
  C:09A2H         LINE#         574
  C:09A4H         LINE#         576
  C:09A4H         LINE#         577
  C:09A7H         LINE#         578
  C:09A9H         LINE#         579
  C:09A9H         LINE#         580
  C:09ADH         LINE#         581
  C:09AFH         LINE#         583
BL51 BANKED LINKER/LOCATER V6.22                                                      03/06/2019  08:16:57  PAGE 28


  C:09AFH         LINE#         584
  C:09B4H         LINE#         585
  C:09B4H         LINE#         586
  C:09B6H         LINE#         587
  C:09B8H         LINE#         588
  C:09BAH         LINE#         590
  C:09BAH         LINE#         591
  C:09BCH         LINE#         592
  C:09BEH         LINE#         593
  C:09BEH         LINE#         594
  C:09C4H         LINE#         595
  C:09C4H         LINE#         596
  C:09C4H         LINE#         597
  C:09C4H         LINE#         606
  C:09C4H         LINE#         608
  C:09CCH         LINE#         609
  C:09CCH         LINE#         610
  C:09CFH         LINE#         611
  C:09CFH         LINE#         612
  C:09D1H         LINE#         613
  C:09D3H         LINE#         614
  C:09D5H         LINE#         615
  C:09D8H         LINE#         616
  C:09E2H         LINE#         617
  C:09E4H         LINE#         618
  C:09E7H         LINE#         620
  C:09E7H         LINE#         621
  C:09EAH         LINE#         622
  C:09ECH         LINE#         623
  C:09EFH         LINE#         624
  C:09EFH         LINE#         625
  C:09EFH         LINE#         626
  C:09EFH         LINE#         627
  C:09F2H         LINE#         628
  C:09F8H         LINE#         629
  C:09F8H         LINE#         630
  C:0A00H         LINE#         631
  C:0A00H         LINE#         632
  C:0A06H         LINE#         633
  C:0A0CH         LINE#         634
  C:0A0CH         LINE#         635
  C:0A0FH         LINE#         636
  C:0A11H         LINE#         637
  C:0A19H         LINE#         638
  C:0A19H         LINE#         639
  C:0A22H         LINE#         640
  C:0A26H         LINE#         641
  C:0A28H         LINE#         642
  C:0A2BH         LINE#         643
  C:0A2BH         LINE#         644
  C:0A2DH         LINE#         645
  C:0A2FH         LINE#         646
  C:0A31H         LINE#         647
  C:0A39H         LINE#         648
  C:0A39H         LINE#         649
  C:0A3BH         LINE#         650
  C:0A3DH         LINE#         651
BL51 BANKED LINKER/LOCATER V6.22                                                      03/06/2019  08:16:57  PAGE 29


  C:0A46H         LINE#         652
  C:0A46H         LINE#         653
  C:0A49H         LINE#         654
  C:0A4CH         LINE#         655
  C:0A4FH         LINE#         656
  C:0A52H         LINE#         657
  C:0A55H         LINE#         658
  C:0A57H         LINE#         660
  C:0A57H         LINE#         661
  C:0A5AH         LINE#         662
  C:0A5CH         LINE#         663
  C:0A5CH         LINE#         664
  C:0A60H         LINE#         665
  C:0A62H         LINE#         667
  C:0A62H         LINE#         668
  C:0A67H         LINE#         669
  C:0A67H         LINE#         670
  C:0A69H         LINE#         671
  C:0A6BH         LINE#         672
  C:0A6DH         LINE#         674
  C:0A6DH         LINE#         675
  C:0A6FH         LINE#         676
  C:0A71H         LINE#         677
  C:0A71H         LINE#         678
  C:0A77H         LINE#         679
  C:0A77H         LINE#         680
  C:0A77H         LINE#         681
  C:0A79H         LINE#         683
  C:0A79H         LINE#         684
  C:0A7CH         LINE#         685
  C:0A7FH         LINE#         686
  C:0A81H         LINE#         687
  C:0A83H         LINE#         688
  C:0A86H         LINE#         689
  C:0A86H         LINE#         690
  C:0A86H         LINE#         692
  C:0A8CH         LINE#         693
  C:0A8CH         LINE#         694
  C:0A90H         LINE#         695
  C:0A90H         LINE#         696
  C:0A93H         LINE#         697
  C:0A93H         LINE#         698
  C:0A95H         LINE#         699
  C:0A95H         LINE#         700
  C:0A95H         LINE#         701
  C:0A98H         LINE#         702
  C:0A98H         LINE#         703
  C:0A9AH         LINE#         704
  C:0A9DH         LINE#         705
  C:0A9DH         LINE#         706
  C:0A9FH         LINE#         707
  C:0AA3H         LINE#         708
  C:0AA6H         LINE#         709
  C:0AA6H         LINE#         710
  C:0AA6H         LINE#         711
  C:0AA6H         LINE#         713
  C:0AACH         LINE#         714
BL51 BANKED LINKER/LOCATER V6.22                                                      03/06/2019  08:16:57  PAGE 30


  C:0AACH         LINE#         715
  C:0AB0H         LINE#         716
  C:0AB0H         LINE#         717
  C:0AB3H         LINE#         718
  C:0AB3H         LINE#         719
  C:0AB5H         LINE#         720
  C:0AB5H         LINE#         721
  C:0AB5H         LINE#         722
  C:0AB8H         LINE#         723
  C:0AB8H         LINE#         724
  C:0ABAH         LINE#         725
  C:0ABDH         LINE#         726
  C:0ABDH         LINE#         727
  C:0ABFH         LINE#         728
  C:0AC3H         LINE#         729
  C:0AC6H         LINE#         730
  C:0AC6H         LINE#         731
  C:0AC6H         LINE#         732
  C:0AC6H         LINE#         734
  C:0ACAH         LINE#         735
  C:0ACAH         LINE#         736
  C:0ACDH         LINE#         737
  C:0ACDH         LINE#         738
  C:0AD0H         LINE#         739
  C:0AD4H         LINE#         740
  C:0AD8H         LINE#         741
  C:0ADCH         LINE#         742
  C:0ADCH         LINE#         743
  C:0ADCH         LINE#         744
  C:0AE0H         LINE#         745
  C:0AE0H         LINE#         746
  C:0AE3H         LINE#         747
  C:0AE3H         LINE#         748
  C:0AE5H         LINE#         749
  C:0AE5H         LINE#         750
  C:0AE5H         LINE#         752
  C:0AE9H         LINE#         753
  C:0AE9H         LINE#         754
  C:0AECH         LINE#         755
  C:0AECH         LINE#         756
  C:0AEFH         LINE#         757
  C:0AEFH         LINE#         758
  C:0AEFH         LINE#         759
  C:0AF3H         LINE#         760
  C:0AF3H         LINE#         761
  C:0AF6H         LINE#         762
  C:0AF6H         LINE#         763
  C:0AF8H         LINE#         764
  C:0AF8H         LINE#         765
  C:0AF8H         LINE#         767
  C:0B01H         LINE#         768
  C:0B01H         LINE#         769
  C:0B04H         LINE#         770
  C:0B04H         LINE#         771
  C:0B06H         LINE#         772
  C:0B06H         LINE#         773
  C:0B09H         LINE#         775
BL51 BANKED LINKER/LOCATER V6.22                                                      03/06/2019  08:16:57  PAGE 31


  C:0B09H         LINE#         776
  C:0B12H         LINE#         777
  C:0B12H         LINE#         778
  C:0B36H         LINE#         779
  C:0B36H         LINE#         780
  C:0B44H         LINE#         781
  C:0B54H         LINE#         782
  C:0B62H         LINE#         783
  C:0B73H         LINE#         784
  C:0B81H         LINE#         785
  C:0B92H         LINE#         786
  C:0BA0H         LINE#         787
  C:0BB1H         LINE#         788
  C:0BBFH         LINE#         789
  C:0BD0H         LINE#         790
  C:0BDEH         LINE#         791
  C:0BEFH         LINE#         792
  C:0BFDH         LINE#         793
  C:0C0EH         LINE#         794
  C:0C11H         LINE#         795
  C:0C13H         LINE#         797
  C:0C13H         LINE#         798
  C:0C19H         LINE#         799
  C:0C19H         LINE#         800
  C:0C19H         LINE#         801
  C:0C19H         LINE#         802
  C:0C19H         LINE#         804
  C:0C22H         LINE#         805
  C:0C22H         LINE#         806
  C:0C25H         LINE#         807
  C:0C25H         LINE#         808
  C:0C27H         LINE#         809
  C:0C27H         LINE#         810
  C:0C2AH         LINE#         812
  C:0C2AH         LINE#         813
  C:0C33H         LINE#         814
  C:0C33H         LINE#         815
  C:0C57H         LINE#         816
  C:0C57H         LINE#         817
  C:0C65H         LINE#         818
  C:0C75H         LINE#         819
  C:0C83H         LINE#         820
  C:0C94H         LINE#         821
  C:0CA2H         LINE#         822
  C:0CB3H         LINE#         823
  C:0CC1H         LINE#         824
  C:0CD2H         LINE#         825
  C:0CE0H         LINE#         826
  C:0CF1H         LINE#         827
  C:0CFFH         LINE#         828
  C:0D10H         LINE#         829
  C:0D1EH         LINE#         830
  C:0D2FH         LINE#         831
  C:0D32H         LINE#         832
  C:0D34H         LINE#         834
  C:0D34H         LINE#         835
  C:0D3AH         LINE#         836
BL51 BANKED LINKER/LOCATER V6.22                                                      03/06/2019  08:16:57  PAGE 32


  C:0D3AH         LINE#         837
  C:0D3AH         LINE#         838
  C:0D3AH         LINE#         839
  C:0D3AH         LINE#         840
  -------         ENDPROC       TIMER0INT
  C:2691H         SYMBOL        L?0892
  C:2697H         SYMBOL        L?0893
  C:2698H         SYMBOL        L?0894
  -------         PROC          L?0891
  -------         ENDPROC       L?0891
  C:2691H         SYMBOL        L?0892
  C:2697H         SYMBOL        L?0893
  C:2698H         SYMBOL        L?0894
  -------         PROC          _BUS0OUTPUTDATA
  D:000FH         SYMBOL        pbyData
  -------         DO            
  D:0012H         SYMBOL        byTemp
  -------         ENDDO         
  C:269EH         LINE#         856
  C:26A4H         LINE#         857
  C:26A4H         LINE#         858
  C:26A7H         LINE#         860
  C:26ABH         LINE#         861
  C:26C9H         LINE#         862
  C:26C9H         LINE#         863
  C:26CEH         LINE#         864
  C:26D1H         LINE#         865
  C:26D1H         LINE#         866
  C:26D8H         LINE#         867
  C:26D8H         LINE#         868
  C:26F7H         LINE#         869
  C:2708H         LINE#         870
  C:270AH         LINE#         871
  C:270FH         LINE#         872
  C:2711H         LINE#         873
  -------         ENDPROC       _BUS0OUTPUTDATA
  C:29C6H         SYMBOL        L?0888
  C:29CBH         SYMBOL        L?0889
  C:29CCH         SYMBOL        L?0890
  -------         PROC          L?0887
  -------         ENDPROC       L?0887
  C:29C6H         SYMBOL        L?0888
  C:29CBH         SYMBOL        L?0889
  C:29CCH         SYMBOL        L?0890
  -------         PROC          _BUS1OUTPUTDATA
  D:000DH         SYMBOL        pbyData
  -------         DO            
  D:0010H         SYMBOL        byTemp
  -------         ENDDO         
  C:29D2H         LINE#         889
  C:29D8H         LINE#         890
  C:29D8H         LINE#         891
  C:29DBH         LINE#         893
  C:29DFH         LINE#         894
  C:29FDH         LINE#         895
  C:29FDH         LINE#         896
  C:2A02H         LINE#         897
BL51 BANKED LINKER/LOCATER V6.22                                                      03/06/2019  08:16:57  PAGE 33


  C:2A05H         LINE#         898
  C:2A05H         LINE#         899
  C:2A0CH         LINE#         900
  C:2A0CH         LINE#         901
  C:2A2BH         LINE#         902
  C:2A3CH         LINE#         903
  C:2A3EH         LINE#         904
  C:2A43H         LINE#         905
  C:2A45H         LINE#         906
  -------         ENDPROC       _BUS1OUTPUTDATA
  -------         PROC          _BUS0RECDATA
  D:0008H         SYMBOL        pbyData
  -------         DO            
  D:000BH         SYMBOL        byTemp
  -------         ENDDO         
  C:2A46H         LINE#         923
  C:2A4CH         LINE#         924
  C:2A4CH         LINE#         925
  C:2A4FH         LINE#         927
  C:2A53H         LINE#         928
  C:2A77H         LINE#         929
  C:2A77H         LINE#         930
  C:2A7CH         LINE#         931
  C:2A7FH         LINE#         932
  C:2A7FH         LINE#         933
  C:2A86H         LINE#         934
  C:2A86H         LINE#         935
  C:2AA8H         LINE#         936
  C:2ABBH         LINE#         937
  C:2ABDH         LINE#         938
  C:2AC2H         LINE#         939
  C:2AC4H         LINE#         941
  -------         ENDPROC       _BUS0RECDATA
  -------         PROC          _BUS1RECDATA
  D:0008H         SYMBOL        pbyData
  -------         DO            
  D:000BH         SYMBOL        byTemp
  -------         ENDDO         
  C:2AC5H         LINE#         959
  C:2ACBH         LINE#         960
  C:2ACBH         LINE#         961
  C:2ACEH         LINE#         963
  C:2AD2H         LINE#         964
  C:2AF6H         LINE#         965
  C:2AF6H         LINE#         966
  C:2AFBH         LINE#         967
  C:2AFEH         LINE#         968
  C:2AFEH         LINE#         969
  C:2B05H         LINE#         970
  C:2B05H         LINE#         971
  C:2B27H         LINE#         972
  C:2B3AH         LINE#         973
  C:2B3CH         LINE#         974
  C:2B41H         LINE#         975
  C:2B43H         LINE#         976
  -------         ENDPROC       _BUS1RECDATA
  C:2EA8H         SYMBOL        L?0898
BL51 BANKED LINKER/LOCATER V6.22                                                      03/06/2019  08:16:57  PAGE 34


  C:2EACH         SYMBOL        L?0899
  -------         PROC          L?0897
  -------         ENDPROC       L?0897
  C:2EA8H         SYMBOL        L?0898
  C:2EACH         SYMBOL        L?0899
  -------         PROC          _ADDRCOMPARE
  D:0001H         SYMBOL        pstBusFreq
  C:2EB2H         LINE#         995
  C:2EB2H         LINE#         996
  C:2EB2H         LINE#         997
  C:2EC3H         LINE#         998
  C:2EC3H         LINE#         999
  C:2EC5H         LINE#         1000
  C:2EC5H         LINE#         1001
  C:2ED6H         LINE#         1002
  C:2ED6H         LINE#         1003
  C:2ED8H         LINE#         1004
  C:2ED8H         LINE#         1005
  C:2EE9H         LINE#         1006
  C:2EE9H         LINE#         1007
  C:2EEBH         LINE#         1008
  C:2EEBH         LINE#         1009
  C:2EECH         LINE#         1021
  -------         ENDPROC       _ADDRCOMPARE
  -------         PROC          L?0905
  -------         ENDPROC       L?0905
  -------         PROC          _DIRADDRCOMPARE
  D:0001H         SYMBOL        pstBusFreq
  C:30B9H         LINE#         1038
  C:30B9H         LINE#         1039
  C:30B9H         LINE#         1040
  C:30C7H         LINE#         1041
  C:30C7H         LINE#         1042
  C:30C9H         LINE#         1043
  C:30C9H         LINE#         1044
  C:30D7H         LINE#         1045
  C:30D7H         LINE#         1046
  C:30D9H         LINE#         1047
  C:30D9H         LINE#         1048
  C:30E7H         LINE#         1049
  C:30E7H         LINE#         1050
  C:30E9H         LINE#         1051
  C:30E9H         LINE#         1052
  C:30EAH         LINE#         1053
  -------         ENDPROC       _DIRADDRCOMPARE
  C:354CH         SYMBOL        L?0903
  -------         PROC          L?0902
  -------         ENDPROC       L?0902
  C:354CH         SYMBOL        L?0903
  -------         PROC          _MAKECH0TIMEROUT
  D:0007H         SYMBOL        byTimerOut
  D:0005H         SYMBOL        byTimerOutCount
  C:3550H         LINE#         1069
  C:3550H         LINE#         1070
  C:3550H         LINE#         1071
  C:3555H         LINE#         1072
  C:3557H         LINE#         1073
BL51 BANKED LINKER/LOCATER V6.22                                                      03/06/2019  08:16:57  PAGE 35


  C:355AH         LINE#         1074
  -------         ENDPROC       _MAKECH0TIMEROUT
  C:355BH         SYMBOL        L?0901
  -------         PROC          L?0900
  -------         ENDPROC       L?0900
  C:355BH         SYMBOL        L?0901
  -------         PROC          _MAKECH1TIMEROUT
  D:0007H         SYMBOL        byTimerOut
  D:0005H         SYMBOL        byTimerOutCount
  C:3562H         LINE#         1090
  C:3562H         LINE#         1091
  C:3562H         LINE#         1092
  C:3567H         LINE#         1093
  C:3569H         LINE#         1094
  C:356CH         LINE#         1095
  -------         ENDPROC       _MAKECH1TIMEROUT
  -------         PROC          _SAVEINDICATIONDATA
  D:0001H         SYMBOL        pstBus0SendFreq
  C:32E6H         LINE#         1111
  C:32E6H         LINE#         1112
  C:32E6H         LINE#         1113
  C:32EDH         LINE#         1114
  C:32F7H         LINE#         1115
  C:3301H         LINE#         1116
  C:330BH         LINE#         1117
  -------         ENDPROC       _SAVEINDICATIONDATA
  -------         PROC          L?0904
  -------         ENDPROC       L?0904
  -------         PROC          _SAVECALLADDR
  D:0001H         SYMBOL        pstBusFreq
  C:2F3CH         LINE#         1133
  C:2F3CH         LINE#         1134
  C:2F3CH         LINE#         1135
  C:2F43H         LINE#         1136
  C:2F4DH         LINE#         1137
  C:2F57H         LINE#         1139
  C:2F61H         LINE#         1140
  C:2F6BH         LINE#         1141
  C:2F75H         LINE#         1142
  -------         ENDPROC       _SAVECALLADDR
  -------         PROC          VOICECHANNELCTX
  C:13D4H         LINE#         1158
  C:13D4H         LINE#         1159
  C:13D4H         LINE#         1160
  C:13D7H         LINE#         1161
  C:13D7H         LINE#         1162
  C:13DAH         LINE#         1163
  C:13DAH         LINE#         1166
  C:13DCH         LINE#         1167
  C:13E0H         LINE#         1168
  C:13E2H         LINE#         1170
  C:13E2H         LINE#         1173
  C:13E4H         LINE#         1174
  C:13E6H         LINE#         1175
  C:13E6H         LINE#         1176
  C:13E6H         LINE#         1177
  C:13E6H         LINE#         1178
BL51 BANKED LINKER/LOCATER V6.22                                                      03/06/2019  08:16:57  PAGE 36


  C:13E6H         LINE#         1179
  C:13E6H         LINE#         1180
  C:13E6H         LINE#         1181
  C:13E6H         LINE#         1182
  C:13E6H         LINE#         1183
  C:13E6H         LINE#         1184
  C:13E8H         LINE#         1185
  C:13EBH         LINE#         1186
  C:13EBH         LINE#         1187
  C:13EEH         LINE#         1188
  C:13EEH         LINE#         1191
  C:13F0H         LINE#         1192
  C:13F4H         LINE#         1193
  C:13F6H         LINE#         1195
  C:13F6H         LINE#         1198
  C:13F8H         LINE#         1199
  C:13FAH         LINE#         1200
  C:13FAH         LINE#         1201
  C:1400H         LINE#         1202
  C:1404H         LINE#         1203
  C:140CH         LINE#         1204
  C:140EH         LINE#         1205
  C:1416H         LINE#         1206
  C:1418H         LINE#         1207
  C:1418H         LINE#         1208
  C:1418H         LINE#         1209
  C:141BH         LINE#         1210
  C:1423H         LINE#         1211
  C:1423H         LINE#         1213
  C:1425H         LINE#         1214
  C:1427H         LINE#         1216
  C:142FH         LINE#         1217
  C:1433H         LINE#         1218
  C:143BH         LINE#         1219
  C:143FH         LINE#         1220
  C:143FH         LINE#         1221
  C:143FH         LINE#         1222
  C:1441H         LINE#         1223
  C:1444H         LINE#         1224
  C:1444H         LINE#         1225
  C:1447H         LINE#         1226
  C:1447H         LINE#         1229
  C:1449H         LINE#         1230
  C:144DH         LINE#         1231
  C:144FH         LINE#         1233
  C:144FH         LINE#         1236
  C:1451H         LINE#         1237
  C:1453H         LINE#         1238
  C:1453H         LINE#         1239
  C:1459H         LINE#         1240
  C:145DH         LINE#         1241
  C:1465H         LINE#         1242
  C:1467H         LINE#         1243
  C:146FH         LINE#         1244
  C:1471H         LINE#         1245
  C:1471H         LINE#         1246
  C:1471H         LINE#         1247
BL51 BANKED LINKER/LOCATER V6.22                                                      03/06/2019  08:16:57  PAGE 37


  C:1473H         LINE#         1248
  C:1476H         LINE#         1249
  C:1476H         LINE#         1250
  C:1479H         LINE#         1251
  C:1479H         LINE#         1254
  C:147BH         LINE#         1255
  C:147FH         LINE#         1256
  C:1481H         LINE#         1258
  C:1481H         LINE#         1261
  C:1483H         LINE#         1262
  C:1485H         LINE#         1263
  C:1485H         LINE#         1264
  C:148BH         LINE#         1265
  C:148FH         LINE#         1266
  C:1497H         LINE#         1267
  C:1499H         LINE#         1268
  C:14A1H         LINE#         1269
  C:14A3H         LINE#         1270
  C:14A7H         LINE#         1271
  C:14A9H         LINE#         1272
  C:14AAH         LINE#         1273
  C:14ADH         LINE#         1274
  C:14ADH         LINE#         1275
  C:14B0H         LINE#         1276
  C:14B0H         LINE#         1277
  C:14B2H         LINE#         1278
  C:14B6H         LINE#         1279
  C:14BAH         LINE#         1280
  C:14BCH         LINE#         1282
  C:14BCH         LINE#         1283
  C:14BEH         LINE#         1284
  C:14C0H         LINE#         1285
  C:14C4H         LINE#         1286
  C:14C4H         LINE#         1287
  C:14CCH         LINE#         1288
  C:14D4H         LINE#         1289
  C:14D8H         LINE#         1290
  C:14DAH         LINE#         1291
  C:14DCH         LINE#         1292
  C:14DEH         LINE#         1293
  C:14DFH         LINE#         1294
  C:14E2H         LINE#         1295
  C:14E2H         LINE#         1297
  C:14E6H         LINE#         1298
  C:14E6H         LINE#         1299
  C:14E6H         LINE#         1300
  C:14E6H         LINE#         1301
  C:14E6H         LINE#         1303
  C:14E6H         LINE#         1304
  C:14E6H         LINE#         1305
  C:14E6H         LINE#         1306
  C:14E6H         LINE#         1307
  C:14E8H         LINE#         1308
  C:14EBH         LINE#         1309
  C:14EBH         LINE#         1310
  C:14EFH         LINE#         1311
  C:14F3H         LINE#         1312
BL51 BANKED LINKER/LOCATER V6.22                                                      03/06/2019  08:16:57  PAGE 38


  C:14F9H         LINE#         1313
  C:14F9H         LINE#         1314
  C:14F9H         LINE#         1315
  C:14F9H         LINE#         1316
  C:14F9H         LINE#         1317
  C:14F9H         LINE#         1318
  C:14F9H         LINE#         1319
  C:14FCH         LINE#         1320
  C:1502H         LINE#         1321
  C:1502H         LINE#         1322
  C:1506H         LINE#         1323
  C:150AH         LINE#         1325
  C:1523H         LINE#         1326
  C:1523H         LINE#         1327
  C:1523H         LINE#         1328
  C:1526H         LINE#         1330
  C:1526H         LINE#         1331
  C:1546H         LINE#         1333
  C:1546H         LINE#         1334
  C:1553H         LINE#         1335
  C:1553H         LINE#         1336
  C:158BH         LINE#         1339
  C:158BH         LINE#         1341
  C:158BH         LINE#         1342
  C:158DH         LINE#         1345
  C:158DH         LINE#         1346
  C:158DH         LINE#         1348
  C:158DH         LINE#         1349
  C:1590H         LINE#         1351
  C:1590H         LINE#         1352
  C:159CH         LINE#         1353
  C:159CH         LINE#         1354
  C:159CH         LINE#         1356
  C:159FH         LINE#         1359
  C:159FH         LINE#         1360
  C:15B6H         LINE#         1361
  C:15B6H         LINE#         1363
  C:15B7H         LINE#         1364
  C:15BAH         LINE#         1367
  C:15BAH         LINE#         1369
  C:15BAH         LINE#         1370
  C:15BAH         LINE#         1372
  C:15BAH         LINE#         1373
  C:15BAH         LINE#         1375
  C:15BCH         LINE#         1377
  C:15BCH         LINE#         1379
  C:15C9H         LINE#         1380
  C:15C9H         LINE#         1381
  C:1604H         LINE#         1384
  C:1604H         LINE#         1386
  C:1607H         LINE#         1387
  C:1609H         LINE#         1390
  C:1609H         LINE#         1392
  C:1609H         LINE#         1393
  C:1609H         LINE#         1394
  C:160BH         LINE#         1396
  C:160BH         LINE#         1397
BL51 BANKED LINKER/LOCATER V6.22                                                      03/06/2019  08:16:57  PAGE 39


  C:1617H         LINE#         1398
  C:1617H         LINE#         1400
  C:161AH         LINE#         1401
  C:161CH         LINE#         1404
  C:161CH         LINE#         1405
  C:1633H         LINE#         1406
  C:1633H         LINE#         1408
  C:1639H         LINE#         1409
  C:163BH         LINE#         1412
  C:163BH         LINE#         1414
  C:1645H         LINE#         1415
  C:1645H         LINE#         1417
  C:1645H         LINE#         1418
  C:1645H         LINE#         1420
  C:1645H         LINE#         1421
  C:1645H         LINE#         1424
  C:1647H         LINE#         1425
  C:1649H         LINE#         1426
  C:1651H         LINE#         1427
  C:1655H         LINE#         1428
  C:165DH         LINE#         1429
  C:165FH         LINE#         1430
  C:1660H         LINE#         1431
  C:1663H         LINE#         1432
  C:1663H         LINE#         1433
  C:1667H         LINE#         1434
  C:166BH         LINE#         1435
  C:166EH         LINE#         1436
  C:166EH         LINE#         1437
  C:166EH         LINE#         1438
  C:166EH         LINE#         1439
  C:166EH         LINE#         1440
  C:166EH         LINE#         1441
  C:166EH         LINE#         1442
  C:1670H         LINE#         1443
  C:1673H         LINE#         1444
  C:1673H         LINE#         1445
  C:1677H         LINE#         1446
  C:167BH         LINE#         1447
  C:1681H         LINE#         1448
  C:1683H         LINE#         1449
  C:1685H         LINE#         1450
  C:168DH         LINE#         1451
  C:1691H         LINE#         1452
  C:1699H         LINE#         1453
  C:169BH         LINE#         1454
  C:169CH         LINE#         1456
  C:169CH         LINE#         1457
  C:16A0H         LINE#         1458
  C:16A4H         LINE#         1459
  C:16ACH         LINE#         1460
  C:16B4H         LINE#         1461
  C:16B6H         LINE#         1462
  C:16B8H         LINE#         1463
  C:16BCH         LINE#         1464
  C:16BEH         LINE#         1465
  C:16BEH         LINE#         1466
BL51 BANKED LINKER/LOCATER V6.22                                                      03/06/2019  08:16:57  PAGE 40


  -------         ENDPROC       VOICECHANNELCTX
  -------         PROC          SYSRESET
  C:2C33H         LINE#         1483
  C:2C33H         LINE#         1484
  C:2C33H         LINE#         1486
  C:2C39H         LINE#         1487
  C:2C39H         LINE#         1488
  C:2C3DH         LINE#         1489
  C:2C3DH         LINE#         1490
  C:2C51H         LINE#         1492
  C:2C57H         LINE#         1493
  C:2C5AH         LINE#         1494
  C:2C60H         LINE#         1495
  C:2C60H         LINE#         1496
  C:2C63H         LINE#         1497
  C:2C63H         LINE#         1498
  C:2C6BH         LINE#         1499
  C:2C73H         LINE#         1500
  C:2C7BH         LINE#         1501
  C:2C83H         LINE#         1502
  C:2C88H         LINE#         1503
  C:2C88H         LINE#         1505
  C:2C8AH         LINE#         1507
  C:2C8AH         LINE#         1508
  C:2C8FH         LINE#         1509
  C:2C92H         LINE#         1511
  C:2C92H         LINE#         1512
  C:2C92H         LINE#         1513
  -------         ENDPROC       SYSRESET
  -------         PROC          _PARACRCCHECK
  D:000EH         SYMBOL        addr
  -------         DO            
  D:0010H         SYMBOL        crcResult
  D:0011H         SYMBOL        crcData
  D:0012H         SYMBOL        i
  D:0007H         SYMBOL        paraData
  -------         ENDDO         
  C:2EEDH         LINE#         1516
  C:2EF1H         LINE#         1517
  C:2EF1H         LINE#         1518
  C:2EF4H         LINE#         1519
  C:2EF6H         LINE#         1522
  C:2EFBH         LINE#         1523
  C:2EFEH         LINE#         1524
  C:2EFEH         LINE#         1525
  C:2F05H         LINE#         1526
  C:2F0AH         LINE#         1527
  C:2F12H         LINE#         1528
  C:2F1BH         LINE#         1529
  C:2F24H         LINE#         1530
  C:2F27H         LINE#         1532
  C:2F2FH         LINE#         1533
  C:2F31H         LINE#         1534
  -------         ENDPROC       _PARACRCCHECK
  -------         PROC          CALCPARACRC
  -------         DO            
  D:0018H         SYMBOL        crcResult
BL51 BANKED LINKER/LOCATER V6.22                                                      03/06/2019  08:16:57  PAGE 41


  D:0007H         SYMBOL        i
  D:0019H         SYMBOL        addr
  -------         ENDDO         
  C:318EH         LINE#         1538
  C:318EH         LINE#         1539
  C:318EH         LINE#         1540
  C:3191H         LINE#         1542
  C:319AH         LINE#         1543
  C:319FH         LINE#         1544
  C:31A1H         LINE#         1545
  C:31A1H         LINE#         1546
  C:31AEH         LINE#         1547
  C:31B9H         LINE#         1548
  C:31BDH         LINE#         1549
  C:31C0H         LINE#         1550
  C:31C2H         LINE#         1551
  -------         ENDPROC       CALCPARACRC
  C:2498H         SYMBOL        L?0896
  -------         PROC          L?0895
  -------         ENDPROC       L?0895
  C:2498H         SYMBOL        L?0896
  -------         PROC          _SAVEPARAMETER
  D:000EH         SYMBOL        addr
  -------         DO            
  D:0010H         SYMBOL        i
  D:0011H         SYMBOL        addr_temp
  D:0013H         SYMBOL        pbyData
  D:0016H         SYMBOL        readtimes
  D:0017H         SYMBOL        writetimes
  -------         ENDDO         
  C:249CH         LINE#         1573
  C:24A0H         LINE#         1574
  C:24A0H         LINE#         1576
  C:24A6H         LINE#         1581
  C:24AEH         LINE#         1582
  C:24B1H         LINE#         1583
  C:24B4H         LINE#         1585
  C:24B4H         LINE#         1586
  C:24B9H         LINE#         1587
  C:24C0H         LINE#         1590
  C:24C5H         LINE#         1591
  C:24CBH         LINE#         1592
  C:24D4H         LINE#         1593
  C:24D7H         LINE#         1594
  C:24D7H         LINE#         1595
  C:24E8H         LINE#         1596
  C:24F3H         LINE#         1597
  C:24FBH         LINE#         1598
  C:2504H         LINE#         1601
  C:250DH         LINE#         1602
  C:2510H         LINE#         1603
  C:2510H         LINE#         1604
  C:2521H         LINE#         1605
  C:252CH         LINE#         1606
  C:2534H         LINE#         1607
  C:253DH         LINE#         1610
  C:2542H         LINE#         1611
BL51 BANKED LINKER/LOCATER V6.22                                                      03/06/2019  08:16:57  PAGE 42


  C:2545H         LINE#         1613
  C:2545H         LINE#         1614
  C:2548H         LINE#         1615
  C:2551H         LINE#         1616
  C:2557H         LINE#         1619
  C:2561H         LINE#         1620
  C:2561H         LINE#         1621
  C:2574H         LINE#         1623
  C:257FH         LINE#         1624
  C:2587H         LINE#         1625
  C:2589H         LINE#         1626
  C:2597H         LINE#         1627
  C:2599H         LINE#         1629
  C:25A0H         LINE#         1630
  C:25A0H         LINE#         1631
  C:25A0H         LINE#         1632
  C:25A0H         LINE#         1634
  C:25A3H         LINE#         1636
  C:25A7H         LINE#         1637
  C:25A7H         LINE#         1638
  C:25A7H         LINE#         1639
  C:25A7H         LINE#         1640
  C:25B0H         LINE#         1643
  C:25B3H         LINE#         1646
  C:25B9H         LINE#         1647
  C:25BDH         LINE#         1648
  -------         ENDPROC       _SAVEPARAMETER
  -------         PROC          _READPARAMETER
  D:000EH         SYMBOL        addr
  -------         DO            
  D:0010H         SYMBOL        i
  D:0011H         SYMBOL        pbyData
  -------         ENDDO         
  C:2E03H         LINE#         1665
  C:2E07H         LINE#         1666
  C:2E07H         LINE#         1668
  C:2E0AH         LINE#         1669
  C:2E13H         LINE#         1671
  C:2E18H         LINE#         1672
  C:2E1BH         LINE#         1673
  C:2E1BH         LINE#         1674
  C:2E2CH         LINE#         1675
  C:2E37H         LINE#         1676
  C:2E3FH         LINE#         1677
  C:2E48H         LINE#         1678
  C:2E4BH         LINE#         1681
  C:2E51H         LINE#         1682
  C:2E55H         LINE#         1683
  -------         ENDPROC       _READPARAMETER
  -------         PROC          _BACKLIGHTTIMERTREAT
  D:000CH         SYMBOL        pstBusFreq
  C:1BD0H         LINE#         1687
  C:1BD6H         LINE#         1688
  C:1BD6H         LINE#         1690
  C:1BDDH         LINE#         1691
  C:1BEDH         LINE#         1692
  C:1BF7H         LINE#         1693
BL51 BANKED LINKER/LOCATER V6.22                                                      03/06/2019  08:16:57  PAGE 43


  C:1BFFH         LINE#         1694
  C:1C07H         LINE#         1695
  C:1C0FH         LINE#         1698
  C:1C33H         LINE#         1700
  C:1C33H         LINE#         1701
  C:1C40H         LINE#         1702
  C:1C40H         LINE#         1703
  C:1C78H         LINE#         1706
  C:1C78H         LINE#         1707
  C:1C7EH         LINE#         1708
  C:1C7EH         LINE#         1709
  C:1C7EH         LINE#         1710
  C:1C7EH         LINE#         1711
  C:1C7EH         LINE#         1713
  C:1C7EH         LINE#         1714
  C:1C7EH         LINE#         1715
  C:1C7EH         LINE#         1716
  C:1C7EH         LINE#         1717
  C:1C7EH         LINE#         1718
  C:1C7EH         LINE#         1719
  C:1C7EH         LINE#         1720
  C:1C7EH         LINE#         1721
  C:1C7EH         LINE#         1722
  C:1C7EH         LINE#         1723
  C:1C7EH         LINE#         1724
  C:1C81H         LINE#         1726
  C:1C81H         LINE#         1727
  C:1C87H         LINE#         1728
  C:1C87H         LINE#         1729
  C:1C87H         LINE#         1730
  C:1C87H         LINE#         1731
  C:1C87H         LINE#         1733
  C:1C87H         LINE#         1734
  C:1C87H         LINE#         1735
  C:1C87H         LINE#         1736
  C:1C87H         LINE#         1737
  C:1C87H         LINE#         1738
  C:1C87H         LINE#         1739
  C:1C87H         LINE#         1740
  C:1C87H         LINE#         1741
  C:1C87H         LINE#         1742
  C:1C87H         LINE#         1743
  C:1C87H         LINE#         1744
  C:1C87H         LINE#         1745
  C:1C8AH         LINE#         1747
  C:1C8AH         LINE#         1748
  C:1C96H         LINE#         1749
  C:1C96H         LINE#         1750
  C:1C9CH         LINE#         1751
  C:1C9CH         LINE#         1752
  C:1C9CH         LINE#         1753
  C:1C9CH         LINE#         1754
  C:1C9CH         LINE#         1756
  C:1C9CH         LINE#         1757
  C:1C9CH         LINE#         1758
  C:1C9CH         LINE#         1759
  C:1C9CH         LINE#         1760
BL51 BANKED LINKER/LOCATER V6.22                                                      03/06/2019  08:16:57  PAGE 44


  C:1C9CH         LINE#         1761
  C:1C9CH         LINE#         1762
  C:1C9CH         LINE#         1763
  C:1C9CH         LINE#         1764
  C:1C9CH         LINE#         1765
  C:1C9CH         LINE#         1766
  C:1C9CH         LINE#         1767
  C:1C9FH         LINE#         1769
  C:1C9FH         LINE#         1770
  C:1CB6H         LINE#         1771
  C:1CB6H         LINE#         1772
  C:1CBCH         LINE#         1773
  C:1CBCH         LINE#         1774
  C:1CBCH         LINE#         1775
  C:1CBCH         LINE#         1776
  C:1CBCH         LINE#         1778
  C:1CBCH         LINE#         1779
  C:1CBCH         LINE#         1780
  C:1CBCH         LINE#         1781
  C:1CBCH         LINE#         1782
  C:1CBCH         LINE#         1783
  C:1CBCH         LINE#         1784
  C:1CBCH         LINE#         1785
  C:1CBCH         LINE#         1786
  C:1CBCH         LINE#         1787
  C:1CBCH         LINE#         1788
  C:1CBCH         LINE#         1789
  C:1CBFH         LINE#         1791
  C:1CBFH         LINE#         1792
  C:1CC5H         LINE#         1793
  C:1CC5H         LINE#         1794
  C:1CC5H         LINE#         1795
  C:1CC5H         LINE#         1796
  C:1CC5H         LINE#         1798
  C:1CC5H         LINE#         1799
  C:1CC5H         LINE#         1800
  C:1CC5H         LINE#         1801
  C:1CC5H         LINE#         1802
  C:1CC5H         LINE#         1803
  C:1CC5H         LINE#         1804
  C:1CC5H         LINE#         1805
  C:1CC5H         LINE#         1806
  C:1CC5H         LINE#         1807
  C:1CC5H         LINE#         1808
  C:1CC5H         LINE#         1809
  C:1CC5H         LINE#         1811
  C:1CC5H         LINE#         1812
  C:1CC5H         LINE#         1814
  C:1CC8H         LINE#         1816
  C:1CC8H         LINE#         1818
  C:1CD5H         LINE#         1819
  C:1CD5H         LINE#         1820
  C:1D10H         LINE#         1823
  C:1D10H         LINE#         1824
  C:1D16H         LINE#         1825
  C:1D16H         LINE#         1826
  C:1D16H         LINE#         1827
BL51 BANKED LINKER/LOCATER V6.22                                                      03/06/2019  08:16:57  PAGE 45


  C:1D16H         LINE#         1828
  C:1D16H         LINE#         1830
  C:1D16H         LINE#         1831
  C:1D16H         LINE#         1832
  C:1D16H         LINE#         1833
  C:1D16H         LINE#         1834
  C:1D16H         LINE#         1835
  C:1D16H         LINE#         1836
  C:1D16H         LINE#         1837
  C:1D16H         LINE#         1838
  C:1D16H         LINE#         1839
  C:1D16H         LINE#         1840
  C:1D16H         LINE#         1841
  C:1D19H         LINE#         1843
  C:1D19H         LINE#         1844
  C:1D1FH         LINE#         1845
  C:1D1FH         LINE#         1846
  C:1D1FH         LINE#         1847
  C:1D1FH         LINE#         1848
  C:1D1FH         LINE#         1850
  C:1D1FH         LINE#         1851
  C:1D1FH         LINE#         1852
  C:1D1FH         LINE#         1853
  C:1D1FH         LINE#         1854
  C:1D1FH         LINE#         1855
  C:1D1FH         LINE#         1856
  C:1D1FH         LINE#         1857
  C:1D1FH         LINE#         1858
  C:1D1FH         LINE#         1859
  C:1D1FH         LINE#         1860
  C:1D1FH         LINE#         1861
  C:1D1FH         LINE#         1862
  C:1D21H         LINE#         1864
  C:1D21H         LINE#         1865
  C:1D2DH         LINE#         1866
  C:1D2DH         LINE#         1867
  C:1D33H         LINE#         1868
  C:1D33H         LINE#         1869
  C:1D33H         LINE#         1870
  C:1D33H         LINE#         1871
  C:1D33H         LINE#         1873
  C:1D33H         LINE#         1874
  C:1D33H         LINE#         1875
  C:1D33H         LINE#         1876
  C:1D33H         LINE#         1877
  C:1D33H         LINE#         1878
  C:1D33H         LINE#         1879
  C:1D33H         LINE#         1880
  C:1D33H         LINE#         1881
  C:1D33H         LINE#         1882
  C:1D33H         LINE#         1883
  C:1D33H         LINE#         1884
  C:1D36H         LINE#         1887
  C:1D36H         LINE#         1888
  C:1D4DH         LINE#         1889
  C:1D4DH         LINE#         1890
  C:1D53H         LINE#         1891
BL51 BANKED LINKER/LOCATER V6.22                                                      03/06/2019  08:16:57  PAGE 46


  C:1D53H         LINE#         1892
  C:1D61H         LINE#         1893
  C:1D64H         LINE#         1894
  C:1D6BH         LINE#         1896
  C:1D78H         LINE#         1897
  C:1D88H         LINE#         1898
  C:1D92H         LINE#         1899
  C:1D9AH         LINE#         1900
  C:1DA2H         LINE#         1901
  C:1DAAH         LINE#         1902
  C:1DB2H         LINE#         1903
  C:1DB5H         LINE#         1904
  C:1DB7H         LINE#         1905
  C:1DB9H         LINE#         1906
  C:1DB9H         LINE#         1907
  C:1DBAH         LINE#         1910
  C:1DBAH         LINE#         1911
  C:1DBDH         LINE#         1912
  C:1DBDH         LINE#         1913
  C:1DCBH         LINE#         1914
  C:1DCEH         LINE#         1915
  C:1DD5H         LINE#         1917
  C:1DE2H         LINE#         1918
  C:1DF2H         LINE#         1919
  C:1DFCH         LINE#         1920
  C:1E04H         LINE#         1921
  C:1E0CH         LINE#         1922
  C:1E14H         LINE#         1923
  C:1E1CH         LINE#         1924
  C:1E1FH         LINE#         1925
  C:1E21H         LINE#         1926
  C:1E23H         LINE#         1927
  C:1E23H         LINE#         1928
  C:1E23H         LINE#         1930
  C:1E23H         LINE#         1931
  C:1E23H         LINE#         1933
  C:1E23H         LINE#         1935
  -------         ENDPROC       _BACKLIGHTTIMERTREAT
  -------         PROC          INITPARAMETER
  -------         DO            
  D:000CH         SYMBOL        flagData
  D:000DH         SYMBOL        readtimes
  C:1E27H         SYMBOL        CheckIapSec0
  C:1E54H         SYMBOL        CheckIapSec1
  C:1E8DH         SYMBOL        UseInitValue
  -------         ENDDO         
  C:1E24H         LINE#         1952
  C:1E24H         LINE#         1953
  C:1E24H         LINE#         1955
  C:1E27H         LINE#         1956
  C:1E27H         LINE#         1959
  C:1E27H         LINE#         1961
  C:1E32H         LINE#         1964
  C:1E35H         LINE#         1967
  C:1E39H         LINE#         1968
  C:1E39H         LINE#         1970
  C:1E3EH         LINE#         1971
BL51 BANKED LINKER/LOCATER V6.22                                                      03/06/2019  08:16:57  PAGE 47


  C:1E46H         LINE#         1972
  C:1E49H         LINE#         1974
  C:1E4EH         LINE#         1975
  C:1E4EH         LINE#         1976
  C:1E54H         LINE#         1978
  C:1E54H         LINE#         1979
  C:1E54H         LINE#         1980
  C:1E54H         LINE#         1983
  C:1E54H         LINE#         1984
  C:1E54H         LINE#         1985
  C:1E57H         LINE#         1987
  C:1E57H         LINE#         1988
  C:1E63H         LINE#         1990
  C:1E66H         LINE#         1993
  C:1E6AH         LINE#         1994
  C:1E6AH         LINE#         1995
  C:1E6FH         LINE#         1996
  C:1E78H         LINE#         1997
  C:1E7BH         LINE#         1999
  C:1E80H         LINE#         2000
  C:1E80H         LINE#         2001
  C:1E87H         LINE#         2002
  C:1E8DH         LINE#         2004
  C:1E8DH         LINE#         2005
  C:1E8DH         LINE#         2006
  C:1E8DH         LINE#         2008
  C:1E8DH         LINE#         2009
  C:1E8DH         LINE#         2010
  C:1E96H         LINE#         2011
  C:1E9FH         LINE#         2012
  C:1EA8H         LINE#         2013
  C:1EB1H         LINE#         2014
  C:1EBAH         LINE#         2015
  C:1EC3H         LINE#         2016
  C:1ECCH         LINE#         2017
  C:1ED5H         LINE#         2018
  C:1EDEH         LINE#         2019
  C:1EE7H         LINE#         2020
  C:1EF0H         LINE#         2021
  C:1EF9H         LINE#         2022
  C:1F02H         LINE#         2023
  C:1F0BH         LINE#         2024
  C:1F14H         LINE#         2025
  C:1F1DH         LINE#         2026
  C:1F26H         LINE#         2027
  C:1F2FH         LINE#         2028
  C:1F38H         LINE#         2029
  C:1F41H         LINE#         2030
  C:1F4AH         LINE#         2031
  C:1F53H         LINE#         2032
  C:1F5CH         LINE#         2033
  C:1F65H         LINE#         2034
  C:1F6EH         LINE#         2035
  C:1F77H         LINE#         2036
  C:1F80H         LINE#         2037
  C:1F89H         LINE#         2038
  C:1F92H         LINE#         2039
BL51 BANKED LINKER/LOCATER V6.22                                                      03/06/2019  08:16:57  PAGE 48


  C:1F9BH         LINE#         2040
  C:1FA4H         LINE#         2041
  C:1FADH         LINE#         2042
  C:1FB6H         LINE#         2043
  C:1FBFH         LINE#         2044
  C:1FC8H         LINE#         2046
  C:1FD1H         LINE#         2047
  C:1FDAH         LINE#         2048
  C:1FE3H         LINE#         2049
  C:1FECH         LINE#         2050
  C:1FF5H         LINE#         2051
  C:1FFEH         LINE#         2052
  C:2007H         LINE#         2054
  C:2010H         LINE#         2055
  C:2019H         LINE#         2056
  C:2022H         LINE#         2057
  C:202BH         LINE#         2059
  C:2034H         LINE#         2060
  C:203DH         LINE#         2061
  C:2046H         LINE#         2063
  C:204EH         LINE#         2066
  C:2054H         LINE#         2067
  C:2058H         LINE#         2068
  C:2058H         LINE#         2069
  C:2058H         LINE#         2070
  C:205BH         LINE#         2071
  -------         ENDPROC       INITPARAMETER
  -------         PROC          BUS0RECDEAL
  C:004EH         LINE#         2090
  C:004EH         LINE#         2091
  C:004EH         LINE#         2104
  C:005CH         LINE#         2105
  C:005CH         LINE#         2107
  C:005CH         LINE#         2108
  C:00F4H         LINE#         2109
  C:00F4H         LINE#         2110
  C:00F4H         LINE#         2111
  C:00FAH         LINE#         2112
  C:00FAH         LINE#         2113
  C:0102H         LINE#         2114
  C:0102H         LINE#         2115
  C:0104H         LINE#         2116
  C:010BH         LINE#         2117
  C:010DH         LINE#         2118
  C:0110H         LINE#         2119
  C:0110H         LINE#         2120
  C:0110H         LINE#         2121
  C:0113H         LINE#         2122
  C:0113H         LINE#         2123
  C:011BH         LINE#         2124
  C:011BH         LINE#         2125
  C:0123H         LINE#         2126
  C:012BH         LINE#         2127
  C:0133H         LINE#         2128
  C:0136H         LINE#         2129
  C:0136H         LINE#         2132
  C:0136H         LINE#         2133
BL51 BANKED LINKER/LOCATER V6.22                                                      03/06/2019  08:16:57  PAGE 49


  C:0139H         LINE#         2134
  C:0139H         LINE#         2135
  C:013FH         LINE#         2136
  C:013FH         LINE#         2137
  C:0141H         LINE#         2138
  C:0144H         LINE#         2139
  C:0144H         LINE#         2140
  C:0146H         LINE#         2141
  C:0149H         LINE#         2142
  C:014FH         LINE#         2143
  C:014FH         LINE#         2144
  C:014FH         LINE#         2145
  C:0152H         LINE#         2146
  C:0152H         LINE#         2147
  C:0152H         LINE#         2151
  C:0155H         LINE#         2152
  C:015DH         LINE#         2153
  C:015DH         LINE#         2155
  C:0160H         LINE#         2156
  C:0162H         LINE#         2157
  C:016BH         LINE#         2158
  C:016BH         LINE#         2159
  C:0173H         LINE#         2160
  C:017BH         LINE#         2161
  C:0183H         LINE#         2162
  C:0187H         LINE#         2163
  C:018FH         LINE#         2164
  C:0197H         LINE#         2165
  C:019EH         LINE#         2166
  C:019EH         LINE#         2167
  C:019EH         LINE#         2168
  C:019EH         LINE#         2169
  C:019EH         LINE#         2170
  C:01A1H         LINE#         2171
  C:01A1H         LINE#         2172
  C:01A3H         LINE#         2174
  C:01A6H         LINE#         2175
  C:01AEH         LINE#         2176
  C:01AEH         LINE#         2177
  C:01B0H         LINE#         2178
  C:01B2H         LINE#         2179
  C:01CAH         LINE#         2181
  C:01CAH         LINE#         2184
  C:01CEH         LINE#         2185
  C:01D1H         LINE#         2186
  C:01D1H         LINE#         2187
  C:01D1H         LINE#         2188
  C:01D1H         LINE#         2189
  C:01D4H         LINE#         2190
  C:01D4H         LINE#         2191
  C:01D6H         LINE#         2193
  C:01D9H         LINE#         2194
  C:01E1H         LINE#         2195
  C:01E1H         LINE#         2196
  C:01E5H         LINE#         2197
  C:01E7H         LINE#         2198
  C:01FFH         LINE#         2200
BL51 BANKED LINKER/LOCATER V6.22                                                      03/06/2019  08:16:57  PAGE 50


  C:01FFH         LINE#         2203
  C:0203H         LINE#         2204
  C:0206H         LINE#         2205
  C:0206H         LINE#         2206
  C:0209H         LINE#         2207
  C:0209H         LINE#         2208
  C:0209H         LINE#         2209
  C:020CH         LINE#         2210
  C:020CH         LINE#         2211
  C:020CH         LINE#         2212
  C:020CH         LINE#         2213
  C:0212H         LINE#         2214
  C:0212H         LINE#         2215
  C:0214H         LINE#         2217
  C:021AH         LINE#         2219
  C:021DH         LINE#         2222
  C:0220H         LINE#         2223
  C:0220H         LINE#         2224
  C:0222H         LINE#         2225
  C:0228H         LINE#         2226
  C:0228H         LINE#         2227
  C:0228H         LINE#         2228
  C:022BH         LINE#         2229
  C:022BH         LINE#         2230
  C:022BH         LINE#         2231
  C:0234H         LINE#         2232
  C:0234H         LINE#         2233
  C:0234H         LINE#         2234
  C:0234H         LINE#         2235
  C:0244H         LINE#         2236
  C:0244H         LINE#         2237
  C:0244H         LINE#         2238
  C:0248H         LINE#         2239
  C:024AH         LINE#         2240
  C:024AH         LINE#         2241
  C:024EH         LINE#         2242
  C:0250H         LINE#         2243
  C:0250H         LINE#         2244
  C:0254H         LINE#         2245
  C:0254H         LINE#         2246
  C:0254H         LINE#         2247
  C:025BH         LINE#         2248
  C:025EH         LINE#         2249
  C:025EH         LINE#         2250
  C:025EH         LINE#         2251
  C:0261H         LINE#         2252
  C:0261H         LINE#         2253
  C:0267H         LINE#         2254
  C:0267H         LINE#         2255
  C:027EH         LINE#         2256
  C:027EH         LINE#         2257
  C:027EH         LINE#         2258
  C:0281H         LINE#         2259
  C:0282H         LINE#         2261
  C:0282H         LINE#         2263
  C:0282H         LINE#         2264
  C:0285H         LINE#         2265
BL51 BANKED LINKER/LOCATER V6.22                                                      03/06/2019  08:16:57  PAGE 51


  C:0286H         LINE#         2267
  C:0286H         LINE#         2269
  C:0286H         LINE#         2270
  C:0289H         LINE#         2271
  C:028AH         LINE#         2273
  C:028AH         LINE#         2275
  C:028AH         LINE#         2276
  C:0290H         LINE#         2277
  C:0290H         LINE#         2279
  C:0290H         LINE#         2280
  C:0290H         LINE#         2281
  C:0290H         LINE#         2283
  C:0290H         LINE#         2284
  C:0292H         LINE#         2286
  C:029BH         LINE#         2288
  C:029DH         LINE#         2289
  C:02A6H         LINE#         2290
  C:02A6H         LINE#         2292
  C:02A6H         LINE#         2293
  C:02A9H         LINE#         2294
  C:02AFH         LINE#         2295
  C:02B2H         LINE#         2298
  C:02B2H         LINE#         2299
  C:02B2H         LINE#         2300
  C:02B2H         LINE#         2301
  C:02B2H         LINE#         2302
  C:02B2H         LINE#         2303
  C:02B2H         LINE#         2304
  C:02B5H         LINE#         2305
  C:02BBH         LINE#         2306
  C:02BBH         LINE#         2307
  C:02BDH         LINE#         2308
  C:02C0H         LINE#         2309
  C:02C0H         LINE#         2310
  C:02C2H         LINE#         2311
  C:02C5H         LINE#         2312
  C:02CBH         LINE#         2313
  C:02CBH         LINE#         2314
  C:02CBH         LINE#         2315
  C:02CEH         LINE#         2317
  C:02CEH         LINE#         2318
  C:02CEH         LINE#         2324
  C:02D5H         LINE#         2325
  C:02DBH         LINE#         2326
  C:02DBH         LINE#         2327
  C:02E0H         LINE#         2328
  C:02E0H         LINE#         2329
  C:02E0H         LINE#         2330
  C:02E0H         LINE#         2331
  C:02E0H         LINE#         2332
  C:02E3H         LINE#         2333
  C:02E3H         LINE#         2334
  C:02E9H         LINE#         2335
  C:02E9H         LINE#         2336
  C:02EBH         LINE#         2337
  C:02EEH         LINE#         2338
  C:02F7H         LINE#         2339
BL51 BANKED LINKER/LOCATER V6.22                                                      03/06/2019  08:16:57  PAGE 52


  C:02F7H         LINE#         2340
  C:02F7H         LINE#         2341
  C:02F7H         LINE#         2343
  C:02F7H         LINE#         2344
  C:02F7H         LINE#         2345
  C:02FAH         LINE#         2346
  C:02FAH         LINE#         2347
  C:02FAH         LINE#         2348
  C:02FAH         LINE#         2349
  C:02FAH         LINE#         2350
  C:0310H         LINE#         2352
  C:0310H         LINE#         2354
  C:0310H         LINE#         2355
  C:0326H         LINE#         2357
  C:0326H         LINE#         2359
  C:0326H         LINE#         2360
  C:032CH         LINE#         2361
  C:032CH         LINE#         2362
  C:032FH         LINE#         2363
  C:0336H         LINE#         2365
  C:0338H         LINE#         2367
  C:037EH         LINE#         2372
  C:037EH         LINE#         2373
  C:0380H         LINE#         2374
  C:0383H         LINE#         2375
  C:038CH         LINE#         2376
  C:038CH         LINE#         2377
  C:0392H         LINE#         2378
  C:0392H         LINE#         2380
  C:0392H         LINE#         2381
  C:0392H         LINE#         2382
  C:0395H         LINE#         2383
  C:0395H         LINE#         2384
  C:03A0H         LINE#         2385
  C:03A0H         LINE#         2386
  C:03A3H         LINE#         2387
  C:03A3H         LINE#         2388
  C:03A3H         LINE#         2389
  C:03A3H         LINE#         2390
  C:03ABH         LINE#         2391
  C:03ABH         LINE#         2392
  C:03B0H         LINE#         2393
  C:03B0H         LINE#         2394
  C:03B8H         LINE#         2395
  C:03C0H         LINE#         2396
  C:03C8H         LINE#         2397
  C:03CCH         LINE#         2398
  C:03D0H         LINE#         2399
  C:03D3H         LINE#         2400
  C:03D3H         LINE#         2402
  C:03D9H         LINE#         2403
  C:03D9H         LINE#         2404
  C:03D9H         LINE#         2405
  C:03DCH         LINE#         2406
  C:03DCH         LINE#         2407
  C:03DCH         LINE#         2408
  C:03DFH         LINE#         2409
BL51 BANKED LINKER/LOCATER V6.22                                                      03/06/2019  08:16:57  PAGE 53


  C:03E3H         LINE#         2410
  C:03E3H         LINE#         2411
  C:03E3H         LINE#         2412
  C:03E6H         LINE#         2413
  C:03E6H         LINE#         2414
  C:03EEH         LINE#         2415
  C:03EEH         LINE#         2416
  C:03F3H         LINE#         2417
  C:03F3H         LINE#         2418
  C:03FBH         LINE#         2419
  C:0403H         LINE#         2420
  C:040BH         LINE#         2421
  C:040FH         LINE#         2422
  C:0413H         LINE#         2423
  C:0416H         LINE#         2424
  C:0416H         LINE#         2425
  C:041CH         LINE#         2426
  C:041CH         LINE#         2427
  C:041CH         LINE#         2428
  C:041FH         LINE#         2429
  C:041FH         LINE#         2430
  C:041FH         LINE#         2431
  C:0422H         LINE#         2432
  C:0426H         LINE#         2433
  C:0426H         LINE#         2434
  C:0426H         LINE#         2435
  C:0429H         LINE#         2436
  C:0429H         LINE#         2437
  C:0431H         LINE#         2438
  C:0431H         LINE#         2439
  C:0436H         LINE#         2440
  C:0436H         LINE#         2441
  C:043EH         LINE#         2442
  C:0446H         LINE#         2443
  C:044EH         LINE#         2444
  C:0452H         LINE#         2445
  C:0456H         LINE#         2446
  C:0459H         LINE#         2447
  C:0459H         LINE#         2448
  C:045DH         LINE#         2449
  C:045DH         LINE#         2450
  C:045DH         LINE#         2451
  C:0460H         LINE#         2452
  C:0460H         LINE#         2454
  C:0470H         LINE#         2456
  C:0476H         LINE#         2457
  C:047FH         LINE#         2458
  C:047FH         LINE#         2459
  C:0483H         LINE#         2460
  C:0487H         LINE#         2461
  C:048BH         LINE#         2463
  C:0495H         LINE#         2464
  C:0498H         LINE#         2465
  C:0498H         LINE#         2466
  C:04AAH         LINE#         2468
  C:04AAH         LINE#         2471
  C:04B1H         LINE#         2472
BL51 BANKED LINKER/LOCATER V6.22                                                      03/06/2019  08:16:57  PAGE 54


  C:04B1H         LINE#         2473
  C:04B1H         LINE#         2474
  C:04B1H         LINE#         2475
  C:04B1H         LINE#         2476
  C:04B1H         LINE#         2477
  C:04B3H         LINE#         2478
  C:04B3H         LINE#         2479
  C:04B9H         LINE#         2480
  C:04B9H         LINE#         2481
  C:04BDH         LINE#         2482
  C:04BDH         LINE#         2483
  C:04C3H         LINE#         2484
  C:04C3H         LINE#         2485
  C:04C6H         LINE#         2486
  C:04C6H         LINE#         2487
  C:04CEH         LINE#         2488
  C:04D6H         LINE#         2489
  C:04DEH         LINE#         2490
  C:04E6H         LINE#         2491
  C:04EBH         LINE#         2492
  C:04EBH         LINE#         2494
  C:04EDH         LINE#         2496
  C:04EDH         LINE#         2497
  C:04F2H         LINE#         2498
  C:04F5H         LINE#         2500
  C:04F5H         LINE#         2501
  C:04F5H         LINE#         2502
  C:04F5H         LINE#         2503
  C:04F8H         LINE#         2504
  C:04FBH         LINE#         2505
  C:04FBH         LINE#         2525
  C:04FBH         LINE#         2526
  C:0503H         LINE#         2527
  C:0503H         LINE#         2528
  C:0503H         LINE#         2529
  C:0503H         LINE#         2530
  C:0503H         LINE#         2531
  C:0503H         LINE#         2532
  C:0505H         LINE#         2533
  C:0505H         LINE#         2534
  C:050DH         LINE#         2535
  C:050DH         LINE#         2536
  C:0510H         LINE#         2537
  C:0510H         LINE#         2538
  C:0510H         LINE#         2539
  C:0510H         LINE#         2540
  C:0513H         LINE#         2541
  C:0513H         LINE#         2542
  C:051BH         LINE#         2543
  C:051BH         LINE#         2544
  C:0520H         LINE#         2545
  C:0520H         LINE#         2546
  C:0528H         LINE#         2547
  C:0530H         LINE#         2548
  C:0538H         LINE#         2549
  C:053CH         LINE#         2550
  C:0542H         LINE#         2551
BL51 BANKED LINKER/LOCATER V6.22                                                      03/06/2019  08:16:57  PAGE 55


  C:0542H         LINE#         2552
  C:0545H         LINE#         2554
  C:0545H         LINE#         2555
  C:0545H         LINE#         2556
  C:0545H         LINE#         2557
  C:0545H         LINE#         2558
  C:0548H         LINE#         2559
  C:0548H         LINE#         2560
  C:0550H         LINE#         2561
  C:0550H         LINE#         2562
  C:0558H         LINE#         2563
  C:0560H         LINE#         2564
  C:0568H         LINE#         2565
  C:056BH         LINE#         2567
  C:0571H         LINE#         2568
  C:0577H         LINE#         2569
  C:057DH         LINE#         2570
  C:057DH         LINE#         2571
  C:0580H         LINE#         2572
  C:0580H         LINE#         2573
  C:0583H         LINE#         2575
  C:058DH         LINE#         2576
  C:0597H         LINE#         2577
  C:05A1H         LINE#         2578
  C:05ABH         LINE#         2579
  C:05B5H         LINE#         2580
  C:05BDH         LINE#         2583
  C:05C5H         LINE#         2584
  C:05CDH         LINE#         2585
  C:05D5H         LINE#         2586
  C:05DBH         LINE#         2587
  C:05DDH         LINE#         2588
  C:05DFH         LINE#         2590
  C:05F7H         LINE#         2591
  C:05F7H         LINE#         2592
  C:05F7H         LINE#         2593
  C:05F7H         LINE#         2594
  C:05FAH         LINE#         2597
  C:05FAH         LINE#         2598
  C:05FAH         LINE#         2599
  C:05FAH         LINE#         2600
  C:05FDH         LINE#         2602
  C:05FDH         LINE#         2603
  C:05FDH         LINE#         2604
  C:05FDH         LINE#         2605
  C:05FDH         LINE#         2606
  C:0612H         LINE#         2608
  C:0613H         LINE#         2610
  C:0613H         LINE#         2614
  C:0613H         LINE#         2615
  C:0613H         LINE#         2616
  C:0613H         LINE#         2617
  C:0613H         LINE#         2618
  C:0613H         LINE#         2619
  C:0616H         LINE#         2621
  C:0616H         LINE#         2622
  C:061EH         LINE#         2623
BL51 BANKED LINKER/LOCATER V6.22                                                      03/06/2019  08:16:57  PAGE 56


  C:0626H         LINE#         2625
  C:062EH         LINE#         2626
  C:0635H         LINE#         2627
  C:0638H         LINE#         2629
  C:063EH         LINE#         2630
  C:0641H         LINE#         2631
  C:0644H         LINE#         2633
  C:064CH         LINE#         2634
  C:0654H         LINE#         2635
  C:065CH         LINE#         2636
  C:0662H         LINE#         2637
  C:0664H         LINE#         2638
  C:0666H         LINE#         2641
  C:067EH         LINE#         2642
  C:067EH         LINE#         2643
  C:0683H         LINE#         2644
  C:0686H         LINE#         2645
  C:068DH         LINE#         2647
  C:068DH         LINE#         2648
  C:068DH         LINE#         2649
  C:068DH         LINE#         2650
  C:068DH         LINE#         2651
  C:068DH         LINE#         2652
  C:068DH         LINE#         2653
  C:068DH         LINE#         2654
  C:0690H         LINE#         2655
  C:0692H         LINE#         2656
  C:0694H         LINE#         2657
  C:0695H         LINE#         2660
  C:0695H         LINE#         2661
  C:069EH         LINE#         2662
  C:069EH         LINE#         2663
  C:069EH         LINE#         2665
  C:069EH         LINE#         2666
  C:069EH         LINE#         2667
  C:069EH         LINE#         2669
  C:069EH         LINE#         2670
  C:069EH         LINE#         2672
  C:069EH         LINE#         2673
  C:06A1H         LINE#         2676
  C:06A7H         LINE#         2677
  C:06ABH         LINE#         2678
  C:06B1H         LINE#         2680
  C:06B3H         LINE#         2682
  C:06B3H         LINE#         2683
  C:06B3H         LINE#         2684
  C:06B3H         LINE#         2685
  C:06B5H         LINE#         2687
  C:06B5H         LINE#         2688
  C:06B5H         LINE#         2689
  C:06B7H         LINE#         2691
  C:06B7H         LINE#         2694
  C:06B7H         LINE#         2696
  C:06B7H         LINE#         2697
  C:06B9H         LINE#         2699
  C:06B9H         LINE#         2700
  C:06C9H         LINE#         2701
BL51 BANKED LINKER/LOCATER V6.22                                                      03/06/2019  08:16:57  PAGE 57


  C:06C9H         LINE#         2702
  C:06C9H         LINE#         2703
  C:06C9H         LINE#         2704
  C:06C9H         LINE#         2705
  C:06C9H         LINE#         2706
  C:06CBH         LINE#         2707
  C:06CBH         LINE#         2708
  C:06CBH         LINE#         2710
  C:06CBH         LINE#         2711
  C:06D2H         LINE#         2712
  C:06D5H         LINE#         2714
  C:06DBH         LINE#         2715
  C:06E4H         LINE#         2716
  C:06E4H         LINE#         2718
  C:06E4H         LINE#         2719
  C:06E7H         LINE#         2720
  C:06E7H         LINE#         2721
  C:06E7H         LINE#         2722
  -------         ENDPROC       BUS0RECDEAL
  -------         PROC          _LEVELTOVALUE
  D:0007H         SYMBOL        VoiceLevel
  -------         DO            
  X:0160H         SYMBOL        VoiceValue
  -------         ENDDO         
  C:2BC0H         LINE#         2726
  C:2BC0H         LINE#         2727
  C:2BC0H         LINE#         2729
  C:2BE8H         LINE#         2730
  C:2BE8H         LINE#         2731
  C:2BE8H         LINE#         2732
  C:2BEDH         LINE#         2733
  C:2BEFH         LINE#         2734
  C:2BEFH         LINE#         2735
  C:2BF5H         LINE#         2736
  C:2BF7H         LINE#         2737
  C:2BF7H         LINE#         2738
  C:2BFDH         LINE#         2739
  C:2BFFH         LINE#         2740
  C:2BFFH         LINE#         2741
  C:2C05H         LINE#         2742
  C:2C07H         LINE#         2743
  C:2C07H         LINE#         2744
  C:2C0DH         LINE#         2745
  C:2C0FH         LINE#         2746
  C:2C0FH         LINE#         2747
  C:2C15H         LINE#         2748
  C:2C17H         LINE#         2749
  C:2C17H         LINE#         2750
  C:2C1DH         LINE#         2751
  C:2C1FH         LINE#         2752
  C:2C1FH         LINE#         2753
  C:2C25H         LINE#         2754
  C:2C27H         LINE#         2755
  C:2C27H         LINE#         2756
  C:2C2DH         LINE#         2757
  C:2C2DH         LINE#         2758
  C:2C2DH         LINE#         2759
BL51 BANKED LINKER/LOCATER V6.22                                                      03/06/2019  08:16:57  PAGE 58


  C:2C32H         LINE#         2760
  -------         ENDPROC       _LEVELTOVALUE
  -------         PROC          BUS0SENDDEAL
  C:0D57H         LINE#         2779
  C:0D57H         LINE#         2780
  C:0D57H         LINE#         2782
  C:0D5BH         LINE#         2783
  C:0D6EH         LINE#         2784
  C:0D70H         LINE#         2785
  C:0D75H         LINE#         2792
  C:0DBCH         LINE#         2793
  C:0DBCH         LINE#         2794
  C:0DBCH         LINE#         2795
  C:0DC2H         LINE#         2796
  C:0DC2H         LINE#         2797
  C:0DC6H         LINE#         2798
  C:0DC6H         LINE#         2799
  C:0DC9H         LINE#         2800
  C:0DC9H         LINE#         2801
  C:0DCFH         LINE#         2802
  C:0DCFH         LINE#         2803
  C:0DD2H         LINE#         2804
  C:0DD2H         LINE#         2805
  C:0DD4H         LINE#         2806
  C:0DD7H         LINE#         2807
  C:0DDDH         LINE#         2808
  C:0DDDH         LINE#         2809
  C:0DDDH         LINE#         2810
  C:0DE0H         LINE#         2811
  C:0DE0H         LINE#         2812
  C:0DE0H         LINE#         2813
  C:0DE0H         LINE#         2814
  C:0DE3H         LINE#         2815
  C:0DEAH         LINE#         2816
  C:0DEDH         LINE#         2817
  C:0DEDH         LINE#         2818
  C:0DF0H         LINE#         2819
  C:0DF0H         LINE#         2820
  C:0DF2H         LINE#         2821
  C:0DF4H         LINE#         2822
  C:0DF6H         LINE#         2824
  C:0DF6H         LINE#         2825
  C:0DFAH         LINE#         2826
  C:0DFDH         LINE#         2827
  C:0DFDH         LINE#         2828
  C:0DFDH         LINE#         2830
  C:0DFDH         LINE#         2831
  C:0DFFH         LINE#         2832
  C:0E01H         LINE#         2833
  C:0E01H         LINE#         2834
  C:0E19H         LINE#         2836
  C:0E19H         LINE#         2840
  C:0E1DH         LINE#         2841
  C:0E20H         LINE#         2842
  C:0E20H         LINE#         2843
  C:0E20H         LINE#         2844
  C:0E20H         LINE#         2845
BL51 BANKED LINKER/LOCATER V6.22                                                      03/06/2019  08:16:57  PAGE 59


  C:0E23H         LINE#         2846
  C:0E23H         LINE#         2847
  C:0E23H         LINE#         2848
  C:0E23H         LINE#         2849
  C:0E23H         LINE#         2850
  C:0E26H         LINE#         2851
  C:0E28H         LINE#         2852
  C:0E2EH         LINE#         2853
  C:0E2EH         LINE#         2854
  C:0E31H         LINE#         2855
  C:0E31H         LINE#         2856
  C:0E33H         LINE#         2857
  C:0E36H         LINE#         2858
  C:0E3CH         LINE#         2859
  C:0E3CH         LINE#         2860
  C:0E3CH         LINE#         2861
  C:0E3FH         LINE#         2863
  C:0E3FH         LINE#         2864
  C:0E3FH         LINE#         2865
  C:0E3FH         LINE#         2866
  C:0E42H         LINE#         2867
  C:0E49H         LINE#         2868
  C:0E4CH         LINE#         2869
  C:0E4CH         LINE#         2870
  C:0E4FH         LINE#         2871
  C:0E4FH         LINE#         2872
  C:0E51H         LINE#         2873
  C:0E53H         LINE#         2874
  C:0E55H         LINE#         2876
  C:0E55H         LINE#         2877
  C:0E59H         LINE#         2878
  C:0E5CH         LINE#         2879
  C:0E5CH         LINE#         2880
  C:0E5CH         LINE#         2882
  C:0E5CH         LINE#         2883
  C:0E5EH         LINE#         2884
  C:0E60H         LINE#         2885
  C:0E60H         LINE#         2886
  C:0E78H         LINE#         2888
  C:0E78H         LINE#         2892
  C:0E7CH         LINE#         2893
  C:0E7FH         LINE#         2894
  C:0E7FH         LINE#         2895
  C:0E7FH         LINE#         2896
  C:0E7FH         LINE#         2897
  C:0E82H         LINE#         2898
  C:0E82H         LINE#         2899
  C:0E88H         LINE#         2900
  C:0E88H         LINE#         2901
  C:0E8AH         LINE#         2902
  C:0E94H         LINE#         2903
  C:0E9AH         LINE#         2904
  C:0E9AH         LINE#         2905
  C:0E9EH         LINE#         2906
  C:0EA1H         LINE#         2907
  C:0EA1H         LINE#         2908
  C:0EA4H         LINE#         2909
BL51 BANKED LINKER/LOCATER V6.22                                                      03/06/2019  08:16:57  PAGE 60


  C:0EAAH         LINE#         2910
  C:0EAAH         LINE#         2911
  C:0EB1H         LINE#         2912
  C:0EB9H         LINE#         2913
  C:0EC1H         LINE#         2914
  C:0EC9H         LINE#         2915
  C:0ECDH         LINE#         2916
  C:0ED5H         LINE#         2917
  C:0EDDH         LINE#         2918
  C:0EE5H         LINE#         2919
  C:0EEEH         LINE#         2920
  C:0EEEH         LINE#         2921
  C:0EEEH         LINE#         2922
  C:0EEEH         LINE#         2923
  C:0EEEH         LINE#         2924
  C:0EF4H         LINE#         2925
  C:0EF4H         LINE#         2926
  C:0EF6H         LINE#         2927
  C:0EF8H         LINE#         2928
  C:0EFEH         LINE#         2929
  C:0F04H         LINE#         2930
  C:0F04H         LINE#         2931
  C:0F08H         LINE#         2932
  C:0F0BH         LINE#         2933
  C:0F0BH         LINE#         2934
  C:0F0EH         LINE#         2935
  C:0F21H         LINE#         2936
  C:0F21H         LINE#         2937
  C:0F21H         LINE#         2938
  C:0F24H         LINE#         2939
  C:0F24H         LINE#         2940
  C:0F24H         LINE#         2941
  C:0F24H         LINE#         2943
  C:0F2AH         LINE#         2944
  C:0F30H         LINE#         2945
  C:0F30H         LINE#         2946
  C:0F32H         LINE#         2947
  C:0F35H         LINE#         2948
  C:0F35H         LINE#         2949
  C:0F37H         LINE#         2950
  C:0F3AH         LINE#         2951
  C:0F40H         LINE#         2952
  C:0F40H         LINE#         2953
  C:0F40H         LINE#         2954
  C:0F43H         LINE#         2955
  C:0F43H         LINE#         2956
  C:0F43H         LINE#         2957
  C:0F46H         LINE#         2958
  C:0F46H         LINE#         2959
  C:0F49H         LINE#         2960
  C:0F49H         LINE#         2961
  C:0F4BH         LINE#         2962
  C:0F4DH         LINE#         2963
  C:0F4FH         LINE#         2965
  C:0F4FH         LINE#         2966
  C:0F53H         LINE#         2967
  C:0F55H         LINE#         2968
BL51 BANKED LINKER/LOCATER V6.22                                                      03/06/2019  08:16:57  PAGE 61


  C:0F55H         LINE#         2969
  C:0F55H         LINE#         2971
  C:0F55H         LINE#         2972
  C:0F57H         LINE#         2973
  C:0F59H         LINE#         2974
  C:0F59H         LINE#         2975
  C:0F5CH         LINE#         2978
  C:0F5EH         LINE#         2979
  C:0F64H         LINE#         2980
  C:0F64H         LINE#         2981
  C:0F68H         LINE#         2982
  C:0F6AH         LINE#         2983
  C:0F6AH         LINE#         2984
  C:0F85H         LINE#         2987
  C:0F85H         LINE#         2988
  C:0F89H         LINE#         2989
  C:0F8BH         LINE#         2990
  C:0F8BH         LINE#         2991
  C:0FA2H         LINE#         2994
  C:0FA2H         LINE#         2995
  C:0FA6H         LINE#         2996
  C:0FA8H         LINE#         2997
  C:0FA8H         LINE#         2998
  C:0FC2H         LINE#         3001
  C:0FC2H         LINE#         3002
  C:0FC9H         LINE#         3003
  C:0FC9H         LINE#         3004
  C:0FC9H         LINE#         3005
  C:0FD0H         LINE#         3006
  C:0FD3H         LINE#         3007
  C:0FD3H         LINE#         3008
  C:0FD3H         LINE#         3009
  C:0FD6H         LINE#         3010
  C:0FD6H         LINE#         3011
  C:0FD6H         LINE#         3012
  C:0FD6H         LINE#         3013
  C:0FD6H         LINE#         3014
  C:0FD8H         LINE#         3015
  C:0FDBH         LINE#         3022
  C:1021H         LINE#         3027
  C:1021H         LINE#         3028
  C:1023H         LINE#         3029
  C:1026H         LINE#         3030
  C:102CH         LINE#         3031
  C:102CH         LINE#         3033
  C:102CH         LINE#         3034
  C:102EH         LINE#         3035
  C:102EH         LINE#         3036
  C:1034H         LINE#         3037
  C:1034H         LINE#         3038
  C:1038H         LINE#         3039
  C:1038H         LINE#         3040
  C:103EH         LINE#         3041
  C:103EH         LINE#         3042
  C:1041H         LINE#         3043
  C:1041H         LINE#         3044
  C:1049H         LINE#         3045
BL51 BANKED LINKER/LOCATER V6.22                                                      03/06/2019  08:16:57  PAGE 62


  C:1051H         LINE#         3046
  C:1059H         LINE#         3047
  C:1061H         LINE#         3048
  C:1066H         LINE#         3049
  C:1066H         LINE#         3050
  C:1068H         LINE#         3052
  C:1068H         LINE#         3053
  C:106DH         LINE#         3054
  C:1070H         LINE#         3055
  C:1070H         LINE#         3056
  C:1070H         LINE#         3057
  C:1074H         LINE#         3058
  C:107AH         LINE#         3059
  C:107DH         LINE#         3060
  C:107DH         LINE#         3061
  C:107DH         LINE#         3062
  C:107FH         LINE#         3063
  C:1085H         LINE#         3064
  C:1087H         LINE#         3065
  C:108BH         LINE#         3066
  C:108FH         LINE#         3067
  C:1093H         LINE#         3068
  C:1094H         LINE#         3069
  C:1094H         LINE#         3070
  C:1097H         LINE#         3071
  C:1097H         LINE#         3072
  C:1097H         LINE#         3073
  C:1097H         LINE#         3074
  C:1099H         LINE#         3075
  C:1099H         LINE#         3076
  C:10A1H         LINE#         3077
  C:10A1H         LINE#         3079
  C:10A1H         LINE#         3080
  C:10A4H         LINE#         3081
  C:10A4H         LINE#         3082
  C:10A4H         LINE#         3084
  C:10A4H         LINE#         3085
  C:10A4H         LINE#         3086
  -------         ENDPROC       BUS0SENDDEAL
  -------         PROC          BUS0MANAGE
  C:3404H         LINE#         3103
  C:3404H         LINE#         3104
  C:3404H         LINE#         3105
  C:3404H         LINE#         3106
  C:3404H         LINE#         3107
  C:3407H         LINE#         3108
  C:340AH         LINE#         3109
  C:340AH         LINE#         3110
  C:3411H         LINE#         3111
  C:3411H         LINE#         3112
  C:3414H         LINE#         3113
  C:3414H         LINE#         3114
  C:341BH         LINE#         3115
  C:341BH         LINE#         3116
  C:3422H         LINE#         3117
  -------         ENDPROC       BUS0MANAGE
  -------         PROC          INITKEYCALLADDR
BL51 BANKED LINKER/LOCATER V6.22                                                      03/06/2019  08:16:57  PAGE 63


  C:337AH         LINE#         3134
  C:337AH         LINE#         3135
  C:337AH         LINE#         3136
  C:3382H         LINE#         3137
  C:338AH         LINE#         3138
  C:3392H         LINE#         3139
  C:3398H         LINE#         3140
  C:339AH         LINE#         3141
  C:339CH         LINE#         3144
  -------         ENDPROC       INITKEYCALLADDR
  -------         PROC          _ADDKEYVALUE
  D:0007H         SYMBOL        byKey
  -------         DO            
  D:0006H         SYMBOL        byTemp
  -------         ENDDO         
  C:3332H         LINE#         3160
  C:3332H         LINE#         3161
  C:3332H         LINE#         3164
  C:3334H         LINE#         3165
  C:3334H         LINE#         3166
  C:334CH         LINE#         3167
  C:3350H         LINE#         3168
  C:3355H         LINE#         3169
  -------         ENDPROC       _ADDKEYVALUE
  -------         PROC          _GETKEYCALLADDR
  D:0007H         SYMBOL        byFlag
  -------         DO            
  D:0006H         SYMBOL        byTemp
  -------         ENDDO         
  C:2D4EH         LINE#         3185
  C:2D4EH         LINE#         3186
  C:2D4EH         LINE#         3189
  C:2D59H         LINE#         3190
  C:2D59H         LINE#         3191
  C:2D59H         LINE#         3192
  C:2D5EH         LINE#         3193
  C:2D60H         LINE#         3194
  C:2D60H         LINE#         3195
  C:2D65H         LINE#         3196
  C:2D67H         LINE#         3197
  C:2D67H         LINE#         3198
  C:2D6CH         LINE#         3199
  C:2D6EH         LINE#         3200
  C:2D6EH         LINE#         3201
  C:2D71H         LINE#         3202
  C:2D71H         LINE#         3203
  C:2D71H         LINE#         3204
  C:2D79H         LINE#         3205
  C:2D79H         LINE#         3206
  C:2D7CH         LINE#         3207
  C:2D7CH         LINE#         3208
  C:2D7EH         LINE#         3209
  C:2D84H         LINE#         3210
  C:2D8CH         LINE#         3211
  C:2D8CH         LINE#         3212
  C:2D8FH         LINE#         3213
  C:2D8FH         LINE#         3214
BL51 BANKED LINKER/LOCATER V6.22                                                      03/06/2019  08:16:57  PAGE 64


  C:2D96H         LINE#         3215
  C:2D9EH         LINE#         3216
  C:2D9EH         LINE#         3217
  C:2DA1H         LINE#         3218
  C:2DA1H         LINE#         3219
  C:2DA7H         LINE#         3220
  C:2DA8H         LINE#         3221
  -------         ENDPROC       _GETKEYCALLADDR
  -------         PROC          _GETVOLLEVEL
  D:0007H         SYMBOL        VloValue
  C:31C3H         LINE#         3225
  C:31C3H         LINE#         3226
  C:31C3H         LINE#         3227
  C:31CAH         LINE#         3228
  C:31D0H         LINE#         3229
  C:31D6H         LINE#         3230
  C:31DCH         LINE#         3231
  C:31E2H         LINE#         3232
  C:31E8H         LINE#         3233
  C:31EEH         LINE#         3234
  C:31F4H         LINE#         3235
  C:31F4H         LINE#         3236
  C:31F6H         LINE#         3237
  -------         ENDPROC       _GETVOLLEVEL
  -------         PROC          _ADDVOL
  D:0082H         SYMBOL        pbyData
  C:34F8H         LINE#         3255
  C:34FCH         LINE#         3256
  C:34FCH         LINE#         3257
  C:3503H         LINE#         3258
  C:3503H         LINE#         3259
  C:3509H         LINE#         3260
  C:350CH         LINE#         3264
  C:350CH         LINE#         3265
  -------         ENDPROC       _ADDVOL
  -------         PROC          _ADDPLAYVOICEVOL
  D:0006H         SYMBOL        pbyData
  C:3463H         LINE#         3283
  C:3463H         LINE#         3284
  C:3463H         LINE#         3285
  C:3473H         LINE#         3286
  C:3473H         LINE#         3287
  C:347DH         LINE#         3288
  C:3480H         LINE#         3292
  C:3480H         LINE#         3293
  -------         ENDPROC       _ADDPLAYVOICEVOL
  -------         PROC          _DECVOL
  D:0082H         SYMBOL        pbyData
  C:356DH         LINE#         3311
  C:3571H         LINE#         3312
  C:3571H         LINE#         3313
  C:3578H         LINE#         3314
  C:3578H         LINE#         3315
  C:357BH         LINE#         3316
  C:357EH         LINE#         3320
  C:357EH         LINE#         3321
  -------         ENDPROC       _DECVOL
BL51 BANKED LINKER/LOCATER V6.22                                                      03/06/2019  08:16:57  PAGE 65


  -------         PROC          _KEYDOWNDEAL
  D:000CH         SYMBOL        byKey
  C:10A5H         LINE#         3337
  C:10A7H         LINE#         3338
  C:10A7H         LINE#         3340
  C:10AAH         LINE#         3341
  C:10B3H         LINE#         3342
  C:10BAH         LINE#         3344
  C:10BDH         LINE#         3345
  C:10BDH         LINE#         3346
  C:10C3H         LINE#         3347
  C:10C3H         LINE#         3348
  C:10C5H         LINE#         3349
  C:10CBH         LINE#         3350
  C:10CFH         LINE#         3352
  C:10D8H         LINE#         3354
  C:10E0H         LINE#         3355
  C:10E8H         LINE#         3356
  C:10EFH         LINE#         3357
  C:10F2H         LINE#         3358
  C:10F9H         LINE#         3360
  C:10F9H         LINE#         3361
  C:10F9H         LINE#         3362
  C:110BH         LINE#         3363
  C:110BH         LINE#         3364
  C:111BH         LINE#         3365
  C:111BH         LINE#         3366
  C:111BH         LINE#         3375
  C:1122H         LINE#         3376
  C:1128H         LINE#         3377
  C:112BH         LINE#         3378
  C:112BH         LINE#         3379
  C:112EH         LINE#         3381
  C:112EH         LINE#         3390
  C:1135H         LINE#         3391
  C:113BH         LINE#         3392
  C:113EH         LINE#         3393
  C:113EH         LINE#         3394
  C:1141H         LINE#         3396
  C:1141H         LINE#         3398
  C:1149H         LINE#         3399
  C:1151H         LINE#         3400
  C:1159H         LINE#         3401
  C:1161H         LINE#         3402
  C:1169H         LINE#         3403
  C:1171H         LINE#         3404
  C:117BH         LINE#         3405
  C:117BH         LINE#         3406
  C:1181H         LINE#         3407
  C:1183H         LINE#         3409
  C:1183H         LINE#         3410
  C:118DH         LINE#         3411
  C:1191H         LINE#         3412
  C:1191H         LINE#         3413
  C:1197H         LINE#         3414
  C:1197H         LINE#         3415
  C:1199H         LINE#         3416
BL51 BANKED LINKER/LOCATER V6.22                                                      03/06/2019  08:16:57  PAGE 66


  C:1199H         LINE#         3417
  C:119BH         LINE#         3419
  C:119BH         LINE#         3420
  C:11A3H         LINE#         3421
  C:11ABH         LINE#         3422
  C:11B3H         LINE#         3423
  C:11BBH         LINE#         3424
  C:11C3H         LINE#         3425
  C:11CBH         LINE#         3426
  C:11D5H         LINE#         3427
  C:11D8H         LINE#         3428
  C:11DEH         LINE#         3429
  C:11DEH         LINE#         3430
  C:11E0H         LINE#         3431
  C:11E0H         LINE#         3434
  C:11E2H         LINE#         3436
  C:11E2H         LINE#         3437
  C:11E2H         LINE#         3438
  C:11E8H         LINE#         3439
  C:11E8H         LINE#         3440
  C:11EEH         LINE#         3441
  C:11EEH         LINE#         3442
  C:11F4H         LINE#         3444
  C:11F6H         LINE#         3445
  C:1203H         LINE#         3446
  C:1203H         LINE#         3447
  C:120AH         LINE#         3448
  C:120AH         LINE#         3449
  C:120DH         LINE#         3451
  C:120DH         LINE#         3452
  C:1218H         LINE#         3453
  C:1218H         LINE#         3454
  C:124EH         LINE#         3455
  C:124EH         LINE#         3456
  C:124EH         LINE#         3457
  C:1250H         LINE#         3458
  C:1252H         LINE#         3459
  C:1252H         LINE#         3460
  C:1254H         LINE#         3461
  C:1256H         LINE#         3462
  C:1256H         LINE#         3463
  C:1258H         LINE#         3464
  C:125AH         LINE#         3465
  C:125AH         LINE#         3466
  C:125CH         LINE#         3467
  C:125EH         LINE#         3468
  C:125EH         LINE#         3469
  C:1260H         LINE#         3470
  C:1262H         LINE#         3471
  C:1262H         LINE#         3472
  C:1264H         LINE#         3473
  C:1266H         LINE#         3474
  C:1266H         LINE#         3475
  C:1268H         LINE#         3476
  C:126AH         LINE#         3477
  C:126AH         LINE#         3478
  C:126CH         LINE#         3479
BL51 BANKED LINKER/LOCATER V6.22                                                      03/06/2019  08:16:57  PAGE 67


  C:126EH         LINE#         3480
  C:126EH         LINE#         3481
  C:1270H         LINE#         3482
  C:1272H         LINE#         3483
  C:1272H         LINE#         3484
  C:1274H         LINE#         3485
  C:1276H         LINE#         3486
  C:1276H         LINE#         3487
  C:1280H         LINE#         3488
  C:1282H         LINE#         3489
  C:1285H         LINE#         3490
  C:1285H         LINE#         3491
  C:128FH         LINE#         3492
  C:1292H         LINE#         3493
  C:1292H         LINE#         3494
  C:1297H         LINE#         3497
  C:129AH         LINE#         3518
  C:129AH         LINE#         3519
  C:12A0H         LINE#         3520
  C:12A0H         LINE#         3521
  C:12ABH         LINE#         3522
  C:12ABH         LINE#         3523
  C:12ABH         LINE#         3524
  C:12B1H         LINE#         3525
  C:12B3H         LINE#         3526
  C:12B3H         LINE#         3527
  C:12B9H         LINE#         3528
  C:12BBH         LINE#         3530
  C:12BBH         LINE#         3531
  C:12BBH         LINE#         3532
  C:12C1H         LINE#         3533
  C:12C1H         LINE#         3534
  C:12C1H         LINE#         3535
  C:12C9H         LINE#         3536
  C:12D1H         LINE#         3537
  C:12D9H         LINE#         3538
  C:12DCH         LINE#         3539
  C:12DCH         LINE#         3540
  C:12DCH         LINE#         3541
  C:12DFH         LINE#         3542
  C:12E5H         LINE#         3543
  C:12E5H         LINE#         3544
  C:12E7H         LINE#         3545
  C:12E7H         LINE#         3546
  C:12EAH         LINE#         3547
  C:12EAH         LINE#         3548
  C:12F1H         LINE#         3549
  C:12F1H         LINE#         3551
  C:12F9H         LINE#         3552
  C:1303H         LINE#         3553
  C:1308H         LINE#         3554
  C:1308H         LINE#         3555
  C:130BH         LINE#         3556
  C:130BH         LINE#         3558
  C:1311H         LINE#         3559
  C:1311H         LINE#         3560
  C:1313H         LINE#         3562
BL51 BANKED LINKER/LOCATER V6.22                                                      03/06/2019  08:16:57  PAGE 68


  C:1313H         LINE#         3563
  C:1316H         LINE#         3564
  C:1316H         LINE#         3565
  C:131CH         LINE#         3566
  C:1321H         LINE#         3567
  C:1321H         LINE#         3568
  C:1321H         LINE#         3569
  C:132CH         LINE#         3570
  C:132CH         LINE#         3571
  C:1334H         LINE#         3572
  C:133CH         LINE#         3573
  C:1344H         LINE#         3574
  C:1348H         LINE#         3575
  C:134BH         LINE#         3576
  C:134BH         LINE#         3577
  C:134BH         LINE#         3578
  C:134BH         LINE#         3579
  C:134EH         LINE#         3580
  C:134EH         LINE#         3581
  C:134EH         LINE#         3582
  C:134EH         LINE#         3583
  C:134EH         LINE#         3584
  C:134EH         LINE#         3585
  C:1354H         LINE#         3586
  C:1354H         LINE#         3587
  C:135DH         LINE#         3588
  C:135DH         LINE#         3589
  C:135DH         LINE#         3590
  C:1364H         LINE#         3591
  C:136AH         LINE#         3592
  C:136DH         LINE#         3593
  C:136DH         LINE#         3594
  C:136FH         LINE#         3597
  C:136FH         LINE#         3598
  C:1376H         LINE#         3599
  C:137CH         LINE#         3600
  C:137FH         LINE#         3601
  C:137FH         LINE#         3602
  C:1381H         LINE#         3604
  C:1381H         LINE#         3605
  C:1381H         LINE#         3606
  C:1387H         LINE#         3607
  C:1387H         LINE#         3608
  C:1390H         LINE#         3609
  C:1390H         LINE#         3610
  C:1390H         LINE#         3611
  C:1397H         LINE#         3612
  C:139DH         LINE#         3613
  C:13AAH         LINE#         3614
  C:13AFH         LINE#         3615
  C:13B1H         LINE#         3618
  C:13B1H         LINE#         3619
  C:13B8H         LINE#         3620
  C:13BEH         LINE#         3621
  C:13CBH         LINE#         3622
  C:13D0H         LINE#         3623
  C:13D3H         LINE#         3626
BL51 BANKED LINKER/LOCATER V6.22                                                      03/06/2019  08:16:57  PAGE 69


  C:13D3H         LINE#         3627
  C:13D3H         LINE#         3628
  -------         ENDPROC       _KEYDOWNDEAL
  -------         PROC          _KEYUPDEAL
  D:0007H         SYMBOL        byKey
  C:2FB9H         LINE#         3644
  C:2FB9H         LINE#         3645
  C:2FB9H         LINE#         3646
  C:2FBCH         LINE#         3647
  C:2FC3H         LINE#         3648
  C:2FC8H         LINE#         3649
  C:2FD1H         LINE#         3650
  C:2FD1H         LINE#         3651
  C:2FD1H         LINE#         3652
  C:2FD7H         LINE#         3653
  C:2FD7H         LINE#         3654
  C:2FDEH         LINE#         3656
  C:2FDEH         LINE#         3657
  C:2FEBH         LINE#         3658
  C:2FEBH         LINE#         3659
  C:2FEBH         LINE#         3660
  C:2FEBH         LINE#         3661
  C:2FEDH         LINE#         3662
  C:2FEDH         LINE#         3663
  C:2FF3H         LINE#         3664
  C:2FF3H         LINE#         3665
  C:2FFAH         LINE#         3666
  C:2FFAH         LINE#         3667
  C:2FFAH         LINE#         3668
  C:2FFAH         LINE#         3669
  -------         ENDPROC       _KEYUPDEAL
  -------         PROC          BUS1RECDEAL
  C:1970H         LINE#         3687
  C:1970H         LINE#         3688
  C:1970H         LINE#         3700
  C:1976H         LINE#         3701
  C:1976H         LINE#         3703
  C:1976H         LINE#         3705
  C:19C9H         LINE#         3706
  C:19C9H         LINE#         3707
  C:19C9H         LINE#         3709
  C:19D1H         LINE#         3710
  C:19D9H         LINE#         3711
  C:19E1H         LINE#         3713
  C:19E9H         LINE#         3714
  C:19F1H         LINE#         3715
  C:19F9H         LINE#         3716
  C:19FEH         LINE#         3717
  C:19FEH         LINE#         3719
  C:1A01H         LINE#         3720
  C:1A01H         LINE#         3721
  C:1A01H         LINE#         3724
  C:1A01H         LINE#         3725
  C:1A09H         LINE#         3726
  C:1A09H         LINE#         3727
  C:1A09H         LINE#         3728
  C:1A11H         LINE#         3729
BL51 BANKED LINKER/LOCATER V6.22                                                      03/06/2019  08:16:57  PAGE 70


  C:1A11H         LINE#         3730
  C:1A11H         LINE#         3731
  C:1A11H         LINE#         3732
  C:1A14H         LINE#         3733
  C:1A14H         LINE#         3736
  C:1A14H         LINE#         3737
  C:1A16H         LINE#         3738
  C:1A17H         LINE#         3739
  C:1A17H         LINE#         3740
  C:1A19H         LINE#         3741
  C:1A1AH         LINE#         3742
  C:1A1AH         LINE#         3745
  C:1A1AH         LINE#         3749
  C:1A1AH         LINE#         3750
  C:1A1AH         LINE#         3751
  C:1A1AH         LINE#         3753
  C:1A1AH         LINE#         3754
  C:1A1AH         LINE#         3756
  C:1A1AH         LINE#         3757
  C:1A1DH         LINE#         3758
  C:1A1DH         LINE#         3760
  C:1A20H         LINE#         3762
  C:1A20H         LINE#         3763
  C:1A28H         LINE#         3764
  C:1A30H         LINE#         3766
  C:1A38H         LINE#         3767
  C:1A3FH         LINE#         3769
  C:1A42H         LINE#         3770
  C:1A45H         LINE#         3772
  C:1A4DH         LINE#         3773
  C:1A55H         LINE#         3774
  C:1A5DH         LINE#         3775
  C:1A63H         LINE#         3776
  C:1A65H         LINE#         3777
  C:1A67H         LINE#         3780
  C:1A7FH         LINE#         3781
  C:1A7FH         LINE#         3782
  C:1A84H         LINE#         3783
  C:1A87H         LINE#         3785
  C:1A8EH         LINE#         3787
  C:1A8EH         LINE#         3788
  C:1A8EH         LINE#         3789
  C:1A8EH         LINE#         3790
  C:1A8EH         LINE#         3791
  C:1A8EH         LINE#         3792
  C:1A8EH         LINE#         3793
  C:1A8EH         LINE#         3794
  C:1A91H         LINE#         3795
  C:1A93H         LINE#         3796
  C:1A95H         LINE#         3797
  C:1A96H         LINE#         3800
  C:1A96H         LINE#         3801
  C:1A9FH         LINE#         3802
  C:1A9FH         LINE#         3803
  C:1A9FH         LINE#         3806
  C:1A9FH         LINE#         3807
  C:1AAAH         LINE#         3808
BL51 BANKED LINKER/LOCATER V6.22                                                      03/06/2019  08:16:57  PAGE 71


  C:1AAAH         LINE#         3809
  C:1AACH         LINE#         3811
  C:1AACH         LINE#         3812
  C:1AB4H         LINE#         3813
  C:1ABCH         LINE#         3814
  C:1AC4H         LINE#         3815
  C:1ACAH         LINE#         3816
  C:1ACAH         LINE#         3818
  C:1ACAH         LINE#         3819
  C:1AE8H         LINE#         3823
  C:1AE8H         LINE#         3824
  C:1AEDH         LINE#         3825
  C:1AEFH         LINE#         3826
  C:1AF3H         LINE#         3827
  C:1AF5H         LINE#         3828
  C:1AF7H         LINE#         3830
  C:1AFAH         LINE#         3832
  C:1AFAH         LINE#         3833
  C:1B02H         LINE#         3834
  C:1B0AH         LINE#         3835
  C:1B12H         LINE#         3836
  C:1B1AH         LINE#         3837
  C:1B22H         LINE#         3838
  C:1B22H         LINE#         3839
  C:1B22H         LINE#         3840
  C:1B24H         LINE#         3842
  C:1B24H         LINE#         3843
  C:1B42H         LINE#         3847
  C:1B42H         LINE#         3848
  C:1B47H         LINE#         3849
  C:1B49H         LINE#         3850
  C:1B4DH         LINE#         3851
  C:1B4FH         LINE#         3853
  C:1B51H         LINE#         3855
  C:1B51H         LINE#         3856
  C:1B59H         LINE#         3857
  C:1B61H         LINE#         3858
  C:1B69H         LINE#         3859
  C:1B71H         LINE#         3860
  C:1B71H         LINE#         3861
  C:1B71H         LINE#         3862
  C:1B73H         LINE#         3866
  C:1B73H         LINE#         3868
  C:1B7BH         LINE#         3869
  C:1B7EH         LINE#         3870
  C:1B82H         LINE#         3871
  C:1B84H         LINE#         3872
  C:1B8DH         LINE#         3873
  C:1B8DH         LINE#         3879
  C:1B8DH         LINE#         3881
  C:1B8FH         LINE#         3883
  C:1B8FH         LINE#         3884
  C:1B8FH         LINE#         3885
  C:1B97H         LINE#         3886
  C:1B9FH         LINE#         3887
  C:1BA7H         LINE#         3889
  C:1BAFH         LINE#         3890
BL51 BANKED LINKER/LOCATER V6.22                                                      03/06/2019  08:16:57  PAGE 72


  C:1BB2H         LINE#         3891
  C:1BB2H         LINE#         3892
  C:1BB4H         LINE#         3894
  C:1BB4H         LINE#         3895
  C:1BB4H         LINE#         3898
  C:1BB4H         LINE#         3899
  C:1BBCH         LINE#         3900
  C:1BC4H         LINE#         3901
  C:1BCCH         LINE#         3902
  C:1BCFH         LINE#         3903
  C:1BCFH         LINE#         3904
  C:1BCFH         LINE#         3905
  C:1BCFH         LINE#         3906
  C:1BCFH         LINE#         3907
  -------         ENDPROC       BUS1RECDEAL
  -------         PROC          BUS1SENDDEAL
  C:30EBH         LINE#         3925
  C:30EBH         LINE#         3926
  C:30EBH         LINE#         3928
  C:30EFH         LINE#         3929
  C:30F1H         LINE#         3930
  C:3104H         LINE#         3931
  C:3109H         LINE#         3933
  C:3111H         LINE#         3934
  C:3111H         LINE#         3935
  C:3111H         LINE#         3936
  C:3111H         LINE#         3938
  C:3111H         LINE#         3939
  C:3115H         LINE#         3941
  C:3118H         LINE#         3942
  C:311AH         LINE#         3943
  C:311CH         LINE#         3944
  C:311EH         LINE#         3945
  C:3121H         LINE#         3946
  C:3121H         LINE#         3947
  C:3121H         LINE#         3948
  C:3121H         LINE#         3949
  C:3121H         LINE#         3951
  -------         ENDPROC       BUS1SENDDEAL
  -------         PROC          BUS1MANAGE
  C:3424H         LINE#         3967
  C:3424H         LINE#         3968
  C:3424H         LINE#         3969
  C:3424H         LINE#         3970
  C:3424H         LINE#         3971
  C:3427H         LINE#         3972
  C:342AH         LINE#         3973
  C:342AH         LINE#         3974
  C:3431H         LINE#         3975
  C:3431H         LINE#         3976
  C:3434H         LINE#         3977
  C:3434H         LINE#         3978
  C:343BH         LINE#         3979
  C:343BH         LINE#         3980
  C:3442H         LINE#         3981
  -------         ENDPROC       BUS1MANAGE
  -------         PROC          TIMEROUTDEAL
BL51 BANKED LINKER/LOCATER V6.22                                                      03/06/2019  08:16:57  PAGE 73


  C:2273H         LINE#         3999
  C:2273H         LINE#         4000
  C:2273H         LINE#         4002
  C:227CH         LINE#         4003
  C:227CH         LINE#         4004
  C:227EH         LINE#         4005
  C:2284H         LINE#         4006
  C:2284H         LINE#         4007
  C:2288H         LINE#         4008
  C:2288H         LINE#         4009
  C:228BH         LINE#         4010
  C:228BH         LINE#         4011
  C:228BH         LINE#         4012
  C:228BH         LINE#         4013
  C:228BH         LINE#         4014
  C:228BH         LINE#         4015
  C:228BH         LINE#         4016
  C:228BH         LINE#         4017
  C:228BH         LINE#         4018
  C:228BH         LINE#         4024
  C:228DH         LINE#         4025
  C:2297H         LINE#         4026
  C:2297H         LINE#         4027
  C:2297H         LINE#         4028
  C:2297H         LINE#         4029
  C:2297H         LINE#         4030
  C:2297H         LINE#         4031
  C:2297H         LINE#         4032
  C:2297H         LINE#         4033
  C:2297H         LINE#         4034
  C:2297H         LINE#         4035
  C:2299H         LINE#         4036
  C:229CH         LINE#         4037
  C:229CH         LINE#         4038
  C:229EH         LINE#         4039
  C:22A4H         LINE#         4040
  C:22A4H         LINE#         4041
  C:22A4H         LINE#         4042
  C:22A4H         LINE#         4043
  C:22A4H         LINE#         4044
  C:22A4H         LINE#         4045
  C:22A4H         LINE#         4046
  C:22A4H         LINE#         4047
  C:22A4H         LINE#         4048
  C:22A4H         LINE#         4049
  C:22A4H         LINE#         4050
  C:22A7H         LINE#         4052
  C:22A7H         LINE#         4053
  C:22A7H         LINE#         4054
  C:22A7H         LINE#         4055
  C:22A7H         LINE#         4056
  C:22AAH         LINE#         4058
  C:22AAH         LINE#         4059
  C:22B0H         LINE#         4060
  C:22B6H         LINE#         4061
  C:22B6H         LINE#         4062
  C:22B9H         LINE#         4063
BL51 BANKED LINKER/LOCATER V6.22                                                      03/06/2019  08:16:57  PAGE 74


  C:22B9H         LINE#         4064
  C:22C1H         LINE#         4065
  C:22C9H         LINE#         4066
  C:22D1H         LINE#         4067
  C:22D5H         LINE#         4068
  C:22DDH         LINE#         4069
  C:22E5H         LINE#         4070
  C:22E8H         LINE#         4071
  C:22E8H         LINE#         4078
  C:22EAH         LINE#         4079
  C:22F4H         LINE#         4080
  C:22F4H         LINE#         4081
  C:22FCH         LINE#         4082
  C:2304H         LINE#         4083
  C:230CH         LINE#         4084
  C:2310H         LINE#         4085
  C:2318H         LINE#         4086
  C:2320H         LINE#         4087
  C:2323H         LINE#         4088
  C:2323H         LINE#         4089
  C:2325H         LINE#         4090
  C:2328H         LINE#         4091
  C:2328H         LINE#         4092
  C:232AH         LINE#         4093
  C:232DH         LINE#         4094
  C:232DH         LINE#         4095
  C:2335H         LINE#         4096
  C:233DH         LINE#         4097
  C:2345H         LINE#         4098
  C:2349H         LINE#         4099
  C:2351H         LINE#         4100
  C:2359H         LINE#         4101
  C:2360H         LINE#         4102
  C:2363H         LINE#         4103
  C:2363H         LINE#         4104
  C:2365H         LINE#         4106
  C:2365H         LINE#         4107
  C:2371H         LINE#         4108
  C:2374H         LINE#         4109
  C:2374H         LINE#         4110
  C:2376H         LINE#         4112
  C:2376H         LINE#         4113
  C:237CH         LINE#         4114
  C:237CH         LINE#         4115
  C:237CH         LINE#         4116
  C:237CH         LINE#         4117
  C:237CH         LINE#         4119
  C:2385H         LINE#         4120
  C:2385H         LINE#         4121
  C:2387H         LINE#         4122
  C:238DH         LINE#         4123
  C:238DH         LINE#         4124
  C:2391H         LINE#         4125
  C:2391H         LINE#         4126
  C:2394H         LINE#         4127
  C:2394H         LINE#         4133
  C:2394H         LINE#         4134
BL51 BANKED LINKER/LOCATER V6.22                                                      03/06/2019  08:16:57  PAGE 75


  C:2394H         LINE#         4135
  C:2394H         LINE#         4136
  C:2394H         LINE#         4141
  C:2394H         LINE#         4142
  C:2394H         LINE#         4143
  C:2394H         LINE#         4144
  C:2394H         LINE#         4145
  C:2396H         LINE#         4146
  C:239CH         LINE#         4147
  C:239CH         LINE#         4148
  C:239EH         LINE#         4149
  C:23A1H         LINE#         4150
  C:23A1H         LINE#         4151
  C:23A9H         LINE#         4152
  C:23B1H         LINE#         4153
  C:23B9H         LINE#         4154
  C:23C1H         LINE#         4155
  C:23C6H         LINE#         4156
  C:23C6H         LINE#         4158
  C:23C8H         LINE#         4160
  C:23C8H         LINE#         4161
  C:23CDH         LINE#         4162
  C:23D0H         LINE#         4164
  C:23D0H         LINE#         4165
  C:23D0H         LINE#         4166
  C:23D0H         LINE#         4167
  C:23D3H         LINE#         4169
  C:23D3H         LINE#         4170
  C:23D9H         LINE#         4171
  C:23DCH         LINE#         4172
  C:23DCH         LINE#         4173
  C:23DFH         LINE#         4174
  C:23DFH         LINE#         4180
  C:23E7H         LINE#         4181
  C:23EFH         LINE#         4182
  C:23F7H         LINE#         4183
  C:23FBH         LINE#         4189
  C:2403H         LINE#         4190
  C:240BH         LINE#         4191
  C:2412H         LINE#         4192
  C:2415H         LINE#         4193
  C:2417H         LINE#         4194
  C:241AH         LINE#         4195
  C:241AH         LINE#         4196
  C:241CH         LINE#         4197
  C:241FH         LINE#         4198
  C:241FH         LINE#         4199
  C:2427H         LINE#         4200
  C:242FH         LINE#         4201
  C:2437H         LINE#         4202
  C:243FH         LINE#         4203
  C:2444H         LINE#         4204
  C:2444H         LINE#         4206
  C:2446H         LINE#         4208
  C:2446H         LINE#         4209
  C:244BH         LINE#         4210
  C:244EH         LINE#         4212
BL51 BANKED LINKER/LOCATER V6.22                                                      03/06/2019  08:16:57  PAGE 76


  C:244EH         LINE#         4213
  C:2451H         LINE#         4214
  C:2451H         LINE#         4215
  C:2453H         LINE#         4217
  C:2453H         LINE#         4218
  C:2459H         LINE#         4219
  C:2459H         LINE#         4220
  C:2459H         LINE#         4221
  C:2459H         LINE#         4222
  C:2459H         LINE#         4223
  C:245FH         LINE#         4224
  C:245FH         LINE#         4225
  C:2463H         LINE#         4226
  C:2463H         LINE#         4227
  C:2465H         LINE#         4228
  C:246BH         LINE#         4229
  C:246DH         LINE#         4230
  C:2470H         LINE#         4231
  C:2470H         LINE#         4232
  C:2470H         LINE#         4234
  -------         ENDPROC       TIMEROUTDEAL
  -------         PROC          TIMEROUTMANAGER
  C:33E2H         LINE#         4250
  C:33E2H         LINE#         4251
  C:33E2H         LINE#         4252
  C:33E2H         LINE#         4253
  C:33E2H         LINE#         4254
  C:33E5H         LINE#         4255
  C:33ECH         LINE#         4256
  C:33F2H         LINE#         4257
  C:33F2H         LINE#         4258
  C:33F9H         LINE#         4259
  C:33FBH         LINE#         4261
  C:33FBH         LINE#         4262
  C:3402H         LINE#         4263
  C:3402H         LINE#         4264
  -------         ENDPROC       TIMEROUTMANAGER
  -------         ENDMOD        SINGLEBUS

  -------         MODULE        PARAMETER
  C:0000H         SYMBOL        _ICE_DUMMY_
  D:0080H         PUBLIC        P0
  D:0090H         PUBLIC        P1
  D:00A0H         PUBLIC        P2
  D:00B0H         PUBLIC        P3
  D:00C0H         PUBLIC        P4
  D:00C8H         PUBLIC        P5
  D:00A8H         PUBLIC        IE
  D:00B8H         PUBLIC        IP
  D:00D8H         PUBLIC        CCON
  D:0098H         PUBLIC        SCON
  D:0088H         PUBLIC        TCON
  D:00E0H         PUBLIC        ACC
  C:4000H         PUBLIC        MyParameter
  D:00D0H         PUBLIC        PSW
  -------         ENDMOD        PARAMETER

BL51 BANKED LINKER/LOCATER V6.22                                                      03/06/2019  08:16:57  PAGE 77


  -------         MODULE        OS_CORE
  C:0000H         SYMBOL        _ICE_DUMMY_
  C:349AH         PUBLIC        _OS_TaskSuspend
  D:0080H         PUBLIC        P0
  D:0090H         PUBLIC        P1
  D:00A0H         PUBLIC        P2
  D:00B0H         PUBLIC        P3
  D:00C0H         PUBLIC        P4
  D:00C8H         PUBLIC        P5
  B:00A8H.7       PUBLIC        EA
  C:3535H         PUBLIC        OSSched
  D:00A8H         PUBLIC        IE
  D:00B8H         PUBLIC        IP
  C:35ECH         PUBLIC        _OSTaskSuspend
  D:00D8H         PUBLIC        CCON
  D:005CH         PUBLIC        OSIntNesting
  C:3481H         PUBLIC        _OSTaskResume
  D:005DH         PUBLIC        OSTaskRuning
  D:0098H         PUBLIC        SCON
  D:0088H         PUBLIC        TCON
  C:35A1H         PUBLIC        OSInit
  C:2C93H         PUBLIC        _OSWait
  D:005EH         PUBLIC        Os_Enter_Sum
  C:3444H         PUBLIC        OSTimeTick
  C:34B2H         PUBLIC        OSFindNextRunningTask
  D:005FH         PUBLIC        OSTaskID
  D:00E0H         PUBLIC        ACC
  D:0060H         PUBLIC        OSWaitTick
  C:339DH         PUBLIC        _OSTimeDly
  C:360CH         PUBLIC        OSMapTbl
  D:0065H         PUBLIC        OSNextTaskID
  C:3356H         PUBLIC        OSIntExit
  C:303DH         PUBLIC        __OSTaskCreate
  D:0066H         PUBLIC        OSTaskCreated
  D:00D0H         PUBLIC        PSW
  -------         PROC          OSINIT
  C:35A1H         LINE#         87
  C:35A1H         LINE#         89
  C:35A4H         LINE#         90
  C:35A6H         LINE#         95
  C:35A8H         LINE#         96
  C:35ABH         LINE#         97
  C:35ADH         LINE#         98
  C:35AFH         LINE#         99
  -------         ENDPROC       OSINIT
  -------         PROC          __OSTASKCREATE
  D:0001H         SYMBOL        TaskID
  D:0006H         SYMBOL        task
  D:0002H         SYMBOL        ptos
  C:303DH         LINE#         119
  C:3043H         LINE#         121
  C:3049H         LINE#         122
  C:3049H         LINE#         123
  C:304DH         LINE#         125
  C:3056H         LINE#         126
  C:3056H         LINE#         127
  C:3059H         LINE#         128
BL51 BANKED LINKER/LOCATER V6.22                                                      03/06/2019  08:16:57  PAGE 78


  C:3059H         LINE#         129
  C:3060H         LINE#         130
  C:3062H         LINE#         151
  C:306BH         LINE#         152
  C:306EH         LINE#         153
  C:3073H         LINE#         154
  C:3076H         LINE#         155
  C:3076H         LINE#         156
  C:3078H         LINE#         157
  -------         ENDPROC       __OSTASKCREATE
  -------         PROC          _OSTASKRESUME
  D:0007H         SYMBOL        TaskID
  C:3481H         LINE#         217
  C:3481H         LINE#         219
  C:3487H         LINE#         220
  C:3487H         LINE#         221
  C:348BH         LINE#         223
  C:3492H         LINE#         234
  C:3497H         LINE#         235
  C:3497H         LINE#         236
  -------         ENDPROC       _OSTASKRESUME
  -------         PROC          _OS_TASKSUSPEND
  D:0007H         SYMBOL        TaskID
  C:349AH         LINE#         254
  C:349AH         LINE#         256
  C:34A0H         LINE#         257
  C:34A0H         LINE#         258
  C:34A4H         LINE#         260
  C:34ACH         LINE#         271
  C:34B1H         LINE#         272
  C:34B1H         LINE#         273
  -------         ENDPROC       _OS_TASKSUSPEND
  -------         PROC          _OSTASKSUSPEND
  D:0007H         SYMBOL        TaskID
  C:35ECH         LINE#         291
  C:35ECH         LINE#         293
  C:35F2H         LINE#         295
  C:35F5H         LINE#         296
  -------         ENDPROC       _OSTASKSUSPEND
  -------         PROC          OSFINDNEXTRUNNINGTASK
  -------         DO            
  D:0007H         SYMBOL        temp
  -------         ENDDO         
  C:34B2H         LINE#         314
  C:34B2H         LINE#         318
  C:34B7H         LINE#         321
  C:34BAH         LINE#         322
  C:34BAH         LINE#         323
  C:34BEH         LINE#         324
  C:34BEH         LINE#         325
  C:34BEH         LINE#         326
  C:34BEH         LINE#         327
  C:34C2H         LINE#         328
  C:34C9H         LINE#         351
  -------         ENDPROC       OSFINDNEXTRUNNINGTASK
  -------         PROC          OSINTEXIT
  C:3356H         LINE#         368
BL51 BANKED LINKER/LOCATER V6.22                                                      03/06/2019  08:16:57  PAGE 79


  C:3356H         LINE#         371
  C:335AH         LINE#         373
  C:3361H         LINE#         374
  C:3361H         LINE#         375
  C:3363H         LINE#         376
  C:3363H         LINE#         377
  C:3367H         LINE#         378
  C:3367H         LINE#         379
  C:3369H         LINE#         380
  C:336CH         LINE#         381
  C:336FH         LINE#         382
  C:3372H         LINE#         383
  C:3372H         LINE#         384
  C:3377H         LINE#         385
  C:3379H         LINE#         386
  -------         ENDPROC       OSINTEXIT
  -------         PROC          OSSCHED
  C:3535H         LINE#         403
  C:3535H         LINE#         406
  C:3539H         LINE#         407
  C:353DH         LINE#         408
  C:353DH         LINE#         409
  C:3540H         LINE#         410
  C:3543H         LINE#         411
  C:3543H         LINE#         412
  C:3548H         LINE#         413
  -------         ENDPROC       OSSCHED
  -------         PROC          OSTIMETICK
  -------         DO            
  D:0007H         SYMBOL        i
  -------         ENDDO         
  C:3444H         LINE#         430
  C:3444H         LINE#         434
  C:3446H         LINE#         435
  C:3446H         LINE#         436
  C:344DH         LINE#         437
  C:344DH         LINE#         438
  C:344EH         LINE#         439
  C:3455H         LINE#         440
  C:3455H         LINE#         442
  C:345CH         LINE#         453
  C:345CH         LINE#         454
  C:345CH         LINE#         455
  C:3460H         LINE#         456
  -------         ENDPROC       OSTIMETICK
  -------         PROC          _OSTIMEDLY
  D:0007H         SYMBOL        ticks
  C:339DH         LINE#         475
  C:339DH         LINE#         477
  C:33A4H         LINE#         478
  C:33A8H         LINE#         479
  C:33B0H         LINE#         480
  C:33B0H         LINE#         481
  C:33B5H         LINE#         482
  C:33B8H         LINE#         483
  C:33BAH         LINE#         484
  C:33BFH         LINE#         485
BL51 BANKED LINKER/LOCATER V6.22                                                      03/06/2019  08:16:57  PAGE 80


  -------         ENDPROC       _OSTIMEDLY
  -------         PROC          _OSWAIT
  D:0007H         SYMBOL        typ
  D:0005H         SYMBOL        ticks
  C:2C93H         LINE#         534
  C:2C93H         LINE#         536
  C:2C9AH         LINE#         538
  C:2CA6H         LINE#         539
  C:2CA6H         LINE#         540
  C:2CA6H         LINE#         541
  C:2CABH         LINE#         542
  C:2CAEH         LINE#         543
  C:2CAEH         LINE#         544
  C:2CB8H         LINE#         545
  C:2CBBH         LINE#         546
  C:2CBBH         LINE#         548
  C:2CBFH         LINE#         549
  C:2CC7H         LINE#         550
  C:2CC7H         LINE#         551
  C:2CCAH         LINE#         552
  C:2CCAH         LINE#         553
  C:2CCFH         LINE#         554
  C:2CD2H         LINE#         555
  C:2CD7H         LINE#         556
  C:2CDFH         LINE#         557
  C:2CDFH         LINE#         558
  C:2CE1H         LINE#         559
  C:2CE4H         LINE#         560
  C:2CE4H         LINE#         561
  C:2CE7H         LINE#         562
  C:2CE7H         LINE#         563
  C:2CEEH         LINE#         564
  C:2CF0H         LINE#         565
  C:2CF0H         LINE#         566
  -------         ENDPROC       _OSWAIT
  -------         ENDMOD        OS_CORE

  -------         MODULE        OS_MEM
  C:0000H         SYMBOL        _ICE_DUMMY_
  D:0080H         PUBLIC        P0
  D:0090H         PUBLIC        P1
  D:00A0H         PUBLIC        P2
  D:00B0H         PUBLIC        P3
  D:00C0H         PUBLIC        P4
  D:00C8H         PUBLIC        P5
  D:00A8H         PUBLIC        IE
  D:00B8H         PUBLIC        IP
  D:00D8H         PUBLIC        CCON
  D:0098H         PUBLIC        SCON
  D:0088H         PUBLIC        TCON
  D:00E0H         PUBLIC        ACC
  D:00D0H         PUBLIC        PSW
  -------         ENDMOD        OS_MEM

  -------         MODULE        OS_Q
  C:0000H         SYMBOL        _ICE_DUMMY_
  D:0080H         PUBLIC        P0
BL51 BANKED LINKER/LOCATER V6.22                                                      03/06/2019  08:16:57  PAGE 81


  D:0090H         PUBLIC        P1
  D:00A0H         PUBLIC        P2
  D:00B0H         PUBLIC        P3
  D:00C0H         PUBLIC        P4
  D:00C8H         PUBLIC        P5
  B:00A8H.7       PUBLIC        EA
  D:00A8H         PUBLIC        IE
  D:00B8H         PUBLIC        IP
  C:2941H         PUBLIC        _OSQPost
  D:0081H         PUBLIC        SP
  D:00D8H         PUBLIC        CCON
  D:0098H         PUBLIC        SCON
  D:0088H         PUBLIC        TCON
  D:00E0H         PUBLIC        ACC
  C:3122H         PUBLIC        _OSQCreate
  D:00D0H         PUBLIC        PSW
  C:2712H         PUBLIC        _OSQPend
  -------         PROC          _OSQCREATE
  D:0007H         SYMBOL        Buf
  D:0005H         SYMBOL        SizeOfBuf
  C:3122H         LINE#         62
  C:3122H         LINE#         64
  C:3122H         LINE#         65
  C:3126H         LINE#         67
  C:312FH         LINE#         68
  C:312FH         LINE#         69
  C:3132H         LINE#         70
  C:3137H         LINE#         72
  C:313DH         LINE#         76
  C:3143H         LINE#         77
  C:3149H         LINE#         80
  C:314EH         LINE#         81
  C:3151H         LINE#         82
  C:3151H         LINE#         84
  C:3151H         LINE#         85
  C:3156H         LINE#         86
  C:3158H         LINE#         87
  C:3158H         LINE#         89
  -------         ENDPROC       _OSQCREATE
  -------         PROC          _OSQPEND
  D:0007H         SYMBOL        Ret
  D:0005H         SYMBOL        Buf
  D:0003H         SYMBOL        Tick
  -------         DO            
  D:0007H         SYMBOL        cp
  -------         ENDDO         
  C:2712H         LINE#         119
  C:2712H         LINE#         120
  C:2712H         LINE#         132
  C:2716H         LINE#         134
  C:271DH         LINE#         139
  C:271FH         LINE#         140
  C:2725H         LINE#         145
  C:2731H         LINE#         157
  C:2736H         LINE#         158
  C:2736H         LINE#         161
  C:2738H         LINE#         162
BL51 BANKED LINKER/LOCATER V6.22                                                      03/06/2019  08:16:57  PAGE 82


  C:273EH         LINE#         165
  C:2743H         LINE#         166
  C:2746H         LINE#         169
  C:274CH         LINE#         170
  C:274EH         LINE#         173
  C:2756H         LINE#         174
  C:2756H         LINE#         175
  C:2756H         LINE#         176
  C:2756H         LINE#         181
  C:2763H         LINE#         193
  C:276BH         LINE#         194
  C:276BH         LINE#         196
  C:276CH         LINE#         198
  C:2771H         LINE#         199
  C:277DH         LINE#         200
  C:277DH         LINE#         202
  C:277FH         LINE#         206
  C:277FH         LINE#         208
  C:2785H         LINE#         209
  C:2787H         LINE#         210
  C:2792H         LINE#         214
  C:2797H         LINE#         215
  C:279AH         LINE#         216
  C:279AH         LINE#         218
  C:279AH         LINE#         221
  C:279CH         LINE#         224
  C:27A1H         LINE#         225
  C:27A3H         LINE#         226
  C:27A3H         LINE#         227
  -------         ENDPROC       _OSQPEND
  -------         PROC          _OSQPOST
  D:0006H         SYMBOL        Buf
  D:0005H         SYMBOL        Data
  -------         DO            
  D:0005H         SYMBOL        temp
  D:0007H         SYMBOL        i
  -------         ENDDO         
  C:2941H         LINE#         307
  C:2943H         LINE#         308
  C:2943H         LINE#         318
  C:2947H         LINE#         322
  C:2955H         LINE#         326
  C:2955H         LINE#         329
  C:2957H         LINE#         330
  C:295DH         LINE#         333
  C:2969H         LINE#         334
  C:2973H         LINE#         335
  C:2973H         LINE#         337
  C:2978H         LINE#         341
  C:2978H         LINE#         344
  C:2983H         LINE#         345
  C:2985H         LINE#         350
  C:2988H         LINE#         352
  C:298DH         LINE#         353
  C:298DH         LINE#         355
  C:2993H         LINE#         357
  C:2995H         LINE#         358
BL51 BANKED LINKER/LOCATER V6.22                                                      03/06/2019  08:16:57  PAGE 83


  C:2995H         LINE#         359
  C:2999H         LINE#         360
  C:2999H         LINE#         361
  C:2999H         LINE#         362
  C:2999H         LINE#         363
  C:299DH         LINE#         364
  C:29A1H         LINE#         365
  C:29A7H         LINE#         366
  C:29A7H         LINE#         368
  C:29B3H         LINE#         369
  C:29B6H         LINE#         370
  C:29B6H         LINE#         406
  C:29B6H         LINE#         407
  C:29BBH         LINE#         408
  C:29BEH         LINE#         409
  C:29BEH         LINE#         411
  C:29BEH         LINE#         412
  C:29C3H         LINE#         413
  C:29C5H         LINE#         414
  C:29C5H         LINE#         415
  -------         ENDPROC       _OSQPOST
  -------         ENDMOD        OS_Q

  -------         MODULE        OS_SEM
  C:0000H         SYMBOL        _ICE_DUMMY_
  D:0080H         PUBLIC        P0
  D:0090H         PUBLIC        P1
  D:00A0H         PUBLIC        P2
  D:00B0H         PUBLIC        P3
  D:00C0H         PUBLIC        P4
  D:00C8H         PUBLIC        P5
  D:00A8H         PUBLIC        IE
  D:00B8H         PUBLIC        IP
  D:00D8H         PUBLIC        CCON
  D:0098H         PUBLIC        SCON
  D:0088H         PUBLIC        TCON
  D:00E0H         PUBLIC        ACC
  D:00D0H         PUBLIC        PSW
  -------         ENDMOD        OS_SEM

  -------         MODULE        OS_CPU_C
  C:0000H         SYMBOL        _ICE_DUMMY_
  D:0080H         PUBLIC        P0
  D:0090H         PUBLIC        P1
  D:00A0H         PUBLIC        P2
  D:00B0H         PUBLIC        P3
  C:330CH         PUBLIC        _OSTaskStkDel
  D:00C0H         PUBLIC        P4
  D:00C8H         PUBLIC        P5
  B:00A8H.7       PUBLIC        EA
  C:2F76H         PUBLIC        _StkDelA
  C:2FFBH         PUBLIC        _StkDelB
  C:34CAH         PUBLIC        _StkDelC
  D:00A8H         PUBLIC        IE
  D:00FAH         PUBLIC        CCAP0H
  D:00EAH         PUBLIC        CCAP0L
  D:00B8H         PUBLIC        IP
BL51 BANKED LINKER/LOCATER V6.22                                                      03/06/2019  08:16:57  PAGE 84


  C:2DA9H         PUBLIC        OSTickISR
  C:35B2H         PUBLIC        OSCPUInit
  D:0081H         PUBLIC        SP
  D:00D8H         PUBLIC        CCON
  D:0067H         PUBLIC        OSTsakStackBotton
  D:0098H         PUBLIC        SCON
  D:0088H         PUBLIC        TCON
  D:00E0H         PUBLIC        ACC
  D:006EH         PUBLIC        OSFastSwap
  D:00D0H         PUBLIC        PSW
  B:00D8H.0       PUBLIC        CCF0
  -------         PROC          OSCPUINIT
  -------         DO            
  D:0007H         SYMBOL        i
  -------         ENDDO         
  C:35B2H         LINE#         78
  C:35B2H         LINE#         82
  C:35B4H         LINE#         83
  C:35B4H         LINE#         84
  C:35BAH         LINE#         85
  C:35BEH         LINE#         86
  C:35C1H         LINE#         88
  -------         ENDPROC       OSCPUINIT
  -------         PROC          _STKDELA
  D:0007H         SYMBOL        TaskID
  -------         DO            
  D:0006H         SYMBOL        cp
  D:0005H         SYMBOL        cp1
  D:0004H         SYMBOL        temp
  D:0007H         SYMBOL        i
  -------         ENDDO         
  C:2F76H         LINE#         200
  C:2F76H         LINE#         201
  C:2F76H         LINE#         206
  C:2F7CH         LINE#         207
  C:2F82H         LINE#         208
  C:2F87H         LINE#         209
  C:2F90H         LINE#         210
  C:2F90H         LINE#         211
  C:2F9BH         LINE#         212
  C:2F9EH         LINE#         213
  C:2FA4H         LINE#         215
  C:2FA4H         LINE#         216
  C:2FB0H         LINE#         217
  C:2FB2H         LINE#         218
  C:2FB8H         LINE#         219
  -------         ENDPROC       _STKDELA
  -------         PROC          _STKDELB
  D:0007H         SYMBOL        TaskID
  -------         DO            
  D:0005H         SYMBOL        cp
  D:0004H         SYMBOL        cp1
  D:0005H         SYMBOL        temp
  D:0006H         SYMBOL        i
  -------         ENDDO         
  C:2FFBH         LINE#         222
  C:2FFBH         LINE#         223
BL51 BANKED LINKER/LOCATER V6.22                                                      03/06/2019  08:16:57  PAGE 85


  C:2FFBH         LINE#         228
  C:3002H         LINE#         229
  C:3008H         LINE#         230
  C:3013H         LINE#         231
  C:3015H         LINE#         232
  C:3015H         LINE#         234
  C:3015H         LINE#         235
  C:3021H         LINE#         236
  C:3023H         LINE#         237
  C:3023H         LINE#         238
  C:3029H         LINE#         239
  C:3032H         LINE#         240
  C:3032H         LINE#         241
  C:3039H         LINE#         242
  C:303CH         LINE#         243
  -------         ENDPROC       _STKDELB
  -------         PROC          _STKDELC
  D:0007H         SYMBOL        TaskID
  -------         DO            
  D:0005H         SYMBOL        cp
  -------         ENDDO         
  C:34CAH         LINE#         245
  C:34CAH         LINE#         246
  C:34CAH         LINE#         251
  C:34D0H         LINE#         252
  C:34D6H         LINE#         253
  C:34DBH         LINE#         254
  C:34DFH         LINE#         255
  -------         ENDPROC       _STKDELC
  -------         PROC          _OSTASKSTKDEL
  D:0007H         SYMBOL        TaskID
  -------         DO            
  D:0006H         SYMBOL        temp
  -------         ENDDO         
  C:330CH         LINE#         258
  C:330CH         LINE#         262
  C:330EH         LINE#         263
  C:3312H         LINE#         264
  C:3312H         LINE#         265
  C:3313H         LINE#         266
  C:3315H         LINE#         267
  C:331BH         LINE#         268
  C:331BH         LINE#         269
  C:331DH         LINE#         270
  C:331DH         LINE#         271
  C:3328H         LINE#         272
  C:3328H         LINE#         273
  C:3328H         LINE#         274
  C:332BH         LINE#         275
  C:332BH         LINE#         276
  C:332BH         LINE#         277
  C:332EH         LINE#         278
  C:332EH         LINE#         279
  C:332EH         LINE#         280
  C:3331H         LINE#         281
  C:3331H         LINE#         282
  C:3331H         LINE#         283
BL51 BANKED LINKER/LOCATER V6.22                                                      03/06/2019  08:16:57  PAGE 86


  C:3331H         LINE#         284
  C:3331H         LINE#         285
  -------         ENDPROC       _OSTASKSTKDEL
  -------         PROC          OSTICKISR
  C:2DA9H         LINE#         307
  C:2DC8H         LINE#         315
  C:2DDCH         LINE#         325
  C:2DE0H         LINE#         328
  C:2DE3H         LINE#         333
  C:2DE6H         LINE#         334
  -------         ENDPROC       OSTICKISR
  -------         ENDMOD        OS_CPU_C

  -------         MODULE        OS_CPU_A_ASM
  C:35DFH         SEGMENT       ?PR?OSCTXSW?OS_CPU_A
  C:325DH         SEGMENT       ?PR?OSINTCTXSW?OS_CPU_A
  C:322AH         SEGMENT       ?PR?LOADCTX?OS_CPU_A
  C:27A4H         SEGMENT       ?PR?C_OSCTXSW?OS_CPU_A
  C:2B44H         SEGMENT       ?PR?_OSTASKSTKINIT?OS_CPU_A
  I:007FH         SEGMENT       ?STACK
  C:27A4H         PUBLIC        C_OSCTXSW
  C:322AH         PUBLIC        LOADCTX
  C:35DFH         PUBLIC        OSCTXSW
  C:325DH         PUBLIC        OSINTCTXSW
  I:007FH         PUBLIC        STACK
  C:2B44H         PUBLIC        _OSTASKSTKINIT
  C:27F1H         SYMBOL        ?C0001
  C:27C2H         SYMBOL        ?C0002
  C:27C8H         SYMBOL        ?C0003
  C:27E5H         SYMBOL        ?C0004
  C:27EBH         SYMBOL        ?C0005
  C:282AH         SYMBOL        ?C0007
  C:27FBH         SYMBOL        ?C0008
  C:2801H         SYMBOL        ?C0009
  C:282DH         SYMBOL        ?C000R
  C:281FH         SYMBOL        ?C0010
  C:2825H         SYMBOL        ?C0011
  D:00E0H         SYMBOL        ACC
  D:00F0H         SYMBOL        B
  D:0083H         SYMBOL        DPH
  D:0082H         SYMBOL        DPL
  B:00A8H.7       SYMBOL        EA
  C:3233H         SYMBOL        LOADCTX_0
  C:3255H         SYMBOL        LOADCTX_2
  C:325CH         SYMBOL        LOADCTX_3
  C:3272H         SYMBOL        OSINTCTXSW_0
  N:0000H         SYMBOL        OS_CPU_A_ASM
  D:00D0H         SYMBOL        PSW
  D:0081H         SYMBOL        SP
  C:2B7BH         SYMBOL        STKINIT11
  C:2BAFH         SYMBOL        STKINIT12
  C:2B8DH         SYMBOL        STKINIT15
  C:2BA9H         SYMBOL        STKINIT18
  C:2B83H         SYMBOL        STKINIT5
  C:2B5EH         SYMBOL        STKINIT8
  C:2B44H         LINE#         137
  C:2B46H         LINE#         138
BL51 BANKED LINKER/LOCATER V6.22                                                      03/06/2019  08:16:57  PAGE 87


  C:2B48H         LINE#         142
  C:2B49H         LINE#         143
  C:2B4CH         LINE#         144
  C:2B4DH         LINE#         145
  C:2B4FH         LINE#         173
  C:2B50H         LINE#         174
  C:2B51H         LINE#         175
  C:2B53H         LINE#         176
  C:2B55H         LINE#         179
  C:2B56H         LINE#         180
  C:2B58H         LINE#         181
  C:2B59H         LINE#         182
  C:2B5AH         LINE#         184
  C:2B5CH         LINE#         185
  C:2B5DH         LINE#         186
  C:2B5EH         LINE#         191
  C:2B60H         LINE#         192
  C:2B61H         LINE#         193
  C:2B62H         LINE#         195
  C:2B63H         LINE#         197
  C:2B65H         LINE#         200
  C:2B67H         LINE#         203
  C:2B69H         LINE#         204
  C:2B6BH         LINE#         205
  C:2B6DH         LINE#         207
  C:2B6FH         LINE#         208
  C:2B70H         LINE#         209
  C:2B71H         LINE#         210
  C:2B73H         LINE#         211
  C:2B74H         LINE#         212
  C:2B76H         LINE#         213
  C:2B77H         LINE#         214
  C:2B78H         LINE#         215
  C:2B79H         LINE#         217
  C:2B7BH         LINE#         222
  C:2B7CH         LINE#         223
  C:2B7DH         LINE#         224
  C:2B7EH         LINE#         225
  C:2B7FH         LINE#         227
  C:2B81H         LINE#         229
  C:2B83H         LINE#         234
  C:2B85H         LINE#         235
  C:2B87H         LINE#         236
  C:2B88H         LINE#         238
  C:2B89H         LINE#         239
  C:2B8AH         LINE#         240
  C:2B8CH         LINE#         241
  C:2B8DH         LINE#         246
  C:2B8FH         LINE#         247
  C:2B90H         LINE#         248
  C:2B91H         LINE#         250
  C:2B92H         LINE#         252
  C:2B94H         LINE#         255
  C:2B96H         LINE#         256
  C:2B98H         LINE#         257
  C:2B99H         LINE#         258
  C:2B9AH         LINE#         259
BL51 BANKED LINKER/LOCATER V6.22                                                      03/06/2019  08:16:57  PAGE 88


  C:2B9BH         LINE#         261
  C:2B9CH         LINE#         262
  C:2B9EH         LINE#         263
  C:2B9FH         LINE#         265
  C:2BA1H         LINE#         266
  C:2BA2H         LINE#         267
  C:2BA3H         LINE#         268
  C:2BA4H         LINE#         269
  C:2BA5H         LINE#         270
  C:2BA6H         LINE#         271
  C:2BA7H         LINE#         273
  C:2BA9H         LINE#         278
  C:2BAAH         LINE#         279
  C:2BABH         LINE#         280
  C:2BACH         LINE#         281
  C:2BADH         LINE#         283
  C:2BAFH         LINE#         287
  C:2BB1H         LINE#         288
  C:2BB2H         LINE#         289
  C:2BB3H         LINE#         290
  C:2BB4H         LINE#         291
  C:2BB5H         LINE#         293
  C:2BB7H         LINE#         294
  C:2BB8H         LINE#         295
  C:2BB9H         LINE#         297
  C:2BBBH         LINE#         298
  C:2BBCH         LINE#         299
  C:2BBDH         LINE#         309
  C:2BBEH         LINE#         310
  C:2BBFH         LINE#         312
  C:322AH         LINE#         340
  C:322CH         LINE#         348
  C:322EH         LINE#         349
  C:3231H         LINE#         350
  C:3233H         LINE#         352
  C:3236H         LINE#         354
  C:3237H         LINE#         355
  C:3239H         LINE#         367
  C:323BH         LINE#         369
  C:323DH         LINE#         370
  C:323FH         LINE#         371
  C:3241H         LINE#         372
  C:3243H         LINE#         373
  C:3245H         LINE#         374
  C:3247H         LINE#         375
  C:3249H         LINE#         376
  C:324BH         LINE#         377
  C:324DH         LINE#         378
  C:324FH         LINE#         379
  C:3251H         LINE#         380
  C:3253H         LINE#         381
  C:3255H         LINE#         384
  C:3257H         LINE#         385
  C:325AH         LINE#         386
  C:325CH         LINE#         388
  C:35DFH         LINE#         415
  C:35E1H         LINE#         417
BL51 BANKED LINKER/LOCATER V6.22                                                      03/06/2019  08:16:57  PAGE 89


  C:35E4H         LINE#         418
  C:35E6H         LINE#         420
  C:35E7H         LINE#         421
  C:35E9H         LINE#         434
  C:27A4H         LINE#         457
  C:27A6H         LINE#         460
  C:27A8H         LINE#         466
  C:27A9H         LINE#         468
  C:27ABH         LINE#         469
  C:27ADH         LINE#         470
  C:27AEH         LINE#         471
  C:27AFH         LINE#         472
  C:27B0H         LINE#         474
  C:27B2H         LINE#         475
  C:27B4H         LINE#         476
  C:27B5H         LINE#         477
  C:27B6H         LINE#         478
  C:27B7H         LINE#         480
  C:27B9H         LINE#         481
  C:27BAH         LINE#         482
  C:27BCH         LINE#         483
  C:27BEH         LINE#         489
  C:27BFH         LINE#         490
  C:27C0H         LINE#         491
  C:27C1H         LINE#         492
  C:27C2H         LINE#         494
  C:27C3H         LINE#         495
  C:27C4H         LINE#         496
  C:27C5H         LINE#         497
  C:27C6H         LINE#         498
  C:27C8H         LINE#         501
  C:27CAH         LINE#         502
  C:27CCH         LINE#         503
  C:27CDH         LINE#         504
  C:27CEH         LINE#         505
  C:27CFH         LINE#         507
  C:27D0H         LINE#         508
  C:27D1H         LINE#         510
  C:27D2H         LINE#         511
  C:27D4H         LINE#         516
  C:27D6H         LINE#         517
  C:27D7H         LINE#         518
  C:27D9H         LINE#         519
  C:27DAH         LINE#         520
  C:27DCH         LINE#         522
  C:27DEH         LINE#         523
  C:27E0H         LINE#         524
  C:27E1H         LINE#         525
  C:27E2H         LINE#         526
  C:27E3H         LINE#         527
  C:27E4H         LINE#         528
  C:27E5H         LINE#         530
  C:27E6H         LINE#         531
  C:27E7H         LINE#         532
  C:27E8H         LINE#         533
  C:27E9H         LINE#         534
  C:27EBH         LINE#         537
BL51 BANKED LINKER/LOCATER V6.22                                                      03/06/2019  08:16:57  PAGE 90


  C:27EEH         LINE#         539
  C:27F1H         LINE#         544
  C:27F3H         LINE#         545
  C:27F5H         LINE#         546
  C:27F7H         LINE#         558
  C:27F8H         LINE#         559
  C:27F9H         LINE#         560
  C:27FAH         LINE#         561
  C:27FBH         LINE#         563
  C:27FCH         LINE#         564
  C:27FDH         LINE#         565
  C:27FEH         LINE#         566
  C:27FFH         LINE#         567
  C:2801H         LINE#         570
  C:2803H         LINE#         571
  C:2805H         LINE#         572
  C:2806H         LINE#         573
  C:2807H         LINE#         574
  C:2808H         LINE#         576
  C:2809H         LINE#         577
  C:280AH         LINE#         579
  C:280CH         LINE#         580
  C:280EH         LINE#         581
  C:280FH         LINE#         582
  C:2810H         LINE#         583
  C:2812H         LINE#         589
  C:2814H         LINE#         590
  C:2815H         LINE#         591
  C:2817H         LINE#         592
  C:2819H         LINE#         594
  C:281AH         LINE#         595
  C:281CH         LINE#         596
  C:281EH         LINE#         597
  C:281FH         LINE#         599
  C:2820H         LINE#         600
  C:2821H         LINE#         601
  C:2822H         LINE#         602
  C:2823H         LINE#         603
  C:2825H         LINE#         607
  C:2828H         LINE#         609
  C:282AH         LINE#         613
  C:282DH         LINE#         618
  C:325DH         LINE#         642
  C:325FH         LINE#         643
  C:3261H         LINE#         644
  C:3263H         LINE#         647
  C:3265H         LINE#         648
  C:3267H         LINE#         649
  C:3269H         LINE#         651
  C:326BH         LINE#         652
  C:326DH         LINE#         653
  C:326FH         LINE#         654
  C:3271H         LINE#         655
  C:3272H         LINE#         659
  C:3274H         LINE#         660
  C:3276H         LINE#         661
  C:3278H         LINE#         663
BL51 BANKED LINKER/LOCATER V6.22                                                      03/06/2019  08:16:57  PAGE 91


  C:327BH         LINE#         664
  C:327DH         LINE#         666
  C:327EH         LINE#         667
  C:327FH         LINE#         668
  C:3281H         LINE#         689
  C:3283H         LINE#         691
  C:3285H         LINE#         692
  C:3287H         LINE#         693
  C:3289H         LINE#         694
  C:328BH         LINE#         695
  -------         ENDMOD        OS_CPU_A_ASM

  -------         MODULE        ?C?COPY
  C:212CH         PUBLIC        ?C?COPY
  -------         ENDMOD        ?C?COPY

  -------         MODULE        ?C?CLDPTR
  C:2152H         PUBLIC        ?C?CLDPTR
  -------         ENDMOD        ?C?CLDPTR

  -------         MODULE        ?C?CLDOPTR
  C:216BH         PUBLIC        ?C?CLDOPTR
  -------         ENDMOD        ?C?CLDOPTR

  -------         MODULE        ?C?CSTPTR
  C:2198H         PUBLIC        ?C?CSTPTR
  -------         ENDMOD        ?C?CSTPTR

  -------         MODULE        ?C?CSTOPTR
  C:21AAH         PUBLIC        ?C?CSTOPTR
  -------         ENDMOD        ?C?CSTOPTR

  -------         MODULE        ?C?UIDIV
  C:21CCH         PUBLIC        ?C?UIDIV
  -------         ENDMOD        ?C?UIDIV

  -------         MODULE        ?C?CCASE
  C:2221H         PUBLIC        ?C?CCASE
  -------         ENDMOD        ?C?CCASE

  -------         MODULE        ?C?MEMSET
  C:2247H         PUBLIC        ?C?MEMSET
  -------         ENDMOD        ?C?MEMSET

*** WARNING L16: UNCALLED SEGMENT, IGNORED FOR OVERLAY PROCESS
    SEGMENT: ?PR?_UART_SEND?MAIN

*** WARNING L16: UNCALLED SEGMENT, IGNORED FOR OVERLAY PROCESS
    SEGMENT: ?PR?LED0FLASH?SINGLEBUS

*** WARNING L16: UNCALLED SEGMENT, IGNORED FOR OVERLAY PROCESS
    SEGMENT: ?PR?_OSTASKSTKDEL?OS_CPU_C

Program Size: data=127.1 xdata=354 code=13896
LINK/LOCATE RUN COMPLETE.  3 WARNING(S),  0 ERROR(S)
